
/home/bristopherwoods/Desktop/CTFs/MITRE/eCTF-Monorepo_2024/misc_application/component/build/max78000.elf:     file format elf32-littlearm


Disassembly of section .text:

10010000 <__isr_vector>:
10010000:	20020000 	.word	0x20020000
10010004:	10010969 	.word	0x10010969
10010008:	1001079d 	.word	0x1001079d
1001000c:	100109a7 	.word	0x100109a7
10010010:	100109a9 	.word	0x100109a9
10010014:	100109ab 	.word	0x100109ab
10010018:	100109ad 	.word	0x100109ad
	...
1001002c:	100109af 	.word	0x100109af
10010030:	100109b1 	.word	0x100109b1
10010034:	00000000 	.word	0x00000000
10010038:	100109b3 	.word	0x100109b3
1001003c:	100109b5 	.word	0x100109b5
10010040:	100109b9 	.word	0x100109b9
10010044:	100109bb 	.word	0x100109bb
10010048:	100109bd 	.word	0x100109bd
1001004c:	100109bf 	.word	0x100109bf
10010050:	100109c1 	.word	0x100109c1
10010054:	100109c3 	.word	0x100109c3
10010058:	100109c5 	.word	0x100109c5
1001005c:	100109c7 	.word	0x100109c7
10010060:	100109c9 	.word	0x100109c9
10010064:	100109cb 	.word	0x100109cb
10010068:	100109cd 	.word	0x100109cd
1001006c:	100109cf 	.word	0x100109cf
10010070:	100109d1 	.word	0x100109d1
10010074:	100109d3 	.word	0x100109d3
10010078:	100109d5 	.word	0x100109d5
1001007c:	100109d7 	.word	0x100109d7
10010080:	100109d9 	.word	0x100109d9
10010084:	100109db 	.word	0x100109db
10010088:	100109dd 	.word	0x100109dd
1001008c:	100109df 	.word	0x100109df
10010090:	100109e1 	.word	0x100109e1
10010094:	100109e3 	.word	0x100109e3
10010098:	100109e5 	.word	0x100109e5
1001009c:	100109e7 	.word	0x100109e7
100100a0:	10010721 	.word	0x10010721
100100a4:	10010729 	.word	0x10010729
100100a8:	100109ed 	.word	0x100109ed
100100ac:	100109ef 	.word	0x100109ef
100100b0:	100109f1 	.word	0x100109f1
100100b4:	100109f3 	.word	0x100109f3
100100b8:	100109f5 	.word	0x100109f5
100100bc:	100109f7 	.word	0x100109f7
100100c0:	100109f9 	.word	0x100109f9
100100c4:	100109fb 	.word	0x100109fb
100100c8:	100109fd 	.word	0x100109fd
100100cc:	100109ff 	.word	0x100109ff
100100d0:	10010a01 	.word	0x10010a01
100100d4:	10010a03 	.word	0x10010a03
100100d8:	10010a05 	.word	0x10010a05
100100dc:	10010a07 	.word	0x10010a07
100100e0:	10010a09 	.word	0x10010a09
100100e4:	10010a0b 	.word	0x10010a0b
100100e8:	10010a0d 	.word	0x10010a0d
100100ec:	10010a0f 	.word	0x10010a0f
100100f0:	10010a11 	.word	0x10010a11
100100f4:	10010a13 	.word	0x10010a13
100100f8:	10010a15 	.word	0x10010a15
100100fc:	10010a17 	.word	0x10010a17
10010100:	10010a19 	.word	0x10010a19
10010104:	10010a1b 	.word	0x10010a1b
10010108:	10010a1d 	.word	0x10010a1d
1001010c:	10010a1f 	.word	0x10010a1f
10010110:	10010a21 	.word	0x10010a21
10010114:	10010a23 	.word	0x10010a23
10010118:	10010a25 	.word	0x10010a25
1001011c:	10010a27 	.word	0x10010a27
10010120:	10010a29 	.word	0x10010a29
10010124:	10010a2b 	.word	0x10010a2b
10010128:	10010a2d 	.word	0x10010a2d
1001012c:	10010a2f 	.word	0x10010a2f
10010130:	10010a31 	.word	0x10010a31
10010134:	10010a33 	.word	0x10010a33
10010138:	10010a35 	.word	0x10010a35
1001013c:	10010a37 	.word	0x10010a37
10010140:	10010a39 	.word	0x10010a39
10010144:	10010a3b 	.word	0x10010a3b
10010148:	10010a3d 	.word	0x10010a3d
1001014c:	10010a3f 	.word	0x10010a3f
10010150:	10010a41 	.word	0x10010a41
10010154:	10010a43 	.word	0x10010a43
10010158:	10010a45 	.word	0x10010a45
1001015c:	10010a47 	.word	0x10010a47
10010160:	10010a49 	.word	0x10010a49
10010164:	10010a4b 	.word	0x10010a4b
10010168:	10010a4d 	.word	0x10010a4d
1001016c:	10010a4f 	.word	0x10010a4f
10010170:	10010a51 	.word	0x10010a51
10010174:	10010a53 	.word	0x10010a53
10010178:	10010a55 	.word	0x10010a55
1001017c:	10010a57 	.word	0x10010a57
10010180:	10010a59 	.word	0x10010a59
10010184:	10010a5b 	.word	0x10010a5b
10010188:	10010a5d 	.word	0x10010a5d
1001018c:	10010a5f 	.word	0x10010a5f
10010190:	10010a61 	.word	0x10010a61
10010194:	10010a63 	.word	0x10010a63
10010198:	10010a65 	.word	0x10010a65
1001019c:	10010a67 	.word	0x10010a67
100101a0:	10010a69 	.word	0x10010a69
100101a4:	10010a6b 	.word	0x10010a6b
100101a8:	10010a6d 	.word	0x10010a6d
100101ac:	10010a6f 	.word	0x10010a6f
100101b0:	10010a71 	.word	0x10010a71
100101b4:	10010a73 	.word	0x10010a73
100101b8:	10010a75 	.word	0x10010a75
100101bc:	10010a77 	.word	0x10010a77
100101c0:	10010a79 	.word	0x10010a79
100101c4:	10010a7b 	.word	0x10010a7b
100101c8:	10010a7d 	.word	0x10010a7d
100101cc:	10010a7f 	.word	0x10010a7f
100101d0:	10010a81 	.word	0x10010a81
100101d4:	10010a83 	.word	0x10010a83
100101d8:	10010a85 	.word	0x10010a85
100101dc:	10010a87 	.word	0x10010a87
	...

10010200 <firmware_startup>:
10010200:	4800      	ldr	r0, [pc, #0]	@ (10010204 <firmware_startup+0x4>)
10010202:	4780      	blx	r0
10010204:	10010969 	.word	0x10010969

10010208 <deregister_tm_clones>:
10010208:	4803      	ldr	r0, [pc, #12]	@ (10010218 <deregister_tm_clones+0x10>)
1001020a:	4b04      	ldr	r3, [pc, #16]	@ (1001021c <deregister_tm_clones+0x14>)
1001020c:	4283      	cmp	r3, r0
1001020e:	d002      	beq.n	10010216 <deregister_tm_clones+0xe>
10010210:	4b03      	ldr	r3, [pc, #12]	@ (10010220 <deregister_tm_clones+0x18>)
10010212:	b103      	cbz	r3, 10010216 <deregister_tm_clones+0xe>
10010214:	4718      	bx	r3
10010216:	4770      	bx	lr
10010218:	200006f8 	.word	0x200006f8
1001021c:	200006f8 	.word	0x200006f8
10010220:	00000000 	.word	0x00000000

10010224 <register_tm_clones>:
10010224:	4805      	ldr	r0, [pc, #20]	@ (1001023c <register_tm_clones+0x18>)
10010226:	4b06      	ldr	r3, [pc, #24]	@ (10010240 <register_tm_clones+0x1c>)
10010228:	1a1b      	subs	r3, r3, r0
1001022a:	0fd9      	lsrs	r1, r3, #31
1001022c:	eb01 01a3 	add.w	r1, r1, r3, asr #2
10010230:	1049      	asrs	r1, r1, #1
10010232:	d002      	beq.n	1001023a <register_tm_clones+0x16>
10010234:	4b03      	ldr	r3, [pc, #12]	@ (10010244 <register_tm_clones+0x20>)
10010236:	b103      	cbz	r3, 1001023a <register_tm_clones+0x16>
10010238:	4718      	bx	r3
1001023a:	4770      	bx	lr
1001023c:	200006f8 	.word	0x200006f8
10010240:	200006f8 	.word	0x200006f8
10010244:	00000000 	.word	0x00000000

10010248 <__do_global_dtors_aux>:
10010248:	b510      	push	{r4, lr}
1001024a:	4c06      	ldr	r4, [pc, #24]	@ (10010264 <__do_global_dtors_aux+0x1c>)
1001024c:	7823      	ldrb	r3, [r4, #0]
1001024e:	b943      	cbnz	r3, 10010262 <__do_global_dtors_aux+0x1a>
10010250:	f7ff ffda 	bl	10010208 <deregister_tm_clones>
10010254:	4b04      	ldr	r3, [pc, #16]	@ (10010268 <__do_global_dtors_aux+0x20>)
10010256:	b113      	cbz	r3, 1001025e <__do_global_dtors_aux+0x16>
10010258:	4804      	ldr	r0, [pc, #16]	@ (1001026c <__do_global_dtors_aux+0x24>)
1001025a:	f3af 8000 	nop.w
1001025e:	2301      	movs	r3, #1
10010260:	7023      	strb	r3, [r4, #0]
10010262:	bd10      	pop	{r4, pc}
10010264:	20000800 	.word	0x20000800
10010268:	00000000 	.word	0x00000000
1001026c:	1001b510 	.word	0x1001b510

10010270 <frame_dummy>:
10010270:	b508      	push	{r3, lr}
10010272:	4b05      	ldr	r3, [pc, #20]	@ (10010288 <frame_dummy+0x18>)
10010274:	b11b      	cbz	r3, 1001027e <frame_dummy+0xe>
10010276:	4905      	ldr	r1, [pc, #20]	@ (1001028c <frame_dummy+0x1c>)
10010278:	4805      	ldr	r0, [pc, #20]	@ (10010290 <frame_dummy+0x20>)
1001027a:	f3af 8000 	nop.w
1001027e:	e8bd 4008 	ldmia.w	sp!, {r3, lr}
10010282:	f7ff bfcf 	b.w	10010224 <register_tm_clones>
10010286:	bf00      	nop
10010288:	00000000 	.word	0x00000000
1001028c:	20000804 	.word	0x20000804
10010290:	1001b510 	.word	0x1001b510

10010294 <board_link_init>:
 * @return int: negative if error, zero if successful
 *
 * Initialized the underlying i2c_simple interface
*/
int board_link_init(i2c_addr_t addr) {
    return i2c_simple_peripheral_init(addr);
10010294:	f000 b9f6 	b.w	10010684 <i2c_simple_peripheral_init>

10010298 <component_id_to_i2c_addr>:
 * 
 * @return i2c_addr_t, i2c address
*/
i2c_addr_t component_id_to_i2c_addr(uint32_t component_id) {
    return (uint8_t) component_id & COMPONENT_ADDR_MASK;
}
10010298:	b2c0      	uxtb	r0, r0
1001029a:	4770      	bx	lr

1001029c <send_packet_and_ack>:
 * @param message: uint8_t*, message to be sent
 * 
 * This function utilizes the simple_i2c_peripheral library to
 * send a packet to the AP and wait for the message to be received
*/
void send_packet_and_ack(uint8_t len, uint8_t* packet) {
1001029c:	b510      	push	{r4, lr}
    I2C_REGS[TRANSMIT_LEN][0] = len;
1001029e:	4c09      	ldr	r4, [pc, #36]	@ (100102c4 <send_packet_and_ack+0x28>)
100102a0:	6963      	ldr	r3, [r4, #20]
100102a2:	7018      	strb	r0, [r3, #0]
void send_packet_and_ack(uint8_t len, uint8_t* packet) {
100102a4:	4602      	mov	r2, r0
    memcpy((void*)I2C_REGS[TRANSMIT], (void*)packet, len);
100102a6:	68e0      	ldr	r0, [r4, #12]
100102a8:	f005 f8ea 	bl	10015480 <memcpy>
    I2C_REGS[TRANSMIT_DONE][0] = false;
100102ac:	6923      	ldr	r3, [r4, #16]
100102ae:	2200      	movs	r2, #0
100102b0:	701a      	strb	r2, [r3, #0]

    // Wait for ack from AP
    while(!I2C_REGS[TRANSMIT_DONE][0]);
100102b2:	6922      	ldr	r2, [r4, #16]
100102b4:	7813      	ldrb	r3, [r2, #0]
100102b6:	2b00      	cmp	r3, #0
100102b8:	d0fc      	beq.n	100102b4 <send_packet_and_ack+0x18>
    I2C_REGS[RECEIVE_DONE][0] = false;
100102ba:	6863      	ldr	r3, [r4, #4]
100102bc:	2200      	movs	r2, #0
100102be:	701a      	strb	r2, [r3, #0]
}
100102c0:	bd10      	pop	{r4, pc}
100102c2:	bf00      	nop
100102c4:	20000018 	.word	0x20000018

100102c8 <wait_and_receive_packet>:
 * @param packet: uint8_t*, message received
 * 
 * This function waits for a new message to be available from the AP,
 * once the message is available it is returned in the buffer pointer to by packet 
*/
uint8_t wait_and_receive_packet(uint8_t* packet) {
100102c8:	b510      	push	{r4, lr}
    while(!I2C_REGS[RECEIVE_DONE][0]);
100102ca:	4907      	ldr	r1, [pc, #28]	@ (100102e8 <wait_and_receive_packet+0x20>)
100102cc:	684a      	ldr	r2, [r1, #4]
100102ce:	7813      	ldrb	r3, [r2, #0]
100102d0:	2b00      	cmp	r3, #0
100102d2:	d0fc      	beq.n	100102ce <wait_and_receive_packet+0x6>

    uint8_t len = I2C_REGS[RECEIVE_LEN][0];
100102d4:	688b      	ldr	r3, [r1, #8]
    memcpy(packet, (void*)I2C_REGS[RECEIVE], len);
100102d6:	6809      	ldr	r1, [r1, #0]
    uint8_t len = I2C_REGS[RECEIVE_LEN][0];
100102d8:	781c      	ldrb	r4, [r3, #0]
100102da:	b2e4      	uxtb	r4, r4
    memcpy(packet, (void*)I2C_REGS[RECEIVE], len);
100102dc:	4622      	mov	r2, r4
100102de:	f005 f8cf 	bl	10015480 <memcpy>

    return len;
}
100102e2:	4620      	mov	r0, r4
100102e4:	bd10      	pop	{r4, pc}
100102e6:	bf00      	nop
100102e8:	20000018 	.word	0x20000018

100102ec <boot>:

/******************************* FUNCTION DEFINITIONS *********************************/

// Example boot sequence
// Your design does not need to change this
void boot() {
100102ec:	b508      	push	{r3, lr}
    #ifdef POST_BOOT
        POST_BOOT
    #else
    // Anything after this macro can be changed by your design
    // but will not be run on provisioned systems
    LED_Off(LED1);
100102ee:	2000      	movs	r0, #0
100102f0:	f000 fafe 	bl	100108f0 <LED_Off>
    LED_Off(LED2);
100102f4:	2001      	movs	r0, #1
100102f6:	f000 fafb 	bl	100108f0 <LED_Off>
    LED_Off(LED3);
100102fa:	2002      	movs	r0, #2
100102fc:	f000 faf8 	bl	100108f0 <LED_Off>
    // LED loop to show that boot occurred
    while (1) {
        LED_On(LED1);
        MXC_Delay(500000);
10010300:	4c12      	ldr	r4, [pc, #72]	@ (1001034c <boot+0x60>)
        LED_On(LED1);
10010302:	2000      	movs	r0, #0
10010304:	f000 fad4 	bl	100108b0 <LED_On>
        MXC_Delay(500000);
10010308:	4620      	mov	r0, r4
1001030a:	f000 fcef 	bl	10010cec <MXC_Delay>
        LED_On(LED2);
1001030e:	2001      	movs	r0, #1
10010310:	f000 face 	bl	100108b0 <LED_On>
        MXC_Delay(500000);
10010314:	4620      	mov	r0, r4
10010316:	f000 fce9 	bl	10010cec <MXC_Delay>
        LED_On(LED3);
1001031a:	2002      	movs	r0, #2
1001031c:	f000 fac8 	bl	100108b0 <LED_On>
        MXC_Delay(500000);
10010320:	4620      	mov	r0, r4
10010322:	f000 fce3 	bl	10010cec <MXC_Delay>
        LED_Off(LED1);
10010326:	2000      	movs	r0, #0
10010328:	f000 fae2 	bl	100108f0 <LED_Off>
        MXC_Delay(500000);
1001032c:	4620      	mov	r0, r4
1001032e:	f000 fcdd 	bl	10010cec <MXC_Delay>
        LED_Off(LED2);
10010332:	2001      	movs	r0, #1
10010334:	f000 fadc 	bl	100108f0 <LED_Off>
        MXC_Delay(500000);
10010338:	4620      	mov	r0, r4
1001033a:	f000 fcd7 	bl	10010cec <MXC_Delay>
        LED_Off(LED3);
1001033e:	2002      	movs	r0, #2
10010340:	f000 fad6 	bl	100108f0 <LED_Off>
        MXC_Delay(500000);
10010344:	4620      	mov	r0, r4
10010346:	f000 fcd1 	bl	10010cec <MXC_Delay>
    while (1) {
1001034a:	e7da      	b.n	10010302 <boot+0x16>
1001034c:	0007a120 	.word	0x0007a120

10010350 <process_boot>:
        printf("Error: Unrecognized command received %d\n", command->opcode);
        break;
    }
}

void process_boot() {
10010350:	b538      	push	{r3, r4, r5, lr}
    // The AP requested a boot. Set `component_boot` for the main loop and
    // respond with the boot message
    uint8_t len = strlen(COMPONENT_BOOT_MSG) + 1;
    memcpy((void*)transmit_buffer, COMPONENT_BOOT_MSG, len);
10010352:	4c08      	ldr	r4, [pc, #32]	@ (10010374 <process_boot+0x24>)
10010354:	4d08      	ldr	r5, [pc, #32]	@ (10010378 <process_boot+0x28>)
10010356:	cc0f      	ldmia	r4!, {r0, r1, r2, r3}
10010358:	46ac      	mov	ip, r5
1001035a:	e8ac 000f 	stmia.w	ip!, {r0, r1, r2, r3}
1001035e:	e894 0003 	ldmia.w	r4, {r0, r1}
10010362:	e88c 0003 	stmia.w	ip, {r0, r1}
    send_packet_and_ack(len, transmit_buffer);
10010366:	4629      	mov	r1, r5
10010368:	2018      	movs	r0, #24
1001036a:	f7ff ff97 	bl	1001029c <send_packet_and_ack>
    // Call the boot function
    boot();
1001036e:	f7ff ffbd 	bl	100102ec <boot>
10010372:	bf00      	nop
10010374:	1001ae60 	.word	0x1001ae60
10010378:	2000081c 	.word	0x2000081c

1001037c <component_process_cmd>:
void component_process_cmd() {
1001037c:	b510      	push	{r4, lr}
    switch (command->opcode) {
1001037e:	4b15      	ldr	r3, [pc, #84]	@ (100103d4 <component_process_cmd+0x58>)
10010380:	7819      	ldrb	r1, [r3, #0]
10010382:	1e4b      	subs	r3, r1, #1
void component_process_cmd() {
10010384:	b082      	sub	sp, #8
    switch (command->opcode) {
10010386:	2b03      	cmp	r3, #3
10010388:	d81e      	bhi.n	100103c8 <component_process_cmd+0x4c>
1001038a:	e8df f003 	tbb	[pc, r3]
1001038e:	0202      	.short	0x0202
10010390:	0c1b      	.short	0x0c1b
}

void process_validate() {
    // The AP requested a validation. Respond with the Component ID
    validate_message* packet = (validate_message*) transmit_buffer;
    packet->component_id = COMPONENT_ID;
10010392:	4911      	ldr	r1, [pc, #68]	@ (100103d8 <component_process_cmd+0x5c>)
10010394:	f04f 3311 	mov.w	r3, #286331153	@ 0x11111111
    send_packet_and_ack(sizeof(validate_message), transmit_buffer);
10010398:	2004      	movs	r0, #4
    packet->component_id = COMPONENT_ID;
1001039a:	600b      	str	r3, [r1, #0]
}
1001039c:	b002      	add	sp, #8
1001039e:	e8bd 4010 	ldmia.w	sp!, {r4, lr}

void process_attest() {
    // The AP requested attestation. Respond with the attestation data
    uint8_t len = sprintf((char*)transmit_buffer, "LOC>%s\nDATE>%s\nCUST>%s\n",
                ATTESTATION_LOC, ATTESTATION_DATE, ATTESTATION_CUSTOMER) + 1;
    send_packet_and_ack(len, transmit_buffer);
100103a2:	f7ff bf7b 	b.w	1001029c <send_packet_and_ack>
    uint8_t len = sprintf((char*)transmit_buffer, "LOC>%s\nDATE>%s\nCUST>%s\n",
100103a6:	4c0d      	ldr	r4, [pc, #52]	@ (100103dc <component_process_cmd+0x60>)
100103a8:	490d      	ldr	r1, [pc, #52]	@ (100103e0 <component_process_cmd+0x64>)
100103aa:	4b0e      	ldr	r3, [pc, #56]	@ (100103e4 <component_process_cmd+0x68>)
100103ac:	4a0e      	ldr	r2, [pc, #56]	@ (100103e8 <component_process_cmd+0x6c>)
100103ae:	9400      	str	r4, [sp, #0]
100103b0:	4809      	ldr	r0, [pc, #36]	@ (100103d8 <component_process_cmd+0x5c>)
100103b2:	f001 fd79 	bl	10011ea8 <sprintf>
    send_packet_and_ack(len, transmit_buffer);
100103b6:	4908      	ldr	r1, [pc, #32]	@ (100103d8 <component_process_cmd+0x5c>)
100103b8:	2026      	movs	r0, #38	@ 0x26
}
100103ba:	b002      	add	sp, #8
100103bc:	e8bd 4010 	ldmia.w	sp!, {r4, lr}
    send_packet_and_ack(len, transmit_buffer);
100103c0:	f7ff bf6c 	b.w	1001029c <send_packet_and_ack>
        process_boot();
100103c4:	f7ff ffc4 	bl	10010350 <process_boot>
        printf("Error: Unrecognized command received %d\n", command->opcode);
100103c8:	4808      	ldr	r0, [pc, #32]	@ (100103ec <component_process_cmd+0x70>)
}
100103ca:	b002      	add	sp, #8
100103cc:	e8bd 4010 	ldmia.w	sp!, {r4, lr}
        printf("Error: Unrecognized command received %d\n", command->opcode);
100103d0:	f003 befa 	b.w	100141c8 <printf>
100103d4:	2000091c 	.word	0x2000091c
100103d8:	2000081c 	.word	0x2000081c
100103dc:	1001aea4 	.word	0x1001aea4
100103e0:	1001ae8c 	.word	0x1001ae8c
100103e4:	1001ae78 	.word	0x1001ae78
100103e8:	1001ae80 	.word	0x1001ae80
100103ec:	1001aeb0 	.word	0x1001aeb0

100103f0 <main>:
}

/*********************************** MAIN *************************************/

int main(void) {
100103f0:	b510      	push	{r4, lr}
    printf("Component Started\n");
100103f2:	480a      	ldr	r0, [pc, #40]	@ (1001041c <main+0x2c>)
100103f4:	f003 ff48 	bl	10014288 <puts>
  \details Enables IRQ interrupts by clearing special-purpose register PRIMASK.
           Can only be executed in Privileged modes.
 */
__STATIC_FORCEINLINE void __enable_irq(void)
{
  __ASM volatile ("cpsie i" : : : "memory");
100103f8:	b662      	cpsie	i
    
    // Enable Global Interrupts
    __enable_irq();
    
    // Initialize Component
    i2c_addr_t addr = component_id_to_i2c_addr(COMPONENT_ID);
100103fa:	f04f 3011 	mov.w	r0, #286331153	@ 0x11111111
100103fe:	f7ff ff4b 	bl	10010298 <component_id_to_i2c_addr>
    board_link_init(addr);
10010402:	f7ff ff47 	bl	10010294 <board_link_init>
    
    LED_On(LED2);
10010406:	2001      	movs	r0, #1
10010408:	f000 fa52 	bl	100108b0 <LED_On>

    while (1) {
        wait_and_receive_packet(receive_buffer);
1001040c:	4c04      	ldr	r4, [pc, #16]	@ (10010420 <main+0x30>)
1001040e:	4620      	mov	r0, r4
10010410:	f7ff ff5a 	bl	100102c8 <wait_and_receive_packet>

        component_process_cmd();
10010414:	f7ff ffb2 	bl	1001037c <component_process_cmd>
    while (1) {
10010418:	e7f9      	b.n	1001040e <main+0x1e>
1001041a:	bf00      	nop
1001041c:	1001aedc 	.word	0x1001aedc
10010420:	2000091c 	.word	0x2000091c

10010424 <i2c_simple_isr>:
    static int READ_INDEX = 0;
    static int WRITE_INDEX = 0;
    static ECTF_I2C_REGS ACTIVE_REG = RECEIVE;

    // Read interrupt flags
    uint32_t Flags = I2C_INTERFACE->intfl0;
10010424:	4890      	ldr	r0, [pc, #576]	@ (10010668 <i2c_simple_isr+0x244>)
void i2c_simple_isr (void) {
10010426:	b5f8      	push	{r3, r4, r5, r6, r7, lr}
    uint32_t Flags = I2C_INTERFACE->intfl0;
10010428:	6884      	ldr	r4, [r0, #8]
    
    // Transaction over interrupt
    if (Flags & MXC_F_I2C_INTFL0_STOP) {
1001042a:	0663      	lsls	r3, r4, #25
1001042c:	d549      	bpl.n	100104c2 <i2c_simple_isr+0x9e>
        
        // Ready any remaining data
        if (WRITE_START == true) {
1001042e:	4e8f      	ldr	r6, [pc, #572]	@ (1001066c <i2c_simple_isr+0x248>)
10010430:	7833      	ldrb	r3, [r6, #0]
10010432:	2b00      	cmp	r3, #0
10010434:	f040 80cb 	bne.w	100105ce <i2c_simple_isr+0x1aa>
            MXC_I2C_ReadRXFIFO(I2C_INTERFACE, (volatile unsigned char*) &ACTIVE_REG, 1);
            WRITE_START = false;
        }
        if (ACTIVE_REG <= MAX_REG) {
10010438:	4d8d      	ldr	r5, [pc, #564]	@ (10010670 <i2c_simple_isr+0x24c>)
            int available = MXC_I2C_GetRXFIFOAvailable(I2C_INTERFACE);
1001043a:	488b      	ldr	r0, [pc, #556]	@ (10010668 <i2c_simple_isr+0x244>)
        if (ACTIVE_REG <= MAX_REG) {
1001043c:	782b      	ldrb	r3, [r5, #0]
1001043e:	2b05      	cmp	r3, #5
10010440:	d81b      	bhi.n	1001047a <i2c_simple_isr+0x56>
            int available = MXC_I2C_GetRXFIFOAvailable(I2C_INTERFACE);
10010442:	f000 ffd3 	bl	100113ec <MXC_I2C_GetRXFIFOAvailable>
            if (available < (I2C_REGS_LEN[ACTIVE_REG]-WRITE_INDEX)) {
10010446:	7829      	ldrb	r1, [r5, #0]
10010448:	4b8a      	ldr	r3, [pc, #552]	@ (10010674 <i2c_simple_isr+0x250>)
1001044a:	4d8b      	ldr	r5, [pc, #556]	@ (10010678 <i2c_simple_isr+0x254>)
1001044c:	f853 2021 	ldr.w	r2, [r3, r1, lsl #2]
10010450:	682b      	ldr	r3, [r5, #0]
10010452:	1ad2      	subs	r2, r2, r3
10010454:	4282      	cmp	r2, r0
10010456:	f340 80da 	ble.w	1001060e <i2c_simple_isr+0x1ea>
                WRITE_INDEX += MXC_I2C_ReadRXFIFO(I2C_INTERFACE,
                    &I2C_REGS[ACTIVE_REG][WRITE_INDEX],
1001045a:	4a88      	ldr	r2, [pc, #544]	@ (1001067c <i2c_simple_isr+0x258>)
                    MXC_I2C_GetRXFIFOAvailable(I2C_INTERFACE));
1001045c:	4882      	ldr	r0, [pc, #520]	@ (10010668 <i2c_simple_isr+0x244>)
                    &I2C_REGS[ACTIVE_REG][WRITE_INDEX],
1001045e:	f852 7021 	ldr.w	r7, [r2, r1, lsl #2]
10010462:	441f      	add	r7, r3
                    MXC_I2C_GetRXFIFOAvailable(I2C_INTERFACE));
10010464:	f000 ffc2 	bl	100113ec <MXC_I2C_GetRXFIFOAvailable>
                WRITE_INDEX += MXC_I2C_ReadRXFIFO(I2C_INTERFACE,
10010468:	4639      	mov	r1, r7
                    MXC_I2C_GetRXFIFOAvailable(I2C_INTERFACE));
1001046a:	4602      	mov	r2, r0
            }
            else {
                WRITE_INDEX += MXC_I2C_ReadRXFIFO(I2C_INTERFACE,
1001046c:	487e      	ldr	r0, [pc, #504]	@ (10010668 <i2c_simple_isr+0x244>)
1001046e:	f000 ffbb 	bl	100113e8 <MXC_I2C_ReadRXFIFO>
10010472:	682b      	ldr	r3, [r5, #0]
10010474:	4403      	add	r3, r0
10010476:	602b      	str	r3, [r5, #0]
10010478:	e002      	b.n	10010480 <i2c_simple_isr+0x5c>
                    &I2C_REGS[ACTIVE_REG][WRITE_INDEX],
                    I2C_REGS_LEN[ACTIVE_REG]-WRITE_INDEX);
            }
        } else {
            MXC_I2C_ClearRXFIFO(I2C_INTERFACE);
1001047a:	f000 ffbd 	bl	100113f8 <MXC_I2C_ClearRXFIFO>
1001047e:	4d7e      	ldr	r5, [pc, #504]	@ (10010678 <i2c_simple_isr+0x254>)
        }

        // Disable bulk send/receive interrupts
        MXC_I2C_DisableInt(I2C_INTERFACE, MXC_F_I2C_INTEN0_RX_THD, 0);
10010480:	4879      	ldr	r0, [pc, #484]	@ (10010668 <i2c_simple_isr+0x244>)
10010482:	2200      	movs	r2, #0
10010484:	2110      	movs	r1, #16
10010486:	f000 ffbf 	bl	10011408 <MXC_I2C_DisableInt>
        MXC_I2C_DisableInt(I2C_INTERFACE, MXC_F_I2C_INTEN0_TX_THD, 0);
1001048a:	4877      	ldr	r0, [pc, #476]	@ (10010668 <i2c_simple_isr+0x244>)
1001048c:	2200      	movs	r2, #0
1001048e:	2120      	movs	r1, #32
10010490:	f000 ffba 	bl	10011408 <MXC_I2C_DisableInt>

        // Clear FIFOs if full
        if (MXC_I2C_GetRXFIFOAvailable(I2C_INTERFACE) != 0) {
10010494:	4874      	ldr	r0, [pc, #464]	@ (10010668 <i2c_simple_isr+0x244>)
10010496:	f000 ffa9 	bl	100113ec <MXC_I2C_GetRXFIFOAvailable>
1001049a:	2800      	cmp	r0, #0
1001049c:	f040 80df 	bne.w	1001065e <i2c_simple_isr+0x23a>
            MXC_I2C_ClearRXFIFO(I2C_INTERFACE);
        }
        if (MXC_I2C_GetTXFIFOAvailable(I2C_INTERFACE) != 8) {
100104a0:	4871      	ldr	r0, [pc, #452]	@ (10010668 <i2c_simple_isr+0x244>)
100104a2:	f000 ffa7 	bl	100113f4 <MXC_I2C_GetTXFIFOAvailable>
100104a6:	2808      	cmp	r0, #8
100104a8:	d002      	beq.n	100104b0 <i2c_simple_isr+0x8c>
            MXC_I2C_ClearTXFIFO(I2C_INTERFACE);
100104aa:	486f      	ldr	r0, [pc, #444]	@ (10010668 <i2c_simple_isr+0x244>)
100104ac:	f000 ffa6 	bl	100113fc <MXC_I2C_ClearTXFIFO>
        }

        // Reset state
        READ_INDEX = 0;
100104b0:	4b73      	ldr	r3, [pc, #460]	@ (10010680 <i2c_simple_isr+0x25c>)
        WRITE_INDEX = 0;
        WRITE_START = false;

        // Clear ISR flag
        MXC_I2C_ClearFlags(I2C_INTERFACE, MXC_F_I2C_INTFL0_STOP, 0);
100104b2:	486d      	ldr	r0, [pc, #436]	@ (10010668 <i2c_simple_isr+0x244>)
        READ_INDEX = 0;
100104b4:	2200      	movs	r2, #0
        MXC_I2C_ClearFlags(I2C_INTERFACE, MXC_F_I2C_INTFL0_STOP, 0);
100104b6:	2140      	movs	r1, #64	@ 0x40
        WRITE_INDEX = 0;
100104b8:	602a      	str	r2, [r5, #0]
        READ_INDEX = 0;
100104ba:	601a      	str	r2, [r3, #0]
        WRITE_START = false;
100104bc:	7032      	strb	r2, [r6, #0]
        MXC_I2C_ClearFlags(I2C_INTERFACE, MXC_F_I2C_INTFL0_STOP, 0);
100104be:	f000 ff9f 	bl	10011400 <MXC_I2C_ClearFlags>
    }

    // TX Fifo Threshold Met on Read
    if (Flags & MXC_F_I2C_INTEN0_TX_THD && (I2C_INTERFACE->inten0 & MXC_F_I2C_INTEN0_TX_THD)) {
100104c2:	06a7      	lsls	r7, r4, #26
100104c4:	d503      	bpl.n	100104ce <i2c_simple_isr+0xaa>
100104c6:	4868      	ldr	r0, [pc, #416]	@ (10010668 <i2c_simple_isr+0x244>)
100104c8:	68c3      	ldr	r3, [r0, #12]
100104ca:	069e      	lsls	r6, r3, #26
100104cc:	d433      	bmi.n	10010536 <i2c_simple_isr+0x112>
        // Clear ISR flag
        MXC_I2C_ClearFlags(I2C_INTERFACE, MXC_F_I2C_INTFL0_TX_THD, 0);
    }

    // Read from Peripheral from Controller Match
    if (Flags & MXC_F_I2C_INTFL0_WR_ADDR_MATCH) {
100104ce:	0220      	lsls	r0, r4, #8
100104d0:	d43f      	bmi.n	10010552 <i2c_simple_isr+0x12e>
            }
        }
    }

    // Write to Peripheral from Controller Match
    if (Flags & MXC_F_I2C_INTFL0_RD_ADDR_MATCH) {
100104d2:	0262      	lsls	r2, r4, #9
100104d4:	d46c      	bmi.n	100105b0 <i2c_simple_isr+0x18c>
        // Clear flag
        MXC_I2C_ClearFlags(I2C_INTERFACE, MXC_F_I2C_INTFL0_RD_ADDR_MATCH, 0);
    }

    // RX Fifo Threshold Met on Write
    if (Flags & MXC_F_I2C_INTEN0_RX_THD) {
100104d6:	06e3      	lsls	r3, r4, #27
100104d8:	d511      	bpl.n	100104fe <i2c_simple_isr+0xda>
        // We always write a register before writing data so select register
        if (WRITE_START == true) {
100104da:	4c64      	ldr	r4, [pc, #400]	@ (1001066c <i2c_simple_isr+0x248>)
100104dc:	7823      	ldrb	r3, [r4, #0]
100104de:	2b00      	cmp	r3, #0
100104e0:	d17c      	bne.n	100105dc <i2c_simple_isr+0x1b8>
            MXC_I2C_ReadRXFIFO(I2C_INTERFACE, (volatile unsigned char*) &ACTIVE_REG, 1);
            WRITE_START = false;
        }
        // Read remaining data
        if (ACTIVE_REG <= MAX_REG) {
100104e2:	4c63      	ldr	r4, [pc, #396]	@ (10010670 <i2c_simple_isr+0x24c>)
            int available = MXC_I2C_GetRXFIFOAvailable(I2C_INTERFACE);
100104e4:	4860      	ldr	r0, [pc, #384]	@ (10010668 <i2c_simple_isr+0x244>)
        if (ACTIVE_REG <= MAX_REG) {
100104e6:	7823      	ldrb	r3, [r4, #0]
100104e8:	2b05      	cmp	r3, #5
100104ea:	d909      	bls.n	10010500 <i2c_simple_isr+0xdc>
                    &I2C_REGS[ACTIVE_REG][WRITE_INDEX],
                    I2C_REGS_LEN[ACTIVE_REG]-WRITE_INDEX);
            }
        // Clear out FIFO if invalid register specified
        } else {
            MXC_I2C_ClearRXFIFO(I2C_INTERFACE);
100104ec:	f000 ff84 	bl	100113f8 <MXC_I2C_ClearRXFIFO>
        }

        // Clear ISR flag
        MXC_I2C_ClearFlags(I2C_INTERFACE, MXC_F_I2C_INTFL0_RX_THD, 0);
    }
}
100104f0:	e8bd 40f8 	ldmia.w	sp!, {r3, r4, r5, r6, r7, lr}
        MXC_I2C_ClearFlags(I2C_INTERFACE, MXC_F_I2C_INTFL0_RX_THD, 0);
100104f4:	485c      	ldr	r0, [pc, #368]	@ (10010668 <i2c_simple_isr+0x244>)
100104f6:	2200      	movs	r2, #0
100104f8:	2110      	movs	r1, #16
100104fa:	f000 bf81 	b.w	10011400 <MXC_I2C_ClearFlags>
}
100104fe:	bdf8      	pop	{r3, r4, r5, r6, r7, pc}
            int available = MXC_I2C_GetRXFIFOAvailable(I2C_INTERFACE);
10010500:	f000 ff74 	bl	100113ec <MXC_I2C_GetRXFIFOAvailable>
            if (available < (I2C_REGS_LEN[ACTIVE_REG]-WRITE_INDEX)) {
10010504:	7821      	ldrb	r1, [r4, #0]
10010506:	4a5b      	ldr	r2, [pc, #364]	@ (10010674 <i2c_simple_isr+0x250>)
10010508:	4c5b      	ldr	r4, [pc, #364]	@ (10010678 <i2c_simple_isr+0x254>)
1001050a:	f852 2021 	ldr.w	r2, [r2, r1, lsl #2]
1001050e:	6823      	ldr	r3, [r4, #0]
10010510:	1ad2      	subs	r2, r2, r3
10010512:	4282      	cmp	r2, r0
10010514:	dd70      	ble.n	100105f8 <i2c_simple_isr+0x1d4>
                    &I2C_REGS[ACTIVE_REG][WRITE_INDEX],
10010516:	4a59      	ldr	r2, [pc, #356]	@ (1001067c <i2c_simple_isr+0x258>)
                    MXC_I2C_GetRXFIFOAvailable(I2C_INTERFACE));
10010518:	4853      	ldr	r0, [pc, #332]	@ (10010668 <i2c_simple_isr+0x244>)
                    &I2C_REGS[ACTIVE_REG][WRITE_INDEX],
1001051a:	f852 5021 	ldr.w	r5, [r2, r1, lsl #2]
1001051e:	441d      	add	r5, r3
                    MXC_I2C_GetRXFIFOAvailable(I2C_INTERFACE));
10010520:	f000 ff64 	bl	100113ec <MXC_I2C_GetRXFIFOAvailable>
                WRITE_INDEX += MXC_I2C_ReadRXFIFO(I2C_INTERFACE,
10010524:	4629      	mov	r1, r5
                    MXC_I2C_GetRXFIFOAvailable(I2C_INTERFACE));
10010526:	4602      	mov	r2, r0
                WRITE_INDEX += MXC_I2C_ReadRXFIFO(I2C_INTERFACE,
10010528:	484f      	ldr	r0, [pc, #316]	@ (10010668 <i2c_simple_isr+0x244>)
1001052a:	f000 ff5d 	bl	100113e8 <MXC_I2C_ReadRXFIFO>
1001052e:	6823      	ldr	r3, [r4, #0]
10010530:	4403      	add	r3, r0
10010532:	6023      	str	r3, [r4, #0]
10010534:	e7dc      	b.n	100104f0 <i2c_simple_isr+0xcc>
        if (Flags & MXC_F_I2C_INTFL0_TX_LOCKOUT) {
10010536:	0425      	lsls	r5, r4, #16
10010538:	f100 808b 	bmi.w	10010652 <i2c_simple_isr+0x22e>
        if (ACTIVE_REG <= MAX_REG) {
1001053c:	4d4c      	ldr	r5, [pc, #304]	@ (10010670 <i2c_simple_isr+0x24c>)
1001053e:	782b      	ldrb	r3, [r5, #0]
10010540:	2b05      	cmp	r3, #5
10010542:	d969      	bls.n	10010618 <i2c_simple_isr+0x1f4>
        MXC_I2C_ClearFlags(I2C_INTERFACE, MXC_F_I2C_INTFL0_TX_THD, 0);
10010544:	4848      	ldr	r0, [pc, #288]	@ (10010668 <i2c_simple_isr+0x244>)
10010546:	2200      	movs	r2, #0
10010548:	2120      	movs	r1, #32
1001054a:	f000 ff59 	bl	10011400 <MXC_I2C_ClearFlags>
    if (Flags & MXC_F_I2C_INTFL0_WR_ADDR_MATCH) {
1001054e:	0220      	lsls	r0, r4, #8
10010550:	d5bf      	bpl.n	100104d2 <i2c_simple_isr+0xae>
        MXC_I2C_ClearFlags(I2C_INTERFACE, MXC_F_I2C_INTFL0_WR_ADDR_MATCH, 0);
10010552:	f44f 0100 	mov.w	r1, #8388608	@ 0x800000
10010556:	4844      	ldr	r0, [pc, #272]	@ (10010668 <i2c_simple_isr+0x244>)
10010558:	2200      	movs	r2, #0
1001055a:	f000 ff51 	bl	10011400 <MXC_I2C_ClearFlags>
        if (Flags & MXC_F_I2C_INTFL0_TX_LOCKOUT) {
1001055e:	0421      	lsls	r1, r4, #16
10010560:	d5b7      	bpl.n	100104d2 <i2c_simple_isr+0xae>
            MXC_I2C_ReadRXFIFO(I2C_INTERFACE, (volatile unsigned char*) &ACTIVE_REG, 1);
10010562:	4d43      	ldr	r5, [pc, #268]	@ (10010670 <i2c_simple_isr+0x24c>)
            MXC_I2C_ClearFlags(I2C_INTERFACE, MXC_F_I2C_INTFL0_TX_LOCKOUT, 0);
10010564:	4840      	ldr	r0, [pc, #256]	@ (10010668 <i2c_simple_isr+0x244>)
10010566:	2200      	movs	r2, #0
10010568:	f44f 4100 	mov.w	r1, #32768	@ 0x8000
1001056c:	f000 ff48 	bl	10011400 <MXC_I2C_ClearFlags>
            MXC_I2C_ReadRXFIFO(I2C_INTERFACE, (volatile unsigned char*) &ACTIVE_REG, 1);
10010570:	483d      	ldr	r0, [pc, #244]	@ (10010668 <i2c_simple_isr+0x244>)
10010572:	2201      	movs	r2, #1
10010574:	4629      	mov	r1, r5
10010576:	f000 ff37 	bl	100113e8 <MXC_I2C_ReadRXFIFO>
            if (ACTIVE_REG <= MAX_REG) {
1001057a:	782b      	ldrb	r3, [r5, #0]
1001057c:	2b05      	cmp	r3, #5
1001057e:	d8a8      	bhi.n	100104d2 <i2c_simple_isr+0xae>
                READ_INDEX += MXC_I2C_WriteTXFIFO(I2C_INTERFACE, (volatile unsigned char*)I2C_REGS[ACTIVE_REG], I2C_REGS_LEN[ACTIVE_REG]);
10010580:	4e3c      	ldr	r6, [pc, #240]	@ (10010674 <i2c_simple_isr+0x250>)
10010582:	4a3e      	ldr	r2, [pc, #248]	@ (1001067c <i2c_simple_isr+0x258>)
10010584:	4838      	ldr	r0, [pc, #224]	@ (10010668 <i2c_simple_isr+0x244>)
10010586:	f852 1023 	ldr.w	r1, [r2, r3, lsl #2]
1001058a:	f856 2023 	ldr.w	r2, [r6, r3, lsl #2]
1001058e:	f000 ff2f 	bl	100113f0 <MXC_I2C_WriteTXFIFO>
10010592:	4b3b      	ldr	r3, [pc, #236]	@ (10010680 <i2c_simple_isr+0x25c>)
                if (READ_INDEX < I2C_REGS_LEN[ACTIVE_REG]) {
10010594:	782a      	ldrb	r2, [r5, #0]
                READ_INDEX += MXC_I2C_WriteTXFIFO(I2C_INTERFACE, (volatile unsigned char*)I2C_REGS[ACTIVE_REG], I2C_REGS_LEN[ACTIVE_REG]);
10010596:	6819      	ldr	r1, [r3, #0]
                if (READ_INDEX < I2C_REGS_LEN[ACTIVE_REG]) {
10010598:	f856 2022 	ldr.w	r2, [r6, r2, lsl #2]
                READ_INDEX += MXC_I2C_WriteTXFIFO(I2C_INTERFACE, (volatile unsigned char*)I2C_REGS[ACTIVE_REG], I2C_REGS_LEN[ACTIVE_REG]);
1001059c:	4408      	add	r0, r1
                if (READ_INDEX < I2C_REGS_LEN[ACTIVE_REG]) {
1001059e:	4290      	cmp	r0, r2
                READ_INDEX += MXC_I2C_WriteTXFIFO(I2C_INTERFACE, (volatile unsigned char*)I2C_REGS[ACTIVE_REG], I2C_REGS_LEN[ACTIVE_REG]);
100105a0:	6018      	str	r0, [r3, #0]
                if (READ_INDEX < I2C_REGS_LEN[ACTIVE_REG]) {
100105a2:	da96      	bge.n	100104d2 <i2c_simple_isr+0xae>
                    MXC_I2C_EnableInt(I2C_INTERFACE, MXC_F_I2C_INTEN0_TX_THD, 0);
100105a4:	4830      	ldr	r0, [pc, #192]	@ (10010668 <i2c_simple_isr+0x244>)
100105a6:	2200      	movs	r2, #0
100105a8:	2120      	movs	r1, #32
100105aa:	f000 ff2b 	bl	10011404 <MXC_I2C_EnableInt>
100105ae:	e790      	b.n	100104d2 <i2c_simple_isr+0xae>
        WRITE_START = true;
100105b0:	4b2e      	ldr	r3, [pc, #184]	@ (1001066c <i2c_simple_isr+0x248>)
        MXC_I2C_EnableInt(I2C_INTERFACE, MXC_F_I2C_INTEN0_RX_THD, 0);
100105b2:	482d      	ldr	r0, [pc, #180]	@ (10010668 <i2c_simple_isr+0x244>)
100105b4:	2200      	movs	r2, #0
100105b6:	2110      	movs	r1, #16
        WRITE_START = true;
100105b8:	2501      	movs	r5, #1
100105ba:	701d      	strb	r5, [r3, #0]
        MXC_I2C_EnableInt(I2C_INTERFACE, MXC_F_I2C_INTEN0_RX_THD, 0);
100105bc:	f000 ff22 	bl	10011404 <MXC_I2C_EnableInt>
        MXC_I2C_ClearFlags(I2C_INTERFACE, MXC_F_I2C_INTFL0_RD_ADDR_MATCH, 0);
100105c0:	4829      	ldr	r0, [pc, #164]	@ (10010668 <i2c_simple_isr+0x244>)
100105c2:	2200      	movs	r2, #0
100105c4:	f44f 0180 	mov.w	r1, #4194304	@ 0x400000
100105c8:	f000 ff1a 	bl	10011400 <MXC_I2C_ClearFlags>
100105cc:	e783      	b.n	100104d6 <i2c_simple_isr+0xb2>
            MXC_I2C_ReadRXFIFO(I2C_INTERFACE, (volatile unsigned char*) &ACTIVE_REG, 1);
100105ce:	4928      	ldr	r1, [pc, #160]	@ (10010670 <i2c_simple_isr+0x24c>)
100105d0:	2201      	movs	r2, #1
100105d2:	f000 ff09 	bl	100113e8 <MXC_I2C_ReadRXFIFO>
            WRITE_START = false;
100105d6:	2300      	movs	r3, #0
100105d8:	7033      	strb	r3, [r6, #0]
100105da:	e72d      	b.n	10010438 <i2c_simple_isr+0x14>
            MXC_I2C_ReadRXFIFO(I2C_INTERFACE, (volatile unsigned char*) &ACTIVE_REG, 1);
100105dc:	4924      	ldr	r1, [pc, #144]	@ (10010670 <i2c_simple_isr+0x24c>)
100105de:	4822      	ldr	r0, [pc, #136]	@ (10010668 <i2c_simple_isr+0x244>)
100105e0:	2201      	movs	r2, #1
100105e2:	f000 ff01 	bl	100113e8 <MXC_I2C_ReadRXFIFO>
            WRITE_START = false;
100105e6:	2300      	movs	r3, #0
100105e8:	7023      	strb	r3, [r4, #0]
        if (ACTIVE_REG <= MAX_REG) {
100105ea:	4c21      	ldr	r4, [pc, #132]	@ (10010670 <i2c_simple_isr+0x24c>)
            int available = MXC_I2C_GetRXFIFOAvailable(I2C_INTERFACE);
100105ec:	481e      	ldr	r0, [pc, #120]	@ (10010668 <i2c_simple_isr+0x244>)
        if (ACTIVE_REG <= MAX_REG) {
100105ee:	7823      	ldrb	r3, [r4, #0]
100105f0:	2b05      	cmp	r3, #5
100105f2:	f63f af7b 	bhi.w	100104ec <i2c_simple_isr+0xc8>
100105f6:	e783      	b.n	10010500 <i2c_simple_isr+0xdc>
                    &I2C_REGS[ACTIVE_REG][WRITE_INDEX],
100105f8:	4820      	ldr	r0, [pc, #128]	@ (1001067c <i2c_simple_isr+0x258>)
100105fa:	f850 1021 	ldr.w	r1, [r0, r1, lsl #2]
                WRITE_INDEX += MXC_I2C_ReadRXFIFO(I2C_INTERFACE,
100105fe:	481a      	ldr	r0, [pc, #104]	@ (10010668 <i2c_simple_isr+0x244>)
10010600:	4419      	add	r1, r3
10010602:	f000 fef1 	bl	100113e8 <MXC_I2C_ReadRXFIFO>
10010606:	6823      	ldr	r3, [r4, #0]
10010608:	4403      	add	r3, r0
1001060a:	6023      	str	r3, [r4, #0]
1001060c:	e770      	b.n	100104f0 <i2c_simple_isr+0xcc>
                    &I2C_REGS[ACTIVE_REG][WRITE_INDEX],
1001060e:	481b      	ldr	r0, [pc, #108]	@ (1001067c <i2c_simple_isr+0x258>)
10010610:	f850 1021 	ldr.w	r1, [r0, r1, lsl #2]
                WRITE_INDEX += MXC_I2C_ReadRXFIFO(I2C_INTERFACE,
10010614:	4419      	add	r1, r3
10010616:	e729      	b.n	1001046c <i2c_simple_isr+0x48>
            READ_INDEX += MXC_I2C_WriteTXFIFO(I2C_INTERFACE,
10010618:	4e19      	ldr	r6, [pc, #100]	@ (10010680 <i2c_simple_isr+0x25c>)
                I2C_REGS_LEN[ACTIVE_REG]-READ_INDEX);
1001061a:	4f16      	ldr	r7, [pc, #88]	@ (10010674 <i2c_simple_isr+0x250>)
                (volatile unsigned char*)&I2C_REGS[ACTIVE_REG][READ_INDEX],
1001061c:	4917      	ldr	r1, [pc, #92]	@ (1001067c <i2c_simple_isr+0x258>)
            READ_INDEX += MXC_I2C_WriteTXFIFO(I2C_INTERFACE,
1001061e:	6832      	ldr	r2, [r6, #0]
                (volatile unsigned char*)&I2C_REGS[ACTIVE_REG][READ_INDEX],
10010620:	f851 1023 	ldr.w	r1, [r1, r3, lsl #2]
                I2C_REGS_LEN[ACTIVE_REG]-READ_INDEX);
10010624:	f857 3023 	ldr.w	r3, [r7, r3, lsl #2]
            READ_INDEX += MXC_I2C_WriteTXFIFO(I2C_INTERFACE,
10010628:	480f      	ldr	r0, [pc, #60]	@ (10010668 <i2c_simple_isr+0x244>)
1001062a:	4411      	add	r1, r2
1001062c:	1a9a      	subs	r2, r3, r2
1001062e:	f000 fedf 	bl	100113f0 <MXC_I2C_WriteTXFIFO>
            if (I2C_REGS_LEN[ACTIVE_REG]-1 == READ_INDEX) {
10010632:	782b      	ldrb	r3, [r5, #0]
            READ_INDEX += MXC_I2C_WriteTXFIFO(I2C_INTERFACE,
10010634:	6832      	ldr	r2, [r6, #0]
            if (I2C_REGS_LEN[ACTIVE_REG]-1 == READ_INDEX) {
10010636:	f857 3023 	ldr.w	r3, [r7, r3, lsl #2]
            READ_INDEX += MXC_I2C_WriteTXFIFO(I2C_INTERFACE,
1001063a:	4410      	add	r0, r2
            if (I2C_REGS_LEN[ACTIVE_REG]-1 == READ_INDEX) {
1001063c:	3b01      	subs	r3, #1
1001063e:	4298      	cmp	r0, r3
            READ_INDEX += MXC_I2C_WriteTXFIFO(I2C_INTERFACE,
10010640:	6030      	str	r0, [r6, #0]
            if (I2C_REGS_LEN[ACTIVE_REG]-1 == READ_INDEX) {
10010642:	f47f af7f 	bne.w	10010544 <i2c_simple_isr+0x120>
                MXC_I2C_DisableInt(I2C_INTERFACE, MXC_F_I2C_INTEN0_TX_THD, 0);
10010646:	4808      	ldr	r0, [pc, #32]	@ (10010668 <i2c_simple_isr+0x244>)
10010648:	2200      	movs	r2, #0
1001064a:	2120      	movs	r1, #32
1001064c:	f000 fedc 	bl	10011408 <MXC_I2C_DisableInt>
10010650:	e778      	b.n	10010544 <i2c_simple_isr+0x120>
            MXC_I2C_ClearFlags(I2C_INTERFACE, MXC_F_I2C_INTFL0_TX_LOCKOUT, 0);
10010652:	2200      	movs	r2, #0
10010654:	f44f 4100 	mov.w	r1, #32768	@ 0x8000
10010658:	f000 fed2 	bl	10011400 <MXC_I2C_ClearFlags>
1001065c:	e76e      	b.n	1001053c <i2c_simple_isr+0x118>
            MXC_I2C_ClearRXFIFO(I2C_INTERFACE);
1001065e:	4802      	ldr	r0, [pc, #8]	@ (10010668 <i2c_simple_isr+0x244>)
10010660:	f000 feca 	bl	100113f8 <MXC_I2C_ClearRXFIFO>
10010664:	e71c      	b.n	100104a0 <i2c_simple_isr+0x7c>
10010666:	bf00      	nop
10010668:	4001e000 	.word	0x4001e000
1001066c:	20000a25 	.word	0x20000a25
10010670:	20000a24 	.word	0x20000a24
10010674:	20000000 	.word	0x20000000
10010678:	20000a20 	.word	0x20000a20
1001067c:	20000018 	.word	0x20000018
10010680:	20000a1c 	.word	0x20000a1c

10010684 <i2c_simple_peripheral_init>:
int i2c_simple_peripheral_init(uint8_t addr) {
10010684:	b510      	push	{r4, lr}
10010686:	4602      	mov	r2, r0
    error = MXC_I2C_Init(I2C_INTERFACE, false, addr);
10010688:	2100      	movs	r1, #0
1001068a:	481b      	ldr	r0, [pc, #108]	@ (100106f8 <i2c_simple_peripheral_init+0x74>)
1001068c:	f000 fe5e 	bl	1001134c <MXC_I2C_Init>
    if (error != E_NO_ERROR) {
10010690:	4604      	mov	r4, r0
10010692:	bb60      	cbnz	r0, 100106ee <i2c_simple_peripheral_init+0x6a>
    MXC_I2C_SetFrequency(I2C_INTERFACE, I2C_FREQ);
10010694:	4919      	ldr	r1, [pc, #100]	@ (100106fc <i2c_simple_peripheral_init+0x78>)
10010696:	4818      	ldr	r0, [pc, #96]	@ (100106f8 <i2c_simple_peripheral_init+0x74>)
10010698:	f000 fea2 	bl	100113e0 <MXC_I2C_SetFrequency>
    MXC_I2C_ClearRXFIFO(I2C_INTERFACE);
1001069c:	4816      	ldr	r0, [pc, #88]	@ (100106f8 <i2c_simple_peripheral_init+0x74>)
1001069e:	f000 feab 	bl	100113f8 <MXC_I2C_ClearRXFIFO>
    MXC_I2C_EnableInt(I2C_INTERFACE, MXC_F_I2C_INTFL0_RD_ADDR_MATCH, 0);
100106a2:	4622      	mov	r2, r4
100106a4:	4814      	ldr	r0, [pc, #80]	@ (100106f8 <i2c_simple_peripheral_init+0x74>)
100106a6:	f44f 0180 	mov.w	r1, #4194304	@ 0x400000
100106aa:	f000 feab 	bl	10011404 <MXC_I2C_EnableInt>
    MXC_I2C_EnableInt(I2C_INTERFACE, MXC_F_I2C_INTFL0_WR_ADDR_MATCH, 0);
100106ae:	4622      	mov	r2, r4
100106b0:	4811      	ldr	r0, [pc, #68]	@ (100106f8 <i2c_simple_peripheral_init+0x74>)
100106b2:	f44f 0100 	mov.w	r1, #8388608	@ 0x800000
100106b6:	f000 fea5 	bl	10011404 <MXC_I2C_EnableInt>
    MXC_I2C_EnableInt(I2C_INTERFACE, MXC_F_I2C_INTFL0_STOP, 0);
100106ba:	4622      	mov	r2, r4
100106bc:	480e      	ldr	r0, [pc, #56]	@ (100106f8 <i2c_simple_peripheral_init+0x74>)
100106be:	2140      	movs	r1, #64	@ 0x40
100106c0:	f000 fea0 	bl	10011404 <MXC_I2C_EnableInt>
    MXC_NVIC_SetVector(MXC_I2C_GET_IRQ(MXC_I2C_GET_IDX(I2C_INTERFACE)), i2c_simple_isr);
100106c4:	490e      	ldr	r1, [pc, #56]	@ (10010700 <i2c_simple_peripheral_init+0x7c>)
100106c6:	2024      	movs	r0, #36	@ 0x24
100106c8:	f000 fb4a 	bl	10010d60 <MXC_NVIC_SetVector>
__STATIC_INLINE void __NVIC_EnableIRQ(IRQn_Type IRQn)
{
  if ((int32_t)(IRQn) >= 0)
  {
    __COMPILER_BARRIER();
    NVIC->ISER[(((uint32_t)IRQn) >> 5UL)] = (uint32_t)(1UL << (((uint32_t)IRQn) & 0x1FUL));
100106cc:	4b0d      	ldr	r3, [pc, #52]	@ (10010704 <i2c_simple_peripheral_init+0x80>)
100106ce:	2210      	movs	r2, #16
100106d0:	605a      	str	r2, [r3, #4]
    MXC_I2C_ClearFlags(I2C_INTERFACE, 0xFFFFFFFF, 0xFFFFFFFF);
100106d2:	f04f 32ff 	mov.w	r2, #4294967295	@ 0xffffffff
100106d6:	4611      	mov	r1, r2
100106d8:	4807      	ldr	r0, [pc, #28]	@ (100106f8 <i2c_simple_peripheral_init+0x74>)
100106da:	f000 fe91 	bl	10011400 <MXC_I2C_ClearFlags>
    I2C_REGS[RECEIVE_DONE][0] = false;
100106de:	4b0a      	ldr	r3, [pc, #40]	@ (10010708 <i2c_simple_peripheral_init+0x84>)
100106e0:	6859      	ldr	r1, [r3, #4]
100106e2:	700c      	strb	r4, [r1, #0]
    I2C_REGS[TRANSMIT_DONE][0] = true;
100106e4:	691b      	ldr	r3, [r3, #16]
100106e6:	2201      	movs	r2, #1
100106e8:	701a      	strb	r2, [r3, #0]
}
100106ea:	4620      	mov	r0, r4
100106ec:	bd10      	pop	{r4, pc}
        printf("Failed to initialize I2C.\n");
100106ee:	4807      	ldr	r0, [pc, #28]	@ (1001070c <i2c_simple_peripheral_init+0x88>)
100106f0:	f003 fdca 	bl	10014288 <puts>
}
100106f4:	4620      	mov	r0, r4
100106f6:	bd10      	pop	{r4, pc}
100106f8:	4001e000 	.word	0x4001e000
100106fc:	000186a0 	.word	0x000186a0
10010700:	10010425 	.word	0x10010425
10010704:	e000e100 	.word	0xe000e100
10010708:	20000018 	.word	0x20000018
1001070c:	1001aef0 	.word	0x1001aef0

10010710 <mxc_assert>:
};
const unsigned int num_leds = (sizeof(led_pin) / sizeof(mxc_gpio_cfg_t));

/******************************************************************************/
void mxc_assert(const char *expr, const char *file, int line)
{
10010710:	b508      	push	{r3, lr}
10010712:	4603      	mov	r3, r0
    printf("MXC_ASSERT %s #%d: (%s)\n", file, line, expr);
10010714:	4801      	ldr	r0, [pc, #4]	@ (1001071c <mxc_assert+0xc>)
10010716:	f003 fd57 	bl	100141c8 <printf>

    while (1) {}
1001071a:	e7fe      	b.n	1001071a <mxc_assert+0xa>
1001071c:	1001af0c 	.word	0x1001af0c

10010720 <GPIO0_IRQHandler>:
 * NOTE: This weak definition is included to support Push Button 0 interrupts in
 *       case the user does not define this interrupt handler in their application.
 **/
__weak void GPIO0_IRQHandler(void)
{
    MXC_GPIO_Handler(MXC_GPIO_GET_IDX(MXC_GPIO0));
10010720:	2000      	movs	r0, #0
10010722:	f000 bd79 	b.w	10011218 <MXC_GPIO_Handler>
10010726:	bf00      	nop

10010728 <GPIO1_IRQHandler>:
 * NOTE: This weak definition is included to support Push Button 1 interrupts in
 *       case the user does not define this interrupt handler in their application.
 **/
__weak void GPIO1_IRQHandler(void)
{
    MXC_GPIO_Handler(MXC_GPIO_GET_IDX(MXC_GPIO1));
10010728:	2001      	movs	r0, #1
1001072a:	f000 bd75 	b.w	10011218 <MXC_GPIO_Handler>
1001072e:	bf00      	nop

10010730 <Board_Init>:
}

/******************************************************************************/
int Board_Init(void)
{
10010730:	b510      	push	{r4, lr}
#ifndef __riscv
    int err;

    // Enable GPIO
    MXC_SYS_ClockEnable(MXC_SYS_PERIPH_CLOCK_GPIO0);
10010732:	2000      	movs	r0, #0
10010734:	f000 fb5c 	bl	10010df0 <MXC_SYS_ClockEnable>
    MXC_SYS_ClockEnable(MXC_SYS_PERIPH_CLOCK_GPIO1);
10010738:	2001      	movs	r0, #1
1001073a:	f000 fb59 	bl	10010df0 <MXC_SYS_ClockEnable>
    MXC_SYS_ClockEnable(MXC_SYS_PERIPH_CLOCK_GPIO2);
1001073e:	2040      	movs	r0, #64	@ 0x40
10010740:	f000 fb56 	bl	10010df0 <MXC_SYS_ClockEnable>
/******************************************************************************/
int Console_Init(void)
{
    int err;

    if ((err = MXC_UART_Init(ConsoleUart, CONSOLE_BAUD, MXC_UART_IBRO_CLK)) != E_NO_ERROR) {
10010744:	4b10      	ldr	r3, [pc, #64]	@ (10010788 <Board_Init+0x58>)
10010746:	2202      	movs	r2, #2
10010748:	6818      	ldr	r0, [r3, #0]
1001074a:	f44f 31e1 	mov.w	r1, #115200	@ 0x1c200
1001074e:	f001 f891 	bl	10011874 <MXC_UART_Init>
    if ((err = Console_Init()) < E_NO_ERROR) {
10010752:	1e04      	subs	r4, r0, #0
10010754:	db0c      	blt.n	10010770 <Board_Init+0x40>
    if ((err = PB_Init()) != E_NO_ERROR) {
10010756:	f000 f8eb 	bl	10010930 <PB_Init>
1001075a:	b958      	cbnz	r0, 10010774 <Board_Init+0x44>
    if ((err = LED_Init()) != E_NO_ERROR) {
1001075c:	f000 f888 	bl	10010870 <LED_Init>
10010760:	4604      	mov	r4, r0
10010762:	b960      	cbnz	r0, 1001077e <Board_Init+0x4e>
    MXC_SIMO->vrego_c = 0x43; // Set CNN voltage
10010764:	4b09      	ldr	r3, [pc, #36]	@ (1001078c <Board_Init+0x5c>)
    MXC_Delay(200000);
10010766:	480a      	ldr	r0, [pc, #40]	@ (10010790 <Board_Init+0x60>)
    MXC_SIMO->vrego_c = 0x43; // Set CNN voltage
10010768:	2243      	movs	r2, #67	@ 0x43
1001076a:	60da      	str	r2, [r3, #12]
    MXC_Delay(200000);
1001076c:	f000 fabe 	bl	10010cec <MXC_Delay>
}
10010770:	4620      	mov	r0, r4
10010772:	bd10      	pop	{r4, pc}
        MXC_ASSERT_FAIL();
10010774:	4907      	ldr	r1, [pc, #28]	@ (10010794 <Board_Init+0x64>)
10010776:	4808      	ldr	r0, [pc, #32]	@ (10010798 <Board_Init+0x68>)
10010778:	226f      	movs	r2, #111	@ 0x6f
1001077a:	f7ff ffc9 	bl	10010710 <mxc_assert>
        MXC_ASSERT_FAIL();
1001077e:	4905      	ldr	r1, [pc, #20]	@ (10010794 <Board_Init+0x64>)
10010780:	4805      	ldr	r0, [pc, #20]	@ (10010798 <Board_Init+0x68>)
10010782:	2274      	movs	r2, #116	@ 0x74
10010784:	f7ff ffc4 	bl	10010710 <mxc_assert>
10010788:	20000030 	.word	0x20000030
1001078c:	40004400 	.word	0x40004400
10010790:	00030d40 	.word	0x00030d40
10010794:	1001af28 	.word	0x1001af28
10010798:	1001afb0 	.word	0x1001afb0

1001079c <NMI_Handler>:
}

/******************************************************************************/
void NMI_Handler(void)
{
    __NOP();
1001079c:	bf00      	nop
}
1001079e:	4770      	bx	lr

100107a0 <_close>:
    return -1;
}
int _close(int file)
{
    return -1;
}
100107a0:	f04f 30ff 	mov.w	r0, #4294967295	@ 0xffffffff
100107a4:	4770      	bx	lr
100107a6:	bf00      	nop

100107a8 <_isatty>:
int _isatty(int file)
100107a8:	f04f 30ff 	mov.w	r0, #4294967295	@ 0xffffffff
100107ac:	4770      	bx	lr
100107ae:	bf00      	nop

100107b0 <_lseek>:
    return -1;
}
int _lseek(int file, off_t offset, int whence)
{
    return -1;
}
100107b0:	f04f 30ff 	mov.w	r0, #4294967295	@ 0xffffffff
100107b4:	4770      	bx	lr
100107b6:	bf00      	nop

100107b8 <_fstat>:
int _fstat(int file, struct stat *st)
{
    return -1;
}
100107b8:	f04f 30ff 	mov.w	r0, #4294967295	@ 0xffffffff
100107bc:	4770      	bx	lr
100107be:	bf00      	nop

100107c0 <_read>:
   fgetc for stdio */
#if defined(__ICCARM__) || defined(__GNUC__)

#if defined(__GNUC__) // GNUC _read function prototype
int _read(int file, char *ptr, int len)
{
100107c0:	b5f8      	push	{r3, r4, r5, r6, r7, lr}
    size_t n;
#endif /*  */

    int num = 0; // count of number received.

    switch (file) {
100107c2:	b9e0      	cbnz	r0, 100107fe <_read+0x3e>
    case STDIN_FILENO:
        for (n = 0; n < len; n++) {
100107c4:	2a00      	cmp	r2, #0
100107c6:	dd19      	ble.n	100107fc <_read+0x3c>
            *ptr = MXC_UART_ReadCharacter(MXC_UARTn); // read a byte.
100107c8:	4d10      	ldr	r5, [pc, #64]	@ (1001080c <_read+0x4c>)
100107ca:	460e      	mov	r6, r1
100107cc:	188f      	adds	r7, r1, r2
        for (n = 0; n < len; n++) {
100107ce:	460c      	mov	r4, r1
100107d0:	e002      	b.n	100107d8 <_read+0x18>
100107d2:	42bb      	cmp	r3, r7
100107d4:	d00f      	beq.n	100107f6 <_read+0x36>
                num++;
                ptr++;

                break;
            } else {
                ptr++;
100107d6:	461c      	mov	r4, r3
            *ptr = MXC_UART_ReadCharacter(MXC_UARTn); // read a byte.
100107d8:	4628      	mov	r0, r5
100107da:	f001 f943 	bl	10011a64 <MXC_UART_ReadCharacter>
100107de:	b2c1      	uxtb	r1, r0
100107e0:	7021      	strb	r1, [r4, #0]
            MXC_UART_WriteCharacter(MXC_UARTn, *ptr); // echo the byte.
100107e2:	4628      	mov	r0, r5
100107e4:	f001 f940 	bl	10011a68 <MXC_UART_WriteCharacter>
            if (*ptr == '\r') { // check for end of line.
100107e8:	7822      	ldrb	r2, [r4, #0]
100107ea:	2a0d      	cmp	r2, #13
                ptr++;
100107ec:	f104 0301 	add.w	r3, r4, #1
            if (*ptr == '\r') { // check for end of line.
100107f0:	d1ef      	bne.n	100107d2 <_read+0x12>
                *ptr = '\n';
100107f2:	230a      	movs	r3, #10
100107f4:	7023      	strb	r3, [r4, #0]
                num++;
100107f6:	f1c6 0601 	rsb	r6, r6, #1
100107fa:	19a0      	adds	r0, r4, r6
        errno = EBADF;
        return -1;
    }

    return num;
}
100107fc:	bdf8      	pop	{r3, r4, r5, r6, r7, pc}
        errno = EBADF;
100107fe:	f001 fb73 	bl	10011ee8 <__errno>
10010802:	2309      	movs	r3, #9
10010804:	6003      	str	r3, [r0, #0]
        return -1;
10010806:	f04f 30ff 	mov.w	r0, #4294967295	@ 0xffffffff
}
1001080a:	bdf8      	pop	{r3, r4, r5, r6, r7, pc}
1001080c:	40042000 	.word	0x40042000

10010810 <_write>:

/* newlib/libc printf() will eventually call write() to get the data to the stdout */
#if defined(__GNUC__)
// GNUC _write function prototype
int _write(int file, char *ptr, int len)
{
10010810:	b5f8      	push	{r3, r4, r5, r6, r7, lr}
int __write(int file, const unsigned char *ptr, size_t len)
{
    size_t n;
#endif /* __GNUC__ */

    switch (file) {
10010812:	1e43      	subs	r3, r0, #1
10010814:	2b01      	cmp	r3, #1
10010816:	d821      	bhi.n	1001085c <_write+0x4c>
    case STDOUT_FILENO:
    case STDERR_FILENO:

        // This function should be as fast as possible
        // So we'll forgo the UART driver for now
        for (n = 0; n < len; n++) {
10010818:	2a00      	cmp	r2, #0
1001081a:	4617      	mov	r7, r2
1001081c:	dd12      	ble.n	10010844 <_write+0x34>
1001081e:	1e53      	subs	r3, r2, #1
            if (*ptr == '\n') {
                // Wait until there's room in the FIFO
                while (MXC_UART_GetTXFIFOAvailable(MXC_UARTn) == 0) {}
10010820:	4e12      	ldr	r6, [pc, #72]	@ (1001086c <_write+0x5c>)
10010822:	1e4c      	subs	r4, r1, #1
10010824:	18cd      	adds	r5, r1, r3
            if (*ptr == '\n') {
10010826:	f814 3f01 	ldrb.w	r3, [r4, #1]!
1001082a:	2b0a      	cmp	r3, #10
1001082c:	d00c      	beq.n	10010848 <_write+0x38>

                MXC_UART_WriteCharacter(MXC_UARTn, '\r');
            }

            // Wait until there's room in the FIFO
            while (MXC_UART_GetTXFIFOAvailable(MXC_UARTn) == 0) {}
1001082e:	480f      	ldr	r0, [pc, #60]	@ (1001086c <_write+0x5c>)
10010830:	f001 f91e 	bl	10011a70 <MXC_UART_GetTXFIFOAvailable>
10010834:	2800      	cmp	r0, #0
10010836:	d0fa      	beq.n	1001082e <_write+0x1e>

            MXC_UART_WriteCharacter(MXC_UARTn, *ptr++);
10010838:	7821      	ldrb	r1, [r4, #0]
1001083a:	4630      	mov	r0, r6
1001083c:	f001 f914 	bl	10011a68 <MXC_UART_WriteCharacter>
        for (n = 0; n < len; n++) {
10010840:	42ac      	cmp	r4, r5
10010842:	d1f0      	bne.n	10010826 <_write+0x16>

        break;

    default:
        errno = EBADF;
        return -1;
10010844:	4638      	mov	r0, r7
    }

    return len;
}
10010846:	bdf8      	pop	{r3, r4, r5, r6, r7, pc}
                while (MXC_UART_GetTXFIFOAvailable(MXC_UARTn) == 0) {}
10010848:	4808      	ldr	r0, [pc, #32]	@ (1001086c <_write+0x5c>)
1001084a:	f001 f911 	bl	10011a70 <MXC_UART_GetTXFIFOAvailable>
1001084e:	2800      	cmp	r0, #0
10010850:	d0fa      	beq.n	10010848 <_write+0x38>
                MXC_UART_WriteCharacter(MXC_UARTn, '\r');
10010852:	210d      	movs	r1, #13
10010854:	4630      	mov	r0, r6
10010856:	f001 f907 	bl	10011a68 <MXC_UART_WriteCharacter>
1001085a:	e7e8      	b.n	1001082e <_write+0x1e>
        errno = EBADF;
1001085c:	f001 fb44 	bl	10011ee8 <__errno>
10010860:	2309      	movs	r3, #9
10010862:	6003      	str	r3, [r0, #0]
        return -1;
10010864:	f04f 30ff 	mov.w	r0, #4294967295	@ 0xffffffff
}
10010868:	bdf8      	pop	{r3, r4, r5, r6, r7, pc}
1001086a:	bf00      	nop
1001086c:	40042000 	.word	0x40042000

10010870 <LED_Init>:
#include "led.h"
#include "mxc_device.h"

/******************************************************************************/
int LED_Init(void)
{
10010870:	b5f8      	push	{r3, r4, r5, r6, r7, lr}
    int retval = E_NO_ERROR;
    unsigned int i;

    /* setup GPIO for the LED */
    for (i = 0; i < num_leds; i++) {
10010872:	4b0d      	ldr	r3, [pc, #52]	@ (100108a8 <LED_Init+0x38>)
10010874:	681f      	ldr	r7, [r3, #0]
10010876:	b1a7      	cbz	r7, 100108a2 <LED_Init+0x32>
10010878:	2500      	movs	r5, #0
1001087a:	4c0c      	ldr	r4, [pc, #48]	@ (100108ac <LED_Init+0x3c>)
    int retval = E_NO_ERROR;
1001087c:	462e      	mov	r6, r5
//******************************************************************************
void LED_Off(unsigned int idx)
{
    MXC_ASSERT(idx < num_leds);
#if (LED_ON == 0)
    MXC_GPIO_OutSet(led_pin[idx].port, led_pin[idx].mask);
1001087e:	e9d4 0100 	ldrd	r0, r1, [r4]
10010882:	f000 fc9b 	bl	100111bc <MXC_GPIO_OutSet>
        if (MXC_GPIO_Config(&led_pin[i]) != E_NO_ERROR) {
10010886:	4620      	mov	r0, r4
10010888:	f000 fb92 	bl	10010fb0 <MXC_GPIO_Config>
    for (i = 0; i < num_leds; i++) {
1001088c:	3501      	adds	r5, #1
            retval = E_UNKNOWN;
1001088e:	2800      	cmp	r0, #0
10010890:	bf18      	it	ne
10010892:	f06f 0607 	mvnne.w	r6, #7
    for (i = 0; i < num_leds; i++) {
10010896:	42af      	cmp	r7, r5
10010898:	f104 040c 	add.w	r4, r4, #12
1001089c:	d1ef      	bne.n	1001087e <LED_Init+0xe>
}
1001089e:	4630      	mov	r0, r6
100108a0:	bdf8      	pop	{r3, r4, r5, r6, r7, pc}
    int retval = E_NO_ERROR;
100108a2:	463e      	mov	r6, r7
}
100108a4:	4630      	mov	r0, r6
100108a6:	bdf8      	pop	{r3, r4, r5, r6, r7, pc}
100108a8:	1001afb8 	.word	0x1001afb8
100108ac:	1001afbc 	.word	0x1001afbc

100108b0 <LED_On>:
    MXC_ASSERT(idx < num_leds);
100108b0:	4b0b      	ldr	r3, [pc, #44]	@ (100108e0 <LED_On+0x30>)
100108b2:	681b      	ldr	r3, [r3, #0]
100108b4:	4283      	cmp	r3, r0
{
100108b6:	b510      	push	{r4, lr}
100108b8:	4604      	mov	r4, r0
    MXC_ASSERT(idx < num_leds);
100108ba:	d90b      	bls.n	100108d4 <LED_On+0x24>
    MXC_GPIO_OutClr(led_pin[idx].port, led_pin[idx].mask);
100108bc:	4b09      	ldr	r3, [pc, #36]	@ (100108e4 <LED_On+0x34>)
100108be:	eb04 0444 	add.w	r4, r4, r4, lsl #1
100108c2:	eb03 0284 	add.w	r2, r3, r4, lsl #2
100108c6:	f853 0024 	ldr.w	r0, [r3, r4, lsl #2]
100108ca:	6851      	ldr	r1, [r2, #4]
}
100108cc:	e8bd 4010 	ldmia.w	sp!, {r4, lr}
    MXC_GPIO_OutClr(led_pin[idx].port, led_pin[idx].mask);
100108d0:	f000 bc8a 	b.w	100111e8 <MXC_GPIO_OutClr>
    MXC_ASSERT(idx < num_leds);
100108d4:	4904      	ldr	r1, [pc, #16]	@ (100108e8 <LED_On+0x38>)
100108d6:	4805      	ldr	r0, [pc, #20]	@ (100108ec <LED_On+0x3c>)
100108d8:	223b      	movs	r2, #59	@ 0x3b
100108da:	f7ff ff19 	bl	10010710 <mxc_assert>
100108de:	e7ed      	b.n	100108bc <LED_On+0xc>
100108e0:	1001afb8 	.word	0x1001afb8
100108e4:	1001afbc 	.word	0x1001afbc
100108e8:	1001affc 	.word	0x1001affc
100108ec:	1001b070 	.word	0x1001b070

100108f0 <LED_Off>:
    MXC_ASSERT(idx < num_leds);
100108f0:	4b0b      	ldr	r3, [pc, #44]	@ (10010920 <LED_Off+0x30>)
100108f2:	681b      	ldr	r3, [r3, #0]
100108f4:	4283      	cmp	r3, r0
{
100108f6:	b510      	push	{r4, lr}
100108f8:	4604      	mov	r4, r0
    MXC_ASSERT(idx < num_leds);
100108fa:	d90b      	bls.n	10010914 <LED_Off+0x24>
    MXC_GPIO_OutSet(led_pin[idx].port, led_pin[idx].mask);
100108fc:	4b09      	ldr	r3, [pc, #36]	@ (10010924 <LED_Off+0x34>)
100108fe:	eb04 0444 	add.w	r4, r4, r4, lsl #1
10010902:	eb03 0284 	add.w	r2, r3, r4, lsl #2
10010906:	f853 0024 	ldr.w	r0, [r3, r4, lsl #2]
1001090a:	6851      	ldr	r1, [r2, #4]
#else
    MXC_GPIO_OutClr(led_pin[idx].port, led_pin[idx].mask);
#endif
}
1001090c:	e8bd 4010 	ldmia.w	sp!, {r4, lr}
    MXC_GPIO_OutSet(led_pin[idx].port, led_pin[idx].mask);
10010910:	f000 bc54 	b.w	100111bc <MXC_GPIO_OutSet>
    MXC_ASSERT(idx < num_leds);
10010914:	4904      	ldr	r1, [pc, #16]	@ (10010928 <LED_Off+0x38>)
10010916:	4805      	ldr	r0, [pc, #20]	@ (1001092c <LED_Off+0x3c>)
10010918:	2246      	movs	r2, #70	@ 0x46
1001091a:	f7ff fef9 	bl	10010710 <mxc_assert>
1001091e:	e7ed      	b.n	100108fc <LED_Off+0xc>
10010920:	1001afb8 	.word	0x1001afb8
10010924:	1001afbc 	.word	0x1001afbc
10010928:	1001affc 	.word	0x1001affc
1001092c:	1001b070 	.word	0x1001b070

10010930 <PB_Init>:
#include "mxc_assert.h"
#include "pb.h"

/******************************************************************************/
int PB_Init(void)
{
10010930:	b5f8      	push	{r3, r4, r5, r6, r7, lr}
    int retval = E_NO_ERROR;
    unsigned int i;

    // Enable pushbutton inputs
    for (i = 0; i < num_pbs; i++) {
10010932:	4b0b      	ldr	r3, [pc, #44]	@ (10010960 <PB_Init+0x30>)
10010934:	681f      	ldr	r7, [r3, #0]
10010936:	b187      	cbz	r7, 1001095a <PB_Init+0x2a>
10010938:	2400      	movs	r4, #0
1001093a:	4d0a      	ldr	r5, [pc, #40]	@ (10010964 <PB_Init+0x34>)
    int retval = E_NO_ERROR;
1001093c:	4626      	mov	r6, r4
        if (MXC_GPIO_Config(&pb_pin[i]) != E_NO_ERROR) {
1001093e:	4628      	mov	r0, r5
10010940:	f000 fb36 	bl	10010fb0 <MXC_GPIO_Config>
    for (i = 0; i < num_pbs; i++) {
10010944:	3401      	adds	r4, #1
            retval = E_UNKNOWN;
10010946:	2800      	cmp	r0, #0
10010948:	bf18      	it	ne
1001094a:	f06f 0607 	mvnne.w	r6, #7
    for (i = 0; i < num_pbs; i++) {
1001094e:	42bc      	cmp	r4, r7
10010950:	f105 050c 	add.w	r5, r5, #12
10010954:	d1f3      	bne.n	1001093e <PB_Init+0xe>
        }
    }

    return retval;
}
10010956:	4630      	mov	r0, r6
10010958:	bdf8      	pop	{r3, r4, r5, r6, r7, pc}
    int retval = E_NO_ERROR;
1001095a:	463e      	mov	r6, r7
}
1001095c:	4630      	mov	r0, r6
1001095e:	bdf8      	pop	{r3, r4, r5, r6, r7, pc}
10010960:	1001afe0 	.word	0x1001afe0
10010964:	1001afe4 	.word	0x1001afe4

10010968 <Reset_Handler>:
10010968:	4847      	ldr	r0, [pc, #284]	@ (10010a88 <LPCMP_IRQHandler+0x2>)
1001096a:	4685      	mov	sp, r0
1001096c:	4847      	ldr	r0, [pc, #284]	@ (10010a8c <LPCMP_IRQHandler+0x6>)
1001096e:	4780      	blx	r0
10010970:	b980      	cbnz	r0, 10010994 <.SKIPRAMINIT>
10010972:	4947      	ldr	r1, [pc, #284]	@ (10010a90 <LPCMP_IRQHandler+0xa>)
10010974:	4a47      	ldr	r2, [pc, #284]	@ (10010a94 <LPCMP_IRQHandler+0xe>)
10010976:	4b48      	ldr	r3, [pc, #288]	@ (10010a98 <LPCMP_IRQHandler+0x12>)
10010978:	1a9b      	subs	r3, r3, r2
1001097a:	dd03      	ble.n	10010984 <Reset_Handler+0x1c>
1001097c:	3b04      	subs	r3, #4
1001097e:	58c8      	ldr	r0, [r1, r3]
10010980:	50d0      	str	r0, [r2, r3]
10010982:	dcfb      	bgt.n	1001097c <Reset_Handler+0x14>
10010984:	4945      	ldr	r1, [pc, #276]	@ (10010a9c <LPCMP_IRQHandler+0x16>)
10010986:	4a46      	ldr	r2, [pc, #280]	@ (10010aa0 <LPCMP_IRQHandler+0x1a>)
10010988:	2000      	movs	r0, #0
1001098a:	4291      	cmp	r1, r2
1001098c:	bfbc      	itt	lt
1001098e:	f841 0b04 	strlt.w	r0, [r1], #4
10010992:	e7fa      	blt.n	1001098a <Reset_Handler+0x22>

10010994 <.SKIPRAMINIT>:
10010994:	4843      	ldr	r0, [pc, #268]	@ (10010aa4 <LPCMP_IRQHandler+0x1e>)
10010996:	4780      	blx	r0
10010998:	4843      	ldr	r0, [pc, #268]	@ (10010aa8 <LPCMP_IRQHandler+0x22>)
1001099a:	4780      	blx	r0
1001099c:	4843      	ldr	r0, [pc, #268]	@ (10010aac <LPCMP_IRQHandler+0x26>)
1001099e:	4780      	blx	r0

100109a0 <.SPIN>:
100109a0:	f7ff fffe 	bl	100109a0 <.SPIN>
100109a4:	e7fe      	b.n	100109a4 <.SPIN+0x4>

100109a6 <HardFault_Handler>:
100109a6:	e7fe      	b.n	100109a6 <HardFault_Handler>

100109a8 <MemManage_Handler>:
100109a8:	e7fe      	b.n	100109a8 <MemManage_Handler>

100109aa <BusFault_Handler>:
100109aa:	e7fe      	b.n	100109aa <BusFault_Handler>

100109ac <UsageFault_Handler>:
100109ac:	e7fe      	b.n	100109ac <UsageFault_Handler>

100109ae <SVC_Handler>:
100109ae:	e7fe      	b.n	100109ae <SVC_Handler>

100109b0 <DebugMon_Handler>:
100109b0:	e7fe      	b.n	100109b0 <DebugMon_Handler>

100109b2 <PendSV_Handler>:
100109b2:	e7fe      	b.n	100109b2 <PendSV_Handler>

100109b4 <SysTick_Handler>:
100109b4:	e7fe      	b.n	100109b4 <SysTick_Handler>

100109b6 <Default_Handler>:
100109b6:	e7fe      	b.n	100109b6 <Default_Handler>

100109b8 <PF_IRQHandler>:
100109b8:	e7fe      	b.n	100109b8 <PF_IRQHandler>

100109ba <WDT0_IRQHandler>:
100109ba:	e7fe      	b.n	100109ba <WDT0_IRQHandler>

100109bc <RSV02_IRQHandler>:
100109bc:	e7fe      	b.n	100109bc <RSV02_IRQHandler>

100109be <RTC_IRQHandler>:
100109be:	e7fe      	b.n	100109be <RTC_IRQHandler>

100109c0 <TRNG_IRQHandler>:
100109c0:	e7fe      	b.n	100109c0 <TRNG_IRQHandler>

100109c2 <TMR0_IRQHandler>:
100109c2:	e7fe      	b.n	100109c2 <TMR0_IRQHandler>

100109c4 <TMR1_IRQHandler>:
100109c4:	e7fe      	b.n	100109c4 <TMR1_IRQHandler>

100109c6 <TMR2_IRQHandler>:
100109c6:	e7fe      	b.n	100109c6 <TMR2_IRQHandler>

100109c8 <TMR3_IRQHandler>:
100109c8:	e7fe      	b.n	100109c8 <TMR3_IRQHandler>

100109ca <TMR4_IRQHandler>:
100109ca:	e7fe      	b.n	100109ca <TMR4_IRQHandler>

100109cc <TMR5_IRQHandler>:
100109cc:	e7fe      	b.n	100109cc <TMR5_IRQHandler>

100109ce <RSV11_IRQHandler>:
100109ce:	e7fe      	b.n	100109ce <RSV11_IRQHandler>

100109d0 <RSV12_IRQHandler>:
100109d0:	e7fe      	b.n	100109d0 <RSV12_IRQHandler>

100109d2 <I2C0_IRQHandler>:
100109d2:	e7fe      	b.n	100109d2 <I2C0_IRQHandler>

100109d4 <UART0_IRQHandler>:
100109d4:	e7fe      	b.n	100109d4 <UART0_IRQHandler>

100109d6 <UART1_IRQHandler>:
100109d6:	e7fe      	b.n	100109d6 <UART1_IRQHandler>

100109d8 <SPI1_IRQHandler>:
100109d8:	e7fe      	b.n	100109d8 <SPI1_IRQHandler>

100109da <RSV17_IRQHandler>:
100109da:	e7fe      	b.n	100109da <RSV17_IRQHandler>

100109dc <RSV18_IRQHandler>:
100109dc:	e7fe      	b.n	100109dc <RSV18_IRQHandler>

100109de <RSV19_IRQHandler>:
100109de:	e7fe      	b.n	100109de <RSV19_IRQHandler>

100109e0 <ADC_IRQHandler>:
100109e0:	e7fe      	b.n	100109e0 <ADC_IRQHandler>

100109e2 <RSV21_IRQHandler>:
100109e2:	e7fe      	b.n	100109e2 <RSV21_IRQHandler>

100109e4 <RSV22_IRQHandler>:
100109e4:	e7fe      	b.n	100109e4 <RSV22_IRQHandler>

100109e6 <FLC0_IRQHandler>:
100109e6:	e7fe      	b.n	100109e6 <FLC0_IRQHandler>
100109e8:	e7fe      	b.n	100109e8 <FLC0_IRQHandler+0x2>
100109ea:	e7fe      	b.n	100109ea <FLC0_IRQHandler+0x4>

100109ec <GPIO2_IRQHandler>:
100109ec:	e7fe      	b.n	100109ec <GPIO2_IRQHandler>

100109ee <RSV27_IRQHandler>:
100109ee:	e7fe      	b.n	100109ee <RSV27_IRQHandler>

100109f0 <DMA0_IRQHandler>:
100109f0:	e7fe      	b.n	100109f0 <DMA0_IRQHandler>

100109f2 <DMA1_IRQHandler>:
100109f2:	e7fe      	b.n	100109f2 <DMA1_IRQHandler>

100109f4 <DMA2_IRQHandler>:
100109f4:	e7fe      	b.n	100109f4 <DMA2_IRQHandler>

100109f6 <DMA3_IRQHandler>:
100109f6:	e7fe      	b.n	100109f6 <DMA3_IRQHandler>

100109f8 <RSV32_IRQHandler>:
100109f8:	e7fe      	b.n	100109f8 <RSV32_IRQHandler>

100109fa <RSV33_IRQHandler>:
100109fa:	e7fe      	b.n	100109fa <RSV33_IRQHandler>

100109fc <UART2_IRQHandler>:
100109fc:	e7fe      	b.n	100109fc <UART2_IRQHandler>

100109fe <RSV35_IRQHandler>:
100109fe:	e7fe      	b.n	100109fe <RSV35_IRQHandler>

10010a00 <I2C1_IRQHandler>:
10010a00:	e7fe      	b.n	10010a00 <I2C1_IRQHandler>

10010a02 <RSV37_IRQHandler>:
10010a02:	e7fe      	b.n	10010a02 <RSV37_IRQHandler>

10010a04 <RSV38_IRQHandler>:
10010a04:	e7fe      	b.n	10010a04 <RSV38_IRQHandler>

10010a06 <RSV39_IRQHandler>:
10010a06:	e7fe      	b.n	10010a06 <RSV39_IRQHandler>

10010a08 <RSV40_IRQHandler>:
10010a08:	e7fe      	b.n	10010a08 <RSV40_IRQHandler>

10010a0a <RSV41_IRQHandler>:
10010a0a:	e7fe      	b.n	10010a0a <RSV41_IRQHandler>

10010a0c <RSV42_IRQHandler>:
10010a0c:	e7fe      	b.n	10010a0c <RSV42_IRQHandler>

10010a0e <RSV43_IRQHandler>:
10010a0e:	e7fe      	b.n	10010a0e <RSV43_IRQHandler>

10010a10 <RSV44_IRQHandler>:
10010a10:	e7fe      	b.n	10010a10 <RSV44_IRQHandler>

10010a12 <RSV45_IRQHandler>:
10010a12:	e7fe      	b.n	10010a12 <RSV45_IRQHandler>

10010a14 <RSV46_IRQHandler>:
10010a14:	e7fe      	b.n	10010a14 <RSV46_IRQHandler>

10010a16 <RSV47_IRQHandler>:
10010a16:	e7fe      	b.n	10010a16 <RSV47_IRQHandler>

10010a18 <RSV48_IRQHandler>:
10010a18:	e7fe      	b.n	10010a18 <RSV48_IRQHandler>

10010a1a <RSV49_IRQHandler>:
10010a1a:	e7fe      	b.n	10010a1a <RSV49_IRQHandler>

10010a1c <RSV50_IRQHandler>:
10010a1c:	e7fe      	b.n	10010a1c <RSV50_IRQHandler>

10010a1e <RSV51_IRQHandler>:
10010a1e:	e7fe      	b.n	10010a1e <RSV51_IRQHandler>

10010a20 <RSV52_IRQHandler>:
10010a20:	e7fe      	b.n	10010a20 <RSV52_IRQHandler>

10010a22 <WUT_IRQHandler>:
10010a22:	e7fe      	b.n	10010a22 <WUT_IRQHandler>

10010a24 <GPIOWAKE_IRQHandler>:
10010a24:	e7fe      	b.n	10010a24 <GPIOWAKE_IRQHandler>

10010a26 <RSV55_IRQHandler>:
10010a26:	e7fe      	b.n	10010a26 <RSV55_IRQHandler>

10010a28 <SPI0_IRQHandler>:
10010a28:	e7fe      	b.n	10010a28 <SPI0_IRQHandler>

10010a2a <WDT1_IRQHandler>:
10010a2a:	e7fe      	b.n	10010a2a <WDT1_IRQHandler>

10010a2c <RSV58_IRQHandler>:
10010a2c:	e7fe      	b.n	10010a2c <RSV58_IRQHandler>

10010a2e <PT_IRQHandler>:
10010a2e:	e7fe      	b.n	10010a2e <PT_IRQHandler>

10010a30 <RSV60_IRQHandler>:
10010a30:	e7fe      	b.n	10010a30 <RSV60_IRQHandler>

10010a32 <RSV61_IRQHandler>:
10010a32:	e7fe      	b.n	10010a32 <RSV61_IRQHandler>

10010a34 <I2C2_IRQHandler>:
10010a34:	e7fe      	b.n	10010a34 <I2C2_IRQHandler>

10010a36 <RISCV_IRQHandler>:
10010a36:	e7fe      	b.n	10010a36 <RISCV_IRQHandler>

10010a38 <RSV64_IRQHandler>:
10010a38:	e7fe      	b.n	10010a38 <RSV64_IRQHandler>

10010a3a <RSV65_IRQHandler>:
10010a3a:	e7fe      	b.n	10010a3a <RSV65_IRQHandler>

10010a3c <RSV66_IRQHandler>:
10010a3c:	e7fe      	b.n	10010a3c <RSV66_IRQHandler>

10010a3e <OWM_IRQHandler>:
10010a3e:	e7fe      	b.n	10010a3e <OWM_IRQHandler>

10010a40 <RSV68_IRQHandler>:
10010a40:	e7fe      	b.n	10010a40 <RSV68_IRQHandler>

10010a42 <RSV69_IRQHandler>:
10010a42:	e7fe      	b.n	10010a42 <RSV69_IRQHandler>

10010a44 <RSV70_IRQHandler>:
10010a44:	e7fe      	b.n	10010a44 <RSV70_IRQHandler>

10010a46 <RSV71_IRQHandler>:
10010a46:	e7fe      	b.n	10010a46 <RSV71_IRQHandler>

10010a48 <RSV72_IRQHandler>:
10010a48:	e7fe      	b.n	10010a48 <RSV72_IRQHandler>

10010a4a <RSV73_IRQHandler>:
10010a4a:	e7fe      	b.n	10010a4a <RSV73_IRQHandler>

10010a4c <RSV74_IRQHandler>:
10010a4c:	e7fe      	b.n	10010a4c <RSV74_IRQHandler>

10010a4e <RSV75_IRQHandler>:
10010a4e:	e7fe      	b.n	10010a4e <RSV75_IRQHandler>

10010a50 <RSV76_IRQHandler>:
10010a50:	e7fe      	b.n	10010a50 <RSV76_IRQHandler>

10010a52 <RSV77_IRQHandler>:
10010a52:	e7fe      	b.n	10010a52 <RSV77_IRQHandler>

10010a54 <RSV78_IRQHandler>:
10010a54:	e7fe      	b.n	10010a54 <RSV78_IRQHandler>

10010a56 <RSV79_IRQHandler>:
10010a56:	e7fe      	b.n	10010a56 <RSV79_IRQHandler>

10010a58 <RSV80_IRQHandler>:
10010a58:	e7fe      	b.n	10010a58 <RSV80_IRQHandler>

10010a5a <RSV81_IRQHandler>:
10010a5a:	e7fe      	b.n	10010a5a <RSV81_IRQHandler>

10010a5c <ECC_IRQHandler>:
10010a5c:	e7fe      	b.n	10010a5c <ECC_IRQHandler>

10010a5e <DVS_IRQHandler>:
10010a5e:	e7fe      	b.n	10010a5e <DVS_IRQHandler>

10010a60 <SIMO_IRQHandler>:
10010a60:	e7fe      	b.n	10010a60 <SIMO_IRQHandler>

10010a62 <RSV85_IRQHandler>:
10010a62:	e7fe      	b.n	10010a62 <RSV85_IRQHandler>

10010a64 <RSV86_IRQHandler>:
10010a64:	e7fe      	b.n	10010a64 <RSV86_IRQHandler>

10010a66 <RSV87_IRQHandler>:
10010a66:	e7fe      	b.n	10010a66 <RSV87_IRQHandler>

10010a68 <UART3_IRQHandler>:
10010a68:	e7fe      	b.n	10010a68 <UART3_IRQHandler>

10010a6a <RSV89_IRQHandler>:
10010a6a:	e7fe      	b.n	10010a6a <RSV89_IRQHandler>

10010a6c <RSV90_IRQHandler>:
10010a6c:	e7fe      	b.n	10010a6c <RSV90_IRQHandler>

10010a6e <PCIF_IRQHandler>:
10010a6e:	e7fe      	b.n	10010a6e <PCIF_IRQHandler>

10010a70 <RSV92_IRQHandler>:
10010a70:	e7fe      	b.n	10010a70 <RSV92_IRQHandler>

10010a72 <RSV93_IRQHandler>:
10010a72:	e7fe      	b.n	10010a72 <RSV93_IRQHandler>

10010a74 <RSV94_IRQHandler>:
10010a74:	e7fe      	b.n	10010a74 <RSV94_IRQHandler>

10010a76 <RSV95_IRQHandler>:
10010a76:	e7fe      	b.n	10010a76 <RSV95_IRQHandler>

10010a78 <RSV96_IRQHandler>:
10010a78:	e7fe      	b.n	10010a78 <RSV96_IRQHandler>

10010a7a <AES_IRQHandler>:
10010a7a:	e7fe      	b.n	10010a7a <AES_IRQHandler>

10010a7c <RSV98_IRQHandler>:
10010a7c:	e7fe      	b.n	10010a7c <RSV98_IRQHandler>

10010a7e <I2S_IRQHandler>:
10010a7e:	e7fe      	b.n	10010a7e <I2S_IRQHandler>

10010a80 <CNN_FIFO_IRQHandler>:
10010a80:	e7fe      	b.n	10010a80 <CNN_FIFO_IRQHandler>

10010a82 <CNN_IRQHandler>:
10010a82:	e7fe      	b.n	10010a82 <CNN_IRQHandler>

10010a84 <RSV102_IRQHandler>:
10010a84:	e7fe      	b.n	10010a84 <RSV102_IRQHandler>

10010a86 <LPCMP_IRQHandler>:
10010a86:	e7fe      	b.n	10010a86 <LPCMP_IRQHandler>
10010a88:	20020000 	.word	0x20020000
10010a8c:	10010b55 	.word	0x10010b55
10010a90:	1001b5d8 	.word	0x1001b5d8
10010a94:	20000000 	.word	0x20000000
10010a98:	200006f8 	.word	0x200006f8
10010a9c:	20000800 	.word	0x20000800
10010aa0:	20001740 	.word	0x20001740
10010aa4:	10010b59 	.word	0x10010b59
10010aa8:	10014111 	.word	0x10014111
10010aac:	100103f1 	.word	0x100103f1

10010ab0 <_sbrk>:
extern unsigned int __HeapLimit;
caddr_t _sbrk(int incr)
{
    char *prev_heap_end;

    if (heap_end == 0) {
10010ab0:	4a0b      	ldr	r2, [pc, #44]	@ (10010ae0 <_sbrk+0x30>)
{
10010ab2:	b508      	push	{r3, lr}
10010ab4:	4603      	mov	r3, r0
    if (heap_end == 0) {
10010ab6:	6810      	ldr	r0, [r2, #0]
10010ab8:	b128      	cbz	r0, 10010ac6 <_sbrk+0x16>
        heap_end = (caddr_t)&__HeapBase;
    }
    prev_heap_end = heap_end;

    if ((unsigned int)(heap_end + incr) > (unsigned int)&__HeapLimit) {
10010aba:	490a      	ldr	r1, [pc, #40]	@ (10010ae4 <_sbrk+0x34>)
10010abc:	4403      	add	r3, r0
10010abe:	428b      	cmp	r3, r1
10010ac0:	d807      	bhi.n	10010ad2 <_sbrk+0x22>
        errno = ENOMEM;
        return (caddr_t)-1;
    }

    heap_end += incr;
10010ac2:	6013      	str	r3, [r2, #0]

    return (caddr_t)prev_heap_end;
}
10010ac4:	bd08      	pop	{r3, pc}
        heap_end = (caddr_t)&__HeapBase;
10010ac6:	4808      	ldr	r0, [pc, #32]	@ (10010ae8 <_sbrk+0x38>)
    if ((unsigned int)(heap_end + incr) > (unsigned int)&__HeapLimit) {
10010ac8:	4906      	ldr	r1, [pc, #24]	@ (10010ae4 <_sbrk+0x34>)
        heap_end = (caddr_t)&__HeapBase;
10010aca:	6010      	str	r0, [r2, #0]
    if ((unsigned int)(heap_end + incr) > (unsigned int)&__HeapLimit) {
10010acc:	4403      	add	r3, r0
10010ace:	428b      	cmp	r3, r1
10010ad0:	d9f7      	bls.n	10010ac2 <_sbrk+0x12>
        errno = ENOMEM;
10010ad2:	f001 fa09 	bl	10011ee8 <__errno>
10010ad6:	230c      	movs	r3, #12
10010ad8:	6003      	str	r3, [r0, #0]
        return (caddr_t)-1;
10010ada:	f04f 30ff 	mov.w	r0, #4294967295	@ 0xffffffff
}
10010ade:	bd08      	pop	{r3, pc}
10010ae0:	20000c38 	.word	0x20000c38
10010ae4:	2001f000 	.word	0x2001f000
10010ae8:	20001748 	.word	0x20001748

10010aec <SystemCoreClockUpdate>:
__weak void SystemCoreClockUpdate(void)
{
    uint32_t base_freq, div, clk_src;

    // Get the clock source and frequency
    clk_src = (MXC_GCR->clkctrl & MXC_F_GCR_CLKCTRL_SYSCLK_SEL);
10010aec:	f04f 4380 	mov.w	r3, #1073741824	@ 0x40000000
10010af0:	689a      	ldr	r2, [r3, #8]
10010af2:	f402 6260 	and.w	r2, r2, #3584	@ 0xe00
    switch (clk_src) {
10010af6:	f5b2 6f20 	cmp.w	r2, #2560	@ 0xa00
10010afa:	d020      	beq.n	10010b3e <SystemCoreClockUpdate+0x52>
10010afc:	d911      	bls.n	10010b22 <SystemCoreClockUpdate+0x36>
10010afe:	f5b2 6f40 	cmp.w	r2, #3072	@ 0xc00
10010b02:	d017      	beq.n	10010b34 <SystemCoreClockUpdate+0x48>
        break;
    case MXC_S_GCR_CLKCTRL_SYSCLK_SEL_INRO:
        base_freq = INRO_FREQ;
        break;
    case MXC_S_GCR_CLKCTRL_SYSCLK_SEL_IPO:
        base_freq = IPO_FREQ;
10010b04:	4b0f      	ldr	r3, [pc, #60]	@ (10010b44 <SystemCoreClockUpdate+0x58>)
10010b06:	4910      	ldr	r1, [pc, #64]	@ (10010b48 <SystemCoreClockUpdate+0x5c>)
10010b08:	f5b2 6f60 	cmp.w	r2, #3584	@ 0xe00
10010b0c:	bf18      	it	ne
10010b0e:	460b      	movne	r3, r1
        // This code should never execute, however, initialize to safe value.
        base_freq = HIRC_FREQ;
        break;
    }

    div = (MXC_GCR->clkctrl & MXC_F_GCR_CLKCTRL_SYSCLK_DIV) >> MXC_F_GCR_CLKCTRL_SYSCLK_DIV_POS;
10010b10:	f04f 4280 	mov.w	r2, #1073741824	@ 0x40000000

    SystemCoreClock = base_freq >> div;
10010b14:	490d      	ldr	r1, [pc, #52]	@ (10010b4c <SystemCoreClockUpdate+0x60>)
    div = (MXC_GCR->clkctrl & MXC_F_GCR_CLKCTRL_SYSCLK_DIV) >> MXC_F_GCR_CLKCTRL_SYSCLK_DIV_POS;
10010b16:	6892      	ldr	r2, [r2, #8]
10010b18:	f3c2 1282 	ubfx	r2, r2, #6, #3
    SystemCoreClock = base_freq >> div;
10010b1c:	40d3      	lsrs	r3, r2
10010b1e:	600b      	str	r3, [r1, #0]
}
10010b20:	4770      	bx	lr
    switch (clk_src) {
10010b22:	b152      	cbz	r2, 10010b3a <SystemCoreClockUpdate+0x4e>
        base_freq = IPO_FREQ;
10010b24:	4908      	ldr	r1, [pc, #32]	@ (10010b48 <SystemCoreClockUpdate+0x5c>)
10010b26:	f247 5330 	movw	r3, #30000	@ 0x7530
10010b2a:	f5b2 6fc0 	cmp.w	r2, #1536	@ 0x600
10010b2e:	bf18      	it	ne
10010b30:	460b      	movne	r3, r1
10010b32:	e7ed      	b.n	10010b10 <SystemCoreClockUpdate+0x24>
        base_freq = ERTCO_FREQ;
10010b34:	f44f 4300 	mov.w	r3, #32768	@ 0x8000
10010b38:	e7ea      	b.n	10010b10 <SystemCoreClockUpdate+0x24>
        base_freq = ISO_FREQ;
10010b3a:	4b05      	ldr	r3, [pc, #20]	@ (10010b50 <SystemCoreClockUpdate+0x64>)
10010b3c:	e7e8      	b.n	10010b10 <SystemCoreClockUpdate+0x24>
        base_freq = IBRO_FREQ;
10010b3e:	f44f 03e1 	mov.w	r3, #7372800	@ 0x708000
10010b42:	e7e5      	b.n	10010b10 <SystemCoreClockUpdate+0x24>
10010b44:	047868c0 	.word	0x047868c0
10010b48:	05f5e100 	.word	0x05f5e100
10010b4c:	20001740 	.word	0x20001740
10010b50:	03938700 	.word	0x03938700

10010b54 <PreInit>:
 */
__weak int PreInit(void)
{
    /* Do nothing */
    return 0;
}
10010b54:	2000      	movs	r0, #0
10010b56:	4770      	bx	lr

10010b58 <SystemInit>:
 * You may over-ride this function in your program by defining a custom 
 *  SystemInit(), but care should be taken to reproduce the initialization
 *  steps or a non-functional system may result.
 */
__weak void SystemInit(void)
{
10010b58:	b510      	push	{r4, lr}
    /* Configure the interrupt controller to use the application vector table in */
    /* the application space */
#if defined(__CC_ARM) || defined(__GNUC__)
    /* IAR sets the VTOR pointer incorrectly and causes stack corruption */
    SCB->VTOR = (uint32_t)__isr_vector;
10010b5a:	4c0a      	ldr	r4, [pc, #40]	@ (10010b84 <SystemInit+0x2c>)
10010b5c:	4b0a      	ldr	r3, [pc, #40]	@ (10010b88 <SystemInit+0x30>)
10010b5e:	60a3      	str	r3, [r4, #8]
#endif /* __CC_ARM || __GNUC__ */

    /* Enable instruction cache */
    MXC_ICC_Enable(MXC_ICC0);
10010b60:	480a      	ldr	r0, [pc, #40]	@ (10010b8c <SystemInit+0x34>)
10010b62:	f000 fe37 	bl	100117d4 <MXC_ICC_Enable>

    /* Enable FPU on Cortex-M4, which occupies coprocessor slots 10 & 11 */
    /* Grant full access, per "Table B3-24 CPACR bit assignments". */
    /* DDI0403D "ARMv7-M Architecture Reference Manual" */
    SCB->CPACR |= SCB_CPACR_CP10_Msk | SCB_CPACR_CP11_Msk;
10010b66:	f8d4 3088 	ldr.w	r3, [r4, #136]	@ 0x88
10010b6a:	f443 0370 	orr.w	r3, r3, #15728640	@ 0xf00000
10010b6e:	f8c4 3088 	str.w	r3, [r4, #136]	@ 0x88
  __ASM volatile ("dsb 0xF":::"memory");
10010b72:	f3bf 8f4f 	dsb	sy
  __ASM volatile ("isb 0xF":::"memory");
10010b76:	f3bf 8f6f 	isb	sy
    __DSB();
    __ISB();

    SystemCoreClockUpdate();
10010b7a:	f7ff ffb7 	bl	10010aec <SystemCoreClockUpdate>

    Board_Init();
10010b7e:	f7ff fdd7 	bl	10010730 <Board_Init>
}
10010b82:	bd10      	pop	{r4, pc}
10010b84:	e000ed00 	.word	0xe000ed00
10010b88:	10010000 	.word	0x10010000
10010b8c:	4002a000 	.word	0x4002a000

10010b90 <MXC_DelayInit>:
10010b90:	b538      	push	{r3, r4, r5, lr}
10010b92:	f04f 23e0 	mov.w	r3, #3758153728	@ 0xe000e000
10010b96:	4918      	ldr	r1, [pc, #96]	@ (10010bf8 <MXC_DelayInit+0x68>)
10010b98:	699c      	ldr	r4, [r3, #24]
10010b9a:	691a      	ldr	r2, [r3, #16]
10010b9c:	f422 3280 	bic.w	r2, r2, #65536	@ 0x10000
10010ba0:	600a      	str	r2, [r1, #0]
10010ba2:	691a      	ldr	r2, [r3, #16]
10010ba4:	07d2      	lsls	r2, r2, #31
10010ba6:	d41f      	bmi.n	10010be8 <MXC_DelayInit+0x58>
10010ba8:	f06f 447f 	mvn.w	r4, #4278190080	@ 0xff000000
10010bac:	2205      	movs	r2, #5
10010bae:	615c      	str	r4, [r3, #20]
10010bb0:	f04f 7580 	mov.w	r5, #16777216	@ 0x1000000
10010bb4:	619c      	str	r4, [r3, #24]
10010bb6:	611a      	str	r2, [r3, #16]
10010bb8:	4b10      	ldr	r3, [pc, #64]	@ (10010bfc <MXC_DelayInit+0x6c>)
10010bba:	4a11      	ldr	r2, [pc, #68]	@ (10010c00 <MXC_DelayInit+0x70>)
10010bbc:	6819      	ldr	r1, [r3, #0]
10010bbe:	2300      	movs	r3, #0
10010bc0:	fba0 0101 	umull	r0, r1, r0, r1
10010bc4:	f009 ffd4 	bl	1001ab70 <__aeabi_uldivmod>
10010bc8:	4b0e      	ldr	r3, [pc, #56]	@ (10010c04 <MXC_DelayInit+0x74>)
10010bca:	fbb0 f2f5 	udiv	r2, r0, r5
10010bce:	fb05 0012 	mls	r0, r5, r2, r0
10010bd2:	4284      	cmp	r4, r0
10010bd4:	601a      	str	r2, [r3, #0]
10010bd6:	d80a      	bhi.n	10010bee <MXC_DelayInit+0x5e>
10010bd8:	681a      	ldr	r2, [r3, #0]
10010bda:	3201      	adds	r2, #1
10010bdc:	601a      	str	r2, [r3, #0]
10010bde:	4425      	add	r5, r4
10010be0:	4b09      	ldr	r3, [pc, #36]	@ (10010c08 <MXC_DelayInit+0x78>)
10010be2:	1a28      	subs	r0, r5, r0
10010be4:	6018      	str	r0, [r3, #0]
10010be6:	bd38      	pop	{r3, r4, r5, pc}
10010be8:	695d      	ldr	r5, [r3, #20]
10010bea:	3501      	adds	r5, #1
10010bec:	e7e4      	b.n	10010bb8 <MXC_DelayInit+0x28>
10010bee:	4b06      	ldr	r3, [pc, #24]	@ (10010c08 <MXC_DelayInit+0x78>)
10010bf0:	1a20      	subs	r0, r4, r0
10010bf2:	6018      	str	r0, [r3, #0]
10010bf4:	bd38      	pop	{r3, r4, r5, pc}
10010bf6:	bf00      	nop
10010bf8:	20000c40 	.word	0x20000c40
10010bfc:	20001740 	.word	0x20001740
10010c00:	000f4240 	.word	0x000f4240
10010c04:	20000034 	.word	0x20000034
10010c08:	20000c44 	.word	0x20000c44

10010c0c <MXC_DelayAsync>:
10010c0c:	b510      	push	{r4, lr}
10010c0e:	4c0c      	ldr	r4, [pc, #48]	@ (10010c40 <MXC_DelayAsync+0x34>)
10010c10:	4b0c      	ldr	r3, [pc, #48]	@ (10010c44 <MXC_DelayAsync+0x38>)
10010c12:	6822      	ldr	r2, [r4, #0]
10010c14:	6019      	str	r1, [r3, #0]
10010c16:	2a00      	cmp	r2, #0
10010c18:	dc0e      	bgt.n	10010c38 <MXC_DelayAsync+0x2c>
10010c1a:	b908      	cbnz	r0, 10010c20 <MXC_DelayAsync+0x14>
10010c1c:	2000      	movs	r0, #0
10010c1e:	bd10      	pop	{r4, pc}
10010c20:	f7ff ffb6 	bl	10010b90 <MXC_DelayInit>
10010c24:	6823      	ldr	r3, [r4, #0]
10010c26:	2b00      	cmp	r3, #0
10010c28:	ddf8      	ble.n	10010c1c <MXC_DelayAsync+0x10>
10010c2a:	f04f 22e0 	mov.w	r2, #3758153728	@ 0xe000e000
10010c2e:	6913      	ldr	r3, [r2, #16]
10010c30:	f043 0302 	orr.w	r3, r3, #2
10010c34:	6113      	str	r3, [r2, #16]
10010c36:	e7f1      	b.n	10010c1c <MXC_DelayAsync+0x10>
10010c38:	f06f 0005 	mvn.w	r0, #5
10010c3c:	bd10      	pop	{r4, pc}
10010c3e:	bf00      	nop
10010c40:	20000034 	.word	0x20000034
10010c44:	20000c3c 	.word	0x20000c3c

10010c48 <MXC_DelayCheck>:
10010c48:	b5f8      	push	{r3, r4, r5, r6, r7, lr}
10010c4a:	4c17      	ldr	r4, [pc, #92]	@ (10010ca8 <MXC_DelayCheck+0x60>)
10010c4c:	6823      	ldr	r3, [r4, #0]
10010c4e:	2b00      	cmp	r3, #0
10010c50:	db1e      	blt.n	10010c90 <MXC_DelayCheck+0x48>
10010c52:	6826      	ldr	r6, [r4, #0]
10010c54:	bb2e      	cbnz	r6, 10010ca2 <MXC_DelayCheck+0x5a>
10010c56:	4b15      	ldr	r3, [pc, #84]	@ (10010cac <MXC_DelayCheck+0x64>)
10010c58:	f04f 25e0 	mov.w	r5, #3758153728	@ 0xe000e000
10010c5c:	681b      	ldr	r3, [r3, #0]
10010c5e:	69aa      	ldr	r2, [r5, #24]
10010c60:	429a      	cmp	r2, r3
10010c62:	d81e      	bhi.n	10010ca2 <MXC_DelayCheck+0x5a>
10010c64:	4f12      	ldr	r7, [pc, #72]	@ (10010cb0 <MXC_DelayCheck+0x68>)
10010c66:	683b      	ldr	r3, [r7, #0]
10010c68:	b15b      	cbz	r3, 10010c82 <MXC_DelayCheck+0x3a>
10010c6a:	f06f 000f 	mvn.w	r0, #15
10010c6e:	4798      	blx	r3
10010c70:	4b10      	ldr	r3, [pc, #64]	@ (10010cb4 <MXC_DelayCheck+0x6c>)
10010c72:	603e      	str	r6, [r7, #0]
10010c74:	681a      	ldr	r2, [r3, #0]
10010c76:	612a      	str	r2, [r5, #16]
10010c78:	f04f 33ff 	mov.w	r3, #4294967295	@ 0xffffffff
10010c7c:	6023      	str	r3, [r4, #0]
10010c7e:	2000      	movs	r0, #0
10010c80:	bdf8      	pop	{r3, r4, r5, r6, r7, pc}
10010c82:	4a0c      	ldr	r2, [pc, #48]	@ (10010cb4 <MXC_DelayCheck+0x6c>)
10010c84:	f04f 33ff 	mov.w	r3, #4294967295	@ 0xffffffff
10010c88:	6812      	ldr	r2, [r2, #0]
10010c8a:	612a      	str	r2, [r5, #16]
10010c8c:	6023      	str	r3, [r4, #0]
10010c8e:	e7f6      	b.n	10010c7e <MXC_DelayCheck+0x36>
10010c90:	4c07      	ldr	r4, [pc, #28]	@ (10010cb0 <MXC_DelayCheck+0x68>)
10010c92:	6823      	ldr	r3, [r4, #0]
10010c94:	2b00      	cmp	r3, #0
10010c96:	d0f2      	beq.n	10010c7e <MXC_DelayCheck+0x36>
10010c98:	2000      	movs	r0, #0
10010c9a:	4798      	blx	r3
10010c9c:	2300      	movs	r3, #0
10010c9e:	6023      	str	r3, [r4, #0]
10010ca0:	e7ed      	b.n	10010c7e <MXC_DelayCheck+0x36>
10010ca2:	f06f 0005 	mvn.w	r0, #5
10010ca6:	bdf8      	pop	{r3, r4, r5, r6, r7, pc}
10010ca8:	20000034 	.word	0x20000034
10010cac:	20000c44 	.word	0x20000c44
10010cb0:	20000c3c 	.word	0x20000c3c
10010cb4:	20000c40 	.word	0x20000c40

10010cb8 <MXC_DelayAbort>:
10010cb8:	b510      	push	{r4, lr}
10010cba:	4c09      	ldr	r4, [pc, #36]	@ (10010ce0 <MXC_DelayAbort+0x28>)
10010cbc:	6823      	ldr	r3, [r4, #0]
10010cbe:	b123      	cbz	r3, 10010cca <MXC_DelayAbort+0x12>
10010cc0:	f06f 000f 	mvn.w	r0, #15
10010cc4:	4798      	blx	r3
10010cc6:	2300      	movs	r3, #0
10010cc8:	6023      	str	r3, [r4, #0]
10010cca:	4a06      	ldr	r2, [pc, #24]	@ (10010ce4 <MXC_DelayAbort+0x2c>)
10010ccc:	4b06      	ldr	r3, [pc, #24]	@ (10010ce8 <MXC_DelayAbort+0x30>)
10010cce:	6810      	ldr	r0, [r2, #0]
10010cd0:	f04f 21e0 	mov.w	r1, #3758153728	@ 0xe000e000
10010cd4:	f04f 32ff 	mov.w	r2, #4294967295	@ 0xffffffff
10010cd8:	6108      	str	r0, [r1, #16]
10010cda:	601a      	str	r2, [r3, #0]
10010cdc:	bd10      	pop	{r4, pc}
10010cde:	bf00      	nop
10010ce0:	20000c3c 	.word	0x20000c3c
10010ce4:	20000c40 	.word	0x20000c40
10010ce8:	20000034 	.word	0x20000034

10010cec <MXC_Delay>:
10010cec:	b538      	push	{r3, r4, r5, lr}
10010cee:	4c18      	ldr	r4, [pc, #96]	@ (10010d50 <MXC_Delay+0x64>)
10010cf0:	6822      	ldr	r2, [r4, #0]
10010cf2:	2a00      	cmp	r2, #0
10010cf4:	dc29      	bgt.n	10010d4a <MXC_Delay+0x5e>
10010cf6:	b908      	cbnz	r0, 10010cfc <MXC_Delay+0x10>
10010cf8:	2000      	movs	r0, #0
10010cfa:	bd38      	pop	{r3, r4, r5, pc}
10010cfc:	f7ff ff48 	bl	10010b90 <MXC_DelayInit>
10010d00:	f04f 22e0 	mov.w	r2, #3758153728	@ 0xe000e000
10010d04:	e002      	b.n	10010d0c <MXC_Delay+0x20>
10010d06:	6913      	ldr	r3, [r2, #16]
10010d08:	03db      	lsls	r3, r3, #15
10010d0a:	d41a      	bmi.n	10010d42 <MXC_Delay+0x56>
10010d0c:	6823      	ldr	r3, [r4, #0]
10010d0e:	2b00      	cmp	r3, #0
10010d10:	dcf9      	bgt.n	10010d06 <MXC_Delay+0x1a>
10010d12:	4b10      	ldr	r3, [pc, #64]	@ (10010d54 <MXC_Delay+0x68>)
10010d14:	681a      	ldr	r2, [r3, #0]
10010d16:	f04f 21e0 	mov.w	r1, #3758153728	@ 0xe000e000
10010d1a:	698b      	ldr	r3, [r1, #24]
10010d1c:	4293      	cmp	r3, r2
10010d1e:	d8fc      	bhi.n	10010d1a <MXC_Delay+0x2e>
10010d20:	4d0d      	ldr	r5, [pc, #52]	@ (10010d58 <MXC_Delay+0x6c>)
10010d22:	682b      	ldr	r3, [r5, #0]
10010d24:	b123      	cbz	r3, 10010d30 <MXC_Delay+0x44>
10010d26:	f06f 000f 	mvn.w	r0, #15
10010d2a:	4798      	blx	r3
10010d2c:	2300      	movs	r3, #0
10010d2e:	602b      	str	r3, [r5, #0]
10010d30:	4b0a      	ldr	r3, [pc, #40]	@ (10010d5c <MXC_Delay+0x70>)
10010d32:	f04f 22e0 	mov.w	r2, #3758153728	@ 0xe000e000
10010d36:	6819      	ldr	r1, [r3, #0]
10010d38:	6111      	str	r1, [r2, #16]
10010d3a:	f04f 33ff 	mov.w	r3, #4294967295	@ 0xffffffff
10010d3e:	6023      	str	r3, [r4, #0]
10010d40:	e7da      	b.n	10010cf8 <MXC_Delay+0xc>
10010d42:	6823      	ldr	r3, [r4, #0]
10010d44:	3b01      	subs	r3, #1
10010d46:	6023      	str	r3, [r4, #0]
10010d48:	e7e0      	b.n	10010d0c <MXC_Delay+0x20>
10010d4a:	f06f 0005 	mvn.w	r0, #5
10010d4e:	bd38      	pop	{r3, r4, r5, pc}
10010d50:	20000034 	.word	0x20000034
10010d54:	20000c44 	.word	0x20000c44
10010d58:	20000c3c 	.word	0x20000c3c
10010d5c:	20000c40 	.word	0x20000c40

10010d60 <MXC_NVIC_SetVector>:
10010d60:	b5f8      	push	{r3, r4, r5, r6, r7, lr}
10010d62:	4e0f      	ldr	r6, [pc, #60]	@ (10010da0 <MXC_NVIC_SetVector+0x40>)
10010d64:	4b0f      	ldr	r3, [pc, #60]	@ (10010da4 <MXC_NVIC_SetVector+0x44>)
10010d66:	68b2      	ldr	r2, [r6, #8]
10010d68:	429a      	cmp	r2, r3
10010d6a:	4604      	mov	r4, r0
10010d6c:	460d      	mov	r5, r1
10010d6e:	f100 0710 	add.w	r7, r0, #16
10010d72:	d007      	beq.n	10010d84 <MXC_NVIC_SetVector+0x24>
10010d74:	4618      	mov	r0, r3
10010d76:	490c      	ldr	r1, [pc, #48]	@ (10010da8 <MXC_NVIC_SetVector+0x48>)
10010d78:	f44f 72f0 	mov.w	r2, #480	@ 0x1e0
10010d7c:	f004 fb80 	bl	10015480 <memcpy>
10010d80:	4603      	mov	r3, r0
10010d82:	60b0      	str	r0, [r6, #8]
10010d84:	2c00      	cmp	r4, #0
10010d86:	f843 5027 	str.w	r5, [r3, r7, lsl #2]
10010d8a:	db07      	blt.n	10010d9c <MXC_NVIC_SetVector+0x3c>
10010d8c:	4a07      	ldr	r2, [pc, #28]	@ (10010dac <MXC_NVIC_SetVector+0x4c>)
10010d8e:	0961      	lsrs	r1, r4, #5
10010d90:	2301      	movs	r3, #1
10010d92:	f004 041f 	and.w	r4, r4, #31
10010d96:	40a3      	lsls	r3, r4
10010d98:	f842 3021 	str.w	r3, [r2, r1, lsl #2]
10010d9c:	bdf8      	pop	{r3, r4, r5, r6, r7, pc}
10010d9e:	bf00      	nop
10010da0:	e000ed00 	.word	0xe000ed00
10010da4:	20000e00 	.word	0x20000e00
10010da8:	10010000 	.word	0x10010000
10010dac:	e000e100 	.word	0xe000e100

10010db0 <MXC_SYS_ClockDisable>:
10010db0:	283f      	cmp	r0, #63	@ 0x3f
10010db2:	d908      	bls.n	10010dc6 <MXC_SYS_ClockDisable+0x16>
10010db4:	4a0d      	ldr	r2, [pc, #52]	@ (10010dec <MXC_SYS_ClockDisable+0x3c>)
10010db6:	3840      	subs	r0, #64	@ 0x40
10010db8:	68d1      	ldr	r1, [r2, #12]
10010dba:	b2c0      	uxtb	r0, r0
10010dbc:	2301      	movs	r3, #1
10010dbe:	4083      	lsls	r3, r0
10010dc0:	430b      	orrs	r3, r1
10010dc2:	60d3      	str	r3, [r2, #12]
10010dc4:	4770      	bx	lr
10010dc6:	281f      	cmp	r0, #31
10010dc8:	f04f 4280 	mov.w	r2, #1073741824	@ 0x40000000
10010dcc:	d907      	bls.n	10010dde <MXC_SYS_ClockDisable+0x2e>
10010dce:	3820      	subs	r0, #32
10010dd0:	6c91      	ldr	r1, [r2, #72]	@ 0x48
10010dd2:	b2c0      	uxtb	r0, r0
10010dd4:	2301      	movs	r3, #1
10010dd6:	4083      	lsls	r3, r0
10010dd8:	430b      	orrs	r3, r1
10010dda:	6493      	str	r3, [r2, #72]	@ 0x48
10010ddc:	4770      	bx	lr
10010dde:	6a51      	ldr	r1, [r2, #36]	@ 0x24
10010de0:	2301      	movs	r3, #1
10010de2:	4083      	lsls	r3, r0
10010de4:	430b      	orrs	r3, r1
10010de6:	6253      	str	r3, [r2, #36]	@ 0x24
10010de8:	4770      	bx	lr
10010dea:	bf00      	nop
10010dec:	40080000 	.word	0x40080000

10010df0 <MXC_SYS_ClockEnable>:
10010df0:	283f      	cmp	r0, #63	@ 0x3f
10010df2:	d909      	bls.n	10010e08 <MXC_SYS_ClockEnable+0x18>
10010df4:	490e      	ldr	r1, [pc, #56]	@ (10010e30 <MXC_SYS_ClockEnable+0x40>)
10010df6:	3840      	subs	r0, #64	@ 0x40
10010df8:	68cb      	ldr	r3, [r1, #12]
10010dfa:	b2c0      	uxtb	r0, r0
10010dfc:	2201      	movs	r2, #1
10010dfe:	4082      	lsls	r2, r0
10010e00:	ea23 0302 	bic.w	r3, r3, r2
10010e04:	60cb      	str	r3, [r1, #12]
10010e06:	4770      	bx	lr
10010e08:	281f      	cmp	r0, #31
10010e0a:	f04f 4180 	mov.w	r1, #1073741824	@ 0x40000000
10010e0e:	d908      	bls.n	10010e22 <MXC_SYS_ClockEnable+0x32>
10010e10:	3820      	subs	r0, #32
10010e12:	6c8b      	ldr	r3, [r1, #72]	@ 0x48
10010e14:	b2c0      	uxtb	r0, r0
10010e16:	2201      	movs	r2, #1
10010e18:	4082      	lsls	r2, r0
10010e1a:	ea23 0302 	bic.w	r3, r3, r2
10010e1e:	648b      	str	r3, [r1, #72]	@ 0x48
10010e20:	4770      	bx	lr
10010e22:	6a4b      	ldr	r3, [r1, #36]	@ 0x24
10010e24:	2201      	movs	r2, #1
10010e26:	4082      	lsls	r2, r0
10010e28:	ea23 0302 	bic.w	r3, r3, r2
10010e2c:	624b      	str	r3, [r1, #36]	@ 0x24
10010e2e:	4770      	bx	lr
10010e30:	40080000 	.word	0x40080000

10010e34 <MXC_SYS_ClockSourceEnable>:
10010e34:	b510      	push	{r4, lr}
10010e36:	2807      	cmp	r0, #7
10010e38:	d80a      	bhi.n	10010e50 <MXC_SYS_ClockSourceEnable+0x1c>
10010e3a:	e8df f000 	tbb	[pc, r0]
10010e3e:	090c      	.short	0x090c
10010e40:	47332309 	.word	0x47332309
10010e44:	045b      	.short	0x045b
10010e46:	e8bd 4010 	ldmia.w	sp!, {r4, lr}
10010e4a:	4836      	ldr	r0, [pc, #216]	@ (10010f24 <MXC_SYS_ClockSourceEnable+0xf0>)
10010e4c:	f000 b8b0 	b.w	10010fb0 <MXC_GPIO_Config>
10010e50:	f06f 0002 	mvn.w	r0, #2
10010e54:	bd10      	pop	{r4, pc}
10010e56:	f04f 4480 	mov.w	r4, #1073741824	@ 0x40000000
10010e5a:	2100      	movs	r1, #0
10010e5c:	68a3      	ldr	r3, [r4, #8]
10010e5e:	f443 2380 	orr.w	r3, r3, #262144	@ 0x40000
10010e62:	60a3      	str	r3, [r4, #8]
10010e64:	f44f 707a 	mov.w	r0, #1000	@ 0x3e8
10010e68:	f7ff fed0 	bl	10010c0c <MXC_DelayAsync>
10010e6c:	e003      	b.n	10010e76 <MXC_SYS_ClockSourceEnable+0x42>
10010e6e:	f7ff feeb 	bl	10010c48 <MXC_DelayCheck>
10010e72:	3006      	adds	r0, #6
10010e74:	d152      	bne.n	10010f1c <MXC_SYS_ClockSourceEnable+0xe8>
10010e76:	68a3      	ldr	r3, [r4, #8]
10010e78:	0159      	lsls	r1, r3, #5
10010e7a:	d5f8      	bpl.n	10010e6e <MXC_SYS_ClockSourceEnable+0x3a>
10010e7c:	f7ff ff1c 	bl	10010cb8 <MXC_DelayAbort>
10010e80:	2000      	movs	r0, #0
10010e82:	bd10      	pop	{r4, pc}
10010e84:	2100      	movs	r1, #0
10010e86:	f44f 707a 	mov.w	r0, #1000	@ 0x3e8
10010e8a:	f7ff febf 	bl	10010c0c <MXC_DelayAsync>
10010e8e:	f04f 4480 	mov.w	r4, #1073741824	@ 0x40000000
10010e92:	e003      	b.n	10010e9c <MXC_SYS_ClockSourceEnable+0x68>
10010e94:	f7ff fed8 	bl	10010c48 <MXC_DelayCheck>
10010e98:	3006      	adds	r0, #6
10010e9a:	d13f      	bne.n	10010f1c <MXC_SYS_ClockSourceEnable+0xe8>
10010e9c:	68a3      	ldr	r3, [r4, #8]
10010e9e:	009a      	lsls	r2, r3, #2
10010ea0:	d4ec      	bmi.n	10010e7c <MXC_SYS_ClockSourceEnable+0x48>
10010ea2:	e7f7      	b.n	10010e94 <MXC_SYS_ClockSourceEnable+0x60>
10010ea4:	f04f 4480 	mov.w	r4, #1073741824	@ 0x40000000
10010ea8:	2100      	movs	r1, #0
10010eaa:	68a3      	ldr	r3, [r4, #8]
10010eac:	f443 2300 	orr.w	r3, r3, #524288	@ 0x80000
10010eb0:	60a3      	str	r3, [r4, #8]
10010eb2:	f44f 707a 	mov.w	r0, #1000	@ 0x3e8
10010eb6:	f7ff fea9 	bl	10010c0c <MXC_DelayAsync>
10010eba:	e003      	b.n	10010ec4 <MXC_SYS_ClockSourceEnable+0x90>
10010ebc:	f7ff fec4 	bl	10010c48 <MXC_DelayCheck>
10010ec0:	3006      	adds	r0, #6
10010ec2:	d12b      	bne.n	10010f1c <MXC_SYS_ClockSourceEnable+0xe8>
10010ec4:	68a3      	ldr	r3, [r4, #8]
10010ec6:	011b      	lsls	r3, r3, #4
10010ec8:	d5f8      	bpl.n	10010ebc <MXC_SYS_ClockSourceEnable+0x88>
10010eca:	e7d7      	b.n	10010e7c <MXC_SYS_ClockSourceEnable+0x48>
10010ecc:	f04f 4480 	mov.w	r4, #1073741824	@ 0x40000000
10010ed0:	2100      	movs	r1, #0
10010ed2:	68a3      	ldr	r3, [r4, #8]
10010ed4:	f443 1380 	orr.w	r3, r3, #1048576	@ 0x100000
10010ed8:	60a3      	str	r3, [r4, #8]
10010eda:	f44f 707a 	mov.w	r0, #1000	@ 0x3e8
10010ede:	f7ff fe95 	bl	10010c0c <MXC_DelayAsync>
10010ee2:	e003      	b.n	10010eec <MXC_SYS_ClockSourceEnable+0xb8>
10010ee4:	f7ff feb0 	bl	10010c48 <MXC_DelayCheck>
10010ee8:	3006      	adds	r0, #6
10010eea:	d117      	bne.n	10010f1c <MXC_SYS_ClockSourceEnable+0xe8>
10010eec:	68a3      	ldr	r3, [r4, #8]
10010eee:	00d8      	lsls	r0, r3, #3
10010ef0:	d4c4      	bmi.n	10010e7c <MXC_SYS_ClockSourceEnable+0x48>
10010ef2:	e7f7      	b.n	10010ee4 <MXC_SYS_ClockSourceEnable+0xb0>
10010ef4:	f04f 4480 	mov.w	r4, #1073741824	@ 0x40000000
10010ef8:	2100      	movs	r1, #0
10010efa:	68a3      	ldr	r3, [r4, #8]
10010efc:	f443 3300 	orr.w	r3, r3, #131072	@ 0x20000
10010f00:	60a3      	str	r3, [r4, #8]
10010f02:	f44f 707a 	mov.w	r0, #1000	@ 0x3e8
10010f06:	f7ff fe81 	bl	10010c0c <MXC_DelayAsync>
10010f0a:	e003      	b.n	10010f14 <MXC_SYS_ClockSourceEnable+0xe0>
10010f0c:	f7ff fe9c 	bl	10010c48 <MXC_DelayCheck>
10010f10:	3006      	adds	r0, #6
10010f12:	d103      	bne.n	10010f1c <MXC_SYS_ClockSourceEnable+0xe8>
10010f14:	68a3      	ldr	r3, [r4, #8]
10010f16:	019b      	lsls	r3, r3, #6
10010f18:	d4b0      	bmi.n	10010e7c <MXC_SYS_ClockSourceEnable+0x48>
10010f1a:	e7f7      	b.n	10010f0c <MXC_SYS_ClockSourceEnable+0xd8>
10010f1c:	f06f 0009 	mvn.w	r0, #9
10010f20:	bd10      	pop	{r4, pc}
10010f22:	bf00      	nop
10010f24:	1001b0d4 	.word	0x1001b0d4

10010f28 <MXC_SYS_Reset_Periph>:
10010f28:	283f      	cmp	r0, #63	@ 0x3f
10010f2a:	d909      	bls.n	10010f40 <MXC_SYS_Reset_Periph+0x18>
10010f2c:	3840      	subs	r0, #64	@ 0x40
10010f2e:	490f      	ldr	r1, [pc, #60]	@ (10010f6c <MXC_SYS_Reset_Periph+0x44>)
10010f30:	b2c0      	uxtb	r0, r0
10010f32:	2201      	movs	r2, #1
10010f34:	4082      	lsls	r2, r0
10010f36:	608a      	str	r2, [r1, #8]
10010f38:	688b      	ldr	r3, [r1, #8]
10010f3a:	421a      	tst	r2, r3
10010f3c:	d1fc      	bne.n	10010f38 <MXC_SYS_Reset_Periph+0x10>
10010f3e:	4770      	bx	lr
10010f40:	281f      	cmp	r0, #31
10010f42:	d90a      	bls.n	10010f5a <MXC_SYS_Reset_Periph+0x32>
10010f44:	3820      	subs	r0, #32
10010f46:	b2c0      	uxtb	r0, r0
10010f48:	2201      	movs	r2, #1
10010f4a:	f04f 4180 	mov.w	r1, #1073741824	@ 0x40000000
10010f4e:	4082      	lsls	r2, r0
10010f50:	644a      	str	r2, [r1, #68]	@ 0x44
10010f52:	6c4b      	ldr	r3, [r1, #68]	@ 0x44
10010f54:	421a      	tst	r2, r3
10010f56:	d1fc      	bne.n	10010f52 <MXC_SYS_Reset_Periph+0x2a>
10010f58:	4770      	bx	lr
10010f5a:	2201      	movs	r2, #1
10010f5c:	f04f 4180 	mov.w	r1, #1073741824	@ 0x40000000
10010f60:	4082      	lsls	r2, r0
10010f62:	604a      	str	r2, [r1, #4]
10010f64:	684b      	ldr	r3, [r1, #4]
10010f66:	421a      	tst	r2, r3
10010f68:	d1fc      	bne.n	10010f64 <MXC_SYS_Reset_Periph+0x3c>
10010f6a:	4770      	bx	lr
10010f6c:	40080000 	.word	0x40080000

10010f70 <MXC_GPIO_Init>:
10010f70:	07c1      	lsls	r1, r0, #31
10010f72:	b510      	push	{r4, lr}
10010f74:	4604      	mov	r4, r0
10010f76:	d408      	bmi.n	10010f8a <MXC_GPIO_Init+0x1a>
10010f78:	07a2      	lsls	r2, r4, #30
10010f7a:	d40b      	bmi.n	10010f94 <MXC_GPIO_Init+0x24>
10010f7c:	0763      	lsls	r3, r4, #29
10010f7e:	d40e      	bmi.n	10010f9e <MXC_GPIO_Init+0x2e>
10010f80:	4620      	mov	r0, r4
10010f82:	e8bd 4010 	ldmia.w	sp!, {r4, lr}
10010f86:	f000 bf53 	b.w	10011e30 <MXC_GPIO_Common_Init>
10010f8a:	2000      	movs	r0, #0
10010f8c:	f7ff ff30 	bl	10010df0 <MXC_SYS_ClockEnable>
10010f90:	07a2      	lsls	r2, r4, #30
10010f92:	d5f3      	bpl.n	10010f7c <MXC_GPIO_Init+0xc>
10010f94:	2001      	movs	r0, #1
10010f96:	f7ff ff2b 	bl	10010df0 <MXC_SYS_ClockEnable>
10010f9a:	0763      	lsls	r3, r4, #29
10010f9c:	d5f0      	bpl.n	10010f80 <MXC_GPIO_Init+0x10>
10010f9e:	2040      	movs	r0, #64	@ 0x40
10010fa0:	f7ff ff26 	bl	10010df0 <MXC_SYS_ClockEnable>
10010fa4:	4620      	mov	r0, r4
10010fa6:	e8bd 4010 	ldmia.w	sp!, {r4, lr}
10010faa:	f000 bf41 	b.w	10011e30 <MXC_GPIO_Common_Init>
10010fae:	bf00      	nop

10010fb0 <MXC_GPIO_Config>:
10010fb0:	b570      	push	{r4, r5, r6, lr}
10010fb2:	4b7f      	ldr	r3, [pc, #508]	@ (100111b0 <MXC_GPIO_Config+0x200>)
10010fb4:	6805      	ldr	r5, [r0, #0]
10010fb6:	429d      	cmp	r5, r3
10010fb8:	4604      	mov	r4, r0
10010fba:	d037      	beq.n	1001102c <MXC_GPIO_Config+0x7c>
10010fbc:	f503 5380 	add.w	r3, r3, #4096	@ 0x1000
10010fc0:	429d      	cmp	r5, r3
10010fc2:	d020      	beq.n	10011006 <MXC_GPIO_Config+0x56>
10010fc4:	f503 23ee 	add.w	r3, r3, #487424	@ 0x77000
10010fc8:	f503 6380 	add.w	r3, r3, #1024	@ 0x400
10010fcc:	429d      	cmp	r5, r3
10010fce:	d07f      	beq.n	100110d0 <MXC_GPIO_Config+0x120>
10010fd0:	4878      	ldr	r0, [pc, #480]	@ (100111b4 <MXC_GPIO_Config+0x204>)
10010fd2:	1a28      	subs	r0, r5, r0
10010fd4:	fab0 f080 	clz	r0, r0
10010fd8:	0940      	lsrs	r0, r0, #5
10010fda:	00c0      	lsls	r0, r0, #3
10010fdc:	f7ff ffc8 	bl	10010f70 <MXC_GPIO_Init>
10010fe0:	4b74      	ldr	r3, [pc, #464]	@ (100111b4 <MXC_GPIO_Config+0x204>)
10010fe2:	6822      	ldr	r2, [r4, #0]
10010fe4:	429a      	cmp	r2, r3
10010fe6:	d015      	beq.n	10011014 <MXC_GPIO_Config+0x64>
10010fe8:	6862      	ldr	r2, [r4, #4]
10010fea:	7a21      	ldrb	r1, [r4, #8]
10010fec:	4628      	mov	r0, r5
10010fee:	f000 f94b 	bl	10011288 <MXC_GPIO_RevA_SetAF>
10010ff2:	b9d0      	cbnz	r0, 1001102a <MXC_GPIO_Config+0x7a>
10010ff4:	7a63      	ldrb	r3, [r4, #9]
10010ff6:	2b04      	cmp	r3, #4
10010ff8:	f200 80d7 	bhi.w	100111aa <MXC_GPIO_Config+0x1fa>
10010ffc:	e8df f003 	tbb	[pc, r3]
10011000:	2f3e4c5a 	.word	0x2f3e4c5a
10011004:	18          	.byte	0x18
10011005:	00          	.byte	0x00
10011006:	2002      	movs	r0, #2
10011008:	f7ff ffb2 	bl	10010f70 <MXC_GPIO_Init>
1001100c:	4b69      	ldr	r3, [pc, #420]	@ (100111b4 <MXC_GPIO_Config+0x204>)
1001100e:	6822      	ldr	r2, [r4, #0]
10011010:	429a      	cmp	r2, r3
10011012:	d1e9      	bne.n	10010fe8 <MXC_GPIO_Config+0x38>
10011014:	7a23      	ldrb	r3, [r4, #8]
10011016:	2b01      	cmp	r3, #1
10011018:	f000 80bb 	beq.w	10011192 <MXC_GPIO_Config+0x1e2>
1001101c:	2b02      	cmp	r3, #2
1001101e:	f000 80a5 	beq.w	1001116c <MXC_GPIO_Config+0x1bc>
10011022:	2b00      	cmp	r3, #0
10011024:	d056      	beq.n	100110d4 <MXC_GPIO_Config+0x124>
10011026:	f06f 0010 	mvn.w	r0, #16
1001102a:	bd70      	pop	{r4, r5, r6, pc}
1001102c:	2001      	movs	r0, #1
1001102e:	e7d5      	b.n	10010fdc <MXC_GPIO_Config+0x2c>
10011030:	6e2b      	ldr	r3, [r5, #96]	@ 0x60
10011032:	6862      	ldr	r2, [r4, #4]
10011034:	ea23 0302 	bic.w	r3, r3, r2
10011038:	662b      	str	r3, [r5, #96]	@ 0x60
1001103a:	6e6b      	ldr	r3, [r5, #100]	@ 0x64
1001103c:	4313      	orrs	r3, r2
1001103e:	666b      	str	r3, [r5, #100]	@ 0x64
10011040:	f8d5 30b8 	ldr.w	r3, [r5, #184]	@ 0xb8
10011044:	ea23 0302 	bic.w	r3, r3, r2
10011048:	f8c5 30b8 	str.w	r3, [r5, #184]	@ 0xb8
1001104c:	4b59      	ldr	r3, [pc, #356]	@ (100111b4 <MXC_GPIO_Config+0x204>)
1001104e:	7aa1      	ldrb	r1, [r4, #10]
10011050:	429d      	cmp	r5, r3
10011052:	d039      	beq.n	100110c8 <MXC_GPIO_Config+0x118>
10011054:	4628      	mov	r0, r5
10011056:	e8bd 4070 	ldmia.w	sp!, {r4, r5, r6, lr}
1001105a:	f000 b8ff 	b.w	1001125c <MXC_GPIO_RevA_SetVSSEL>
1001105e:	6e2b      	ldr	r3, [r5, #96]	@ 0x60
10011060:	6862      	ldr	r2, [r4, #4]
10011062:	4313      	orrs	r3, r2
10011064:	662b      	str	r3, [r5, #96]	@ 0x60
10011066:	6e6b      	ldr	r3, [r5, #100]	@ 0x64
10011068:	ea23 0302 	bic.w	r3, r3, r2
1001106c:	666b      	str	r3, [r5, #100]	@ 0x64
1001106e:	f8d5 30b8 	ldr.w	r3, [r5, #184]	@ 0xb8
10011072:	ea23 0302 	bic.w	r3, r3, r2
10011076:	f8c5 30b8 	str.w	r3, [r5, #184]	@ 0xb8
1001107a:	e7e7      	b.n	1001104c <MXC_GPIO_Config+0x9c>
1001107c:	6e2b      	ldr	r3, [r5, #96]	@ 0x60
1001107e:	6862      	ldr	r2, [r4, #4]
10011080:	ea23 0302 	bic.w	r3, r3, r2
10011084:	662b      	str	r3, [r5, #96]	@ 0x60
10011086:	6e6b      	ldr	r3, [r5, #100]	@ 0x64
10011088:	4313      	orrs	r3, r2
1001108a:	666b      	str	r3, [r5, #100]	@ 0x64
1001108c:	f8d5 30b8 	ldr.w	r3, [r5, #184]	@ 0xb8
10011090:	4313      	orrs	r3, r2
10011092:	f8c5 30b8 	str.w	r3, [r5, #184]	@ 0xb8
10011096:	e7d9      	b.n	1001104c <MXC_GPIO_Config+0x9c>
10011098:	6e2b      	ldr	r3, [r5, #96]	@ 0x60
1001109a:	6862      	ldr	r2, [r4, #4]
1001109c:	4313      	orrs	r3, r2
1001109e:	662b      	str	r3, [r5, #96]	@ 0x60
100110a0:	6e6b      	ldr	r3, [r5, #100]	@ 0x64
100110a2:	ea23 0302 	bic.w	r3, r3, r2
100110a6:	666b      	str	r3, [r5, #100]	@ 0x64
100110a8:	f8d5 30b8 	ldr.w	r3, [r5, #184]	@ 0xb8
100110ac:	4313      	orrs	r3, r2
100110ae:	f8c5 30b8 	str.w	r3, [r5, #184]	@ 0xb8
100110b2:	e7cb      	b.n	1001104c <MXC_GPIO_Config+0x9c>
100110b4:	6e2b      	ldr	r3, [r5, #96]	@ 0x60
100110b6:	6862      	ldr	r2, [r4, #4]
100110b8:	ea23 0302 	bic.w	r3, r3, r2
100110bc:	662b      	str	r3, [r5, #96]	@ 0x60
100110be:	6e6b      	ldr	r3, [r5, #100]	@ 0x64
100110c0:	ea23 0302 	bic.w	r3, r3, r2
100110c4:	666b      	str	r3, [r5, #100]	@ 0x64
100110c6:	e7c1      	b.n	1001104c <MXC_GPIO_Config+0x9c>
100110c8:	2900      	cmp	r1, #0
100110ca:	d0ac      	beq.n	10011026 <MXC_GPIO_Config+0x76>
100110cc:	2000      	movs	r0, #0
100110ce:	bd70      	pop	{r4, r5, r6, pc}
100110d0:	2004      	movs	r0, #4
100110d2:	e783      	b.n	10010fdc <MXC_GPIO_Config+0x2c>
100110d4:	6863      	ldr	r3, [r4, #4]
100110d6:	4938      	ldr	r1, [pc, #224]	@ (100111b8 <MXC_GPIO_Config+0x208>)
100110d8:	0058      	lsls	r0, r3, #1
100110da:	011a      	lsls	r2, r3, #4
100110dc:	6a0e      	ldr	r6, [r1, #32]
100110de:	f000 0002 	and.w	r0, r0, #2
100110e2:	f002 0220 	and.w	r2, r2, #32
100110e6:	4302      	orrs	r2, r0
100110e8:	ea26 0202 	bic.w	r2, r6, r2
100110ec:	620a      	str	r2, [r1, #32]
100110ee:	688a      	ldr	r2, [r1, #8]
100110f0:	f3c3 0340 	ubfx	r3, r3, #1, #1
100110f4:	4303      	orrs	r3, r0
100110f6:	ea22 0303 	bic.w	r3, r2, r3
100110fa:	608b      	str	r3, [r1, #8]
100110fc:	7a63      	ldrb	r3, [r4, #9]
100110fe:	2b04      	cmp	r3, #4
10011100:	d891      	bhi.n	10011026 <MXC_GPIO_Config+0x76>
10011102:	e8df f003 	tbb	[pc, r3]
10011106:	1b26      	.short	0x1b26
10011108:	1b03      	.short	0x1b03
1001110a:	03          	.byte	0x03
1001110b:	00          	.byte	0x00
1001110c:	6862      	ldr	r2, [r4, #4]
1001110e:	492a      	ldr	r1, [pc, #168]	@ (100111b8 <MXC_GPIO_Config+0x208>)
10011110:	00d3      	lsls	r3, r2, #3
10011112:	6a08      	ldr	r0, [r1, #32]
10011114:	f003 0310 	and.w	r3, r3, #16
10011118:	f002 0601 	and.w	r6, r2, #1
1001111c:	4333      	orrs	r3, r6
1001111e:	ea20 0303 	bic.w	r3, r0, r3
10011122:	620b      	str	r3, [r1, #32]
10011124:	0156      	lsls	r6, r2, #5
10011126:	0093      	lsls	r3, r2, #2
10011128:	6a08      	ldr	r0, [r1, #32]
1001112a:	f003 0304 	and.w	r3, r3, #4
1001112e:	f006 0640 	and.w	r6, r6, #64	@ 0x40
10011132:	4333      	orrs	r3, r6
10011134:	ea20 0303 	bic.w	r3, r0, r3
10011138:	620b      	str	r3, [r1, #32]
1001113a:	e787      	b.n	1001104c <MXC_GPIO_Config+0x9c>
1001113c:	491e      	ldr	r1, [pc, #120]	@ (100111b8 <MXC_GPIO_Config+0x208>)
1001113e:	6862      	ldr	r2, [r4, #4]
10011140:	6a0e      	ldr	r6, [r1, #32]
10011142:	00d3      	lsls	r3, r2, #3
10011144:	f002 0001 	and.w	r0, r2, #1
10011148:	f003 0310 	and.w	r3, r3, #16
1001114c:	4330      	orrs	r0, r6
1001114e:	4303      	orrs	r3, r0
10011150:	e7e7      	b.n	10011122 <MXC_GPIO_Config+0x172>
10011152:	6862      	ldr	r2, [r4, #4]
10011154:	4818      	ldr	r0, [pc, #96]	@ (100111b8 <MXC_GPIO_Config+0x208>)
10011156:	0093      	lsls	r3, r2, #2
10011158:	0151      	lsls	r1, r2, #5
1001115a:	6a06      	ldr	r6, [r0, #32]
1001115c:	f003 0304 	and.w	r3, r3, #4
10011160:	f001 0140 	and.w	r1, r1, #64	@ 0x40
10011164:	430b      	orrs	r3, r1
10011166:	4333      	orrs	r3, r6
10011168:	6203      	str	r3, [r0, #32]
1001116a:	e76f      	b.n	1001104c <MXC_GPIO_Config+0x9c>
1001116c:	6863      	ldr	r3, [r4, #4]
1001116e:	4912      	ldr	r1, [pc, #72]	@ (100111b8 <MXC_GPIO_Config+0x208>)
10011170:	0058      	lsls	r0, r3, #1
10011172:	011a      	lsls	r2, r3, #4
10011174:	6a0e      	ldr	r6, [r1, #32]
10011176:	f000 0002 	and.w	r0, r0, #2
1001117a:	f002 0220 	and.w	r2, r2, #32
1001117e:	4302      	orrs	r2, r0
10011180:	4332      	orrs	r2, r6
10011182:	620a      	str	r2, [r1, #32]
10011184:	688a      	ldr	r2, [r1, #8]
10011186:	f3c3 0340 	ubfx	r3, r3, #1, #1
1001118a:	4303      	orrs	r3, r0
1001118c:	4313      	orrs	r3, r2
1001118e:	608b      	str	r3, [r1, #8]
10011190:	e7b4      	b.n	100110fc <MXC_GPIO_Config+0x14c>
10011192:	6863      	ldr	r3, [r4, #4]
10011194:	4908      	ldr	r1, [pc, #32]	@ (100111b8 <MXC_GPIO_Config+0x208>)
10011196:	0058      	lsls	r0, r3, #1
10011198:	011a      	lsls	r2, r3, #4
1001119a:	6a0e      	ldr	r6, [r1, #32]
1001119c:	f000 0002 	and.w	r0, r0, #2
100111a0:	f002 0220 	and.w	r2, r2, #32
100111a4:	4302      	orrs	r2, r0
100111a6:	4332      	orrs	r2, r6
100111a8:	e7a0      	b.n	100110ec <MXC_GPIO_Config+0x13c>
100111aa:	f06f 0002 	mvn.w	r0, #2
100111ae:	bd70      	pop	{r4, r5, r6, pc}
100111b0:	40008000 	.word	0x40008000
100111b4:	40080600 	.word	0x40080600
100111b8:	40006c00 	.word	0x40006c00

100111bc <MXC_GPIO_OutSet>:
100111bc:	4a08      	ldr	r2, [pc, #32]	@ (100111e0 <MXC_GPIO_OutSet+0x24>)
100111be:	4290      	cmp	r0, r2
100111c0:	d001      	beq.n	100111c6 <MXC_GPIO_OutSet+0xa>
100111c2:	f000 b843 	b.w	1001124c <MXC_GPIO_RevA_OutSet>
100111c6:	4807      	ldr	r0, [pc, #28]	@ (100111e4 <MXC_GPIO_OutSet+0x28>)
100111c8:	b410      	push	{r4}
100111ca:	6a04      	ldr	r4, [r0, #32]
100111cc:	00ca      	lsls	r2, r1, #3
100111ce:	f001 0101 	and.w	r1, r1, #1
100111d2:	4321      	orrs	r1, r4
100111d4:	f002 0310 	and.w	r3, r2, #16
100111d8:	430b      	orrs	r3, r1
100111da:	bc10      	pop	{r4}
100111dc:	6203      	str	r3, [r0, #32]
100111de:	4770      	bx	lr
100111e0:	40080600 	.word	0x40080600
100111e4:	40006c00 	.word	0x40006c00

100111e8 <MXC_GPIO_OutClr>:
100111e8:	4a09      	ldr	r2, [pc, #36]	@ (10011210 <MXC_GPIO_OutClr+0x28>)
100111ea:	4290      	cmp	r0, r2
100111ec:	d001      	beq.n	100111f2 <MXC_GPIO_OutClr+0xa>
100111ee:	f000 b82f 	b.w	10011250 <MXC_GPIO_RevA_OutClr>
100111f2:	b410      	push	{r4}
100111f4:	4c07      	ldr	r4, [pc, #28]	@ (10011214 <MXC_GPIO_OutClr+0x2c>)
100111f6:	00ca      	lsls	r2, r1, #3
100111f8:	6a20      	ldr	r0, [r4, #32]
100111fa:	f002 0210 	and.w	r2, r2, #16
100111fe:	f001 0101 	and.w	r1, r1, #1
10011202:	ea42 0301 	orr.w	r3, r2, r1
10011206:	ea20 0303 	bic.w	r3, r0, r3
1001120a:	6223      	str	r3, [r4, #32]
1001120c:	bc10      	pop	{r4}
1001120e:	4770      	bx	lr
10011210:	40080600 	.word	0x40080600
10011214:	40006c00 	.word	0x40006c00

10011218 <MXC_GPIO_Handler>:
10011218:	f000 be1c 	b.w	10011e54 <MXC_GPIO_Common_Handler>

1001121c <MXC_GPIO_ClearFlags>:
1001121c:	4a03      	ldr	r2, [pc, #12]	@ (1001122c <MXC_GPIO_ClearFlags+0x10>)
1001121e:	4290      	cmp	r0, r2
10011220:	d001      	beq.n	10011226 <MXC_GPIO_ClearFlags+0xa>
10011222:	f000 b817 	b.w	10011254 <MXC_GPIO_RevA_ClearFlags>
10011226:	4a02      	ldr	r2, [pc, #8]	@ (10011230 <MXC_GPIO_ClearFlags+0x14>)
10011228:	61d1      	str	r1, [r2, #28]
1001122a:	4770      	bx	lr
1001122c:	40080600 	.word	0x40080600
10011230:	40006800 	.word	0x40006800

10011234 <MXC_GPIO_GetFlags>:
10011234:	4b03      	ldr	r3, [pc, #12]	@ (10011244 <MXC_GPIO_GetFlags+0x10>)
10011236:	4298      	cmp	r0, r3
10011238:	d001      	beq.n	1001123e <MXC_GPIO_GetFlags+0xa>
1001123a:	f000 b80d 	b.w	10011258 <MXC_GPIO_RevA_GetFlags>
1001123e:	4b02      	ldr	r3, [pc, #8]	@ (10011248 <MXC_GPIO_GetFlags+0x14>)
10011240:	69d8      	ldr	r0, [r3, #28]
10011242:	4770      	bx	lr
10011244:	40080600 	.word	0x40080600
10011248:	40006800 	.word	0x40006800

1001124c <MXC_GPIO_RevA_OutSet>:
1001124c:	61c1      	str	r1, [r0, #28]
1001124e:	4770      	bx	lr

10011250 <MXC_GPIO_RevA_OutClr>:
10011250:	6201      	str	r1, [r0, #32]
10011252:	4770      	bx	lr

10011254 <MXC_GPIO_RevA_ClearFlags>:
10011254:	6481      	str	r1, [r0, #72]	@ 0x48
10011256:	4770      	bx	lr

10011258 <MXC_GPIO_RevA_GetFlags>:
10011258:	6c00      	ldr	r0, [r0, #64]	@ 0x40
1001125a:	4770      	bx	lr

1001125c <MXC_GPIO_RevA_SetVSSEL>:
1001125c:	b159      	cbz	r1, 10011276 <MXC_GPIO_RevA_SetVSSEL+0x1a>
1001125e:	2901      	cmp	r1, #1
10011260:	d106      	bne.n	10011270 <MXC_GPIO_RevA_SetVSSEL+0x14>
10011262:	f8d0 30c0 	ldr.w	r3, [r0, #192]	@ 0xc0
10011266:	4313      	orrs	r3, r2
10011268:	f8c0 30c0 	str.w	r3, [r0, #192]	@ 0xc0
1001126c:	2000      	movs	r0, #0
1001126e:	4770      	bx	lr
10011270:	f06f 0002 	mvn.w	r0, #2
10011274:	4770      	bx	lr
10011276:	f8d0 30c0 	ldr.w	r3, [r0, #192]	@ 0xc0
1001127a:	ea23 0302 	bic.w	r3, r3, r2
1001127e:	f8c0 30c0 	str.w	r3, [r0, #192]	@ 0xc0
10011282:	2000      	movs	r0, #0
10011284:	4770      	bx	lr
10011286:	bf00      	nop

10011288 <MXC_GPIO_RevA_SetAF>:
10011288:	6b03      	ldr	r3, [r0, #48]	@ 0x30
1001128a:	4313      	orrs	r3, r2
1001128c:	6303      	str	r3, [r0, #48]	@ 0x30
1001128e:	6042      	str	r2, [r0, #4]
10011290:	2905      	cmp	r1, #5
10011292:	d82c      	bhi.n	100112ee <MXC_GPIO_RevA_SetAF+0x66>
10011294:	e8df f001 	tbb	[pc, r1]
10011298:	1f19120a 	.word	0x1f19120a
1001129c:	0325      	.short	0x0325
1001129e:	f8c0 2088 	str.w	r2, [r0, #136]	@ 0x88
100112a2:	6782      	str	r2, [r0, #120]	@ 0x78
100112a4:	66c2      	str	r2, [r0, #108]	@ 0x6c
100112a6:	6082      	str	r2, [r0, #8]
100112a8:	2000      	movs	r0, #0
100112aa:	4770      	bx	lr
100112ac:	6142      	str	r2, [r0, #20]
100112ae:	6042      	str	r2, [r0, #4]
100112b0:	6702      	str	r2, [r0, #112]	@ 0x70
100112b2:	67c2      	str	r2, [r0, #124]	@ 0x7c
100112b4:	f8c0 2088 	str.w	r2, [r0, #136]	@ 0x88
100112b8:	2000      	movs	r0, #0
100112ba:	4770      	bx	lr
100112bc:	6102      	str	r2, [r0, #16]
100112be:	6042      	str	r2, [r0, #4]
100112c0:	6702      	str	r2, [r0, #112]	@ 0x70
100112c2:	67c2      	str	r2, [r0, #124]	@ 0x7c
100112c4:	f8c0 2088 	str.w	r2, [r0, #136]	@ 0x88
100112c8:	e7ee      	b.n	100112a8 <MXC_GPIO_RevA_SetAF+0x20>
100112ca:	f8c0 2088 	str.w	r2, [r0, #136]	@ 0x88
100112ce:	67c2      	str	r2, [r0, #124]	@ 0x7c
100112d0:	6702      	str	r2, [r0, #112]	@ 0x70
100112d2:	6082      	str	r2, [r0, #8]
100112d4:	e7e8      	b.n	100112a8 <MXC_GPIO_RevA_SetAF+0x20>
100112d6:	f8c0 2088 	str.w	r2, [r0, #136]	@ 0x88
100112da:	67c2      	str	r2, [r0, #124]	@ 0x7c
100112dc:	66c2      	str	r2, [r0, #108]	@ 0x6c
100112de:	6082      	str	r2, [r0, #8]
100112e0:	e7e2      	b.n	100112a8 <MXC_GPIO_RevA_SetAF+0x20>
100112e2:	f8c0 2088 	str.w	r2, [r0, #136]	@ 0x88
100112e6:	6782      	str	r2, [r0, #120]	@ 0x78
100112e8:	6702      	str	r2, [r0, #112]	@ 0x70
100112ea:	6082      	str	r2, [r0, #8]
100112ec:	e7dc      	b.n	100112a8 <MXC_GPIO_RevA_SetAF+0x20>
100112ee:	f06f 0002 	mvn.w	r0, #2
100112f2:	4770      	bx	lr

100112f4 <MXC_I2C_SetSlaveAddr>:
100112f4:	f000 b8f6 	b.w	100114e4 <MXC_I2C_RevA_SetSlaveAddr>

100112f8 <MXC_I2C_Shutdown>:
100112f8:	b508      	push	{r3, lr}
100112fa:	4b11      	ldr	r3, [pc, #68]	@ (10011340 <MXC_I2C_Shutdown+0x48>)
100112fc:	4298      	cmp	r0, r3
100112fe:	d00d      	beq.n	1001131c <MXC_I2C_Shutdown+0x24>
10011300:	4b10      	ldr	r3, [pc, #64]	@ (10011344 <MXC_I2C_Shutdown+0x4c>)
10011302:	4298      	cmp	r0, r3
10011304:	d011      	beq.n	1001132a <MXC_I2C_Shutdown+0x32>
10011306:	4b10      	ldr	r3, [pc, #64]	@ (10011348 <MXC_I2C_Shutdown+0x50>)
10011308:	4298      	cmp	r0, r3
1001130a:	d115      	bne.n	10011338 <MXC_I2C_Shutdown+0x40>
1001130c:	2038      	movs	r0, #56	@ 0x38
1001130e:	f7ff fd4f 	bl	10010db0 <MXC_SYS_ClockDisable>
10011312:	2034      	movs	r0, #52	@ 0x34
10011314:	f7ff fe08 	bl	10010f28 <MXC_SYS_Reset_Periph>
10011318:	2000      	movs	r0, #0
1001131a:	bd08      	pop	{r3, pc}
1001131c:	200d      	movs	r0, #13
1001131e:	f7ff fd47 	bl	10010db0 <MXC_SYS_ClockDisable>
10011322:	2010      	movs	r0, #16
10011324:	f7ff fe00 	bl	10010f28 <MXC_SYS_Reset_Periph>
10011328:	e7f6      	b.n	10011318 <MXC_I2C_Shutdown+0x20>
1001132a:	201c      	movs	r0, #28
1001132c:	f7ff fd40 	bl	10010db0 <MXC_SYS_ClockDisable>
10011330:	2020      	movs	r0, #32
10011332:	f7ff fdf9 	bl	10010f28 <MXC_SYS_Reset_Periph>
10011336:	e7ef      	b.n	10011318 <MXC_I2C_Shutdown+0x20>
10011338:	f06f 0001 	mvn.w	r0, #1
1001133c:	bd08      	pop	{r3, pc}
1001133e:	bf00      	nop
10011340:	4001d000 	.word	0x4001d000
10011344:	4001e000 	.word	0x4001e000
10011348:	4001f000 	.word	0x4001f000

1001134c <MXC_I2C_Init>:
1001134c:	b3c0      	cbz	r0, 100113c0 <MXC_I2C_Init+0x74>
1001134e:	b570      	push	{r4, r5, r6, lr}
10011350:	4604      	mov	r4, r0
10011352:	460d      	mov	r5, r1
10011354:	4616      	mov	r6, r2
10011356:	f7ff ffcf 	bl	100112f8 <MXC_I2C_Shutdown>
1001135a:	4b1b      	ldr	r3, [pc, #108]	@ (100113c8 <MXC_I2C_Init+0x7c>)
1001135c:	429c      	cmp	r4, r3
1001135e:	d012      	beq.n	10011386 <MXC_I2C_Init+0x3a>
10011360:	4b1a      	ldr	r3, [pc, #104]	@ (100113cc <MXC_I2C_Init+0x80>)
10011362:	429c      	cmp	r4, r3
10011364:	d01c      	beq.n	100113a0 <MXC_I2C_Init+0x54>
10011366:	4b1a      	ldr	r3, [pc, #104]	@ (100113d0 <MXC_I2C_Init+0x84>)
10011368:	429c      	cmp	r4, r3
1001136a:	d126      	bne.n	100113ba <MXC_I2C_Init+0x6e>
1001136c:	2038      	movs	r0, #56	@ 0x38
1001136e:	f7ff fd3f 	bl	10010df0 <MXC_SYS_ClockEnable>
10011372:	4818      	ldr	r0, [pc, #96]	@ (100113d4 <MXC_I2C_Init+0x88>)
10011374:	f7ff fe1c 	bl	10010fb0 <MXC_GPIO_Config>
10011378:	4632      	mov	r2, r6
1001137a:	4629      	mov	r1, r5
1001137c:	4620      	mov	r0, r4
1001137e:	e8bd 4070 	ldmia.w	sp!, {r4, r5, r6, lr}
10011382:	f000 b849 	b.w	10011418 <MXC_I2C_RevA_Init>
10011386:	200d      	movs	r0, #13
10011388:	f7ff fd32 	bl	10010df0 <MXC_SYS_ClockEnable>
1001138c:	4812      	ldr	r0, [pc, #72]	@ (100113d8 <MXC_I2C_Init+0x8c>)
1001138e:	f7ff fe0f 	bl	10010fb0 <MXC_GPIO_Config>
10011392:	4632      	mov	r2, r6
10011394:	4629      	mov	r1, r5
10011396:	4620      	mov	r0, r4
10011398:	e8bd 4070 	ldmia.w	sp!, {r4, r5, r6, lr}
1001139c:	f000 b83c 	b.w	10011418 <MXC_I2C_RevA_Init>
100113a0:	201c      	movs	r0, #28
100113a2:	f7ff fd25 	bl	10010df0 <MXC_SYS_ClockEnable>
100113a6:	480d      	ldr	r0, [pc, #52]	@ (100113dc <MXC_I2C_Init+0x90>)
100113a8:	f7ff fe02 	bl	10010fb0 <MXC_GPIO_Config>
100113ac:	4632      	mov	r2, r6
100113ae:	4629      	mov	r1, r5
100113b0:	4620      	mov	r0, r4
100113b2:	e8bd 4070 	ldmia.w	sp!, {r4, r5, r6, lr}
100113b6:	f000 b82f 	b.w	10011418 <MXC_I2C_RevA_Init>
100113ba:	f06f 0001 	mvn.w	r0, #1
100113be:	bd70      	pop	{r4, r5, r6, pc}
100113c0:	f04f 30ff 	mov.w	r0, #4294967295	@ 0xffffffff
100113c4:	4770      	bx	lr
100113c6:	bf00      	nop
100113c8:	4001d000 	.word	0x4001d000
100113cc:	4001e000 	.word	0x4001e000
100113d0:	4001f000 	.word	0x4001f000
100113d4:	1001b0b0 	.word	0x1001b0b0
100113d8:	1001b0c8 	.word	0x1001b0c8
100113dc:	1001b0bc 	.word	0x1001b0bc

100113e0 <MXC_I2C_SetFrequency>:
100113e0:	f000 b89a 	b.w	10011518 <MXC_I2C_RevA_SetFrequency>

100113e4 <MXC_I2C_GetFrequency>:
100113e4:	f000 b8e8 	b.w	100115b8 <MXC_I2C_RevA_GetFrequency>

100113e8 <MXC_I2C_ReadRXFIFO>:
100113e8:	f000 b8f6 	b.w	100115d8 <MXC_I2C_RevA_ReadRXFIFO>

100113ec <MXC_I2C_GetRXFIFOAvailable>:
100113ec:	f000 b912 	b.w	10011614 <MXC_I2C_RevA_GetRXFIFOAvailable>

100113f0 <MXC_I2C_WriteTXFIFO>:
100113f0:	f000 b918 	b.w	10011624 <MXC_I2C_RevA_WriteTXFIFO>

100113f4 <MXC_I2C_GetTXFIFOAvailable>:
100113f4:	f000 b92e 	b.w	10011654 <MXC_I2C_RevA_GetTXFIFOAvailable>

100113f8 <MXC_I2C_ClearRXFIFO>:
100113f8:	f000 b938 	b.w	1001166c <MXC_I2C_RevA_ClearRXFIFO>

100113fc <MXC_I2C_ClearTXFIFO>:
100113fc:	f000 b93e 	b.w	1001167c <MXC_I2C_RevA_ClearTXFIFO>

10011400 <MXC_I2C_ClearFlags>:
10011400:	f000 b944 	b.w	1001168c <MXC_I2C_RevA_ClearFlags>

10011404 <MXC_I2C_EnableInt>:
10011404:	f000 b946 	b.w	10011694 <MXC_I2C_RevA_EnableInt>

10011408 <MXC_I2C_DisableInt>:
10011408:	f000 b94c 	b.w	100116a4 <MXC_I2C_RevA_DisableInt>

1001140c <MXC_I2C_Recover>:
1001140c:	f000 b954 	b.w	100116b8 <MXC_I2C_RevA_Recover>

10011410 <MXC_I2C_SetRXThreshold>:
10011410:	f000 b9be 	b.w	10011790 <MXC_I2C_RevA_SetRXThreshold>

10011414 <MXC_I2C_SetTXThreshold>:
10011414:	f000 b9cc 	b.w	100117b0 <MXC_I2C_RevA_SetTXThreshold>

10011418 <MXC_I2C_RevA_Init>:
10011418:	b5f8      	push	{r3, r4, r5, r6, r7, lr}
1001141a:	2800      	cmp	r0, #0
1001141c:	d057      	beq.n	100114ce <MXC_I2C_RevA_Init+0xb6>
1001141e:	460f      	mov	r7, r1
10011420:	2110      	movs	r1, #16
10011422:	4615      	mov	r5, r2
10011424:	4604      	mov	r4, r0
10011426:	f7ff fff1 	bl	1001140c <MXC_I2C_Recover>
1001142a:	4606      	mov	r6, r0
1001142c:	b108      	cbz	r0, 10011432 <MXC_I2C_RevA_Init+0x1a>
1001142e:	4630      	mov	r0, r6
10011430:	bdf8      	pop	{r3, r4, r5, r6, r7, pc}
10011432:	6823      	ldr	r3, [r4, #0]
10011434:	f043 0301 	orr.w	r3, r3, #1
10011438:	6023      	str	r3, [r4, #0]
1001143a:	4620      	mov	r0, r4
1001143c:	f7ff ffdc 	bl	100113f8 <MXC_I2C_ClearRXFIFO>
10011440:	4620      	mov	r0, r4
10011442:	f7ff ffdb 	bl	100113fc <MXC_I2C_ClearTXFIFO>
10011446:	2102      	movs	r1, #2
10011448:	4620      	mov	r0, r4
1001144a:	f7ff ffe3 	bl	10011414 <MXC_I2C_SetTXThreshold>
1001144e:	2106      	movs	r1, #6
10011450:	4620      	mov	r0, r4
10011452:	f7ff ffdd 	bl	10011410 <MXC_I2C_SetRXThreshold>
10011456:	b1df      	cbz	r7, 10011490 <MXC_I2C_RevA_Init+0x78>
10011458:	6823      	ldr	r3, [r4, #0]
1001145a:	4a1e      	ldr	r2, [pc, #120]	@ (100114d4 <MXC_I2C_RevA_Init+0xbc>)
1001145c:	f043 0302 	orr.w	r3, r3, #2
10011460:	4294      	cmp	r4, r2
10011462:	6023      	str	r3, [r4, #0]
10011464:	d02f      	beq.n	100114c6 <MXC_I2C_RevA_Init+0xae>
10011466:	4b1c      	ldr	r3, [pc, #112]	@ (100114d8 <MXC_I2C_RevA_Init+0xc0>)
10011468:	429c      	cmp	r4, r3
1001146a:	d00f      	beq.n	1001148c <MXC_I2C_RevA_Init+0x74>
1001146c:	f503 5380 	add.w	r3, r3, #4096	@ 0x1000
10011470:	429c      	cmp	r4, r3
10011472:	bf14      	ite	ne
10011474:	f04f 34ff 	movne.w	r4, #4294967295	@ 0xffffffff
10011478:	2402      	moveq	r4, #2
1001147a:	4b18      	ldr	r3, [pc, #96]	@ (100114dc <MXC_I2C_RevA_Init+0xc4>)
1001147c:	eb04 0444 	add.w	r4, r4, r4, lsl #1
10011480:	eb03 03c4 	add.w	r3, r3, r4, lsl #3
10011484:	2201      	movs	r2, #1
10011486:	605a      	str	r2, [r3, #4]
10011488:	4630      	mov	r0, r6
1001148a:	bdf8      	pop	{r3, r4, r5, r6, r7, pc}
1001148c:	2401      	movs	r4, #1
1001148e:	e7f4      	b.n	1001147a <MXC_I2C_RevA_Init+0x62>
10011490:	463a      	mov	r2, r7
10011492:	4629      	mov	r1, r5
10011494:	4620      	mov	r0, r4
10011496:	f7ff ff2d 	bl	100112f4 <MXC_I2C_SetSlaveAddr>
1001149a:	4b0e      	ldr	r3, [pc, #56]	@ (100114d4 <MXC_I2C_RevA_Init+0xbc>)
1001149c:	429c      	cmp	r4, r3
1001149e:	d009      	beq.n	100114b4 <MXC_I2C_RevA_Init+0x9c>
100114a0:	f503 5380 	add.w	r3, r3, #4096	@ 0x1000
100114a4:	429c      	cmp	r4, r3
100114a6:	d010      	beq.n	100114ca <MXC_I2C_RevA_Init+0xb2>
100114a8:	4f0d      	ldr	r7, [pc, #52]	@ (100114e0 <MXC_I2C_RevA_Init+0xc8>)
100114aa:	42bc      	cmp	r4, r7
100114ac:	bf14      	ite	ne
100114ae:	f04f 37ff 	movne.w	r7, #4294967295	@ 0xffffffff
100114b2:	2702      	moveq	r7, #2
100114b4:	4b09      	ldr	r3, [pc, #36]	@ (100114dc <MXC_I2C_RevA_Init+0xc4>)
100114b6:	eb07 0147 	add.w	r1, r7, r7, lsl #1
100114ba:	eb03 03c1 	add.w	r3, r3, r1, lsl #3
100114be:	2200      	movs	r2, #0
100114c0:	605a      	str	r2, [r3, #4]
100114c2:	4630      	mov	r0, r6
100114c4:	bdf8      	pop	{r3, r4, r5, r6, r7, pc}
100114c6:	4634      	mov	r4, r6
100114c8:	e7d7      	b.n	1001147a <MXC_I2C_RevA_Init+0x62>
100114ca:	2701      	movs	r7, #1
100114cc:	e7f2      	b.n	100114b4 <MXC_I2C_RevA_Init+0x9c>
100114ce:	f04f 36ff 	mov.w	r6, #4294967295	@ 0xffffffff
100114d2:	e7ac      	b.n	1001142e <MXC_I2C_RevA_Init+0x16>
100114d4:	4001d000 	.word	0x4001d000
100114d8:	4001e000 	.word	0x4001e000
100114dc:	20000fe0 	.word	0x20000fe0
100114e0:	4001f000 	.word	0x4001f000

100114e4 <MXC_I2C_RevA_SetSlaveAddr>:
100114e4:	4603      	mov	r3, r0
100114e6:	b1a0      	cbz	r0, 10011512 <MXC_I2C_RevA_SetSlaveAddr+0x2e>
100114e8:	b96a      	cbnz	r2, 10011506 <MXC_I2C_RevA_SetSlaveAddr+0x22>
100114ea:	f5b1 6f80 	cmp.w	r1, #1024	@ 0x400
100114ee:	d20d      	bcs.n	1001150c <MXC_I2C_RevA_SetSlaveAddr+0x28>
100114f0:	297f      	cmp	r1, #127	@ 0x7f
100114f2:	64c2      	str	r2, [r0, #76]	@ 0x4c
100114f4:	bf84      	itt	hi
100114f6:	f44f 4200 	movhi.w	r2, #32768	@ 0x8000
100114fa:	64c2      	strhi	r2, [r0, #76]	@ 0x4c
100114fc:	6cc2      	ldr	r2, [r0, #76]	@ 0x4c
100114fe:	430a      	orrs	r2, r1
10011500:	2000      	movs	r0, #0
10011502:	64da      	str	r2, [r3, #76]	@ 0x4c
10011504:	4770      	bx	lr
10011506:	f06f 0010 	mvn.w	r0, #16
1001150a:	4770      	bx	lr
1001150c:	f06f 0002 	mvn.w	r0, #2
10011510:	4770      	bx	lr
10011512:	f04f 30ff 	mov.w	r0, #4294967295	@ 0xffffffff
10011516:	4770      	bx	lr

10011518 <MXC_I2C_RevA_SetFrequency>:
10011518:	2800      	cmp	r0, #0
1001151a:	d03f      	beq.n	1001159c <MXC_I2C_RevA_SetFrequency+0x84>
1001151c:	b410      	push	{r4}
1001151e:	4a21      	ldr	r2, [pc, #132]	@ (100115a4 <MXC_I2C_RevA_SetFrequency+0x8c>)
10011520:	f5a1 2374 	sub.w	r3, r1, #999424	@ 0xf4000
10011524:	f46f 7410 	mvn.w	r4, #576	@ 0x240
10011528:	4423      	add	r3, r4
1001152a:	4293      	cmp	r3, r2
1001152c:	d313      	bcc.n	10011556 <MXC_I2C_RevA_SetFrequency+0x3e>
1001152e:	4b1e      	ldr	r3, [pc, #120]	@ (100115a8 <MXC_I2C_RevA_SetFrequency+0x90>)
10011530:	4299      	cmp	r1, r3
10011532:	d82f      	bhi.n	10011594 <MXC_I2C_RevA_SetFrequency+0x7c>
10011534:	4b1d      	ldr	r3, [pc, #116]	@ (100115ac <MXC_I2C_RevA_SetFrequency+0x94>)
10011536:	681b      	ldr	r3, [r3, #0]
10011538:	085b      	lsrs	r3, r3, #1
1001153a:	fbb3 f3f1 	udiv	r3, r3, r1
1001153e:	085b      	lsrs	r3, r3, #1
10011540:	1e9a      	subs	r2, r3, #2
10011542:	f5b2 7fff 	cmp.w	r2, #510	@ 0x1fe
10011546:	f103 33ff 	add.w	r3, r3, #4294967295	@ 0xffffffff
1001154a:	d823      	bhi.n	10011594 <MXC_I2C_RevA_SetFrequency+0x7c>
1001154c:	6343      	str	r3, [r0, #52]	@ 0x34
1001154e:	bc10      	pop	{r4}
10011550:	6383      	str	r3, [r0, #56]	@ 0x38
10011552:	f7ff bf47 	b.w	100113e4 <MXC_I2C_GetFrequency>
10011556:	4b15      	ldr	r3, [pc, #84]	@ (100115ac <MXC_I2C_RevA_SetFrequency+0x94>)
10011558:	4c15      	ldr	r4, [pc, #84]	@ (100115b0 <MXC_I2C_RevA_SetFrequency+0x98>)
1001155a:	681b      	ldr	r3, [r3, #0]
1001155c:	085b      	lsrs	r3, r3, #1
1001155e:	fbb3 f1f1 	udiv	r1, r3, r1
10011562:	004a      	lsls	r2, r1, #1
10011564:	fba4 c101 	umull	ip, r1, r4, r1
10011568:	0849      	lsrs	r1, r1, #1
1001156a:	fba4 4202 	umull	r4, r2, r4, r2
1001156e:	3901      	subs	r1, #1
10011570:	0852      	lsrs	r2, r2, #1
10011572:	290f      	cmp	r1, #15
10011574:	f102 32ff 	add.w	r2, r2, #4294967295	@ 0xffffffff
10011578:	dc0c      	bgt.n	10011594 <MXC_I2C_RevA_SetFrequency+0x7c>
1001157a:	2a0f      	cmp	r2, #15
1001157c:	dc0a      	bgt.n	10011594 <MXC_I2C_RevA_SetFrequency+0x7c>
1001157e:	0209      	lsls	r1, r1, #8
10011580:	b289      	uxth	r1, r1
10011582:	b2d2      	uxtb	r2, r2
10011584:	430a      	orrs	r2, r1
10011586:	63c2      	str	r2, [r0, #60]	@ 0x3c
10011588:	6802      	ldr	r2, [r0, #0]
1001158a:	490a      	ldr	r1, [pc, #40]	@ (100115b4 <MXC_I2C_RevA_SetFrequency+0x9c>)
1001158c:	f442 4200 	orr.w	r2, r2, #32768	@ 0x8000
10011590:	6002      	str	r2, [r0, #0]
10011592:	e7d2      	b.n	1001153a <MXC_I2C_RevA_SetFrequency+0x22>
10011594:	f06f 0002 	mvn.w	r0, #2
10011598:	bc10      	pop	{r4}
1001159a:	4770      	bx	lr
1001159c:	f04f 30ff 	mov.w	r0, #4294967295	@ 0xffffffff
100115a0:	4770      	bx	lr
100115a2:	bf00      	nop
100115a4:	00249f00 	.word	0x00249f00
100115a8:	0033e140 	.word	0x0033e140
100115ac:	20001740 	.word	0x20001740
100115b0:	aaaaaaab 	.word	0xaaaaaaab
100115b4:	00061a80 	.word	0x00061a80

100115b8 <MXC_I2C_RevA_GetFrequency>:
100115b8:	4906      	ldr	r1, [pc, #24]	@ (100115d4 <MXC_I2C_RevA_GetFrequency+0x1c>)
100115ba:	6b43      	ldr	r3, [r0, #52]	@ 0x34
100115bc:	6b82      	ldr	r2, [r0, #56]	@ 0x38
100115be:	6808      	ldr	r0, [r1, #0]
100115c0:	f3c2 0208 	ubfx	r2, r2, #0, #9
100115c4:	f3c3 0308 	ubfx	r3, r3, #0, #9
100115c8:	4413      	add	r3, r2
100115ca:	0840      	lsrs	r0, r0, #1
100115cc:	fbb0 f0f3 	udiv	r0, r0, r3
100115d0:	4770      	bx	lr
100115d2:	bf00      	nop
100115d4:	20001740 	.word	0x20001740

100115d8 <MXC_I2C_RevA_ReadRXFIFO>:
100115d8:	b1c8      	cbz	r0, 1001160e <MXC_I2C_RevA_ReadRXFIFO+0x36>
100115da:	b1c1      	cbz	r1, 1001160e <MXC_I2C_RevA_ReadRXFIFO+0x36>
100115dc:	b1aa      	cbz	r2, 1001160a <MXC_I2C_RevA_ReadRXFIFO+0x32>
100115de:	b500      	push	{lr}
100115e0:	2300      	movs	r3, #0
100115e2:	f101 3eff 	add.w	lr, r1, #4294967295	@ 0xffffffff
100115e6:	e007      	b.n	100115f8 <MXC_I2C_RevA_ReadRXFIFO+0x20>
100115e8:	6ac1      	ldr	r1, [r0, #44]	@ 0x2c
100115ea:	3301      	adds	r3, #1
100115ec:	fa5f fc81 	uxtb.w	ip, r1
100115f0:	429a      	cmp	r2, r3
100115f2:	f80e c003 	strb.w	ip, [lr, r3]
100115f6:	d005      	beq.n	10011604 <MXC_I2C_RevA_ReadRXFIFO+0x2c>
100115f8:	6841      	ldr	r1, [r0, #4]
100115fa:	0789      	lsls	r1, r1, #30
100115fc:	d5f4      	bpl.n	100115e8 <MXC_I2C_RevA_ReadRXFIFO+0x10>
100115fe:	4618      	mov	r0, r3
10011600:	f85d fb04 	ldr.w	pc, [sp], #4
10011604:	4610      	mov	r0, r2
10011606:	f85d fb04 	ldr.w	pc, [sp], #4
1001160a:	4610      	mov	r0, r2
1001160c:	4770      	bx	lr
1001160e:	f04f 30ff 	mov.w	r0, #4294967295	@ 0xffffffff
10011612:	4770      	bx	lr

10011614 <MXC_I2C_RevA_GetRXFIFOAvailable>:
10011614:	b118      	cbz	r0, 1001161e <MXC_I2C_RevA_GetRXFIFOAvailable+0xa>
10011616:	6a00      	ldr	r0, [r0, #32]
10011618:	f3c0 2003 	ubfx	r0, r0, #8, #4
1001161c:	4770      	bx	lr
1001161e:	f04f 30ff 	mov.w	r0, #4294967295	@ 0xffffffff
10011622:	4770      	bx	lr

10011624 <MXC_I2C_RevA_WriteTXFIFO>:
10011624:	b198      	cbz	r0, 1001164e <MXC_I2C_RevA_WriteTXFIFO+0x2a>
10011626:	b191      	cbz	r1, 1001164e <MXC_I2C_RevA_WriteTXFIFO+0x2a>
10011628:	b17a      	cbz	r2, 1001164a <MXC_I2C_RevA_WriteTXFIFO+0x26>
1001162a:	2300      	movs	r3, #0
1001162c:	f101 3cff 	add.w	ip, r1, #4294967295	@ 0xffffffff
10011630:	e006      	b.n	10011640 <MXC_I2C_RevA_WriteTXFIFO+0x1c>
10011632:	3301      	adds	r3, #1
10011634:	429a      	cmp	r2, r3
10011636:	f81c 1003 	ldrb.w	r1, [ip, r3]
1001163a:	b2c9      	uxtb	r1, r1
1001163c:	62c1      	str	r1, [r0, #44]	@ 0x2c
1001163e:	d004      	beq.n	1001164a <MXC_I2C_RevA_WriteTXFIFO+0x26>
10011640:	6841      	ldr	r1, [r0, #4]
10011642:	06c9      	lsls	r1, r1, #27
10011644:	d5f5      	bpl.n	10011632 <MXC_I2C_RevA_WriteTXFIFO+0xe>
10011646:	4618      	mov	r0, r3
10011648:	4770      	bx	lr
1001164a:	4610      	mov	r0, r2
1001164c:	4770      	bx	lr
1001164e:	f04f 30ff 	mov.w	r0, #4294967295	@ 0xffffffff
10011652:	4770      	bx	lr

10011654 <MXC_I2C_RevA_GetTXFIFOAvailable>:
10011654:	b138      	cbz	r0, 10011666 <MXC_I2C_RevA_GetTXFIFOAvailable+0x12>
10011656:	6983      	ldr	r3, [r0, #24]
10011658:	6a82      	ldr	r2, [r0, #40]	@ 0x28
1001165a:	f3c3 2007 	ubfx	r0, r3, #8, #8
1001165e:	f3c2 2303 	ubfx	r3, r2, #8, #4
10011662:	1ac0      	subs	r0, r0, r3
10011664:	4770      	bx	lr
10011666:	f04f 30ff 	mov.w	r0, #4294967295	@ 0xffffffff
1001166a:	4770      	bx	lr

1001166c <MXC_I2C_RevA_ClearRXFIFO>:
1001166c:	69c3      	ldr	r3, [r0, #28]
1001166e:	f043 0380 	orr.w	r3, r3, #128	@ 0x80
10011672:	61c3      	str	r3, [r0, #28]
10011674:	69c3      	ldr	r3, [r0, #28]
10011676:	061b      	lsls	r3, r3, #24
10011678:	d4fc      	bmi.n	10011674 <MXC_I2C_RevA_ClearRXFIFO+0x8>
1001167a:	4770      	bx	lr

1001167c <MXC_I2C_RevA_ClearTXFIFO>:
1001167c:	6a43      	ldr	r3, [r0, #36]	@ 0x24
1001167e:	f043 0380 	orr.w	r3, r3, #128	@ 0x80
10011682:	6243      	str	r3, [r0, #36]	@ 0x24
10011684:	6a43      	ldr	r3, [r0, #36]	@ 0x24
10011686:	061b      	lsls	r3, r3, #24
10011688:	d4fc      	bmi.n	10011684 <MXC_I2C_RevA_ClearTXFIFO+0x8>
1001168a:	4770      	bx	lr

1001168c <MXC_I2C_RevA_ClearFlags>:
1001168c:	6081      	str	r1, [r0, #8]
1001168e:	6102      	str	r2, [r0, #16]
10011690:	4770      	bx	lr
10011692:	bf00      	nop

10011694 <MXC_I2C_RevA_EnableInt>:
10011694:	68c3      	ldr	r3, [r0, #12]
10011696:	430b      	orrs	r3, r1
10011698:	60c3      	str	r3, [r0, #12]
1001169a:	6943      	ldr	r3, [r0, #20]
1001169c:	4313      	orrs	r3, r2
1001169e:	6143      	str	r3, [r0, #20]
100116a0:	4770      	bx	lr
100116a2:	bf00      	nop

100116a4 <MXC_I2C_RevA_DisableInt>:
100116a4:	68c3      	ldr	r3, [r0, #12]
100116a6:	ea23 0301 	bic.w	r3, r3, r1
100116aa:	60c3      	str	r3, [r0, #12]
100116ac:	6943      	ldr	r3, [r0, #20]
100116ae:	ea23 0302 	bic.w	r3, r3, r2
100116b2:	6143      	str	r3, [r0, #20]
100116b4:	4770      	bx	lr
100116b6:	bf00      	nop

100116b8 <MXC_I2C_RevA_Recover>:
100116b8:	2800      	cmp	r0, #0
100116ba:	d065      	beq.n	10011788 <MXC_I2C_RevA_Recover+0xd0>
100116bc:	6803      	ldr	r3, [r0, #0]
100116be:	f043 0301 	orr.w	r3, r3, #1
100116c2:	e92d 41f0 	stmdb	sp!, {r4, r5, r6, r7, r8, lr}
100116c6:	6003      	str	r3, [r0, #0]
100116c8:	6807      	ldr	r7, [r0, #0]
100116ca:	6803      	ldr	r3, [r0, #0]
100116cc:	f443 6380 	orr.w	r3, r3, #1024	@ 0x400
100116d0:	460e      	mov	r6, r1
100116d2:	4604      	mov	r4, r0
100116d4:	f407 6780 	and.w	r7, r7, #1024	@ 0x400
100116d8:	6003      	str	r3, [r0, #0]
100116da:	2900      	cmp	r1, #0
100116dc:	d043      	beq.n	10011766 <MXC_I2C_RevA_Recover+0xae>
100116de:	2500      	movs	r5, #0
100116e0:	e02b      	b.n	1001173a <MXC_I2C_RevA_Recover+0x82>
100116e2:	f7ff fb03 	bl	10010cec <MXC_Delay>
100116e6:	6823      	ldr	r3, [r4, #0]
100116e8:	f023 0380 	bic.w	r3, r3, #128	@ 0x80
100116ec:	6023      	str	r3, [r4, #0]
100116ee:	200a      	movs	r0, #10
100116f0:	f7ff fafc 	bl	10010cec <MXC_Delay>
100116f4:	6823      	ldr	r3, [r4, #0]
100116f6:	f413 7800 	ands.w	r8, r3, #512	@ 0x200
100116fa:	f04f 000a 	mov.w	r0, #10
100116fe:	d12b      	bne.n	10011758 <MXC_I2C_RevA_Recover+0xa0>
10011700:	f7ff faf4 	bl	10010cec <MXC_Delay>
10011704:	6823      	ldr	r3, [r4, #0]
10011706:	f043 0380 	orr.w	r3, r3, #128	@ 0x80
1001170a:	6023      	str	r3, [r4, #0]
1001170c:	200a      	movs	r0, #10
1001170e:	f7ff faed 	bl	10010cec <MXC_Delay>
10011712:	6823      	ldr	r3, [r4, #0]
10011714:	059a      	lsls	r2, r3, #22
10011716:	f04f 000a 	mov.w	r0, #10
1001171a:	d51d      	bpl.n	10011758 <MXC_I2C_RevA_Recover+0xa0>
1001171c:	f7ff fae6 	bl	10010cec <MXC_Delay>
10011720:	6823      	ldr	r3, [r4, #0]
10011722:	f043 0340 	orr.w	r3, r3, #64	@ 0x40
10011726:	6023      	str	r3, [r4, #0]
10011728:	200a      	movs	r0, #10
1001172a:	f7ff fadf 	bl	10010cec <MXC_Delay>
1001172e:	6823      	ldr	r3, [r4, #0]
10011730:	05db      	lsls	r3, r3, #23
10011732:	d425      	bmi.n	10011780 <MXC_I2C_RevA_Recover+0xc8>
10011734:	3501      	adds	r5, #1
10011736:	42ae      	cmp	r6, r5
10011738:	d015      	beq.n	10011766 <MXC_I2C_RevA_Recover+0xae>
1001173a:	200a      	movs	r0, #10
1001173c:	f7ff fad6 	bl	10010cec <MXC_Delay>
10011740:	6823      	ldr	r3, [r4, #0]
10011742:	f023 0340 	bic.w	r3, r3, #64	@ 0x40
10011746:	6023      	str	r3, [r4, #0]
10011748:	200a      	movs	r0, #10
1001174a:	f7ff facf 	bl	10010cec <MXC_Delay>
1001174e:	6823      	ldr	r3, [r4, #0]
10011750:	05d9      	lsls	r1, r3, #23
10011752:	f04f 000a 	mov.w	r0, #10
10011756:	d5c4      	bpl.n	100116e2 <MXC_I2C_RevA_Recover+0x2a>
10011758:	6823      	ldr	r3, [r4, #0]
1001175a:	3501      	adds	r5, #1
1001175c:	f043 03c0 	orr.w	r3, r3, #192	@ 0xc0
10011760:	42ae      	cmp	r6, r5
10011762:	6023      	str	r3, [r4, #0]
10011764:	d1e9      	bne.n	1001173a <MXC_I2C_RevA_Recover+0x82>
10011766:	f06f 0008 	mvn.w	r0, #8
1001176a:	b91f      	cbnz	r7, 10011774 <MXC_I2C_RevA_Recover+0xbc>
1001176c:	6823      	ldr	r3, [r4, #0]
1001176e:	f423 6380 	bic.w	r3, r3, #1024	@ 0x400
10011772:	6023      	str	r3, [r4, #0]
10011774:	6823      	ldr	r3, [r4, #0]
10011776:	f023 0301 	bic.w	r3, r3, #1
1001177a:	6023      	str	r3, [r4, #0]
1001177c:	e8bd 81f0 	ldmia.w	sp!, {r4, r5, r6, r7, r8, pc}
10011780:	4640      	mov	r0, r8
10011782:	2f00      	cmp	r7, #0
10011784:	d1f6      	bne.n	10011774 <MXC_I2C_RevA_Recover+0xbc>
10011786:	e7f1      	b.n	1001176c <MXC_I2C_RevA_Recover+0xb4>
10011788:	f04f 30ff 	mov.w	r0, #4294967295	@ 0xffffffff
1001178c:	4770      	bx	lr
1001178e:	bf00      	nop

10011790 <MXC_I2C_RevA_SetRXThreshold>:
10011790:	6982      	ldr	r2, [r0, #24]
10011792:	b2d2      	uxtb	r2, r2
10011794:	428a      	cmp	r2, r1
10011796:	4603      	mov	r3, r0
10011798:	d307      	bcc.n	100117aa <MXC_I2C_RevA_SetRXThreshold+0x1a>
1001179a:	69c2      	ldr	r2, [r0, #28]
1001179c:	f422 6270 	bic.w	r2, r2, #3840	@ 0xf00
100117a0:	ea42 2101 	orr.w	r1, r2, r1, lsl #8
100117a4:	2000      	movs	r0, #0
100117a6:	61d9      	str	r1, [r3, #28]
100117a8:	4770      	bx	lr
100117aa:	f06f 0002 	mvn.w	r0, #2
100117ae:	4770      	bx	lr

100117b0 <MXC_I2C_RevA_SetTXThreshold>:
100117b0:	6982      	ldr	r2, [r0, #24]
100117b2:	f3c2 2207 	ubfx	r2, r2, #8, #8
100117b6:	428a      	cmp	r2, r1
100117b8:	4603      	mov	r3, r0
100117ba:	d307      	bcc.n	100117cc <MXC_I2C_RevA_SetTXThreshold+0x1c>
100117bc:	6a42      	ldr	r2, [r0, #36]	@ 0x24
100117be:	f422 6270 	bic.w	r2, r2, #3840	@ 0xf00
100117c2:	ea42 2101 	orr.w	r1, r2, r1, lsl #8
100117c6:	2000      	movs	r0, #0
100117c8:	6259      	str	r1, [r3, #36]	@ 0x24
100117ca:	4770      	bx	lr
100117cc:	f06f 0002 	mvn.w	r0, #2
100117d0:	4770      	bx	lr
100117d2:	bf00      	nop

100117d4 <MXC_ICC_Enable>:
100117d4:	f000 b800 	b.w	100117d8 <MXC_ICC_RevA_Enable>

100117d8 <MXC_ICC_RevA_Enable>:
100117d8:	f8d0 3100 	ldr.w	r3, [r0, #256]	@ 0x100
100117dc:	2201      	movs	r2, #1
100117de:	f023 0301 	bic.w	r3, r3, #1
100117e2:	f8c0 3100 	str.w	r3, [r0, #256]	@ 0x100
100117e6:	f8c0 2700 	str.w	r2, [r0, #1792]	@ 0x700
100117ea:	f8d0 3100 	ldr.w	r3, [r0, #256]	@ 0x100
100117ee:	03da      	lsls	r2, r3, #15
100117f0:	d5fb      	bpl.n	100117ea <MXC_ICC_RevA_Enable+0x12>
100117f2:	f8d0 3100 	ldr.w	r3, [r0, #256]	@ 0x100
100117f6:	f043 0301 	orr.w	r3, r3, #1
100117fa:	f8c0 3100 	str.w	r3, [r0, #256]	@ 0x100
100117fe:	f8d0 3100 	ldr.w	r3, [r0, #256]	@ 0x100
10011802:	03db      	lsls	r3, r3, #15
10011804:	d5fb      	bpl.n	100117fe <MXC_ICC_RevA_Enable+0x26>
10011806:	4770      	bx	lr

10011808 <MXC_UART_Shutdown>:
10011808:	b508      	push	{r3, lr}
1001180a:	4b16      	ldr	r3, [pc, #88]	@ (10011864 <MXC_UART_Shutdown+0x5c>)
1001180c:	4298      	cmp	r0, r3
1001180e:	d010      	beq.n	10011832 <MXC_UART_Shutdown+0x2a>
10011810:	4b15      	ldr	r3, [pc, #84]	@ (10011868 <MXC_UART_Shutdown+0x60>)
10011812:	4298      	cmp	r0, r3
10011814:	d014      	beq.n	10011840 <MXC_UART_Shutdown+0x38>
10011816:	4b15      	ldr	r3, [pc, #84]	@ (1001186c <MXC_UART_Shutdown+0x64>)
10011818:	4298      	cmp	r0, r3
1001181a:	d018      	beq.n	1001184e <MXC_UART_Shutdown+0x46>
1001181c:	4b14      	ldr	r3, [pc, #80]	@ (10011870 <MXC_UART_Shutdown+0x68>)
1001181e:	4298      	cmp	r0, r3
10011820:	d11c      	bne.n	1001185c <MXC_UART_Shutdown+0x54>
10011822:	2044      	movs	r0, #68	@ 0x44
10011824:	f7ff fb80 	bl	10010f28 <MXC_SYS_Reset_Periph>
10011828:	2044      	movs	r0, #68	@ 0x44
1001182a:	f7ff fac1 	bl	10010db0 <MXC_SYS_ClockDisable>
1001182e:	2000      	movs	r0, #0
10011830:	bd08      	pop	{r3, pc}
10011832:	200b      	movs	r0, #11
10011834:	f7ff fb78 	bl	10010f28 <MXC_SYS_Reset_Periph>
10011838:	2009      	movs	r0, #9
1001183a:	f7ff fab9 	bl	10010db0 <MXC_SYS_ClockDisable>
1001183e:	e7f6      	b.n	1001182e <MXC_UART_Shutdown+0x26>
10011840:	200c      	movs	r0, #12
10011842:	f7ff fb71 	bl	10010f28 <MXC_SYS_Reset_Periph>
10011846:	200a      	movs	r0, #10
10011848:	f7ff fab2 	bl	10010db0 <MXC_SYS_ClockDisable>
1001184c:	e7ef      	b.n	1001182e <MXC_UART_Shutdown+0x26>
1001184e:	201c      	movs	r0, #28
10011850:	f7ff fb6a 	bl	10010f28 <MXC_SYS_Reset_Periph>
10011854:	2021      	movs	r0, #33	@ 0x21
10011856:	f7ff faab 	bl	10010db0 <MXC_SYS_ClockDisable>
1001185a:	e7e8      	b.n	1001182e <MXC_UART_Shutdown+0x26>
1001185c:	f06f 0002 	mvn.w	r0, #2
10011860:	bd08      	pop	{r3, pc}
10011862:	bf00      	nop
10011864:	40042000 	.word	0x40042000
10011868:	40043000 	.word	0x40043000
1001186c:	40044000 	.word	0x40044000
10011870:	40081400 	.word	0x40081400

10011874 <MXC_UART_Init>:
10011874:	b570      	push	{r4, r5, r6, lr}
10011876:	4604      	mov	r4, r0
10011878:	460e      	mov	r6, r1
1001187a:	4615      	mov	r5, r2
1001187c:	f7ff ffc4 	bl	10011808 <MXC_UART_Shutdown>
10011880:	bba8      	cbnz	r0, 100118ee <MXC_UART_Init+0x7a>
10011882:	2d02      	cmp	r5, #2
10011884:	d02d      	beq.n	100118e2 <MXC_UART_Init+0x6e>
10011886:	2d04      	cmp	r5, #4
10011888:	d018      	beq.n	100118bc <MXC_UART_Init+0x48>
1001188a:	4b20      	ldr	r3, [pc, #128]	@ (1001190c <MXC_UART_Init+0x98>)
1001188c:	429c      	cmp	r4, r3
1001188e:	d01b      	beq.n	100118c8 <MXC_UART_Init+0x54>
10011890:	4b1f      	ldr	r3, [pc, #124]	@ (10011910 <MXC_UART_Init+0x9c>)
10011892:	429c      	cmp	r4, r3
10011894:	d02c      	beq.n	100118f0 <MXC_UART_Init+0x7c>
10011896:	4b1f      	ldr	r3, [pc, #124]	@ (10011914 <MXC_UART_Init+0xa0>)
10011898:	429c      	cmp	r4, r3
1001189a:	d030      	beq.n	100118fe <MXC_UART_Init+0x8a>
1001189c:	4b1e      	ldr	r3, [pc, #120]	@ (10011918 <MXC_UART_Init+0xa4>)
1001189e:	429c      	cmp	r4, r3
100118a0:	d123      	bne.n	100118ea <MXC_UART_Init+0x76>
100118a2:	481e      	ldr	r0, [pc, #120]	@ (1001191c <MXC_UART_Init+0xa8>)
100118a4:	f7ff fb84 	bl	10010fb0 <MXC_GPIO_Config>
100118a8:	2044      	movs	r0, #68	@ 0x44
100118aa:	f7ff faa1 	bl	10010df0 <MXC_SYS_ClockEnable>
100118ae:	462a      	mov	r2, r5
100118b0:	4631      	mov	r1, r6
100118b2:	4620      	mov	r0, r4
100118b4:	e8bd 4070 	ldmia.w	sp!, {r4, r5, r6, lr}
100118b8:	f000 b8f8 	b.w	10011aac <MXC_UART_RevB_Init>
100118bc:	2006      	movs	r0, #6
100118be:	f7ff fab9 	bl	10010e34 <MXC_SYS_ClockSourceEnable>
100118c2:	4b12      	ldr	r3, [pc, #72]	@ (1001190c <MXC_UART_Init+0x98>)
100118c4:	429c      	cmp	r4, r3
100118c6:	d1e3      	bne.n	10011890 <MXC_UART_Init+0x1c>
100118c8:	4815      	ldr	r0, [pc, #84]	@ (10011920 <MXC_UART_Init+0xac>)
100118ca:	f7ff fb71 	bl	10010fb0 <MXC_GPIO_Config>
100118ce:	2009      	movs	r0, #9
100118d0:	f7ff fa8e 	bl	10010df0 <MXC_SYS_ClockEnable>
100118d4:	462a      	mov	r2, r5
100118d6:	4631      	mov	r1, r6
100118d8:	4620      	mov	r0, r4
100118da:	e8bd 4070 	ldmia.w	sp!, {r4, r5, r6, lr}
100118de:	f000 b8e5 	b.w	10011aac <MXC_UART_RevB_Init>
100118e2:	2005      	movs	r0, #5
100118e4:	f7ff faa6 	bl	10010e34 <MXC_SYS_ClockSourceEnable>
100118e8:	e7cf      	b.n	1001188a <MXC_UART_Init+0x16>
100118ea:	f06f 0002 	mvn.w	r0, #2
100118ee:	bd70      	pop	{r4, r5, r6, pc}
100118f0:	480c      	ldr	r0, [pc, #48]	@ (10011924 <MXC_UART_Init+0xb0>)
100118f2:	f7ff fb5d 	bl	10010fb0 <MXC_GPIO_Config>
100118f6:	200a      	movs	r0, #10
100118f8:	f7ff fa7a 	bl	10010df0 <MXC_SYS_ClockEnable>
100118fc:	e7d7      	b.n	100118ae <MXC_UART_Init+0x3a>
100118fe:	480a      	ldr	r0, [pc, #40]	@ (10011928 <MXC_UART_Init+0xb4>)
10011900:	f7ff fb56 	bl	10010fb0 <MXC_GPIO_Config>
10011904:	2021      	movs	r0, #33	@ 0x21
10011906:	f7ff fa73 	bl	10010df0 <MXC_SYS_ClockEnable>
1001190a:	e7d0      	b.n	100118ae <MXC_UART_Init+0x3a>
1001190c:	40042000 	.word	0x40042000
10011910:	40043000 	.word	0x40043000
10011914:	40044000 	.word	0x40044000
10011918:	40081400 	.word	0x40081400
1001191c:	1001b080 	.word	0x1001b080
10011920:	1001b0a4 	.word	0x1001b0a4
10011924:	1001b098 	.word	0x1001b098
10011928:	1001b08c 	.word	0x1001b08c

1001192c <MXC_UART_SetFrequency>:
1001192c:	4b31      	ldr	r3, [pc, #196]	@ (100119f4 <MXC_UART_SetFrequency+0xc8>)
1001192e:	4298      	cmp	r0, r3
10011930:	b510      	push	{r4, lr}
10011932:	4604      	mov	r4, r0
10011934:	d015      	beq.n	10011962 <MXC_UART_SetFrequency+0x36>
10011936:	f503 5380 	add.w	r3, r3, #4096	@ 0x1000
1001193a:	4298      	cmp	r0, r3
1001193c:	d011      	beq.n	10011962 <MXC_UART_SetFrequency+0x36>
1001193e:	f503 5380 	add.w	r3, r3, #4096	@ 0x1000
10011942:	4298      	cmp	r0, r3
10011944:	d00d      	beq.n	10011962 <MXC_UART_SetFrequency+0x36>
10011946:	f503 3375 	add.w	r3, r3, #250880	@ 0x3d400
1001194a:	4298      	cmp	r0, r3
1001194c:	d106      	bne.n	1001195c <MXC_UART_SetFrequency+0x30>
1001194e:	2305      	movs	r3, #5
10011950:	2a02      	cmp	r2, #2
10011952:	6143      	str	r3, [r0, #20]
10011954:	d014      	beq.n	10011980 <MXC_UART_SetFrequency+0x54>
10011956:	2a04      	cmp	r2, #4
10011958:	d032      	beq.n	100119c0 <MXC_UART_SetFrequency+0x94>
1001195a:	b18a      	cbz	r2, 10011980 <MXC_UART_SetFrequency+0x54>
1001195c:	f06f 0002 	mvn.w	r0, #2
10011960:	bd10      	pop	{r4, pc}
10011962:	2a04      	cmp	r2, #4
10011964:	d0fa      	beq.n	1001195c <MXC_UART_SetFrequency+0x30>
10011966:	4620      	mov	r0, r4
10011968:	f000 f8d8 	bl	10011b1c <MXC_UART_RevB_SetFrequency>
1001196c:	2800      	cmp	r0, #0
1001196e:	ddf7      	ble.n	10011960 <MXC_UART_SetFrequency+0x34>
10011970:	6823      	ldr	r3, [r4, #0]
10011972:	f443 4300 	orr.w	r3, r3, #32768	@ 0x8000
10011976:	6023      	str	r3, [r4, #0]
10011978:	6823      	ldr	r3, [r4, #0]
1001197a:	031b      	lsls	r3, r3, #12
1001197c:	d5fc      	bpl.n	10011978 <MXC_UART_SetFrequency+0x4c>
1001197e:	bd10      	pop	{r4, pc}
10011980:	f44f 03e1 	mov.w	r3, #7372800	@ 0x708000
10011984:	fbb3 f3f1 	udiv	r3, r3, r1
10011988:	fb01 f203 	mul.w	r2, r1, r3
1001198c:	f5c2 02e1 	rsb	r2, r2, #7372800	@ 0x708000
10011990:	b113      	cbz	r3, 10011998 <MXC_UART_SetFrequency+0x6c>
10011992:	ebb2 0f51 	cmp.w	r2, r1, lsr #1
10011996:	d900      	bls.n	1001199a <MXC_UART_SetFrequency+0x6e>
10011998:	3301      	adds	r3, #1
1001199a:	4a17      	ldr	r2, [pc, #92]	@ (100119f8 <MXC_UART_SetFrequency+0xcc>)
1001199c:	6113      	str	r3, [r2, #16]
1001199e:	6810      	ldr	r0, [r2, #0]
100119a0:	f400 3040 	and.w	r0, r0, #196608	@ 0x30000
100119a4:	f5b0 3f80 	cmp.w	r0, #65536	@ 0x10000
100119a8:	d005      	beq.n	100119b6 <MXC_UART_SetFrequency+0x8a>
100119aa:	6813      	ldr	r3, [r2, #0]
100119ac:	f413 3f40 	tst.w	r3, #196608	@ 0x30000
100119b0:	d1d4      	bne.n	1001195c <MXC_UART_SetFrequency+0x30>
100119b2:	f44f 00e1 	mov.w	r0, #7372800	@ 0x708000
100119b6:	4b10      	ldr	r3, [pc, #64]	@ (100119f8 <MXC_UART_SetFrequency+0xcc>)
100119b8:	691b      	ldr	r3, [r3, #16]
100119ba:	fbb0 f0f3 	udiv	r0, r0, r3
100119be:	e7d5      	b.n	1001196c <MXC_UART_SetFrequency+0x40>
100119c0:	6803      	ldr	r3, [r0, #0]
100119c2:	f443 3380 	orr.w	r3, r3, #65536	@ 0x10000
100119c6:	6003      	str	r3, [r0, #0]
100119c8:	6803      	ldr	r3, [r0, #0]
100119ca:	f5b1 6f16 	cmp.w	r1, #2400	@ 0x960
100119ce:	f443 1300 	orr.w	r3, r3, #2097152	@ 0x200000
100119d2:	6003      	str	r3, [r0, #0]
100119d4:	d90a      	bls.n	100119ec <MXC_UART_SetFrequency+0xc0>
100119d6:	2300      	movs	r3, #0
100119d8:	6143      	str	r3, [r0, #20]
100119da:	f44f 3380 	mov.w	r3, #65536	@ 0x10000
100119de:	fbb3 f3f1 	udiv	r3, r3, r1
100119e2:	fb01 f203 	mul.w	r2, r1, r3
100119e6:	f5c2 3280 	rsb	r2, r2, #65536	@ 0x10000
100119ea:	e7d1      	b.n	10011990 <MXC_UART_SetFrequency+0x64>
100119ec:	2301      	movs	r3, #1
100119ee:	6143      	str	r3, [r0, #20]
100119f0:	e7f3      	b.n	100119da <MXC_UART_SetFrequency+0xae>
100119f2:	bf00      	nop
100119f4:	40042000 	.word	0x40042000
100119f8:	40081400 	.word	0x40081400

100119fc <MXC_UART_GetFrequency>:
100119fc:	4b12      	ldr	r3, [pc, #72]	@ (10011a48 <MXC_UART_GetFrequency+0x4c>)
100119fe:	4298      	cmp	r0, r3
10011a00:	d01c      	beq.n	10011a3c <MXC_UART_GetFrequency+0x40>
10011a02:	f503 5380 	add.w	r3, r3, #4096	@ 0x1000
10011a06:	4298      	cmp	r0, r3
10011a08:	d018      	beq.n	10011a3c <MXC_UART_GetFrequency+0x40>
10011a0a:	f503 5380 	add.w	r3, r3, #4096	@ 0x1000
10011a0e:	4298      	cmp	r0, r3
10011a10:	d014      	beq.n	10011a3c <MXC_UART_GetFrequency+0x40>
10011a12:	f503 3375 	add.w	r3, r3, #250880	@ 0x3d400
10011a16:	4298      	cmp	r0, r3
10011a18:	d112      	bne.n	10011a40 <MXC_UART_GetFrequency+0x44>
10011a1a:	6803      	ldr	r3, [r0, #0]
10011a1c:	f403 3340 	and.w	r3, r3, #196608	@ 0x30000
10011a20:	f5b3 3f80 	cmp.w	r3, #65536	@ 0x10000
10011a24:	d005      	beq.n	10011a32 <MXC_UART_GetFrequency+0x36>
10011a26:	6803      	ldr	r3, [r0, #0]
10011a28:	f413 3f40 	tst.w	r3, #196608	@ 0x30000
10011a2c:	d108      	bne.n	10011a40 <MXC_UART_GetFrequency+0x44>
10011a2e:	f44f 03e1 	mov.w	r3, #7372800	@ 0x708000
10011a32:	4a06      	ldr	r2, [pc, #24]	@ (10011a4c <MXC_UART_GetFrequency+0x50>)
10011a34:	6910      	ldr	r0, [r2, #16]
10011a36:	fbb3 f0f0 	udiv	r0, r3, r0
10011a3a:	4770      	bx	lr
10011a3c:	f000 b8ba 	b.w	10011bb4 <MXC_UART_RevB_GetFrequency>
10011a40:	f06f 0002 	mvn.w	r0, #2
10011a44:	4770      	bx	lr
10011a46:	bf00      	nop
10011a48:	40042000 	.word	0x40042000
10011a4c:	40081400 	.word	0x40081400

10011a50 <MXC_UART_SetDataSize>:
10011a50:	f000 b8f0 	b.w	10011c34 <MXC_UART_RevB_SetDataSize>

10011a54 <MXC_UART_SetStopBits>:
10011a54:	f000 b90e 	b.w	10011c74 <MXC_UART_RevB_SetStopBits>

10011a58 <MXC_UART_SetParity>:
10011a58:	f000 b930 	b.w	10011cbc <MXC_UART_RevB_SetParity>

10011a5c <MXC_UART_ReadCharacterRaw>:
10011a5c:	f000 b984 	b.w	10011d68 <MXC_UART_RevB_ReadCharacterRaw>

10011a60 <MXC_UART_WriteCharacterRaw>:
10011a60:	f000 b99e 	b.w	10011da0 <MXC_UART_RevB_WriteCharacterRaw>

10011a64 <MXC_UART_ReadCharacter>:
10011a64:	f000 b808 	b.w	10011a78 <MXC_UART_Common_ReadCharacter>

10011a68 <MXC_UART_WriteCharacter>:
10011a68:	f000 b812 	b.w	10011a90 <MXC_UART_Common_WriteCharacter>

10011a6c <MXC_UART_GetRXFIFOAvailable>:
10011a6c:	f000 b9b6 	b.w	10011ddc <MXC_UART_RevB_GetRXFIFOAvailable>

10011a70 <MXC_UART_GetTXFIFOAvailable>:
10011a70:	f000 b9b8 	b.w	10011de4 <MXC_UART_RevB_GetTXFIFOAvailable>

10011a74 <MXC_UART_SetRXThreshold>:
10011a74:	f000 b9bc 	b.w	10011df0 <MXC_UART_RevB_SetRXThreshold>

10011a78 <MXC_UART_Common_ReadCharacter>:
10011a78:	b510      	push	{r4, lr}
10011a7a:	4604      	mov	r4, r0
10011a7c:	4620      	mov	r0, r4
10011a7e:	f7ff fff5 	bl	10011a6c <MXC_UART_GetRXFIFOAvailable>
10011a82:	2800      	cmp	r0, #0
10011a84:	d0fa      	beq.n	10011a7c <MXC_UART_Common_ReadCharacter+0x4>
10011a86:	4620      	mov	r0, r4
10011a88:	e8bd 4010 	ldmia.w	sp!, {r4, lr}
10011a8c:	f7ff bfe6 	b.w	10011a5c <MXC_UART_ReadCharacterRaw>

10011a90 <MXC_UART_Common_WriteCharacter>:
10011a90:	b538      	push	{r3, r4, r5, lr}
10011a92:	4604      	mov	r4, r0
10011a94:	460d      	mov	r5, r1
10011a96:	4620      	mov	r0, r4
10011a98:	f7ff ffea 	bl	10011a70 <MXC_UART_GetTXFIFOAvailable>
10011a9c:	2800      	cmp	r0, #0
10011a9e:	d0fa      	beq.n	10011a96 <MXC_UART_Common_WriteCharacter+0x6>
10011aa0:	4629      	mov	r1, r5
10011aa2:	4620      	mov	r0, r4
10011aa4:	e8bd 4038 	ldmia.w	sp!, {r3, r4, r5, lr}
10011aa8:	f7ff bfda 	b.w	10011a60 <MXC_UART_WriteCharacterRaw>

10011aac <MXC_UART_RevB_Init>:
10011aac:	4b1a      	ldr	r3, [pc, #104]	@ (10011b18 <MXC_UART_RevB_Init+0x6c>)
10011aae:	4298      	cmp	r0, r3
10011ab0:	b570      	push	{r4, r5, r6, lr}
10011ab2:	4604      	mov	r4, r0
10011ab4:	460d      	mov	r5, r1
10011ab6:	4616      	mov	r6, r2
10011ab8:	d00b      	beq.n	10011ad2 <MXC_UART_RevB_Init+0x26>
10011aba:	f503 5380 	add.w	r3, r3, #4096	@ 0x1000
10011abe:	4298      	cmp	r0, r3
10011ac0:	d007      	beq.n	10011ad2 <MXC_UART_RevB_Init+0x26>
10011ac2:	f503 5380 	add.w	r3, r3, #4096	@ 0x1000
10011ac6:	4298      	cmp	r0, r3
10011ac8:	d003      	beq.n	10011ad2 <MXC_UART_RevB_Init+0x26>
10011aca:	f503 3375 	add.w	r3, r3, #250880	@ 0x3d400
10011ace:	4298      	cmp	r0, r3
10011ad0:	d11f      	bne.n	10011b12 <MXC_UART_RevB_Init+0x66>
10011ad2:	2101      	movs	r1, #1
10011ad4:	4620      	mov	r0, r4
10011ad6:	f7ff ffcd 	bl	10011a74 <MXC_UART_SetRXThreshold>
10011ada:	b100      	cbz	r0, 10011ade <MXC_UART_RevB_Init+0x32>
10011adc:	bd70      	pop	{r4, r5, r6, pc}
10011ade:	2108      	movs	r1, #8
10011ae0:	4620      	mov	r0, r4
10011ae2:	f7ff ffb5 	bl	10011a50 <MXC_UART_SetDataSize>
10011ae6:	2800      	cmp	r0, #0
10011ae8:	d1f8      	bne.n	10011adc <MXC_UART_RevB_Init+0x30>
10011aea:	4601      	mov	r1, r0
10011aec:	4620      	mov	r0, r4
10011aee:	f7ff ffb3 	bl	10011a58 <MXC_UART_SetParity>
10011af2:	2800      	cmp	r0, #0
10011af4:	d1f2      	bne.n	10011adc <MXC_UART_RevB_Init+0x30>
10011af6:	4601      	mov	r1, r0
10011af8:	4620      	mov	r0, r4
10011afa:	f7ff ffab 	bl	10011a54 <MXC_UART_SetStopBits>
10011afe:	2800      	cmp	r0, #0
10011b00:	d1ec      	bne.n	10011adc <MXC_UART_RevB_Init+0x30>
10011b02:	4632      	mov	r2, r6
10011b04:	4629      	mov	r1, r5
10011b06:	4620      	mov	r0, r4
10011b08:	f7ff ff10 	bl	1001192c <MXC_UART_SetFrequency>
10011b0c:	ea00 70e0 	and.w	r0, r0, r0, asr #31
10011b10:	bd70      	pop	{r4, r5, r6, pc}
10011b12:	f06f 0002 	mvn.w	r0, #2
10011b16:	bd70      	pop	{r4, r5, r6, pc}
10011b18:	40042000 	.word	0x40042000

10011b1c <MXC_UART_RevB_SetFrequency>:
10011b1c:	4b22      	ldr	r3, [pc, #136]	@ (10011ba8 <MXC_UART_RevB_SetFrequency+0x8c>)
10011b1e:	4298      	cmp	r0, r3
10011b20:	d00b      	beq.n	10011b3a <MXC_UART_RevB_SetFrequency+0x1e>
10011b22:	f503 5380 	add.w	r3, r3, #4096	@ 0x1000
10011b26:	4298      	cmp	r0, r3
10011b28:	d007      	beq.n	10011b3a <MXC_UART_RevB_SetFrequency+0x1e>
10011b2a:	f503 5380 	add.w	r3, r3, #4096	@ 0x1000
10011b2e:	4298      	cmp	r0, r3
10011b30:	d003      	beq.n	10011b3a <MXC_UART_RevB_SetFrequency+0x1e>
10011b32:	f503 3375 	add.w	r3, r3, #250880	@ 0x3d400
10011b36:	4298      	cmp	r0, r3
10011b38:	d132      	bne.n	10011ba0 <MXC_UART_RevB_SetFrequency+0x84>
10011b3a:	2305      	movs	r3, #5
10011b3c:	2a01      	cmp	r2, #1
10011b3e:	b410      	push	{r4}
10011b40:	6143      	str	r3, [r0, #20]
10011b42:	d023      	beq.n	10011b8c <MXC_UART_RevB_SetFrequency+0x70>
10011b44:	2a02      	cmp	r2, #2
10011b46:	d014      	beq.n	10011b72 <MXC_UART_RevB_SetFrequency+0x56>
10011b48:	b11a      	cbz	r2, 10011b52 <MXC_UART_RevB_SetFrequency+0x36>
10011b4a:	f06f 0002 	mvn.w	r0, #2
10011b4e:	bc10      	pop	{r4}
10011b50:	4770      	bx	lr
10011b52:	4b16      	ldr	r3, [pc, #88]	@ (10011bac <MXC_UART_RevB_SetFrequency+0x90>)
10011b54:	681a      	ldr	r2, [r3, #0]
10011b56:	0852      	lsrs	r2, r2, #1
10011b58:	fbb2 f3f1 	udiv	r3, r2, r1
10011b5c:	fb01 2213 	mls	r2, r1, r3, r2
10011b60:	b113      	cbz	r3, 10011b68 <MXC_UART_RevB_SetFrequency+0x4c>
10011b62:	ebb2 0f51 	cmp.w	r2, r1, lsr #1
10011b66:	d900      	bls.n	10011b6a <MXC_UART_RevB_SetFrequency+0x4e>
10011b68:	3301      	adds	r3, #1
10011b6a:	bc10      	pop	{r4}
10011b6c:	6103      	str	r3, [r0, #16]
10011b6e:	f7ff bf45 	b.w	100119fc <MXC_UART_GetFrequency>
10011b72:	6804      	ldr	r4, [r0, #0]
10011b74:	f44f 03e1 	mov.w	r3, #7372800	@ 0x708000
10011b78:	f444 3400 	orr.w	r4, r4, #131072	@ 0x20000
10011b7c:	fbb3 f3f1 	udiv	r3, r3, r1
10011b80:	fb01 f203 	mul.w	r2, r1, r3
10011b84:	f5c2 02e1 	rsb	r2, r2, #7372800	@ 0x708000
10011b88:	6004      	str	r4, [r0, #0]
10011b8a:	e7e9      	b.n	10011b60 <MXC_UART_RevB_SetFrequency+0x44>
10011b8c:	6804      	ldr	r4, [r0, #0]
10011b8e:	4a08      	ldr	r2, [pc, #32]	@ (10011bb0 <MXC_UART_RevB_SetFrequency+0x94>)
10011b90:	fbb2 f3f1 	udiv	r3, r2, r1
10011b94:	f444 3480 	orr.w	r4, r4, #65536	@ 0x10000
10011b98:	6004      	str	r4, [r0, #0]
10011b9a:	fb01 2213 	mls	r2, r1, r3, r2
10011b9e:	e7df      	b.n	10011b60 <MXC_UART_RevB_SetFrequency+0x44>
10011ba0:	f06f 0002 	mvn.w	r0, #2
10011ba4:	4770      	bx	lr
10011ba6:	bf00      	nop
10011ba8:	40042000 	.word	0x40042000
10011bac:	20001740 	.word	0x20001740
10011bb0:	047868c0 	.word	0x047868c0

10011bb4 <MXC_UART_RevB_GetFrequency>:
10011bb4:	4b1c      	ldr	r3, [pc, #112]	@ (10011c28 <MXC_UART_RevB_GetFrequency+0x74>)
10011bb6:	4298      	cmp	r0, r3
10011bb8:	d00b      	beq.n	10011bd2 <MXC_UART_RevB_GetFrequency+0x1e>
10011bba:	f503 5380 	add.w	r3, r3, #4096	@ 0x1000
10011bbe:	4298      	cmp	r0, r3
10011bc0:	d007      	beq.n	10011bd2 <MXC_UART_RevB_GetFrequency+0x1e>
10011bc2:	f503 5380 	add.w	r3, r3, #4096	@ 0x1000
10011bc6:	4298      	cmp	r0, r3
10011bc8:	d003      	beq.n	10011bd2 <MXC_UART_RevB_GetFrequency+0x1e>
10011bca:	f503 3375 	add.w	r3, r3, #250880	@ 0x3d400
10011bce:	4298      	cmp	r0, r3
10011bd0:	d122      	bne.n	10011c18 <MXC_UART_RevB_GetFrequency+0x64>
10011bd2:	6803      	ldr	r3, [r0, #0]
10011bd4:	f403 3340 	and.w	r3, r3, #196608	@ 0x30000
10011bd8:	f5b3 3f80 	cmp.w	r3, #65536	@ 0x10000
10011bdc:	d017      	beq.n	10011c0e <MXC_UART_RevB_GetFrequency+0x5a>
10011bde:	6803      	ldr	r3, [r0, #0]
10011be0:	f413 3f40 	tst.w	r3, #196608	@ 0x30000
10011be4:	d00c      	beq.n	10011c00 <MXC_UART_RevB_GetFrequency+0x4c>
10011be6:	6803      	ldr	r3, [r0, #0]
10011be8:	f403 3340 	and.w	r3, r3, #196608	@ 0x30000
10011bec:	f5b3 3f00 	cmp.w	r3, #131072	@ 0x20000
10011bf0:	bf08      	it	eq
10011bf2:	f44f 03e1 	moveq.w	r3, #7372800	@ 0x708000
10011bf6:	d112      	bne.n	10011c1e <MXC_UART_RevB_GetFrequency+0x6a>
10011bf8:	6900      	ldr	r0, [r0, #16]
10011bfa:	fbb3 f0f0 	udiv	r0, r3, r0
10011bfe:	4770      	bx	lr
10011c00:	4b0a      	ldr	r3, [pc, #40]	@ (10011c2c <MXC_UART_RevB_GetFrequency+0x78>)
10011c02:	6900      	ldr	r0, [r0, #16]
10011c04:	681b      	ldr	r3, [r3, #0]
10011c06:	085b      	lsrs	r3, r3, #1
10011c08:	fbb3 f0f0 	udiv	r0, r3, r0
10011c0c:	4770      	bx	lr
10011c0e:	4b08      	ldr	r3, [pc, #32]	@ (10011c30 <MXC_UART_RevB_GetFrequency+0x7c>)
10011c10:	6900      	ldr	r0, [r0, #16]
10011c12:	fbb3 f0f0 	udiv	r0, r3, r0
10011c16:	4770      	bx	lr
10011c18:	f06f 0002 	mvn.w	r0, #2
10011c1c:	4770      	bx	lr
10011c1e:	6803      	ldr	r3, [r0, #0]
10011c20:	f06f 0002 	mvn.w	r0, #2
10011c24:	4770      	bx	lr
10011c26:	bf00      	nop
10011c28:	40042000 	.word	0x40042000
10011c2c:	20001740 	.word	0x20001740
10011c30:	047868c0 	.word	0x047868c0

10011c34 <MXC_UART_RevB_SetDataSize>:
10011c34:	4a0e      	ldr	r2, [pc, #56]	@ (10011c70 <MXC_UART_RevB_SetDataSize+0x3c>)
10011c36:	4290      	cmp	r0, r2
10011c38:	4603      	mov	r3, r0
10011c3a:	d00b      	beq.n	10011c54 <MXC_UART_RevB_SetDataSize+0x20>
10011c3c:	f502 5280 	add.w	r2, r2, #4096	@ 0x1000
10011c40:	4290      	cmp	r0, r2
10011c42:	d007      	beq.n	10011c54 <MXC_UART_RevB_SetDataSize+0x20>
10011c44:	f502 5280 	add.w	r2, r2, #4096	@ 0x1000
10011c48:	4290      	cmp	r0, r2
10011c4a:	d003      	beq.n	10011c54 <MXC_UART_RevB_SetDataSize+0x20>
10011c4c:	f502 3275 	add.w	r2, r2, #250880	@ 0x3d400
10011c50:	4290      	cmp	r0, r2
10011c52:	d10a      	bne.n	10011c6a <MXC_UART_RevB_SetDataSize+0x36>
10011c54:	3905      	subs	r1, #5
10011c56:	2903      	cmp	r1, #3
10011c58:	d807      	bhi.n	10011c6a <MXC_UART_RevB_SetDataSize+0x36>
10011c5a:	681a      	ldr	r2, [r3, #0]
10011c5c:	f422 6240 	bic.w	r2, r2, #3072	@ 0xc00
10011c60:	ea42 2281 	orr.w	r2, r2, r1, lsl #10
10011c64:	2000      	movs	r0, #0
10011c66:	601a      	str	r2, [r3, #0]
10011c68:	4770      	bx	lr
10011c6a:	f06f 0002 	mvn.w	r0, #2
10011c6e:	4770      	bx	lr
10011c70:	40042000 	.word	0x40042000

10011c74 <MXC_UART_RevB_SetStopBits>:
10011c74:	4b10      	ldr	r3, [pc, #64]	@ (10011cb8 <MXC_UART_RevB_SetStopBits+0x44>)
10011c76:	4298      	cmp	r0, r3
10011c78:	d00b      	beq.n	10011c92 <MXC_UART_RevB_SetStopBits+0x1e>
10011c7a:	f503 5380 	add.w	r3, r3, #4096	@ 0x1000
10011c7e:	4298      	cmp	r0, r3
10011c80:	d007      	beq.n	10011c92 <MXC_UART_RevB_SetStopBits+0x1e>
10011c82:	f503 5380 	add.w	r3, r3, #4096	@ 0x1000
10011c86:	4298      	cmp	r0, r3
10011c88:	d003      	beq.n	10011c92 <MXC_UART_RevB_SetStopBits+0x1e>
10011c8a:	f503 3375 	add.w	r3, r3, #250880	@ 0x3d400
10011c8e:	4298      	cmp	r0, r3
10011c90:	d108      	bne.n	10011ca4 <MXC_UART_RevB_SetStopBits+0x30>
10011c92:	b151      	cbz	r1, 10011caa <MXC_UART_RevB_SetStopBits+0x36>
10011c94:	2901      	cmp	r1, #1
10011c96:	d105      	bne.n	10011ca4 <MXC_UART_RevB_SetStopBits+0x30>
10011c98:	6803      	ldr	r3, [r0, #0]
10011c9a:	f443 5380 	orr.w	r3, r3, #4096	@ 0x1000
10011c9e:	6003      	str	r3, [r0, #0]
10011ca0:	2000      	movs	r0, #0
10011ca2:	4770      	bx	lr
10011ca4:	f06f 0002 	mvn.w	r0, #2
10011ca8:	4770      	bx	lr
10011caa:	6803      	ldr	r3, [r0, #0]
10011cac:	f423 5380 	bic.w	r3, r3, #4096	@ 0x1000
10011cb0:	6003      	str	r3, [r0, #0]
10011cb2:	2000      	movs	r0, #0
10011cb4:	4770      	bx	lr
10011cb6:	bf00      	nop
10011cb8:	40042000 	.word	0x40042000

10011cbc <MXC_UART_RevB_SetParity>:
10011cbc:	4b29      	ldr	r3, [pc, #164]	@ (10011d64 <MXC_UART_RevB_SetParity+0xa8>)
10011cbe:	4298      	cmp	r0, r3
10011cc0:	d00b      	beq.n	10011cda <MXC_UART_RevB_SetParity+0x1e>
10011cc2:	f503 5380 	add.w	r3, r3, #4096	@ 0x1000
10011cc6:	4298      	cmp	r0, r3
10011cc8:	d007      	beq.n	10011cda <MXC_UART_RevB_SetParity+0x1e>
10011cca:	f503 5380 	add.w	r3, r3, #4096	@ 0x1000
10011cce:	4298      	cmp	r0, r3
10011cd0:	d003      	beq.n	10011cda <MXC_UART_RevB_SetParity+0x1e>
10011cd2:	f503 3375 	add.w	r3, r3, #250880	@ 0x3d400
10011cd6:	4298      	cmp	r0, r3
10011cd8:	d141      	bne.n	10011d5e <MXC_UART_RevB_SetParity+0xa2>
10011cda:	2904      	cmp	r1, #4
10011cdc:	d83f      	bhi.n	10011d5e <MXC_UART_RevB_SetParity+0xa2>
10011cde:	e8df f001 	tbb	[pc, r1]
10011ce2:	1711      	.short	0x1711
10011ce4:	3124      	.short	0x3124
10011ce6:	03          	.byte	0x03
10011ce7:	00          	.byte	0x00
10011ce8:	6803      	ldr	r3, [r0, #0]
10011cea:	f043 0310 	orr.w	r3, r3, #16
10011cee:	6003      	str	r3, [r0, #0]
10011cf0:	6803      	ldr	r3, [r0, #0]
10011cf2:	f043 0320 	orr.w	r3, r3, #32
10011cf6:	6003      	str	r3, [r0, #0]
10011cf8:	6803      	ldr	r3, [r0, #0]
10011cfa:	f043 0340 	orr.w	r3, r3, #64	@ 0x40
10011cfe:	6003      	str	r3, [r0, #0]
10011d00:	2000      	movs	r0, #0
10011d02:	4770      	bx	lr
10011d04:	6803      	ldr	r3, [r0, #0]
10011d06:	f023 0310 	bic.w	r3, r3, #16
10011d0a:	6003      	str	r3, [r0, #0]
10011d0c:	2000      	movs	r0, #0
10011d0e:	4770      	bx	lr
10011d10:	6803      	ldr	r3, [r0, #0]
10011d12:	f043 0310 	orr.w	r3, r3, #16
10011d16:	6003      	str	r3, [r0, #0]
10011d18:	6803      	ldr	r3, [r0, #0]
10011d1a:	f023 0320 	bic.w	r3, r3, #32
10011d1e:	6003      	str	r3, [r0, #0]
10011d20:	6803      	ldr	r3, [r0, #0]
10011d22:	f023 0340 	bic.w	r3, r3, #64	@ 0x40
10011d26:	6003      	str	r3, [r0, #0]
10011d28:	e7ea      	b.n	10011d00 <MXC_UART_RevB_SetParity+0x44>
10011d2a:	6803      	ldr	r3, [r0, #0]
10011d2c:	f043 0310 	orr.w	r3, r3, #16
10011d30:	6003      	str	r3, [r0, #0]
10011d32:	6803      	ldr	r3, [r0, #0]
10011d34:	f023 0320 	bic.w	r3, r3, #32
10011d38:	6003      	str	r3, [r0, #0]
10011d3a:	6803      	ldr	r3, [r0, #0]
10011d3c:	f043 0340 	orr.w	r3, r3, #64	@ 0x40
10011d40:	6003      	str	r3, [r0, #0]
10011d42:	e7dd      	b.n	10011d00 <MXC_UART_RevB_SetParity+0x44>
10011d44:	6803      	ldr	r3, [r0, #0]
10011d46:	f043 0310 	orr.w	r3, r3, #16
10011d4a:	6003      	str	r3, [r0, #0]
10011d4c:	6803      	ldr	r3, [r0, #0]
10011d4e:	f043 0320 	orr.w	r3, r3, #32
10011d52:	6003      	str	r3, [r0, #0]
10011d54:	6803      	ldr	r3, [r0, #0]
10011d56:	f023 0340 	bic.w	r3, r3, #64	@ 0x40
10011d5a:	6003      	str	r3, [r0, #0]
10011d5c:	e7d0      	b.n	10011d00 <MXC_UART_RevB_SetParity+0x44>
10011d5e:	f06f 0002 	mvn.w	r0, #2
10011d62:	4770      	bx	lr
10011d64:	40042000 	.word	0x40042000

10011d68 <MXC_UART_RevB_ReadCharacterRaw>:
10011d68:	4b0c      	ldr	r3, [pc, #48]	@ (10011d9c <MXC_UART_RevB_ReadCharacterRaw+0x34>)
10011d6a:	4298      	cmp	r0, r3
10011d6c:	d00b      	beq.n	10011d86 <MXC_UART_RevB_ReadCharacterRaw+0x1e>
10011d6e:	f503 5380 	add.w	r3, r3, #4096	@ 0x1000
10011d72:	4298      	cmp	r0, r3
10011d74:	d007      	beq.n	10011d86 <MXC_UART_RevB_ReadCharacterRaw+0x1e>
10011d76:	f503 5380 	add.w	r3, r3, #4096	@ 0x1000
10011d7a:	4298      	cmp	r0, r3
10011d7c:	d003      	beq.n	10011d86 <MXC_UART_RevB_ReadCharacterRaw+0x1e>
10011d7e:	f503 3375 	add.w	r3, r3, #250880	@ 0x3d400
10011d82:	4298      	cmp	r0, r3
10011d84:	d104      	bne.n	10011d90 <MXC_UART_RevB_ReadCharacterRaw+0x28>
10011d86:	6843      	ldr	r3, [r0, #4]
10011d88:	06db      	lsls	r3, r3, #27
10011d8a:	d404      	bmi.n	10011d96 <MXC_UART_RevB_ReadCharacterRaw+0x2e>
10011d8c:	6a00      	ldr	r0, [r0, #32]
10011d8e:	4770      	bx	lr
10011d90:	f06f 0002 	mvn.w	r0, #2
10011d94:	4770      	bx	lr
10011d96:	f06f 000c 	mvn.w	r0, #12
10011d9a:	4770      	bx	lr
10011d9c:	40042000 	.word	0x40042000

10011da0 <MXC_UART_RevB_WriteCharacterRaw>:
10011da0:	4a0d      	ldr	r2, [pc, #52]	@ (10011dd8 <MXC_UART_RevB_WriteCharacterRaw+0x38>)
10011da2:	4290      	cmp	r0, r2
10011da4:	4603      	mov	r3, r0
10011da6:	d00b      	beq.n	10011dc0 <MXC_UART_RevB_WriteCharacterRaw+0x20>
10011da8:	f502 5280 	add.w	r2, r2, #4096	@ 0x1000
10011dac:	4290      	cmp	r0, r2
10011dae:	d007      	beq.n	10011dc0 <MXC_UART_RevB_WriteCharacterRaw+0x20>
10011db0:	f502 5280 	add.w	r2, r2, #4096	@ 0x1000
10011db4:	4290      	cmp	r0, r2
10011db6:	d003      	beq.n	10011dc0 <MXC_UART_RevB_WriteCharacterRaw+0x20>
10011db8:	f502 3275 	add.w	r2, r2, #250880	@ 0x3d400
10011dbc:	4290      	cmp	r0, r2
10011dbe:	d105      	bne.n	10011dcc <MXC_UART_RevB_WriteCharacterRaw+0x2c>
10011dc0:	6858      	ldr	r0, [r3, #4]
10011dc2:	f010 0080 	ands.w	r0, r0, #128	@ 0x80
10011dc6:	d104      	bne.n	10011dd2 <MXC_UART_RevB_WriteCharacterRaw+0x32>
10011dc8:	6219      	str	r1, [r3, #32]
10011dca:	4770      	bx	lr
10011dcc:	f06f 0002 	mvn.w	r0, #2
10011dd0:	4770      	bx	lr
10011dd2:	f06f 000b 	mvn.w	r0, #11
10011dd6:	4770      	bx	lr
10011dd8:	40042000 	.word	0x40042000

10011ddc <MXC_UART_RevB_GetRXFIFOAvailable>:
10011ddc:	6840      	ldr	r0, [r0, #4]
10011dde:	f3c0 2003 	ubfx	r0, r0, #8, #4
10011de2:	4770      	bx	lr

10011de4 <MXC_UART_RevB_GetTXFIFOAvailable>:
10011de4:	6840      	ldr	r0, [r0, #4]
10011de6:	f3c0 3003 	ubfx	r0, r0, #12, #4
10011dea:	f1c0 0008 	rsb	r0, r0, #8
10011dee:	4770      	bx	lr

10011df0 <MXC_UART_RevB_SetRXThreshold>:
10011df0:	4a0e      	ldr	r2, [pc, #56]	@ (10011e2c <MXC_UART_RevB_SetRXThreshold+0x3c>)
10011df2:	4290      	cmp	r0, r2
10011df4:	4603      	mov	r3, r0
10011df6:	d00b      	beq.n	10011e10 <MXC_UART_RevB_SetRXThreshold+0x20>
10011df8:	f502 5280 	add.w	r2, r2, #4096	@ 0x1000
10011dfc:	4290      	cmp	r0, r2
10011dfe:	d007      	beq.n	10011e10 <MXC_UART_RevB_SetRXThreshold+0x20>
10011e00:	f502 5280 	add.w	r2, r2, #4096	@ 0x1000
10011e04:	4290      	cmp	r0, r2
10011e06:	d003      	beq.n	10011e10 <MXC_UART_RevB_SetRXThreshold+0x20>
10011e08:	f502 3275 	add.w	r2, r2, #250880	@ 0x3d400
10011e0c:	4290      	cmp	r0, r2
10011e0e:	d109      	bne.n	10011e24 <MXC_UART_RevB_SetRXThreshold+0x34>
10011e10:	1e4a      	subs	r2, r1, #1
10011e12:	2a07      	cmp	r2, #7
10011e14:	d806      	bhi.n	10011e24 <MXC_UART_RevB_SetRXThreshold+0x34>
10011e16:	681a      	ldr	r2, [r3, #0]
10011e18:	f022 020f 	bic.w	r2, r2, #15
10011e1c:	4311      	orrs	r1, r2
10011e1e:	2000      	movs	r0, #0
10011e20:	6019      	str	r1, [r3, #0]
10011e22:	4770      	bx	lr
10011e24:	f06f 0002 	mvn.w	r0, #2
10011e28:	4770      	bx	lr
10011e2a:	bf00      	nop
10011e2c:	40042000 	.word	0x40042000

10011e30 <MXC_GPIO_Common_Init>:
10011e30:	b510      	push	{r4, lr}
10011e32:	4c06      	ldr	r4, [pc, #24]	@ (10011e4c <MXC_GPIO_Common_Init+0x1c>)
10011e34:	7821      	ldrb	r1, [r4, #0]
10011e36:	b931      	cbnz	r1, 10011e46 <MXC_GPIO_Common_Init+0x16>
10011e38:	4805      	ldr	r0, [pc, #20]	@ (10011e50 <MXC_GPIO_Common_Init+0x20>)
10011e3a:	f44f 7200 	mov.w	r2, #512	@ 0x200
10011e3e:	f002 f8ef 	bl	10014020 <memset>
10011e42:	2301      	movs	r3, #1
10011e44:	7023      	strb	r3, [r4, #0]
10011e46:	2000      	movs	r0, #0
10011e48:	bd10      	pop	{r4, pc}
10011e4a:	bf00      	nop
10011e4c:	20001028 	.word	0x20001028
10011e50:	2000122c 	.word	0x2000122c

10011e54 <MXC_GPIO_Common_Handler>:
10011e54:	2803      	cmp	r0, #3
10011e56:	b5f8      	push	{r3, r4, r5, r6, r7, lr}
10011e58:	bf9a      	itte	ls
10011e5a:	4b10      	ldrls	r3, [pc, #64]	@ (10011e9c <MXC_GPIO_Common_Handler+0x48>)
10011e5c:	f853 5020 	ldrls.w	r5, [r3, r0, lsl #2]
10011e60:	2500      	movhi	r5, #0
10011e62:	4607      	mov	r7, r0
10011e64:	4628      	mov	r0, r5
10011e66:	f7ff f9e5 	bl	10011234 <MXC_GPIO_GetFlags>
10011e6a:	4604      	mov	r4, r0
10011e6c:	4601      	mov	r1, r0
10011e6e:	4628      	mov	r0, r5
10011e70:	f7ff f9d4 	bl	1001121c <MXC_GPIO_ClearFlags>
10011e74:	b18c      	cbz	r4, 10011e9a <MXC_GPIO_Common_Handler+0x46>
10011e76:	4e0a      	ldr	r6, [pc, #40]	@ (10011ea0 <MXC_GPIO_Common_Handler+0x4c>)
10011e78:	4d0a      	ldr	r5, [pc, #40]	@ (10011ea4 <MXC_GPIO_Common_Handler+0x50>)
10011e7a:	eb06 16c7 	add.w	r6, r6, r7, lsl #7
10011e7e:	eb05 15c7 	add.w	r5, r5, r7, lsl #7
10011e82:	07e3      	lsls	r3, r4, #31
10011e84:	d503      	bpl.n	10011e8e <MXC_GPIO_Common_Handler+0x3a>
10011e86:	682b      	ldr	r3, [r5, #0]
10011e88:	b10b      	cbz	r3, 10011e8e <MXC_GPIO_Common_Handler+0x3a>
10011e8a:	6830      	ldr	r0, [r6, #0]
10011e8c:	4798      	blx	r3
10011e8e:	0864      	lsrs	r4, r4, #1
10011e90:	f106 0604 	add.w	r6, r6, #4
10011e94:	f105 0504 	add.w	r5, r5, #4
10011e98:	d1f3      	bne.n	10011e82 <MXC_GPIO_Common_Handler+0x2e>
10011e9a:	bdf8      	pop	{r3, r4, r5, r6, r7, pc}
10011e9c:	1001b0e0 	.word	0x1001b0e0
10011ea0:	2000102c 	.word	0x2000102c
10011ea4:	2000122c 	.word	0x2000122c

10011ea8 <sprintf>:
10011ea8:	b40e      	push	{r1, r2, r3}
10011eaa:	b510      	push	{r4, lr}
10011eac:	b09d      	sub	sp, #116	@ 0x74
10011eae:	f06f 4100 	mvn.w	r1, #2147483648	@ 0x80000000
10011eb2:	ab1f      	add	r3, sp, #124	@ 0x7c
10011eb4:	9104      	str	r1, [sp, #16]
10011eb6:	9107      	str	r1, [sp, #28]
10011eb8:	4909      	ldr	r1, [pc, #36]	@ (10011ee0 <sprintf+0x38>)
10011eba:	f853 2b04 	ldr.w	r2, [r3], #4
10011ebe:	9002      	str	r0, [sp, #8]
10011ec0:	9006      	str	r0, [sp, #24]
10011ec2:	4c08      	ldr	r4, [pc, #32]	@ (10011ee4 <sprintf+0x3c>)
10011ec4:	6808      	ldr	r0, [r1, #0]
10011ec6:	9301      	str	r3, [sp, #4]
10011ec8:	a902      	add	r1, sp, #8
10011eca:	9405      	str	r4, [sp, #20]
10011ecc:	f000 f814 	bl	10011ef8 <_svfprintf_r>
10011ed0:	9b02      	ldr	r3, [sp, #8]
10011ed2:	2200      	movs	r2, #0
10011ed4:	701a      	strb	r2, [r3, #0]
10011ed6:	b01d      	add	sp, #116	@ 0x74
10011ed8:	e8bd 4010 	ldmia.w	sp!, {r4, lr}
10011edc:	b003      	add	sp, #12
10011ede:	4770      	bx	lr
10011ee0:	200005b8 	.word	0x200005b8
10011ee4:	ffff0208 	.word	0xffff0208

10011ee8 <__errno>:
10011ee8:	4b01      	ldr	r3, [pc, #4]	@ (10011ef0 <__errno+0x8>)
10011eea:	6818      	ldr	r0, [r3, #0]
10011eec:	4770      	bx	lr
10011eee:	bf00      	nop
10011ef0:	200005b8 	.word	0x200005b8
10011ef4:	00000000 	.word	0x00000000

10011ef8 <_svfprintf_r>:
10011ef8:	e92d 4ff0 	stmdb	sp!, {r4, r5, r6, r7, r8, r9, sl, fp, lr}
10011efc:	b0df      	sub	sp, #380	@ 0x17c
10011efe:	460c      	mov	r4, r1
10011f00:	9109      	str	r1, [sp, #36]	@ 0x24
10011f02:	4691      	mov	r9, r2
10011f04:	930d      	str	r3, [sp, #52]	@ 0x34
10011f06:	4683      	mov	fp, r0
10011f08:	f002 f94c 	bl	100141a4 <_localeconv_r>
10011f0c:	6803      	ldr	r3, [r0, #0]
10011f0e:	931a      	str	r3, [sp, #104]	@ 0x68
10011f10:	4618      	mov	r0, r3
10011f12:	f003 fb55 	bl	100155c0 <strlen>
10011f16:	2208      	movs	r2, #8
10011f18:	9018      	str	r0, [sp, #96]	@ 0x60
10011f1a:	2100      	movs	r1, #0
10011f1c:	a82e      	add	r0, sp, #184	@ 0xb8
10011f1e:	f002 f87f 	bl	10014020 <memset>
10011f22:	89a3      	ldrh	r3, [r4, #12]
10011f24:	061a      	lsls	r2, r3, #24
10011f26:	d503      	bpl.n	10011f30 <_svfprintf_r+0x38>
10011f28:	6923      	ldr	r3, [r4, #16]
10011f2a:	2b00      	cmp	r3, #0
10011f2c:	f000 8790 	beq.w	10012e50 <_svfprintf_r+0xf58>
10011f30:	ed9f 7b7f 	vldr	d7, [pc, #508]	@ 10012130 <_svfprintf_r+0x238>
10011f34:	2300      	movs	r3, #0
10011f36:	e9cd 3333 	strd	r3, r3, [sp, #204]	@ 0xcc
10011f3a:	e9cd 331b 	strd	r3, r3, [sp, #108]	@ 0x6c
10011f3e:	e9cd 331d 	strd	r3, r3, [sp, #116]	@ 0x74
10011f42:	ed8d 7b16 	vstr	d7, [sp, #88]	@ 0x58
10011f46:	aa35      	add	r2, sp, #212	@ 0xd4
10011f48:	9313      	str	r3, [sp, #76]	@ 0x4c
10011f4a:	9232      	str	r2, [sp, #200]	@ 0xc8
10011f4c:	4690      	mov	r8, r2
10011f4e:	9319      	str	r3, [sp, #100]	@ 0x64
10011f50:	930a      	str	r3, [sp, #40]	@ 0x28
10011f52:	f8cd b01c 	str.w	fp, [sp, #28]
10011f56:	464d      	mov	r5, r9
10011f58:	9f07      	ldr	r7, [sp, #28]
10011f5a:	462e      	mov	r6, r5
10011f5c:	4b76      	ldr	r3, [pc, #472]	@ (10012138 <_svfprintf_r+0x240>)
10011f5e:	f8d3 40e4 	ldr.w	r4, [r3, #228]	@ 0xe4
10011f62:	f002 f919 	bl	10014198 <__locale_mb_cur_max>
10011f66:	4603      	mov	r3, r0
10011f68:	a82e      	add	r0, sp, #184	@ 0xb8
10011f6a:	9000      	str	r0, [sp, #0]
10011f6c:	4632      	mov	r2, r6
10011f6e:	a92a      	add	r1, sp, #168	@ 0xa8
10011f70:	4638      	mov	r0, r7
10011f72:	47a0      	blx	r4
10011f74:	2800      	cmp	r0, #0
10011f76:	f000 80a9 	beq.w	100120cc <_svfprintf_r+0x1d4>
10011f7a:	f2c0 809f 	blt.w	100120bc <_svfprintf_r+0x1c4>
10011f7e:	9a2a      	ldr	r2, [sp, #168]	@ 0xa8
10011f80:	2a25      	cmp	r2, #37	@ 0x25
10011f82:	4603      	mov	r3, r0
10011f84:	d001      	beq.n	10011f8a <_svfprintf_r+0x92>
10011f86:	441e      	add	r6, r3
10011f88:	e7e8      	b.n	10011f5c <_svfprintf_r+0x64>
10011f8a:	1b77      	subs	r7, r6, r5
10011f8c:	4604      	mov	r4, r0
10011f8e:	f040 80a0 	bne.w	100120d2 <_svfprintf_r+0x1da>
10011f92:	2300      	movs	r3, #0
10011f94:	f88d 309f 	strb.w	r3, [sp, #159]	@ 0x9f
10011f98:	4699      	mov	r9, r3
10011f9a:	930b      	str	r3, [sp, #44]	@ 0x2c
10011f9c:	f04f 32ff 	mov.w	r2, #4294967295	@ 0xffffffff
10011fa0:	7873      	ldrb	r3, [r6, #1]
10011fa2:	9208      	str	r2, [sp, #32]
10011fa4:	1c74      	adds	r4, r6, #1
10011fa6:	3401      	adds	r4, #1
10011fa8:	f1a3 0220 	sub.w	r2, r3, #32
10011fac:	2a5a      	cmp	r2, #90	@ 0x5a
10011fae:	f200 80c5 	bhi.w	1001213c <_svfprintf_r+0x244>
10011fb2:	e8df f012 	tbh	[pc, r2, lsl #1]
10011fb6:	02ee      	.short	0x02ee
10011fb8:	00c300c3 	.word	0x00c300c3
10011fbc:	00c302ea 	.word	0x00c302ea
10011fc0:	00c300c3 	.word	0x00c300c3
10011fc4:	00c3006a 	.word	0x00c3006a
10011fc8:	025100c3 	.word	0x025100c3
10011fcc:	00c30260 	.word	0x00c30260
10011fd0:	02fc025c 	.word	0x02fc025c
10011fd4:	02f800c3 	.word	0x02f800c3
10011fd8:	005b005b 	.word	0x005b005b
10011fdc:	005b005b 	.word	0x005b005b
10011fe0:	005b005b 	.word	0x005b005b
10011fe4:	005b005b 	.word	0x005b005b
10011fe8:	00c3005b 	.word	0x00c3005b
10011fec:	00c300c3 	.word	0x00c300c3
10011ff0:	00c300c3 	.word	0x00c300c3
10011ff4:	00c300c3 	.word	0x00c300c3
10011ff8:	00c30144 	.word	0x00c30144
10011ffc:	031601d0 	.word	0x031601d0
10012000:	01440144 	.word	0x01440144
10012004:	00c30144 	.word	0x00c30144
10012008:	00c300c3 	.word	0x00c300c3
1001200c:	02e600c3 	.word	0x02e600c3
10012010:	00c300c3 	.word	0x00c300c3
10012014:	00c30265 	.word	0x00c30265
10012018:	00c300c3 	.word	0x00c300c3
1001201c:	00c301fa 	.word	0x00c301fa
10012020:	00c302d3 	.word	0x00c302d3
10012024:	070e00c3 	.word	0x070e00c3
10012028:	00c300c3 	.word	0x00c300c3
1001202c:	00c300c3 	.word	0x00c300c3
10012030:	00c300c3 	.word	0x00c300c3
10012034:	00c300c3 	.word	0x00c300c3
10012038:	00c30144 	.word	0x00c30144
1001203c:	022c01d0 	.word	0x022c01d0
10012040:	01440144 	.word	0x01440144
10012044:	02960144 	.word	0x02960144
10012048:	007f022c 	.word	0x007f022c
1001204c:	02af00c3 	.word	0x02af00c3
10012050:	02a000c3 	.word	0x02a000c3
10012054:	02c10703 	.word	0x02c10703
10012058:	00c3007f 	.word	0x00c3007f
1001205c:	007d01fa 	.word	0x007d01fa
10012060:	00c30709 	.word	0x00c30709
10012064:	073200c3 	.word	0x073200c3
10012068:	007d00c3 	.word	0x007d00c3
1001206c:	f1a3 0230 	sub.w	r2, r3, #48	@ 0x30
10012070:	2100      	movs	r1, #0
10012072:	f814 3b01 	ldrb.w	r3, [r4], #1
10012076:	eb01 0181 	add.w	r1, r1, r1, lsl #2
1001207a:	eb02 0141 	add.w	r1, r2, r1, lsl #1
1001207e:	f1a3 0230 	sub.w	r2, r3, #48	@ 0x30
10012082:	2a09      	cmp	r2, #9
10012084:	d9f5      	bls.n	10012072 <_svfprintf_r+0x17a>
10012086:	910b      	str	r1, [sp, #44]	@ 0x2c
10012088:	e78e      	b.n	10011fa8 <_svfprintf_r+0xb0>
1001208a:	9f07      	ldr	r7, [sp, #28]
1001208c:	4638      	mov	r0, r7
1001208e:	f002 f889 	bl	100141a4 <_localeconv_r>
10012092:	6843      	ldr	r3, [r0, #4]
10012094:	931d      	str	r3, [sp, #116]	@ 0x74
10012096:	4618      	mov	r0, r3
10012098:	f003 fa92 	bl	100155c0 <strlen>
1001209c:	901e      	str	r0, [sp, #120]	@ 0x78
1001209e:	4606      	mov	r6, r0
100120a0:	4638      	mov	r0, r7
100120a2:	f002 f87f 	bl	100141a4 <_localeconv_r>
100120a6:	6883      	ldr	r3, [r0, #8]
100120a8:	931b      	str	r3, [sp, #108]	@ 0x6c
100120aa:	2e00      	cmp	r6, #0
100120ac:	f040 861e 	bne.w	10012cec <_svfprintf_r+0xdf4>
100120b0:	7823      	ldrb	r3, [r4, #0]
100120b2:	e778      	b.n	10011fa6 <_svfprintf_r+0xae>
100120b4:	7823      	ldrb	r3, [r4, #0]
100120b6:	f049 0920 	orr.w	r9, r9, #32
100120ba:	e774      	b.n	10011fa6 <_svfprintf_r+0xae>
100120bc:	2208      	movs	r2, #8
100120be:	2100      	movs	r1, #0
100120c0:	a82e      	add	r0, sp, #184	@ 0xb8
100120c2:	f001 ffad 	bl	10014020 <memset>
100120c6:	2301      	movs	r3, #1
100120c8:	441e      	add	r6, r3
100120ca:	e747      	b.n	10011f5c <_svfprintf_r+0x64>
100120cc:	1b77      	subs	r7, r6, r5
100120ce:	4604      	mov	r4, r0
100120d0:	d011      	beq.n	100120f6 <_svfprintf_r+0x1fe>
100120d2:	9b34      	ldr	r3, [sp, #208]	@ 0xd0
100120d4:	443b      	add	r3, r7
100120d6:	9334      	str	r3, [sp, #208]	@ 0xd0
100120d8:	9b33      	ldr	r3, [sp, #204]	@ 0xcc
100120da:	3301      	adds	r3, #1
100120dc:	2b07      	cmp	r3, #7
100120de:	e9c8 5700 	strd	r5, r7, [r8]
100120e2:	9333      	str	r3, [sp, #204]	@ 0xcc
100120e4:	dc18      	bgt.n	10012118 <_svfprintf_r+0x220>
100120e6:	f108 0808 	add.w	r8, r8, #8
100120ea:	9b0a      	ldr	r3, [sp, #40]	@ 0x28
100120ec:	443b      	add	r3, r7
100120ee:	930a      	str	r3, [sp, #40]	@ 0x28
100120f0:	2c00      	cmp	r4, #0
100120f2:	f47f af4e 	bne.w	10011f92 <_svfprintf_r+0x9a>
100120f6:	9b34      	ldr	r3, [sp, #208]	@ 0xd0
100120f8:	f8dd b01c 	ldr.w	fp, [sp, #28]
100120fc:	2b00      	cmp	r3, #0
100120fe:	f041 81f3 	bne.w	100134e8 <_svfprintf_r+0x15f0>
10012102:	9b09      	ldr	r3, [sp, #36]	@ 0x24
10012104:	899b      	ldrh	r3, [r3, #12]
10012106:	f003 0340 	and.w	r3, r3, #64	@ 0x40
1001210a:	2b00      	cmp	r3, #0
1001210c:	f041 83c3 	bne.w	10013896 <_svfprintf_r+0x199e>
10012110:	980a      	ldr	r0, [sp, #40]	@ 0x28
10012112:	b05f      	add	sp, #380	@ 0x17c
10012114:	e8bd 8ff0 	ldmia.w	sp!, {r4, r5, r6, r7, r8, r9, sl, fp, pc}
10012118:	9909      	ldr	r1, [sp, #36]	@ 0x24
1001211a:	9807      	ldr	r0, [sp, #28]
1001211c:	aa32      	add	r2, sp, #200	@ 0xc8
1001211e:	f003 fea3 	bl	10015e68 <__ssprint_r>
10012122:	2800      	cmp	r0, #0
10012124:	d1ed      	bne.n	10012102 <_svfprintf_r+0x20a>
10012126:	f10d 08d4 	add.w	r8, sp, #212	@ 0xd4
1001212a:	e7de      	b.n	100120ea <_svfprintf_r+0x1f2>
1001212c:	f3af 8000 	nop.w
	...
10012138:	2000044c 	.word	0x2000044c
1001213c:	e9cd 340e 	strd	r3, r4, [sp, #56]	@ 0x38
10012140:	2b00      	cmp	r3, #0
10012142:	d0d8      	beq.n	100120f6 <_svfprintf_r+0x1fe>
10012144:	2200      	movs	r2, #0
10012146:	f88d 3114 	strb.w	r3, [sp, #276]	@ 0x114
1001214a:	2301      	movs	r3, #1
1001214c:	f88d 209f 	strb.w	r2, [sp, #159]	@ 0x9f
10012150:	9306      	str	r3, [sp, #24]
10012152:	920c      	str	r2, [sp, #48]	@ 0x30
10012154:	469b      	mov	fp, r3
10012156:	9208      	str	r2, [sp, #32]
10012158:	9214      	str	r2, [sp, #80]	@ 0x50
1001215a:	9210      	str	r2, [sp, #64]	@ 0x40
1001215c:	9212      	str	r2, [sp, #72]	@ 0x48
1001215e:	ad45      	add	r5, sp, #276	@ 0x114
10012160:	f019 0302 	ands.w	r3, r9, #2
10012164:	d002      	beq.n	1001216c <_svfprintf_r+0x274>
10012166:	9906      	ldr	r1, [sp, #24]
10012168:	3102      	adds	r1, #2
1001216a:	9106      	str	r1, [sp, #24]
1001216c:	f019 0784 	ands.w	r7, r9, #132	@ 0x84
10012170:	9c34      	ldr	r4, [sp, #208]	@ 0xd0
10012172:	d105      	bne.n	10012180 <_svfprintf_r+0x288>
10012174:	990b      	ldr	r1, [sp, #44]	@ 0x2c
10012176:	9806      	ldr	r0, [sp, #24]
10012178:	1a0e      	subs	r6, r1, r0
1001217a:	2e00      	cmp	r6, #0
1001217c:	f300 80aa 	bgt.w	100122d4 <_svfprintf_r+0x3dc>
10012180:	b182      	cbz	r2, 100121a4 <_svfprintf_r+0x2ac>
10012182:	2201      	movs	r2, #1
10012184:	f8c8 2004 	str.w	r2, [r8, #4]
10012188:	9a33      	ldr	r2, [sp, #204]	@ 0xcc
1001218a:	3201      	adds	r2, #1
1001218c:	3401      	adds	r4, #1
1001218e:	f10d 019f 	add.w	r1, sp, #159	@ 0x9f
10012192:	2a07      	cmp	r2, #7
10012194:	9434      	str	r4, [sp, #208]	@ 0xd0
10012196:	9233      	str	r2, [sp, #204]	@ 0xcc
10012198:	f8c8 1000 	str.w	r1, [r8]
1001219c:	f300 8405 	bgt.w	100129aa <_svfprintf_r+0xab2>
100121a0:	f108 0808 	add.w	r8, r8, #8
100121a4:	b183      	cbz	r3, 100121c8 <_svfprintf_r+0x2d0>
100121a6:	9b33      	ldr	r3, [sp, #204]	@ 0xcc
100121a8:	aa28      	add	r2, sp, #160	@ 0xa0
100121aa:	3301      	adds	r3, #1
100121ac:	3402      	adds	r4, #2
100121ae:	f8c8 2000 	str.w	r2, [r8]
100121b2:	2b07      	cmp	r3, #7
100121b4:	f04f 0202 	mov.w	r2, #2
100121b8:	9434      	str	r4, [sp, #208]	@ 0xd0
100121ba:	9333      	str	r3, [sp, #204]	@ 0xcc
100121bc:	f8c8 2004 	str.w	r2, [r8, #4]
100121c0:	f300 83e7 	bgt.w	10012992 <_svfprintf_r+0xa9a>
100121c4:	f108 0808 	add.w	r8, r8, #8
100121c8:	2f80      	cmp	r7, #128	@ 0x80
100121ca:	f000 82c0 	beq.w	1001274e <_svfprintf_r+0x856>
100121ce:	9b08      	ldr	r3, [sp, #32]
100121d0:	eba3 060b 	sub.w	r6, r3, fp
100121d4:	2e00      	cmp	r6, #0
100121d6:	f300 82ff 	bgt.w	100127d8 <_svfprintf_r+0x8e0>
100121da:	f419 7f80 	tst.w	r9, #256	@ 0x100
100121de:	f040 8219 	bne.w	10012614 <_svfprintf_r+0x71c>
100121e2:	9b33      	ldr	r3, [sp, #204]	@ 0xcc
100121e4:	f8c8 5000 	str.w	r5, [r8]
100121e8:	3301      	adds	r3, #1
100121ea:	445c      	add	r4, fp
100121ec:	2b07      	cmp	r3, #7
100121ee:	f8c8 b004 	str.w	fp, [r8, #4]
100121f2:	9434      	str	r4, [sp, #208]	@ 0xd0
100121f4:	9333      	str	r3, [sp, #204]	@ 0xcc
100121f6:	f300 836c 	bgt.w	100128d2 <_svfprintf_r+0x9da>
100121fa:	f108 0808 	add.w	r8, r8, #8
100121fe:	f019 0f04 	tst.w	r9, #4
10012202:	d005      	beq.n	10012210 <_svfprintf_r+0x318>
10012204:	9b0b      	ldr	r3, [sp, #44]	@ 0x2c
10012206:	9a06      	ldr	r2, [sp, #24]
10012208:	1a9d      	subs	r5, r3, r2
1001220a:	2d00      	cmp	r5, #0
1001220c:	f300 83dc 	bgt.w	100129c8 <_svfprintf_r+0xad0>
10012210:	e9dd 320a 	ldrd	r3, r2, [sp, #40]	@ 0x28
10012214:	9906      	ldr	r1, [sp, #24]
10012216:	428a      	cmp	r2, r1
10012218:	bfac      	ite	ge
1001221a:	189b      	addge	r3, r3, r2
1001221c:	185b      	addlt	r3, r3, r1
1001221e:	930a      	str	r3, [sp, #40]	@ 0x28
10012220:	2c00      	cmp	r4, #0
10012222:	f040 8318 	bne.w	10012856 <_svfprintf_r+0x95e>
10012226:	2300      	movs	r3, #0
10012228:	9333      	str	r3, [sp, #204]	@ 0xcc
1001222a:	9b0c      	ldr	r3, [sp, #48]	@ 0x30
1001222c:	b11b      	cbz	r3, 10012236 <_svfprintf_r+0x33e>
1001222e:	990c      	ldr	r1, [sp, #48]	@ 0x30
10012230:	9807      	ldr	r0, [sp, #28]
10012232:	f003 fac5 	bl	100157c0 <_free_r>
10012236:	f10d 08d4 	add.w	r8, sp, #212	@ 0xd4
1001223a:	9d0f      	ldr	r5, [sp, #60]	@ 0x3c
1001223c:	e68c      	b.n	10011f58 <_svfprintf_r+0x60>
1001223e:	e9cd 340e 	strd	r3, r4, [sp, #56]	@ 0x38
10012242:	9b0d      	ldr	r3, [sp, #52]	@ 0x34
10012244:	3307      	adds	r3, #7
10012246:	f023 0307 	bic.w	r3, r3, #7
1001224a:	ecb3 7b02 	vldmia	r3!, {d7}
1001224e:	ec57 6b17 	vmov	r6, r7, d7
10012252:	930d      	str	r3, [sp, #52]	@ 0x34
10012254:	f027 4300 	bic.w	r3, r7, #2147483648	@ 0x80000000
10012258:	9323      	str	r3, [sp, #140]	@ 0x8c
1001225a:	ed8d 7a22 	vstr	s14, [sp, #136]	@ 0x88
1001225e:	e9dd ab22 	ldrd	sl, fp, [sp, #136]	@ 0x88
10012262:	4bb1      	ldr	r3, [pc, #708]	@ (10012528 <_svfprintf_r+0x630>)
10012264:	f04f 32ff 	mov.w	r2, #4294967295	@ 0xffffffff
10012268:	4650      	mov	r0, sl
1001226a:	4659      	mov	r1, fp
1001226c:	ed8d 7b16 	vstr	d7, [sp, #88]	@ 0x58
10012270:	f008 fc40 	bl	1001aaf4 <__aeabi_dcmpun>
10012274:	2800      	cmp	r0, #0
10012276:	f040 8546 	bne.w	10012d06 <_svfprintf_r+0xe0e>
1001227a:	4bab      	ldr	r3, [pc, #684]	@ (10012528 <_svfprintf_r+0x630>)
1001227c:	f04f 32ff 	mov.w	r2, #4294967295	@ 0xffffffff
10012280:	4650      	mov	r0, sl
10012282:	4659      	mov	r1, fp
10012284:	f008 fc18 	bl	1001aab8 <__aeabi_dcmple>
10012288:	2800      	cmp	r0, #0
1001228a:	f040 853c 	bne.w	10012d06 <_svfprintf_r+0xe0e>
1001228e:	2200      	movs	r2, #0
10012290:	2300      	movs	r3, #0
10012292:	4630      	mov	r0, r6
10012294:	4639      	mov	r1, r7
10012296:	f008 fc05 	bl	1001aaa4 <__aeabi_dcmplt>
1001229a:	2800      	cmp	r0, #0
1001229c:	f041 8051 	bne.w	10013342 <_svfprintf_r+0x144a>
100122a0:	f89d 209f 	ldrb.w	r2, [sp, #159]	@ 0x9f
100122a4:	4da1      	ldr	r5, [pc, #644]	@ (1001252c <_svfprintf_r+0x634>)
100122a6:	4ba2      	ldr	r3, [pc, #648]	@ (10012530 <_svfprintf_r+0x638>)
100122a8:	f029 0980 	bic.w	r9, r9, #128	@ 0x80
100122ac:	990e      	ldr	r1, [sp, #56]	@ 0x38
100122ae:	2947      	cmp	r1, #71	@ 0x47
100122b0:	bfc8      	it	gt
100122b2:	461d      	movgt	r5, r3
100122b4:	2300      	movs	r3, #0
100122b6:	2103      	movs	r1, #3
100122b8:	930c      	str	r3, [sp, #48]	@ 0x30
100122ba:	9106      	str	r1, [sp, #24]
100122bc:	468b      	mov	fp, r1
100122be:	9308      	str	r3, [sp, #32]
100122c0:	9314      	str	r3, [sp, #80]	@ 0x50
100122c2:	9310      	str	r3, [sp, #64]	@ 0x40
100122c4:	9312      	str	r3, [sp, #72]	@ 0x48
100122c6:	2a00      	cmp	r2, #0
100122c8:	f43f af4a 	beq.w	10012160 <_svfprintf_r+0x268>
100122cc:	9b06      	ldr	r3, [sp, #24]
100122ce:	3301      	adds	r3, #1
100122d0:	9306      	str	r3, [sp, #24]
100122d2:	e745      	b.n	10012160 <_svfprintf_r+0x268>
100122d4:	2e10      	cmp	r6, #16
100122d6:	9a33      	ldr	r2, [sp, #204]	@ 0xcc
100122d8:	f341 8276 	ble.w	100137c8 <_svfprintf_r+0x18d0>
100122dc:	4895      	ldr	r0, [pc, #596]	@ (10012534 <_svfprintf_r+0x63c>)
100122de:	9521      	str	r5, [sp, #132]	@ 0x84
100122e0:	e9cd 371f 	strd	r3, r7, [sp, #124]	@ 0x7c
100122e4:	4621      	mov	r1, r4
100122e6:	9d09      	ldr	r5, [sp, #36]	@ 0x24
100122e8:	9c07      	ldr	r4, [sp, #28]
100122ea:	9015      	str	r0, [sp, #84]	@ 0x54
100122ec:	f04f 0a10 	mov.w	sl, #16
100122f0:	4607      	mov	r7, r0
100122f2:	e004      	b.n	100122fe <_svfprintf_r+0x406>
100122f4:	3e10      	subs	r6, #16
100122f6:	2e10      	cmp	r6, #16
100122f8:	f108 0808 	add.w	r8, r8, #8
100122fc:	dd16      	ble.n	1001232c <_svfprintf_r+0x434>
100122fe:	3201      	adds	r2, #1
10012300:	3110      	adds	r1, #16
10012302:	2a07      	cmp	r2, #7
10012304:	e9c8 7a00 	strd	r7, sl, [r8]
10012308:	e9cd 2133 	strd	r2, r1, [sp, #204]	@ 0xcc
1001230c:	ddf2      	ble.n	100122f4 <_svfprintf_r+0x3fc>
1001230e:	aa32      	add	r2, sp, #200	@ 0xc8
10012310:	4629      	mov	r1, r5
10012312:	4620      	mov	r0, r4
10012314:	f10d 08d4 	add.w	r8, sp, #212	@ 0xd4
10012318:	f003 fda6 	bl	10015e68 <__ssprint_r>
1001231c:	2800      	cmp	r0, #0
1001231e:	f040 86f0 	bne.w	10013102 <_svfprintf_r+0x120a>
10012322:	3e10      	subs	r6, #16
10012324:	2e10      	cmp	r6, #16
10012326:	e9dd 2133 	ldrd	r2, r1, [sp, #204]	@ 0xcc
1001232a:	dce8      	bgt.n	100122fe <_svfprintf_r+0x406>
1001232c:	e9dd 371f 	ldrd	r3, r7, [sp, #124]	@ 0x7c
10012330:	9d21      	ldr	r5, [sp, #132]	@ 0x84
10012332:	460c      	mov	r4, r1
10012334:	3201      	adds	r2, #1
10012336:	9915      	ldr	r1, [sp, #84]	@ 0x54
10012338:	f8c8 1000 	str.w	r1, [r8]
1001233c:	4434      	add	r4, r6
1001233e:	2a07      	cmp	r2, #7
10012340:	e9cd 2433 	strd	r2, r4, [sp, #204]	@ 0xcc
10012344:	f8c8 6004 	str.w	r6, [r8, #4]
10012348:	f300 86ca 	bgt.w	100130e0 <_svfprintf_r+0x11e8>
1001234c:	f89d 209f 	ldrb.w	r2, [sp, #159]	@ 0x9f
10012350:	f108 0808 	add.w	r8, r8, #8
10012354:	e714      	b.n	10012180 <_svfprintf_r+0x288>
10012356:	9a0d      	ldr	r2, [sp, #52]	@ 0x34
10012358:	2b43      	cmp	r3, #67	@ 0x43
1001235a:	e9cd 340e 	strd	r3, r4, [sp, #56]	@ 0x38
1001235e:	f102 0404 	add.w	r4, r2, #4
10012362:	d003      	beq.n	1001236c <_svfprintf_r+0x474>
10012364:	f019 0f10 	tst.w	r9, #16
10012368:	f000 855c 	beq.w	10012e24 <_svfprintf_r+0xf2c>
1001236c:	2208      	movs	r2, #8
1001236e:	2100      	movs	r1, #0
10012370:	a830      	add	r0, sp, #192	@ 0xc0
10012372:	f001 fe55 	bl	10014020 <memset>
10012376:	9b0d      	ldr	r3, [sp, #52]	@ 0x34
10012378:	9807      	ldr	r0, [sp, #28]
1001237a:	681a      	ldr	r2, [r3, #0]
1001237c:	ad45      	add	r5, sp, #276	@ 0x114
1001237e:	ab30      	add	r3, sp, #192	@ 0xc0
10012380:	4629      	mov	r1, r5
10012382:	f001 fe9f 	bl	100140c4 <_wcrtomb_r>
10012386:	f1b0 3fff 	cmp.w	r0, #4294967295	@ 0xffffffff
1001238a:	4683      	mov	fp, r0
1001238c:	f001 827e 	beq.w	1001388c <_svfprintf_r+0x1994>
10012390:	ea20 73e0 	bic.w	r3, r0, r0, asr #31
10012394:	9306      	str	r3, [sp, #24]
10012396:	2200      	movs	r2, #0
10012398:	940d      	str	r4, [sp, #52]	@ 0x34
1001239a:	f88d 209f 	strb.w	r2, [sp, #159]	@ 0x9f
1001239e:	920c      	str	r2, [sp, #48]	@ 0x30
100123a0:	9208      	str	r2, [sp, #32]
100123a2:	9214      	str	r2, [sp, #80]	@ 0x50
100123a4:	9210      	str	r2, [sp, #64]	@ 0x40
100123a6:	9212      	str	r2, [sp, #72]	@ 0x48
100123a8:	e6da      	b.n	10012160 <_svfprintf_r+0x268>
100123aa:	9e0d      	ldr	r6, [sp, #52]	@ 0x34
100123ac:	f856 5b04 	ldr.w	r5, [r6], #4
100123b0:	e9cd 340e 	strd	r3, r4, [sp, #56]	@ 0x38
100123b4:	2300      	movs	r3, #0
100123b6:	f88d 309f 	strb.w	r3, [sp, #159]	@ 0x9f
100123ba:	2d00      	cmp	r5, #0
100123bc:	f000 8557 	beq.w	10012e6e <_svfprintf_r+0xf76>
100123c0:	9b0e      	ldr	r3, [sp, #56]	@ 0x38
100123c2:	2b53      	cmp	r3, #83	@ 0x53
100123c4:	f000 86b9 	beq.w	1001313a <_svfprintf_r+0x1242>
100123c8:	f019 0310 	ands.w	r3, r9, #16
100123cc:	9312      	str	r3, [sp, #72]	@ 0x48
100123ce:	f040 86b4 	bne.w	1001313a <_svfprintf_r+0x1242>
100123d2:	9b08      	ldr	r3, [sp, #32]
100123d4:	1c5a      	adds	r2, r3, #1
100123d6:	f001 8092 	beq.w	100134fe <_svfprintf_r+0x1606>
100123da:	9912      	ldr	r1, [sp, #72]	@ 0x48
100123dc:	461a      	mov	r2, r3
100123de:	4628      	mov	r0, r5
100123e0:	f002 fffe 	bl	100153e0 <memchr>
100123e4:	900c      	str	r0, [sp, #48]	@ 0x30
100123e6:	2800      	cmp	r0, #0
100123e8:	f001 82ed 	beq.w	100139c6 <_svfprintf_r+0x1ace>
100123ec:	9b0c      	ldr	r3, [sp, #48]	@ 0x30
100123ee:	960d      	str	r6, [sp, #52]	@ 0x34
100123f0:	eba3 0b05 	sub.w	fp, r3, r5
100123f4:	9b12      	ldr	r3, [sp, #72]	@ 0x48
100123f6:	9308      	str	r3, [sp, #32]
100123f8:	ea2b 71eb 	bic.w	r1, fp, fp, asr #31
100123fc:	9314      	str	r3, [sp, #80]	@ 0x50
100123fe:	9310      	str	r3, [sp, #64]	@ 0x40
10012400:	930c      	str	r3, [sp, #48]	@ 0x30
10012402:	2373      	movs	r3, #115	@ 0x73
10012404:	f89d 209f 	ldrb.w	r2, [sp, #159]	@ 0x9f
10012408:	9106      	str	r1, [sp, #24]
1001240a:	930e      	str	r3, [sp, #56]	@ 0x38
1001240c:	e75b      	b.n	100122c6 <_svfprintf_r+0x3ce>
1001240e:	f019 0f20 	tst.w	r9, #32
10012412:	e9cd 340e 	strd	r3, r4, [sp, #56]	@ 0x38
10012416:	f000 80ec 	beq.w	100125f2 <_svfprintf_r+0x6fa>
1001241a:	9b0d      	ldr	r3, [sp, #52]	@ 0x34
1001241c:	3307      	adds	r3, #7
1001241e:	f023 0307 	bic.w	r3, r3, #7
10012422:	461a      	mov	r2, r3
10012424:	6859      	ldr	r1, [r3, #4]
10012426:	f852 3b08 	ldr.w	r3, [r2], #8
1001242a:	920d      	str	r2, [sp, #52]	@ 0x34
1001242c:	460a      	mov	r2, r1
1001242e:	2900      	cmp	r1, #0
10012430:	f2c0 8419 	blt.w	10012c66 <_svfprintf_r+0xd6e>
10012434:	9908      	ldr	r1, [sp, #32]
10012436:	3101      	adds	r1, #1
10012438:	f000 829c 	beq.w	10012974 <_svfprintf_r+0xa7c>
1001243c:	ea53 0102 	orrs.w	r1, r3, r2
10012440:	f029 0480 	bic.w	r4, r9, #128	@ 0x80
10012444:	f040 8297 	bne.w	10012976 <_svfprintf_r+0xa7e>
10012448:	9a08      	ldr	r2, [sp, #32]
1001244a:	2a00      	cmp	r2, #0
1001244c:	f040 8298 	bne.w	10012980 <_svfprintf_r+0xa88>
10012450:	46a1      	mov	r9, r4
10012452:	4693      	mov	fp, r2
10012454:	ad5e      	add	r5, sp, #376	@ 0x178
10012456:	e151      	b.n	100126fc <_svfprintf_r+0x804>
10012458:	9b0d      	ldr	r3, [sp, #52]	@ 0x34
1001245a:	f853 2b04 	ldr.w	r2, [r3], #4
1001245e:	920b      	str	r2, [sp, #44]	@ 0x2c
10012460:	2a00      	cmp	r2, #0
10012462:	f280 8424 	bge.w	10012cae <_svfprintf_r+0xdb6>
10012466:	9a0b      	ldr	r2, [sp, #44]	@ 0x2c
10012468:	930d      	str	r3, [sp, #52]	@ 0x34
1001246a:	4252      	negs	r2, r2
1001246c:	920b      	str	r2, [sp, #44]	@ 0x2c
1001246e:	7823      	ldrb	r3, [r4, #0]
10012470:	f049 0904 	orr.w	r9, r9, #4
10012474:	e597      	b.n	10011fa6 <_svfprintf_r+0xae>
10012476:	232b      	movs	r3, #43	@ 0x2b
10012478:	f88d 309f 	strb.w	r3, [sp, #159]	@ 0x9f
1001247c:	7823      	ldrb	r3, [r4, #0]
1001247e:	e592      	b.n	10011fa6 <_svfprintf_r+0xae>
10012480:	e9cd 340e 	strd	r3, r4, [sp, #56]	@ 0x38
10012484:	f049 0910 	orr.w	r9, r9, #16
10012488:	f019 0220 	ands.w	r2, r9, #32
1001248c:	f000 83b4 	beq.w	10012bf8 <_svfprintf_r+0xd00>
10012490:	9b0d      	ldr	r3, [sp, #52]	@ 0x34
10012492:	3307      	adds	r3, #7
10012494:	f023 0307 	bic.w	r3, r3, #7
10012498:	4619      	mov	r1, r3
1001249a:	685a      	ldr	r2, [r3, #4]
1001249c:	f851 3b08 	ldr.w	r3, [r1], #8
100124a0:	910d      	str	r1, [sp, #52]	@ 0x34
100124a2:	f429 6480 	bic.w	r4, r9, #1024	@ 0x400
100124a6:	2100      	movs	r1, #0
100124a8:	2000      	movs	r0, #0
100124aa:	9d08      	ldr	r5, [sp, #32]
100124ac:	f88d 009f 	strb.w	r0, [sp, #159]	@ 0x9f
100124b0:	1c6f      	adds	r7, r5, #1
100124b2:	f000 810c 	beq.w	100126ce <_svfprintf_r+0x7d6>
100124b6:	ea53 0002 	orrs.w	r0, r3, r2
100124ba:	f024 0980 	bic.w	r9, r4, #128	@ 0x80
100124be:	f040 8105 	bne.w	100126cc <_svfprintf_r+0x7d4>
100124c2:	2d00      	cmp	r5, #0
100124c4:	f040 8627 	bne.w	10013116 <_svfprintf_r+0x121e>
100124c8:	2900      	cmp	r1, #0
100124ca:	f040 83c8 	bne.w	10012c5e <_svfprintf_r+0xd66>
100124ce:	f014 0b01 	ands.w	fp, r4, #1
100124d2:	f000 83f0 	beq.w	10012cb6 <_svfprintf_r+0xdbe>
100124d6:	2330      	movs	r3, #48	@ 0x30
100124d8:	f88d 3177 	strb.w	r3, [sp, #375]	@ 0x177
100124dc:	f20d 1577 	addw	r5, sp, #375	@ 0x177
100124e0:	e10c      	b.n	100126fc <_svfprintf_r+0x804>
100124e2:	7823      	ldrb	r3, [r4, #0]
100124e4:	2b68      	cmp	r3, #104	@ 0x68
100124e6:	bf03      	ittte	eq
100124e8:	7863      	ldrbeq	r3, [r4, #1]
100124ea:	f449 7900 	orreq.w	r9, r9, #512	@ 0x200
100124ee:	3401      	addeq	r4, #1
100124f0:	f049 0940 	orrne.w	r9, r9, #64	@ 0x40
100124f4:	e557      	b.n	10011fa6 <_svfprintf_r+0xae>
100124f6:	f019 0f20 	tst.w	r9, #32
100124fa:	940f      	str	r4, [sp, #60]	@ 0x3c
100124fc:	f000 83e5 	beq.w	10012cca <_svfprintf_r+0xdd2>
10012500:	9b0d      	ldr	r3, [sp, #52]	@ 0x34
10012502:	9a0a      	ldr	r2, [sp, #40]	@ 0x28
10012504:	681b      	ldr	r3, [r3, #0]
10012506:	601a      	str	r2, [r3, #0]
10012508:	17d2      	asrs	r2, r2, #31
1001250a:	605a      	str	r2, [r3, #4]
1001250c:	9b0d      	ldr	r3, [sp, #52]	@ 0x34
1001250e:	3304      	adds	r3, #4
10012510:	930d      	str	r3, [sp, #52]	@ 0x34
10012512:	e692      	b.n	1001223a <_svfprintf_r+0x342>
10012514:	7823      	ldrb	r3, [r4, #0]
10012516:	2b6c      	cmp	r3, #108	@ 0x6c
10012518:	bf03      	ittte	eq
1001251a:	7863      	ldrbeq	r3, [r4, #1]
1001251c:	f049 0920 	orreq.w	r9, r9, #32
10012520:	3401      	addeq	r4, #1
10012522:	f049 0910 	orrne.w	r9, r9, #16
10012526:	e53e      	b.n	10011fa6 <_svfprintf_r+0xae>
10012528:	7fefffff 	.word	0x7fefffff
1001252c:	1001b0f0 	.word	0x1001b0f0
10012530:	1001b0f4 	.word	0x1001b0f4
10012534:	1001b144 	.word	0x1001b144
10012538:	9a0d      	ldr	r2, [sp, #52]	@ 0x34
1001253a:	940f      	str	r4, [sp, #60]	@ 0x3c
1001253c:	f852 3b04 	ldr.w	r3, [r2], #4
10012540:	920d      	str	r2, [sp, #52]	@ 0x34
10012542:	f647 0230 	movw	r2, #30768	@ 0x7830
10012546:	f8ad 20a0 	strh.w	r2, [sp, #160]	@ 0xa0
1001254a:	2078      	movs	r0, #120	@ 0x78
1001254c:	4aa8      	ldr	r2, [pc, #672]	@ (100127f0 <_svfprintf_r+0x8f8>)
1001254e:	9219      	str	r2, [sp, #100]	@ 0x64
10012550:	f049 0402 	orr.w	r4, r9, #2
10012554:	2200      	movs	r2, #0
10012556:	2102      	movs	r1, #2
10012558:	900e      	str	r0, [sp, #56]	@ 0x38
1001255a:	e7a5      	b.n	100124a8 <_svfprintf_r+0x5b0>
1001255c:	e9cd 340e 	strd	r3, r4, [sp, #56]	@ 0x38
10012560:	f049 0410 	orr.w	r4, r9, #16
10012564:	f014 0220 	ands.w	r2, r4, #32
10012568:	f000 8355 	beq.w	10012c16 <_svfprintf_r+0xd1e>
1001256c:	9b0d      	ldr	r3, [sp, #52]	@ 0x34
1001256e:	3307      	adds	r3, #7
10012570:	f023 0307 	bic.w	r3, r3, #7
10012574:	4619      	mov	r1, r3
10012576:	685a      	ldr	r2, [r3, #4]
10012578:	f851 3b08 	ldr.w	r3, [r1], #8
1001257c:	910d      	str	r1, [sp, #52]	@ 0x34
1001257e:	2101      	movs	r1, #1
10012580:	e792      	b.n	100124a8 <_svfprintf_r+0x5b0>
10012582:	7823      	ldrb	r3, [r4, #0]
10012584:	f049 0908 	orr.w	r9, r9, #8
10012588:	e50d      	b.n	10011fa6 <_svfprintf_r+0xae>
1001258a:	7823      	ldrb	r3, [r4, #0]
1001258c:	f049 0901 	orr.w	r9, r9, #1
10012590:	e509      	b.n	10011fa6 <_svfprintf_r+0xae>
10012592:	f89d 209f 	ldrb.w	r2, [sp, #159]	@ 0x9f
10012596:	7823      	ldrb	r3, [r4, #0]
10012598:	2a00      	cmp	r2, #0
1001259a:	f47f ad04 	bne.w	10011fa6 <_svfprintf_r+0xae>
1001259e:	2220      	movs	r2, #32
100125a0:	f88d 209f 	strb.w	r2, [sp, #159]	@ 0x9f
100125a4:	e4ff      	b.n	10011fa6 <_svfprintf_r+0xae>
100125a6:	7823      	ldrb	r3, [r4, #0]
100125a8:	f049 0980 	orr.w	r9, r9, #128	@ 0x80
100125ac:	e4fb      	b.n	10011fa6 <_svfprintf_r+0xae>
100125ae:	4621      	mov	r1, r4
100125b0:	f811 3b01 	ldrb.w	r3, [r1], #1
100125b4:	2b2a      	cmp	r3, #42	@ 0x2a
100125b6:	f001 8229 	beq.w	10013a0c <_svfprintf_r+0x1b14>
100125ba:	f1a3 0230 	sub.w	r2, r3, #48	@ 0x30
100125be:	2a09      	cmp	r2, #9
100125c0:	460c      	mov	r4, r1
100125c2:	bf98      	it	ls
100125c4:	2100      	movls	r1, #0
100125c6:	f201 8130 	bhi.w	1001382a <_svfprintf_r+0x1932>
100125ca:	f814 3b01 	ldrb.w	r3, [r4], #1
100125ce:	eb01 0181 	add.w	r1, r1, r1, lsl #2
100125d2:	eb02 0141 	add.w	r1, r2, r1, lsl #1
100125d6:	f1a3 0230 	sub.w	r2, r3, #48	@ 0x30
100125da:	2a09      	cmp	r2, #9
100125dc:	d9f5      	bls.n	100125ca <_svfprintf_r+0x6d2>
100125de:	9108      	str	r1, [sp, #32]
100125e0:	e4e2      	b.n	10011fa8 <_svfprintf_r+0xb0>
100125e2:	f049 0910 	orr.w	r9, r9, #16
100125e6:	f019 0f20 	tst.w	r9, #32
100125ea:	e9cd 340e 	strd	r3, r4, [sp, #56]	@ 0x38
100125ee:	f47f af14 	bne.w	1001241a <_svfprintf_r+0x522>
100125f2:	9a0d      	ldr	r2, [sp, #52]	@ 0x34
100125f4:	f019 0f10 	tst.w	r9, #16
100125f8:	f852 3b04 	ldr.w	r3, [r2], #4
100125fc:	920d      	str	r2, [sp, #52]	@ 0x34
100125fe:	f040 8360 	bne.w	10012cc2 <_svfprintf_r+0xdca>
10012602:	f019 0f40 	tst.w	r9, #64	@ 0x40
10012606:	f000 8358 	beq.w	10012cba <_svfprintf_r+0xdc2>
1001260a:	f343 32c0 	sbfx	r2, r3, #15, #1
1001260e:	4611      	mov	r1, r2
10012610:	b21b      	sxth	r3, r3
10012612:	e70c      	b.n	1001242e <_svfprintf_r+0x536>
10012614:	9b0e      	ldr	r3, [sp, #56]	@ 0x38
10012616:	2b65      	cmp	r3, #101	@ 0x65
10012618:	f340 8166 	ble.w	100128e8 <_svfprintf_r+0x9f0>
1001261c:	e9dd 0116 	ldrd	r0, r1, [sp, #88]	@ 0x58
10012620:	2200      	movs	r2, #0
10012622:	2300      	movs	r3, #0
10012624:	f008 fa34 	bl	1001aa90 <__aeabi_dcmpeq>
10012628:	2800      	cmp	r0, #0
1001262a:	f000 8211 	beq.w	10012a50 <_svfprintf_r+0xb58>
1001262e:	9b33      	ldr	r3, [sp, #204]	@ 0xcc
10012630:	4a70      	ldr	r2, [pc, #448]	@ (100127f4 <_svfprintf_r+0x8fc>)
10012632:	f8c8 2000 	str.w	r2, [r8]
10012636:	3301      	adds	r3, #1
10012638:	3401      	adds	r4, #1
1001263a:	2201      	movs	r2, #1
1001263c:	2b07      	cmp	r3, #7
1001263e:	9434      	str	r4, [sp, #208]	@ 0xd0
10012640:	9333      	str	r3, [sp, #204]	@ 0xcc
10012642:	f8c8 2004 	str.w	r2, [r8, #4]
10012646:	f300 856b 	bgt.w	10013120 <_svfprintf_r+0x1228>
1001264a:	f108 0808 	add.w	r8, r8, #8
1001264e:	9b29      	ldr	r3, [sp, #164]	@ 0xa4
10012650:	9a13      	ldr	r2, [sp, #76]	@ 0x4c
10012652:	4293      	cmp	r3, r2
10012654:	f280 8326 	bge.w	10012ca4 <_svfprintf_r+0xdac>
10012658:	9b18      	ldr	r3, [sp, #96]	@ 0x60
1001265a:	9a1a      	ldr	r2, [sp, #104]	@ 0x68
1001265c:	441c      	add	r4, r3
1001265e:	e9c8 2300 	strd	r2, r3, [r8]
10012662:	9b33      	ldr	r3, [sp, #204]	@ 0xcc
10012664:	9434      	str	r4, [sp, #208]	@ 0xd0
10012666:	3301      	adds	r3, #1
10012668:	2b07      	cmp	r3, #7
1001266a:	9333      	str	r3, [sp, #204]	@ 0xcc
1001266c:	f300 83e4 	bgt.w	10012e38 <_svfprintf_r+0xf40>
10012670:	f108 0808 	add.w	r8, r8, #8
10012674:	9b13      	ldr	r3, [sp, #76]	@ 0x4c
10012676:	1e5d      	subs	r5, r3, #1
10012678:	2d00      	cmp	r5, #0
1001267a:	f77f adc0 	ble.w	100121fe <_svfprintf_r+0x306>
1001267e:	2d10      	cmp	r5, #16
10012680:	9b33      	ldr	r3, [sp, #204]	@ 0xcc
10012682:	f340 85ad 	ble.w	100131e0 <_svfprintf_r+0x12e8>
10012686:	4f5c      	ldr	r7, [pc, #368]	@ (100127f8 <_svfprintf_r+0x900>)
10012688:	f8dd b01c 	ldr.w	fp, [sp, #28]
1001268c:	f8dd a024 	ldr.w	sl, [sp, #36]	@ 0x24
10012690:	9715      	str	r7, [sp, #84]	@ 0x54
10012692:	2610      	movs	r6, #16
10012694:	e005      	b.n	100126a2 <_svfprintf_r+0x7aa>
10012696:	f108 0808 	add.w	r8, r8, #8
1001269a:	3d10      	subs	r5, #16
1001269c:	2d10      	cmp	r5, #16
1001269e:	f340 85a1 	ble.w	100131e4 <_svfprintf_r+0x12ec>
100126a2:	3301      	adds	r3, #1
100126a4:	3410      	adds	r4, #16
100126a6:	2b07      	cmp	r3, #7
100126a8:	e9c8 7600 	strd	r7, r6, [r8]
100126ac:	e9cd 3433 	strd	r3, r4, [sp, #204]	@ 0xcc
100126b0:	ddf1      	ble.n	10012696 <_svfprintf_r+0x79e>
100126b2:	aa32      	add	r2, sp, #200	@ 0xc8
100126b4:	4651      	mov	r1, sl
100126b6:	4658      	mov	r0, fp
100126b8:	f003 fbd6 	bl	10015e68 <__ssprint_r>
100126bc:	2800      	cmp	r0, #0
100126be:	f040 82c0 	bne.w	10012c42 <_svfprintf_r+0xd4a>
100126c2:	e9dd 3433 	ldrd	r3, r4, [sp, #204]	@ 0xcc
100126c6:	f10d 08d4 	add.w	r8, sp, #212	@ 0xd4
100126ca:	e7e6      	b.n	1001269a <_svfprintf_r+0x7a2>
100126cc:	464c      	mov	r4, r9
100126ce:	2901      	cmp	r1, #1
100126d0:	f000 8151 	beq.w	10012976 <_svfprintf_r+0xa7e>
100126d4:	2902      	cmp	r1, #2
100126d6:	ad5e      	add	r5, sp, #376	@ 0x178
100126d8:	d11e      	bne.n	10012718 <_svfprintf_r+0x820>
100126da:	9819      	ldr	r0, [sp, #100]	@ 0x64
100126dc:	f003 010f 	and.w	r1, r3, #15
100126e0:	091b      	lsrs	r3, r3, #4
100126e2:	5c41      	ldrb	r1, [r0, r1]
100126e4:	f805 1d01 	strb.w	r1, [r5, #-1]!
100126e8:	ea43 7302 	orr.w	r3, r3, r2, lsl #28
100126ec:	0912      	lsrs	r2, r2, #4
100126ee:	ea53 0102 	orrs.w	r1, r3, r2
100126f2:	d1f3      	bne.n	100126dc <_svfprintf_r+0x7e4>
100126f4:	ab5e      	add	r3, sp, #376	@ 0x178
100126f6:	46a1      	mov	r9, r4
100126f8:	eba3 0b05 	sub.w	fp, r3, r5
100126fc:	9908      	ldr	r1, [sp, #32]
100126fe:	f89d 209f 	ldrb.w	r2, [sp, #159]	@ 0x9f
10012702:	4559      	cmp	r1, fp
10012704:	f04f 0300 	mov.w	r3, #0
10012708:	bfb8      	it	lt
1001270a:	4659      	movlt	r1, fp
1001270c:	930c      	str	r3, [sp, #48]	@ 0x30
1001270e:	9106      	str	r1, [sp, #24]
10012710:	9314      	str	r3, [sp, #80]	@ 0x50
10012712:	9310      	str	r3, [sp, #64]	@ 0x40
10012714:	9312      	str	r3, [sp, #72]	@ 0x48
10012716:	e5d6      	b.n	100122c6 <_svfprintf_r+0x3ce>
10012718:	f003 0107 	and.w	r1, r3, #7
1001271c:	08db      	lsrs	r3, r3, #3
1001271e:	ea43 7342 	orr.w	r3, r3, r2, lsl #29
10012722:	08d2      	lsrs	r2, r2, #3
10012724:	3130      	adds	r1, #48	@ 0x30
10012726:	ea53 0602 	orrs.w	r6, r3, r2
1001272a:	4628      	mov	r0, r5
1001272c:	f805 1d01 	strb.w	r1, [r5, #-1]!
10012730:	d1f2      	bne.n	10012718 <_svfprintf_r+0x820>
10012732:	07e6      	lsls	r6, r4, #31
10012734:	d5de      	bpl.n	100126f4 <_svfprintf_r+0x7fc>
10012736:	2930      	cmp	r1, #48	@ 0x30
10012738:	d0dc      	beq.n	100126f4 <_svfprintf_r+0x7fc>
1001273a:	2330      	movs	r3, #48	@ 0x30
1001273c:	3802      	subs	r0, #2
1001273e:	f805 3c01 	strb.w	r3, [r5, #-1]
10012742:	ab5e      	add	r3, sp, #376	@ 0x178
10012744:	46a1      	mov	r9, r4
10012746:	eba3 0b00 	sub.w	fp, r3, r0
1001274a:	4605      	mov	r5, r0
1001274c:	e7d6      	b.n	100126fc <_svfprintf_r+0x804>
1001274e:	9b0b      	ldr	r3, [sp, #44]	@ 0x2c
10012750:	9a06      	ldr	r2, [sp, #24]
10012752:	1a9e      	subs	r6, r3, r2
10012754:	2e00      	cmp	r6, #0
10012756:	f77f ad3a 	ble.w	100121ce <_svfprintf_r+0x2d6>
1001275a:	2e10      	cmp	r6, #16
1001275c:	9b33      	ldr	r3, [sp, #204]	@ 0xcc
1001275e:	f341 809f 	ble.w	100138a0 <_svfprintf_r+0x19a8>
10012762:	4825      	ldr	r0, [pc, #148]	@ (100127f8 <_svfprintf_r+0x900>)
10012764:	f8dd a01c 	ldr.w	sl, [sp, #28]
10012768:	9015      	str	r0, [sp, #84]	@ 0x54
1001276a:	4621      	mov	r1, r4
1001276c:	2710      	movs	r7, #16
1001276e:	461a      	mov	r2, r3
10012770:	4604      	mov	r4, r0
10012772:	e004      	b.n	1001277e <_svfprintf_r+0x886>
10012774:	3e10      	subs	r6, #16
10012776:	2e10      	cmp	r6, #16
10012778:	f108 0808 	add.w	r8, r8, #8
1001277c:	dd16      	ble.n	100127ac <_svfprintf_r+0x8b4>
1001277e:	3201      	adds	r2, #1
10012780:	3110      	adds	r1, #16
10012782:	2a07      	cmp	r2, #7
10012784:	e9c8 4700 	strd	r4, r7, [r8]
10012788:	e9cd 2133 	strd	r2, r1, [sp, #204]	@ 0xcc
1001278c:	ddf2      	ble.n	10012774 <_svfprintf_r+0x87c>
1001278e:	9909      	ldr	r1, [sp, #36]	@ 0x24
10012790:	aa32      	add	r2, sp, #200	@ 0xc8
10012792:	4650      	mov	r0, sl
10012794:	f10d 08d4 	add.w	r8, sp, #212	@ 0xd4
10012798:	f003 fb66 	bl	10015e68 <__ssprint_r>
1001279c:	2800      	cmp	r0, #0
1001279e:	f040 84b2 	bne.w	10013106 <_svfprintf_r+0x120e>
100127a2:	3e10      	subs	r6, #16
100127a4:	2e10      	cmp	r6, #16
100127a6:	e9dd 2133 	ldrd	r2, r1, [sp, #204]	@ 0xcc
100127aa:	dce8      	bgt.n	1001277e <_svfprintf_r+0x886>
100127ac:	460c      	mov	r4, r1
100127ae:	4613      	mov	r3, r2
100127b0:	3301      	adds	r3, #1
100127b2:	9a15      	ldr	r2, [sp, #84]	@ 0x54
100127b4:	f8c8 2000 	str.w	r2, [r8]
100127b8:	4434      	add	r4, r6
100127ba:	2b07      	cmp	r3, #7
100127bc:	e9cd 3433 	strd	r3, r4, [sp, #204]	@ 0xcc
100127c0:	f8c8 6004 	str.w	r6, [r8, #4]
100127c4:	f300 851c 	bgt.w	10013200 <_svfprintf_r+0x1308>
100127c8:	9b08      	ldr	r3, [sp, #32]
100127ca:	eba3 060b 	sub.w	r6, r3, fp
100127ce:	2e00      	cmp	r6, #0
100127d0:	f108 0808 	add.w	r8, r8, #8
100127d4:	f77f ad01 	ble.w	100121da <_svfprintf_r+0x2e2>
100127d8:	4a07      	ldr	r2, [pc, #28]	@ (100127f8 <_svfprintf_r+0x900>)
100127da:	9b33      	ldr	r3, [sp, #204]	@ 0xcc
100127dc:	9215      	str	r2, [sp, #84]	@ 0x54
100127de:	2e10      	cmp	r6, #16
100127e0:	dd2a      	ble.n	10012838 <_svfprintf_r+0x940>
100127e2:	4622      	mov	r2, r4
100127e4:	9f07      	ldr	r7, [sp, #28]
100127e6:	9c09      	ldr	r4, [sp, #36]	@ 0x24
100127e8:	f04f 0a10 	mov.w	sl, #16
100127ec:	e00b      	b.n	10012806 <_svfprintf_r+0x90e>
100127ee:	bf00      	nop
100127f0:	1001b100 	.word	0x1001b100
100127f4:	1001b130 	.word	0x1001b130
100127f8:	1001b134 	.word	0x1001b134
100127fc:	3e10      	subs	r6, #16
100127fe:	2e10      	cmp	r6, #16
10012800:	f108 0808 	add.w	r8, r8, #8
10012804:	dd17      	ble.n	10012836 <_svfprintf_r+0x93e>
10012806:	3301      	adds	r3, #1
10012808:	498e      	ldr	r1, [pc, #568]	@ (10012a44 <_svfprintf_r+0xb4c>)
1001280a:	3210      	adds	r2, #16
1001280c:	2b07      	cmp	r3, #7
1001280e:	e9c8 1a00 	strd	r1, sl, [r8]
10012812:	e9cd 3233 	strd	r3, r2, [sp, #204]	@ 0xcc
10012816:	ddf1      	ble.n	100127fc <_svfprintf_r+0x904>
10012818:	aa32      	add	r2, sp, #200	@ 0xc8
1001281a:	4621      	mov	r1, r4
1001281c:	4638      	mov	r0, r7
1001281e:	f003 fb23 	bl	10015e68 <__ssprint_r>
10012822:	2800      	cmp	r0, #0
10012824:	f040 820c 	bne.w	10012c40 <_svfprintf_r+0xd48>
10012828:	3e10      	subs	r6, #16
1001282a:	2e10      	cmp	r6, #16
1001282c:	e9dd 3233 	ldrd	r3, r2, [sp, #204]	@ 0xcc
10012830:	f10d 08d4 	add.w	r8, sp, #212	@ 0xd4
10012834:	dce7      	bgt.n	10012806 <_svfprintf_r+0x90e>
10012836:	4614      	mov	r4, r2
10012838:	3301      	adds	r3, #1
1001283a:	9a15      	ldr	r2, [sp, #84]	@ 0x54
1001283c:	f8c8 2000 	str.w	r2, [r8]
10012840:	4434      	add	r4, r6
10012842:	2b07      	cmp	r3, #7
10012844:	e9cd 3433 	strd	r3, r4, [sp, #204]	@ 0xcc
10012848:	f8c8 6004 	str.w	r6, [r8, #4]
1001284c:	f300 81c7 	bgt.w	10012bde <_svfprintf_r+0xce6>
10012850:	f108 0808 	add.w	r8, r8, #8
10012854:	e4c1      	b.n	100121da <_svfprintf_r+0x2e2>
10012856:	9909      	ldr	r1, [sp, #36]	@ 0x24
10012858:	9807      	ldr	r0, [sp, #28]
1001285a:	aa32      	add	r2, sp, #200	@ 0xc8
1001285c:	f003 fb04 	bl	10015e68 <__ssprint_r>
10012860:	2800      	cmp	r0, #0
10012862:	f43f ace0 	beq.w	10012226 <_svfprintf_r+0x32e>
10012866:	f8dd b01c 	ldr.w	fp, [sp, #28]
1001286a:	e1ea      	b.n	10012c42 <_svfprintf_r+0xd4a>
1001286c:	9b33      	ldr	r3, [sp, #204]	@ 0xcc
1001286e:	4976      	ldr	r1, [pc, #472]	@ (10012a48 <_svfprintf_r+0xb50>)
10012870:	f8c8 1000 	str.w	r1, [r8]
10012874:	3301      	adds	r3, #1
10012876:	3401      	adds	r4, #1
10012878:	2101      	movs	r1, #1
1001287a:	2b07      	cmp	r3, #7
1001287c:	9434      	str	r4, [sp, #208]	@ 0xd0
1001287e:	9333      	str	r3, [sp, #204]	@ 0xcc
10012880:	f8c8 1004 	str.w	r1, [r8, #4]
10012884:	f300 8573 	bgt.w	1001336e <_svfprintf_r+0x1476>
10012888:	f108 0808 	add.w	r8, r8, #8
1001288c:	2a00      	cmp	r2, #0
1001288e:	f040 84e5 	bne.w	1001325c <_svfprintf_r+0x1364>
10012892:	9a13      	ldr	r2, [sp, #76]	@ 0x4c
10012894:	f009 0301 	and.w	r3, r9, #1
10012898:	4313      	orrs	r3, r2
1001289a:	f43f acb0 	beq.w	100121fe <_svfprintf_r+0x306>
1001289e:	9b18      	ldr	r3, [sp, #96]	@ 0x60
100128a0:	9a1a      	ldr	r2, [sp, #104]	@ 0x68
100128a2:	441c      	add	r4, r3
100128a4:	e9c8 2300 	strd	r2, r3, [r8]
100128a8:	9b33      	ldr	r3, [sp, #204]	@ 0xcc
100128aa:	9434      	str	r4, [sp, #208]	@ 0xd0
100128ac:	3301      	adds	r3, #1
100128ae:	2b07      	cmp	r3, #7
100128b0:	9333      	str	r3, [sp, #204]	@ 0xcc
100128b2:	f300 8643 	bgt.w	1001353c <_svfprintf_r+0x1644>
100128b6:	f108 0808 	add.w	r8, r8, #8
100128ba:	9a13      	ldr	r2, [sp, #76]	@ 0x4c
100128bc:	f8c8 5000 	str.w	r5, [r8]
100128c0:	3301      	adds	r3, #1
100128c2:	4414      	add	r4, r2
100128c4:	2b07      	cmp	r3, #7
100128c6:	e9cd 3433 	strd	r3, r4, [sp, #204]	@ 0xcc
100128ca:	f8c8 2004 	str.w	r2, [r8, #4]
100128ce:	f77f ac94 	ble.w	100121fa <_svfprintf_r+0x302>
100128d2:	9909      	ldr	r1, [sp, #36]	@ 0x24
100128d4:	9807      	ldr	r0, [sp, #28]
100128d6:	aa32      	add	r2, sp, #200	@ 0xc8
100128d8:	f003 fac6 	bl	10015e68 <__ssprint_r>
100128dc:	2800      	cmp	r0, #0
100128de:	d1c2      	bne.n	10012866 <_svfprintf_r+0x96e>
100128e0:	9c34      	ldr	r4, [sp, #208]	@ 0xd0
100128e2:	f10d 08d4 	add.w	r8, sp, #212	@ 0xd4
100128e6:	e48a      	b.n	100121fe <_svfprintf_r+0x306>
100128e8:	9b13      	ldr	r3, [sp, #76]	@ 0x4c
100128ea:	9e33      	ldr	r6, [sp, #204]	@ 0xcc
100128ec:	2b01      	cmp	r3, #1
100128ee:	f104 0401 	add.w	r4, r4, #1
100128f2:	f106 0601 	add.w	r6, r6, #1
100128f6:	f108 0708 	add.w	r7, r8, #8
100128fa:	f340 8129 	ble.w	10012b50 <_svfprintf_r+0xc58>
100128fe:	2301      	movs	r3, #1
10012900:	2e07      	cmp	r6, #7
10012902:	e9cd 6433 	strd	r6, r4, [sp, #204]	@ 0xcc
10012906:	f8c8 5000 	str.w	r5, [r8]
1001290a:	f8c8 3004 	str.w	r3, [r8, #4]
1001290e:	f300 81b1 	bgt.w	10012c74 <_svfprintf_r+0xd7c>
10012912:	9b18      	ldr	r3, [sp, #96]	@ 0x60
10012914:	9a1a      	ldr	r2, [sp, #104]	@ 0x68
10012916:	3601      	adds	r6, #1
10012918:	441c      	add	r4, r3
1001291a:	2e07      	cmp	r6, #7
1001291c:	e9c7 2300 	strd	r2, r3, [r7]
10012920:	e9cd 6433 	strd	r6, r4, [sp, #204]	@ 0xcc
10012924:	f300 81b2 	bgt.w	10012c8c <_svfprintf_r+0xd94>
10012928:	3708      	adds	r7, #8
1001292a:	9b13      	ldr	r3, [sp, #76]	@ 0x4c
1001292c:	e9dd 0116 	ldrd	r0, r1, [sp, #88]	@ 0x58
10012930:	f103 38ff 	add.w	r8, r3, #4294967295	@ 0xffffffff
10012934:	2200      	movs	r2, #0
10012936:	2300      	movs	r3, #0
10012938:	f008 f8aa 	bl	1001aa90 <__aeabi_dcmpeq>
1001293c:	2800      	cmp	r0, #0
1001293e:	f040 8121 	bne.w	10012b84 <_svfprintf_r+0xc8c>
10012942:	3601      	adds	r6, #1
10012944:	3501      	adds	r5, #1
10012946:	4444      	add	r4, r8
10012948:	2e07      	cmp	r6, #7
1001294a:	e9cd 6433 	strd	r6, r4, [sp, #204]	@ 0xcc
1001294e:	603d      	str	r5, [r7, #0]
10012950:	f8c7 8004 	str.w	r8, [r7, #4]
10012954:	f300 810a 	bgt.w	10012b6c <_svfprintf_r+0xc74>
10012958:	3708      	adds	r7, #8
1001295a:	9b1c      	ldr	r3, [sp, #112]	@ 0x70
1001295c:	607b      	str	r3, [r7, #4]
1001295e:	3601      	adds	r6, #1
10012960:	441c      	add	r4, r3
10012962:	2e07      	cmp	r6, #7
10012964:	ab2c      	add	r3, sp, #176	@ 0xb0
10012966:	e9cd 6433 	strd	r6, r4, [sp, #204]	@ 0xcc
1001296a:	603b      	str	r3, [r7, #0]
1001296c:	dcb1      	bgt.n	100128d2 <_svfprintf_r+0x9da>
1001296e:	f107 0808 	add.w	r8, r7, #8
10012972:	e444      	b.n	100121fe <_svfprintf_r+0x306>
10012974:	464c      	mov	r4, r9
10012976:	2b0a      	cmp	r3, #10
10012978:	f172 0100 	sbcs.w	r1, r2, #0
1001297c:	f080 8353 	bcs.w	10013026 <_svfprintf_r+0x112e>
10012980:	3330      	adds	r3, #48	@ 0x30
10012982:	f88d 3177 	strb.w	r3, [sp, #375]	@ 0x177
10012986:	46a1      	mov	r9, r4
10012988:	f04f 0b01 	mov.w	fp, #1
1001298c:	f20d 1577 	addw	r5, sp, #375	@ 0x177
10012990:	e6b4      	b.n	100126fc <_svfprintf_r+0x804>
10012992:	9909      	ldr	r1, [sp, #36]	@ 0x24
10012994:	9807      	ldr	r0, [sp, #28]
10012996:	aa32      	add	r2, sp, #200	@ 0xc8
10012998:	f003 fa66 	bl	10015e68 <__ssprint_r>
1001299c:	2800      	cmp	r0, #0
1001299e:	f47f af62 	bne.w	10012866 <_svfprintf_r+0x96e>
100129a2:	9c34      	ldr	r4, [sp, #208]	@ 0xd0
100129a4:	f10d 08d4 	add.w	r8, sp, #212	@ 0xd4
100129a8:	e40e      	b.n	100121c8 <_svfprintf_r+0x2d0>
100129aa:	9909      	ldr	r1, [sp, #36]	@ 0x24
100129ac:	9807      	ldr	r0, [sp, #28]
100129ae:	9315      	str	r3, [sp, #84]	@ 0x54
100129b0:	aa32      	add	r2, sp, #200	@ 0xc8
100129b2:	f003 fa59 	bl	10015e68 <__ssprint_r>
100129b6:	2800      	cmp	r0, #0
100129b8:	f47f af55 	bne.w	10012866 <_svfprintf_r+0x96e>
100129bc:	9c34      	ldr	r4, [sp, #208]	@ 0xd0
100129be:	9b15      	ldr	r3, [sp, #84]	@ 0x54
100129c0:	f10d 08d4 	add.w	r8, sp, #212	@ 0xd4
100129c4:	f7ff bbee 	b.w	100121a4 <_svfprintf_r+0x2ac>
100129c8:	2d10      	cmp	r5, #16
100129ca:	9b33      	ldr	r3, [sp, #204]	@ 0xcc
100129cc:	f340 8731 	ble.w	10013832 <_svfprintf_r+0x193a>
100129d0:	4f1e      	ldr	r7, [pc, #120]	@ (10012a4c <_svfprintf_r+0xb54>)
100129d2:	f8dd 901c 	ldr.w	r9, [sp, #28]
100129d6:	f8dd a024 	ldr.w	sl, [sp, #36]	@ 0x24
100129da:	9715      	str	r7, [sp, #84]	@ 0x54
100129dc:	2610      	movs	r6, #16
100129de:	e004      	b.n	100129ea <_svfprintf_r+0xaf2>
100129e0:	3d10      	subs	r5, #16
100129e2:	2d10      	cmp	r5, #16
100129e4:	f108 0808 	add.w	r8, r8, #8
100129e8:	dd16      	ble.n	10012a18 <_svfprintf_r+0xb20>
100129ea:	3301      	adds	r3, #1
100129ec:	3410      	adds	r4, #16
100129ee:	2b07      	cmp	r3, #7
100129f0:	e9c8 7600 	strd	r7, r6, [r8]
100129f4:	e9cd 3433 	strd	r3, r4, [sp, #204]	@ 0xcc
100129f8:	ddf2      	ble.n	100129e0 <_svfprintf_r+0xae8>
100129fa:	aa32      	add	r2, sp, #200	@ 0xc8
100129fc:	4651      	mov	r1, sl
100129fe:	4648      	mov	r0, r9
10012a00:	f10d 08d4 	add.w	r8, sp, #212	@ 0xd4
10012a04:	f003 fa30 	bl	10015e68 <__ssprint_r>
10012a08:	2800      	cmp	r0, #0
10012a0a:	f040 83e7 	bne.w	100131dc <_svfprintf_r+0x12e4>
10012a0e:	3d10      	subs	r5, #16
10012a10:	2d10      	cmp	r5, #16
10012a12:	e9dd 3433 	ldrd	r3, r4, [sp, #204]	@ 0xcc
10012a16:	dce8      	bgt.n	100129ea <_svfprintf_r+0xaf2>
10012a18:	3301      	adds	r3, #1
10012a1a:	9a15      	ldr	r2, [sp, #84]	@ 0x54
10012a1c:	442c      	add	r4, r5
10012a1e:	2b07      	cmp	r3, #7
10012a20:	e9c8 2500 	strd	r2, r5, [r8]
10012a24:	e9cd 3433 	strd	r3, r4, [sp, #204]	@ 0xcc
10012a28:	f77f abf2 	ble.w	10012210 <_svfprintf_r+0x318>
10012a2c:	9909      	ldr	r1, [sp, #36]	@ 0x24
10012a2e:	9807      	ldr	r0, [sp, #28]
10012a30:	aa32      	add	r2, sp, #200	@ 0xc8
10012a32:	f003 fa19 	bl	10015e68 <__ssprint_r>
10012a36:	2800      	cmp	r0, #0
10012a38:	f47f af15 	bne.w	10012866 <_svfprintf_r+0x96e>
10012a3c:	9c34      	ldr	r4, [sp, #208]	@ 0xd0
10012a3e:	f7ff bbe7 	b.w	10012210 <_svfprintf_r+0x318>
10012a42:	bf00      	nop
10012a44:	1001b134 	.word	0x1001b134
10012a48:	1001b130 	.word	0x1001b130
10012a4c:	1001b144 	.word	0x1001b144
10012a50:	9a29      	ldr	r2, [sp, #164]	@ 0xa4
10012a52:	2a00      	cmp	r2, #0
10012a54:	f77f af0a 	ble.w	1001286c <_svfprintf_r+0x974>
10012a58:	e9dd 7312 	ldrd	r7, r3, [sp, #72]	@ 0x48
10012a5c:	429f      	cmp	r7, r3
10012a5e:	bfa8      	it	ge
10012a60:	461f      	movge	r7, r3
10012a62:	2f00      	cmp	r7, #0
10012a64:	eb05 0b03 	add.w	fp, r5, r3
10012a68:	dd0b      	ble.n	10012a82 <_svfprintf_r+0xb8a>
10012a6a:	9b33      	ldr	r3, [sp, #204]	@ 0xcc
10012a6c:	3301      	adds	r3, #1
10012a6e:	443c      	add	r4, r7
10012a70:	2b07      	cmp	r3, #7
10012a72:	e9c8 5700 	strd	r5, r7, [r8]
10012a76:	9434      	str	r4, [sp, #208]	@ 0xd0
10012a78:	9333      	str	r3, [sp, #204]	@ 0xcc
10012a7a:	f300 8640 	bgt.w	100136fe <_svfprintf_r+0x1806>
10012a7e:	f108 0808 	add.w	r8, r8, #8
10012a82:	9e12      	ldr	r6, [sp, #72]	@ 0x48
10012a84:	2f00      	cmp	r7, #0
10012a86:	bfa8      	it	ge
10012a88:	1bf6      	subge	r6, r6, r7
10012a8a:	2e00      	cmp	r6, #0
10012a8c:	f300 8200 	bgt.w	10012e90 <_svfprintf_r+0xf98>
10012a90:	9b12      	ldr	r3, [sp, #72]	@ 0x48
10012a92:	f419 6f80 	tst.w	r9, #1024	@ 0x400
10012a96:	442b      	add	r3, r5
10012a98:	469a      	mov	sl, r3
10012a9a:	f040 8221 	bne.w	10012ee0 <_svfprintf_r+0xfe8>
10012a9e:	9d29      	ldr	r5, [sp, #164]	@ 0xa4
10012aa0:	9b13      	ldr	r3, [sp, #76]	@ 0x4c
10012aa2:	429d      	cmp	r5, r3
10012aa4:	db03      	blt.n	10012aae <_svfprintf_r+0xbb6>
10012aa6:	f019 0f01 	tst.w	r9, #1
10012aaa:	f000 846e 	beq.w	1001338a <_svfprintf_r+0x1492>
10012aae:	9b18      	ldr	r3, [sp, #96]	@ 0x60
10012ab0:	9a1a      	ldr	r2, [sp, #104]	@ 0x68
10012ab2:	441c      	add	r4, r3
10012ab4:	e9c8 2300 	strd	r2, r3, [r8]
10012ab8:	9b33      	ldr	r3, [sp, #204]	@ 0xcc
10012aba:	9434      	str	r4, [sp, #208]	@ 0xd0
10012abc:	3301      	adds	r3, #1
10012abe:	2b07      	cmp	r3, #7
10012ac0:	9333      	str	r3, [sp, #204]	@ 0xcc
10012ac2:	f300 8673 	bgt.w	100137ac <_svfprintf_r+0x18b4>
10012ac6:	f108 0808 	add.w	r8, r8, #8
10012aca:	9b13      	ldr	r3, [sp, #76]	@ 0x4c
10012acc:	ebab 060a 	sub.w	r6, fp, sl
10012ad0:	1b5d      	subs	r5, r3, r5
10012ad2:	42ae      	cmp	r6, r5
10012ad4:	bfa8      	it	ge
10012ad6:	462e      	movge	r6, r5
10012ad8:	2e00      	cmp	r6, #0
10012ada:	dd0d      	ble.n	10012af8 <_svfprintf_r+0xc00>
10012adc:	9b33      	ldr	r3, [sp, #204]	@ 0xcc
10012ade:	f8c8 a000 	str.w	sl, [r8]
10012ae2:	3301      	adds	r3, #1
10012ae4:	4434      	add	r4, r6
10012ae6:	2b07      	cmp	r3, #7
10012ae8:	f8c8 6004 	str.w	r6, [r8, #4]
10012aec:	9434      	str	r4, [sp, #208]	@ 0xd0
10012aee:	9333      	str	r3, [sp, #204]	@ 0xcc
10012af0:	f300 866e 	bgt.w	100137d0 <_svfprintf_r+0x18d8>
10012af4:	f108 0808 	add.w	r8, r8, #8
10012af8:	2e00      	cmp	r6, #0
10012afa:	bfa8      	it	ge
10012afc:	1bad      	subge	r5, r5, r6
10012afe:	2d00      	cmp	r5, #0
10012b00:	f77f ab7d 	ble.w	100121fe <_svfprintf_r+0x306>
10012b04:	2d10      	cmp	r5, #16
10012b06:	9b33      	ldr	r3, [sp, #204]	@ 0xcc
10012b08:	f340 836a 	ble.w	100131e0 <_svfprintf_r+0x12e8>
10012b0c:	4fad      	ldr	r7, [pc, #692]	@ (10012dc4 <_svfprintf_r+0xecc>)
10012b0e:	f8dd b01c 	ldr.w	fp, [sp, #28]
10012b12:	f8dd a024 	ldr.w	sl, [sp, #36]	@ 0x24
10012b16:	9715      	str	r7, [sp, #84]	@ 0x54
10012b18:	2610      	movs	r6, #16
10012b1a:	e005      	b.n	10012b28 <_svfprintf_r+0xc30>
10012b1c:	f108 0808 	add.w	r8, r8, #8
10012b20:	3d10      	subs	r5, #16
10012b22:	2d10      	cmp	r5, #16
10012b24:	f340 835e 	ble.w	100131e4 <_svfprintf_r+0x12ec>
10012b28:	3301      	adds	r3, #1
10012b2a:	3410      	adds	r4, #16
10012b2c:	2b07      	cmp	r3, #7
10012b2e:	e9c8 7600 	strd	r7, r6, [r8]
10012b32:	e9cd 3433 	strd	r3, r4, [sp, #204]	@ 0xcc
10012b36:	ddf1      	ble.n	10012b1c <_svfprintf_r+0xc24>
10012b38:	aa32      	add	r2, sp, #200	@ 0xc8
10012b3a:	4651      	mov	r1, sl
10012b3c:	4658      	mov	r0, fp
10012b3e:	f003 f993 	bl	10015e68 <__ssprint_r>
10012b42:	2800      	cmp	r0, #0
10012b44:	d17d      	bne.n	10012c42 <_svfprintf_r+0xd4a>
10012b46:	e9dd 3433 	ldrd	r3, r4, [sp, #204]	@ 0xcc
10012b4a:	f10d 08d4 	add.w	r8, sp, #212	@ 0xd4
10012b4e:	e7e7      	b.n	10012b20 <_svfprintf_r+0xc28>
10012b50:	f019 0f01 	tst.w	r9, #1
10012b54:	f47f aed3 	bne.w	100128fe <_svfprintf_r+0xa06>
10012b58:	2301      	movs	r3, #1
10012b5a:	2e07      	cmp	r6, #7
10012b5c:	e9cd 6433 	strd	r6, r4, [sp, #204]	@ 0xcc
10012b60:	f8c8 5000 	str.w	r5, [r8]
10012b64:	f8c8 3004 	str.w	r3, [r8, #4]
10012b68:	f77f aef7 	ble.w	1001295a <_svfprintf_r+0xa62>
10012b6c:	9909      	ldr	r1, [sp, #36]	@ 0x24
10012b6e:	9807      	ldr	r0, [sp, #28]
10012b70:	aa32      	add	r2, sp, #200	@ 0xc8
10012b72:	f003 f979 	bl	10015e68 <__ssprint_r>
10012b76:	2800      	cmp	r0, #0
10012b78:	f47f ae75 	bne.w	10012866 <_svfprintf_r+0x96e>
10012b7c:	e9dd 6433 	ldrd	r6, r4, [sp, #204]	@ 0xcc
10012b80:	af35      	add	r7, sp, #212	@ 0xd4
10012b82:	e6ea      	b.n	1001295a <_svfprintf_r+0xa62>
10012b84:	9b13      	ldr	r3, [sp, #76]	@ 0x4c
10012b86:	2b01      	cmp	r3, #1
10012b88:	f77f aee7 	ble.w	1001295a <_svfprintf_r+0xa62>
10012b8c:	2b11      	cmp	r3, #17
10012b8e:	4b8d      	ldr	r3, [pc, #564]	@ (10012dc4 <_svfprintf_r+0xecc>)
10012b90:	9315      	str	r3, [sp, #84]	@ 0x54
10012b92:	f340 8357 	ble.w	10013244 <_svfprintf_r+0x134c>
10012b96:	f8cd 9020 	str.w	r9, [sp, #32]
10012b9a:	f8dd a01c 	ldr.w	sl, [sp, #28]
10012b9e:	f8dd b024 	ldr.w	fp, [sp, #36]	@ 0x24
10012ba2:	2510      	movs	r5, #16
10012ba4:	4699      	mov	r9, r3
10012ba6:	e006      	b.n	10012bb6 <_svfprintf_r+0xcbe>
10012ba8:	3708      	adds	r7, #8
10012baa:	f1a8 0810 	sub.w	r8, r8, #16
10012bae:	f1b8 0f10 	cmp.w	r8, #16
10012bb2:	f340 8345 	ble.w	10013240 <_svfprintf_r+0x1348>
10012bb6:	3601      	adds	r6, #1
10012bb8:	3410      	adds	r4, #16
10012bba:	2e07      	cmp	r6, #7
10012bbc:	e9c7 9500 	strd	r9, r5, [r7]
10012bc0:	e9cd 6433 	strd	r6, r4, [sp, #204]	@ 0xcc
10012bc4:	ddf0      	ble.n	10012ba8 <_svfprintf_r+0xcb0>
10012bc6:	aa32      	add	r2, sp, #200	@ 0xc8
10012bc8:	4659      	mov	r1, fp
10012bca:	4650      	mov	r0, sl
10012bcc:	f003 f94c 	bl	10015e68 <__ssprint_r>
10012bd0:	2800      	cmp	r0, #0
10012bd2:	f040 8298 	bne.w	10013106 <_svfprintf_r+0x120e>
10012bd6:	e9dd 6433 	ldrd	r6, r4, [sp, #204]	@ 0xcc
10012bda:	af35      	add	r7, sp, #212	@ 0xd4
10012bdc:	e7e5      	b.n	10012baa <_svfprintf_r+0xcb2>
10012bde:	9909      	ldr	r1, [sp, #36]	@ 0x24
10012be0:	9807      	ldr	r0, [sp, #28]
10012be2:	aa32      	add	r2, sp, #200	@ 0xc8
10012be4:	f003 f940 	bl	10015e68 <__ssprint_r>
10012be8:	2800      	cmp	r0, #0
10012bea:	f47f ae3c 	bne.w	10012866 <_svfprintf_r+0x96e>
10012bee:	9c34      	ldr	r4, [sp, #208]	@ 0xd0
10012bf0:	f10d 08d4 	add.w	r8, sp, #212	@ 0xd4
10012bf4:	f7ff baf1 	b.w	100121da <_svfprintf_r+0x2e2>
10012bf8:	990d      	ldr	r1, [sp, #52]	@ 0x34
10012bfa:	f851 3b04 	ldr.w	r3, [r1], #4
10012bfe:	910d      	str	r1, [sp, #52]	@ 0x34
10012c00:	f019 0110 	ands.w	r1, r9, #16
10012c04:	f47f ac4d 	bne.w	100124a2 <_svfprintf_r+0x5aa>
10012c08:	f019 0040 	ands.w	r0, r9, #64	@ 0x40
10012c0c:	f000 8362 	beq.w	100132d4 <_svfprintf_r+0x13dc>
10012c10:	b29b      	uxth	r3, r3
10012c12:	460a      	mov	r2, r1
10012c14:	e445      	b.n	100124a2 <_svfprintf_r+0x5aa>
10012c16:	990d      	ldr	r1, [sp, #52]	@ 0x34
10012c18:	f851 3b04 	ldr.w	r3, [r1], #4
10012c1c:	910d      	str	r1, [sp, #52]	@ 0x34
10012c1e:	f014 0110 	ands.w	r1, r4, #16
10012c22:	d10b      	bne.n	10012c3c <_svfprintf_r+0xd44>
10012c24:	f014 0040 	ands.w	r0, r4, #64	@ 0x40
10012c28:	d003      	beq.n	10012c32 <_svfprintf_r+0xd3a>
10012c2a:	460a      	mov	r2, r1
10012c2c:	b29b      	uxth	r3, r3
10012c2e:	2101      	movs	r1, #1
10012c30:	e43a      	b.n	100124a8 <_svfprintf_r+0x5b0>
10012c32:	f414 7200 	ands.w	r2, r4, #512	@ 0x200
10012c36:	bf1c      	itt	ne
10012c38:	b2db      	uxtbne	r3, r3
10012c3a:	4602      	movne	r2, r0
10012c3c:	2101      	movs	r1, #1
10012c3e:	e433      	b.n	100124a8 <_svfprintf_r+0x5b0>
10012c40:	46bb      	mov	fp, r7
10012c42:	9b0c      	ldr	r3, [sp, #48]	@ 0x30
10012c44:	2b00      	cmp	r3, #0
10012c46:	f43f aa5c 	beq.w	10012102 <_svfprintf_r+0x20a>
10012c4a:	990c      	ldr	r1, [sp, #48]	@ 0x30
10012c4c:	4658      	mov	r0, fp
10012c4e:	f002 fdb7 	bl	100157c0 <_free_r>
10012c52:	9b09      	ldr	r3, [sp, #36]	@ 0x24
10012c54:	899b      	ldrh	r3, [r3, #12]
10012c56:	f003 0340 	and.w	r3, r3, #64	@ 0x40
10012c5a:	f7ff ba56 	b.w	1001210a <_svfprintf_r+0x212>
10012c5e:	f8dd b020 	ldr.w	fp, [sp, #32]
10012c62:	ad5e      	add	r5, sp, #376	@ 0x178
10012c64:	e54a      	b.n	100126fc <_svfprintf_r+0x804>
10012c66:	425b      	negs	r3, r3
10012c68:	eb62 0242 	sbc.w	r2, r2, r2, lsl #1
10012c6c:	464c      	mov	r4, r9
10012c6e:	202d      	movs	r0, #45	@ 0x2d
10012c70:	2101      	movs	r1, #1
10012c72:	e41a      	b.n	100124aa <_svfprintf_r+0x5b2>
10012c74:	9909      	ldr	r1, [sp, #36]	@ 0x24
10012c76:	9807      	ldr	r0, [sp, #28]
10012c78:	aa32      	add	r2, sp, #200	@ 0xc8
10012c7a:	f003 f8f5 	bl	10015e68 <__ssprint_r>
10012c7e:	2800      	cmp	r0, #0
10012c80:	f47f adf1 	bne.w	10012866 <_svfprintf_r+0x96e>
10012c84:	e9dd 6433 	ldrd	r6, r4, [sp, #204]	@ 0xcc
10012c88:	af35      	add	r7, sp, #212	@ 0xd4
10012c8a:	e642      	b.n	10012912 <_svfprintf_r+0xa1a>
10012c8c:	9909      	ldr	r1, [sp, #36]	@ 0x24
10012c8e:	9807      	ldr	r0, [sp, #28]
10012c90:	aa32      	add	r2, sp, #200	@ 0xc8
10012c92:	f003 f8e9 	bl	10015e68 <__ssprint_r>
10012c96:	2800      	cmp	r0, #0
10012c98:	f47f ade5 	bne.w	10012866 <_svfprintf_r+0x96e>
10012c9c:	e9dd 6433 	ldrd	r6, r4, [sp, #204]	@ 0xcc
10012ca0:	af35      	add	r7, sp, #212	@ 0xd4
10012ca2:	e642      	b.n	1001292a <_svfprintf_r+0xa32>
10012ca4:	f019 0f01 	tst.w	r9, #1
10012ca8:	f43f aaa9 	beq.w	100121fe <_svfprintf_r+0x306>
10012cac:	e4d4      	b.n	10012658 <_svfprintf_r+0x760>
10012cae:	930d      	str	r3, [sp, #52]	@ 0x34
10012cb0:	7823      	ldrb	r3, [r4, #0]
10012cb2:	f7ff b978 	b.w	10011fa6 <_svfprintf_r+0xae>
10012cb6:	ad5e      	add	r5, sp, #376	@ 0x178
10012cb8:	e520      	b.n	100126fc <_svfprintf_r+0x804>
10012cba:	f419 7f00 	tst.w	r9, #512	@ 0x200
10012cbe:	f040 8373 	bne.w	100133a8 <_svfprintf_r+0x14b0>
10012cc2:	17da      	asrs	r2, r3, #31
10012cc4:	4611      	mov	r1, r2
10012cc6:	f7ff bbb2 	b.w	1001242e <_svfprintf_r+0x536>
10012cca:	f019 0f10 	tst.w	r9, #16
10012cce:	f040 82b1 	bne.w	10013234 <_svfprintf_r+0x133c>
10012cd2:	f019 0f40 	tst.w	r9, #64	@ 0x40
10012cd6:	f040 8361 	bne.w	1001339c <_svfprintf_r+0x14a4>
10012cda:	f419 7f00 	tst.w	r9, #512	@ 0x200
10012cde:	f000 82a9 	beq.w	10013234 <_svfprintf_r+0x133c>
10012ce2:	9b0d      	ldr	r3, [sp, #52]	@ 0x34
10012ce4:	9a0a      	ldr	r2, [sp, #40]	@ 0x28
10012ce6:	681b      	ldr	r3, [r3, #0]
10012ce8:	701a      	strb	r2, [r3, #0]
10012cea:	e40f      	b.n	1001250c <_svfprintf_r+0x614>
10012cec:	9a1b      	ldr	r2, [sp, #108]	@ 0x6c
10012cee:	7823      	ldrb	r3, [r4, #0]
10012cf0:	2a00      	cmp	r2, #0
10012cf2:	f43f a958 	beq.w	10011fa6 <_svfprintf_r+0xae>
10012cf6:	7812      	ldrb	r2, [r2, #0]
10012cf8:	2a00      	cmp	r2, #0
10012cfa:	f43f a954 	beq.w	10011fa6 <_svfprintf_r+0xae>
10012cfe:	f449 6980 	orr.w	r9, r9, #1024	@ 0x400
10012d02:	f7ff b950 	b.w	10011fa6 <_svfprintf_r+0xae>
10012d06:	e9dd 0116 	ldrd	r0, r1, [sp, #88]	@ 0x58
10012d0a:	4602      	mov	r2, r0
10012d0c:	460b      	mov	r3, r1
10012d0e:	f007 fef1 	bl	1001aaf4 <__aeabi_dcmpun>
10012d12:	2800      	cmp	r0, #0
10012d14:	f040 860d 	bne.w	10013932 <_svfprintf_r+0x1a3a>
10012d18:	9b0e      	ldr	r3, [sp, #56]	@ 0x38
10012d1a:	2b61      	cmp	r3, #97	@ 0x61
10012d1c:	f000 8504 	beq.w	10013728 <_svfprintf_r+0x1830>
10012d20:	2b41      	cmp	r3, #65	@ 0x41
10012d22:	f000 8580 	beq.w	10013826 <_svfprintf_r+0x192e>
10012d26:	9b08      	ldr	r3, [sp, #32]
10012d28:	3301      	adds	r3, #1
10012d2a:	f000 8415 	beq.w	10013558 <_svfprintf_r+0x1660>
10012d2e:	9b0e      	ldr	r3, [sp, #56]	@ 0x38
10012d30:	f023 0320 	bic.w	r3, r3, #32
10012d34:	2b47      	cmp	r3, #71	@ 0x47
10012d36:	d104      	bne.n	10012d42 <_svfprintf_r+0xe4a>
10012d38:	9b08      	ldr	r3, [sp, #32]
10012d3a:	2b00      	cmp	r3, #0
10012d3c:	bf08      	it	eq
10012d3e:	2301      	moveq	r3, #1
10012d40:	9308      	str	r3, [sp, #32]
10012d42:	e9dd 0116 	ldrd	r0, r1, [sp, #88]	@ 0x58
10012d46:	f449 7280 	orr.w	r2, r9, #256	@ 0x100
10012d4a:	2900      	cmp	r1, #0
10012d4c:	9215      	str	r2, [sp, #84]	@ 0x54
10012d4e:	f8cd 9018 	str.w	r9, [sp, #24]
10012d52:	f04f 0300 	mov.w	r3, #0
10012d56:	f2c0 851f 	blt.w	10013798 <_svfprintf_r+0x18a0>
10012d5a:	e9cd 0124 	strd	r0, r1, [sp, #144]	@ 0x90
10012d5e:	931f      	str	r3, [sp, #124]	@ 0x7c
10012d60:	930c      	str	r3, [sp, #48]	@ 0x30
10012d62:	9b0e      	ldr	r3, [sp, #56]	@ 0x38
10012d64:	3b41      	subs	r3, #65	@ 0x41
10012d66:	2b25      	cmp	r3, #37	@ 0x25
10012d68:	f200 8326 	bhi.w	100133b8 <_svfprintf_r+0x14c0>
10012d6c:	e8df f013 	tbh	[pc, r3, lsl #1]
10012d70:	032403ff 	.word	0x032403ff
10012d74:	03240324 	.word	0x03240324
10012d78:	03fc03f8 	.word	0x03fc03f8
10012d7c:	03240324 	.word	0x03240324
10012d80:	03240324 	.word	0x03240324
10012d84:	03240324 	.word	0x03240324
10012d88:	03240324 	.word	0x03240324
10012d8c:	03240324 	.word	0x03240324
10012d90:	03240324 	.word	0x03240324
10012d94:	03240324 	.word	0x03240324
10012d98:	03240324 	.word	0x03240324
10012d9c:	03240324 	.word	0x03240324
10012da0:	03240324 	.word	0x03240324
10012da4:	03240324 	.word	0x03240324
10012da8:	03240324 	.word	0x03240324
10012dac:	03240324 	.word	0x03240324
10012db0:	03240324 	.word	0x03240324
10012db4:	03240324 	.word	0x03240324
10012db8:	03fc03f8 	.word	0x03fc03f8
10012dbc:	e9cd 340e 	strd	r3, r4, [sp, #56]	@ 0x38
10012dc0:	f7ff bb62 	b.w	10012488 <_svfprintf_r+0x590>
10012dc4:	1001b134 	.word	0x1001b134
10012dc8:	e9cd 340e 	strd	r3, r4, [sp, #56]	@ 0x38
10012dcc:	464c      	mov	r4, r9
10012dce:	f7ff bbc9 	b.w	10012564 <_svfprintf_r+0x66c>
10012dd2:	e9cd 340e 	strd	r3, r4, [sp, #56]	@ 0x38
10012dd6:	4bbd      	ldr	r3, [pc, #756]	@ (100130cc <_svfprintf_r+0x11d4>)
10012dd8:	9319      	str	r3, [sp, #100]	@ 0x64
10012dda:	f019 0220 	ands.w	r2, r9, #32
10012dde:	f000 8108 	beq.w	10012ff2 <_svfprintf_r+0x10fa>
10012de2:	9b0d      	ldr	r3, [sp, #52]	@ 0x34
10012de4:	3307      	adds	r3, #7
10012de6:	f023 0307 	bic.w	r3, r3, #7
10012dea:	4619      	mov	r1, r3
10012dec:	685a      	ldr	r2, [r3, #4]
10012dee:	f851 3b08 	ldr.w	r3, [r1], #8
10012df2:	910d      	str	r1, [sp, #52]	@ 0x34
10012df4:	f019 0f01 	tst.w	r9, #1
10012df8:	d00a      	beq.n	10012e10 <_svfprintf_r+0xf18>
10012dfa:	ea53 0102 	orrs.w	r1, r3, r2
10012dfe:	d007      	beq.n	10012e10 <_svfprintf_r+0xf18>
10012e00:	990e      	ldr	r1, [sp, #56]	@ 0x38
10012e02:	f88d 10a1 	strb.w	r1, [sp, #161]	@ 0xa1
10012e06:	2130      	movs	r1, #48	@ 0x30
10012e08:	f049 0902 	orr.w	r9, r9, #2
10012e0c:	f88d 10a0 	strb.w	r1, [sp, #160]	@ 0xa0
10012e10:	f429 6480 	bic.w	r4, r9, #1024	@ 0x400
10012e14:	2102      	movs	r1, #2
10012e16:	f7ff bb47 	b.w	100124a8 <_svfprintf_r+0x5b0>
10012e1a:	e9cd 340e 	strd	r3, r4, [sp, #56]	@ 0x38
10012e1e:	4bac      	ldr	r3, [pc, #688]	@ (100130d0 <_svfprintf_r+0x11d8>)
10012e20:	9319      	str	r3, [sp, #100]	@ 0x64
10012e22:	e7da      	b.n	10012dda <_svfprintf_r+0xee2>
10012e24:	9b0d      	ldr	r3, [sp, #52]	@ 0x34
10012e26:	681b      	ldr	r3, [r3, #0]
10012e28:	f88d 3114 	strb.w	r3, [sp, #276]	@ 0x114
10012e2c:	2301      	movs	r3, #1
10012e2e:	9306      	str	r3, [sp, #24]
10012e30:	469b      	mov	fp, r3
10012e32:	ad45      	add	r5, sp, #276	@ 0x114
10012e34:	f7ff baaf 	b.w	10012396 <_svfprintf_r+0x49e>
10012e38:	9909      	ldr	r1, [sp, #36]	@ 0x24
10012e3a:	9807      	ldr	r0, [sp, #28]
10012e3c:	aa32      	add	r2, sp, #200	@ 0xc8
10012e3e:	f003 f813 	bl	10015e68 <__ssprint_r>
10012e42:	2800      	cmp	r0, #0
10012e44:	f47f ad0f 	bne.w	10012866 <_svfprintf_r+0x96e>
10012e48:	9c34      	ldr	r4, [sp, #208]	@ 0xd0
10012e4a:	f10d 08d4 	add.w	r8, sp, #212	@ 0xd4
10012e4e:	e411      	b.n	10012674 <_svfprintf_r+0x77c>
10012e50:	2140      	movs	r1, #64	@ 0x40
10012e52:	4658      	mov	r0, fp
10012e54:	f000 fe20 	bl	10013a98 <_malloc_r>
10012e58:	9b09      	ldr	r3, [sp, #36]	@ 0x24
10012e5a:	6018      	str	r0, [r3, #0]
10012e5c:	6118      	str	r0, [r3, #16]
10012e5e:	2800      	cmp	r0, #0
10012e60:	f000 8610 	beq.w	10013a84 <_svfprintf_r+0x1b8c>
10012e64:	9a09      	ldr	r2, [sp, #36]	@ 0x24
10012e66:	2340      	movs	r3, #64	@ 0x40
10012e68:	6153      	str	r3, [r2, #20]
10012e6a:	f7ff b861 	b.w	10011f30 <_svfprintf_r+0x38>
10012e6e:	9b08      	ldr	r3, [sp, #32]
10012e70:	950c      	str	r5, [sp, #48]	@ 0x30
10012e72:	2b06      	cmp	r3, #6
10012e74:	4629      	mov	r1, r5
10012e76:	bf28      	it	cs
10012e78:	2306      	movcs	r3, #6
10012e7a:	9508      	str	r5, [sp, #32]
10012e7c:	462a      	mov	r2, r5
10012e7e:	9306      	str	r3, [sp, #24]
10012e80:	4d94      	ldr	r5, [pc, #592]	@ (100130d4 <_svfprintf_r+0x11dc>)
10012e82:	960d      	str	r6, [sp, #52]	@ 0x34
10012e84:	469b      	mov	fp, r3
10012e86:	9114      	str	r1, [sp, #80]	@ 0x50
10012e88:	9110      	str	r1, [sp, #64]	@ 0x40
10012e8a:	9112      	str	r1, [sp, #72]	@ 0x48
10012e8c:	f7ff ba1b 	b.w	100122c6 <_svfprintf_r+0x3ce>
10012e90:	2e10      	cmp	r6, #16
10012e92:	9b33      	ldr	r3, [sp, #204]	@ 0xcc
10012e94:	f340 85e7 	ble.w	10013a66 <_svfprintf_r+0x1b6e>
10012e98:	488f      	ldr	r0, [pc, #572]	@ (100130d8 <_svfprintf_r+0x11e0>)
10012e9a:	f8dd a01c 	ldr.w	sl, [sp, #28]
10012e9e:	9015      	str	r0, [sp, #84]	@ 0x54
10012ea0:	4642      	mov	r2, r8
10012ea2:	4621      	mov	r1, r4
10012ea4:	46a8      	mov	r8, r5
10012ea6:	9c09      	ldr	r4, [sp, #36]	@ 0x24
10012ea8:	2710      	movs	r7, #16
10012eaa:	4605      	mov	r5, r0
10012eac:	e004      	b.n	10012eb8 <_svfprintf_r+0xfc0>
10012eae:	3208      	adds	r2, #8
10012eb0:	3e10      	subs	r6, #16
10012eb2:	2e10      	cmp	r6, #16
10012eb4:	f340 8223 	ble.w	100132fe <_svfprintf_r+0x1406>
10012eb8:	3301      	adds	r3, #1
10012eba:	3110      	adds	r1, #16
10012ebc:	2b07      	cmp	r3, #7
10012ebe:	e9c2 5700 	strd	r5, r7, [r2]
10012ec2:	e9cd 3133 	strd	r3, r1, [sp, #204]	@ 0xcc
10012ec6:	ddf2      	ble.n	10012eae <_svfprintf_r+0xfb6>
10012ec8:	aa32      	add	r2, sp, #200	@ 0xc8
10012eca:	4621      	mov	r1, r4
10012ecc:	4650      	mov	r0, sl
10012ece:	f002 ffcb 	bl	10015e68 <__ssprint_r>
10012ed2:	2800      	cmp	r0, #0
10012ed4:	f040 8117 	bne.w	10013106 <_svfprintf_r+0x120e>
10012ed8:	e9dd 3133 	ldrd	r3, r1, [sp, #204]	@ 0xcc
10012edc:	aa35      	add	r2, sp, #212	@ 0xd4
10012ede:	e7e7      	b.n	10012eb0 <_svfprintf_r+0xfb8>
10012ee0:	4621      	mov	r1, r4
10012ee2:	461c      	mov	r4, r3
10012ee4:	9b10      	ldr	r3, [sp, #64]	@ 0x40
10012ee6:	f8cd b020 	str.w	fp, [sp, #32]
10012eea:	f8cd 9038 	str.w	r9, [sp, #56]	@ 0x38
10012eee:	4642      	mov	r2, r8
10012ef0:	4f79      	ldr	r7, [pc, #484]	@ (100130d8 <_svfprintf_r+0x11e0>)
10012ef2:	f8dd 9050 	ldr.w	r9, [sp, #80]	@ 0x50
10012ef6:	f8dd 8078 	ldr.w	r8, [sp, #120]	@ 0x78
10012efa:	f8dd a06c 	ldr.w	sl, [sp, #108]	@ 0x6c
10012efe:	f8dd b01c 	ldr.w	fp, [sp, #28]
10012f02:	b383      	cbz	r3, 10012f66 <_svfprintf_r+0x106e>
10012f04:	f1b9 0f00 	cmp.w	r9, #0
10012f08:	f000 80ff 	beq.w	1001310a <_svfprintf_r+0x1212>
10012f0c:	f109 39ff 	add.w	r9, r9, #4294967295	@ 0xffffffff
10012f10:	9833      	ldr	r0, [sp, #204]	@ 0xcc
10012f12:	9b1d      	ldr	r3, [sp, #116]	@ 0x74
10012f14:	3001      	adds	r0, #1
10012f16:	4441      	add	r1, r8
10012f18:	2807      	cmp	r0, #7
10012f1a:	e9c2 3800 	strd	r3, r8, [r2]
10012f1e:	9134      	str	r1, [sp, #208]	@ 0xd0
10012f20:	9033      	str	r0, [sp, #204]	@ 0xcc
10012f22:	dc75      	bgt.n	10013010 <_svfprintf_r+0x1118>
10012f24:	3208      	adds	r2, #8
10012f26:	9b08      	ldr	r3, [sp, #32]
10012f28:	f89a 0000 	ldrb.w	r0, [sl]
10012f2c:	1b1e      	subs	r6, r3, r4
10012f2e:	4286      	cmp	r6, r0
10012f30:	bfa8      	it	ge
10012f32:	4606      	movge	r6, r0
10012f34:	2e00      	cmp	r6, #0
10012f36:	dd0c      	ble.n	10012f52 <_svfprintf_r+0x105a>
10012f38:	9833      	ldr	r0, [sp, #204]	@ 0xcc
10012f3a:	3001      	adds	r0, #1
10012f3c:	4431      	add	r1, r6
10012f3e:	2807      	cmp	r0, #7
10012f40:	e9c2 4600 	strd	r4, r6, [r2]
10012f44:	9134      	str	r1, [sp, #208]	@ 0xd0
10012f46:	9033      	str	r0, [sp, #204]	@ 0xcc
10012f48:	f300 8167 	bgt.w	1001321a <_svfprintf_r+0x1322>
10012f4c:	f89a 0000 	ldrb.w	r0, [sl]
10012f50:	3208      	adds	r2, #8
10012f52:	2e00      	cmp	r6, #0
10012f54:	bfac      	ite	ge
10012f56:	1b85      	subge	r5, r0, r6
10012f58:	4605      	movlt	r5, r0
10012f5a:	2d00      	cmp	r5, #0
10012f5c:	dc13      	bgt.n	10012f86 <_svfprintf_r+0x108e>
10012f5e:	4404      	add	r4, r0
10012f60:	9b10      	ldr	r3, [sp, #64]	@ 0x40
10012f62:	2b00      	cmp	r3, #0
10012f64:	d1ce      	bne.n	10012f04 <_svfprintf_r+0x100c>
10012f66:	f1b9 0f00 	cmp.w	r9, #0
10012f6a:	d1cf      	bne.n	10012f0c <_svfprintf_r+0x1014>
10012f6c:	f8dd b020 	ldr.w	fp, [sp, #32]
10012f70:	f8cd a06c 	str.w	sl, [sp, #108]	@ 0x6c
10012f74:	46a2      	mov	sl, r4
10012f76:	45da      	cmp	sl, fp
10012f78:	f8dd 9038 	ldr.w	r9, [sp, #56]	@ 0x38
10012f7c:	4690      	mov	r8, r2
10012f7e:	460c      	mov	r4, r1
10012f80:	bf28      	it	cs
10012f82:	46da      	movcs	sl, fp
10012f84:	e58b      	b.n	10012a9e <_svfprintf_r+0xba6>
10012f86:	2d10      	cmp	r5, #16
10012f88:	9833      	ldr	r0, [sp, #204]	@ 0xcc
10012f8a:	f340 853c 	ble.w	10013a06 <_svfprintf_r+0x1b0e>
10012f8e:	4623      	mov	r3, r4
10012f90:	463e      	mov	r6, r7
10012f92:	462c      	mov	r4, r5
10012f94:	461d      	mov	r5, r3
10012f96:	e004      	b.n	10012fa2 <_svfprintf_r+0x10aa>
10012f98:	3c10      	subs	r4, #16
10012f9a:	2c10      	cmp	r4, #16
10012f9c:	f102 0208 	add.w	r2, r2, #8
10012fa0:	dd16      	ble.n	10012fd0 <_svfprintf_r+0x10d8>
10012fa2:	3001      	adds	r0, #1
10012fa4:	3110      	adds	r1, #16
10012fa6:	2310      	movs	r3, #16
10012fa8:	2807      	cmp	r0, #7
10012faa:	e9cd 0133 	strd	r0, r1, [sp, #204]	@ 0xcc
10012fae:	6017      	str	r7, [r2, #0]
10012fb0:	6053      	str	r3, [r2, #4]
10012fb2:	ddf1      	ble.n	10012f98 <_svfprintf_r+0x10a0>
10012fb4:	9909      	ldr	r1, [sp, #36]	@ 0x24
10012fb6:	aa32      	add	r2, sp, #200	@ 0xc8
10012fb8:	4658      	mov	r0, fp
10012fba:	f002 ff55 	bl	10015e68 <__ssprint_r>
10012fbe:	2800      	cmp	r0, #0
10012fc0:	f47f ae3f 	bne.w	10012c42 <_svfprintf_r+0xd4a>
10012fc4:	3c10      	subs	r4, #16
10012fc6:	2c10      	cmp	r4, #16
10012fc8:	e9dd 0133 	ldrd	r0, r1, [sp, #204]	@ 0xcc
10012fcc:	aa35      	add	r2, sp, #212	@ 0xd4
10012fce:	dce8      	bgt.n	10012fa2 <_svfprintf_r+0x10aa>
10012fd0:	462b      	mov	r3, r5
10012fd2:	4625      	mov	r5, r4
10012fd4:	461c      	mov	r4, r3
10012fd6:	3001      	adds	r0, #1
10012fd8:	4429      	add	r1, r5
10012fda:	2807      	cmp	r0, #7
10012fdc:	e9cd 0133 	strd	r0, r1, [sp, #204]	@ 0xcc
10012fe0:	6016      	str	r6, [r2, #0]
10012fe2:	6055      	str	r5, [r2, #4]
10012fe4:	f300 837d 	bgt.w	100136e2 <_svfprintf_r+0x17ea>
10012fe8:	f89a 0000 	ldrb.w	r0, [sl]
10012fec:	3208      	adds	r2, #8
10012fee:	4404      	add	r4, r0
10012ff0:	e7b6      	b.n	10012f60 <_svfprintf_r+0x1068>
10012ff2:	990d      	ldr	r1, [sp, #52]	@ 0x34
10012ff4:	f851 3b04 	ldr.w	r3, [r1], #4
10012ff8:	910d      	str	r1, [sp, #52]	@ 0x34
10012ffa:	f019 0110 	ands.w	r1, r9, #16
10012ffe:	f47f aef9 	bne.w	10012df4 <_svfprintf_r+0xefc>
10013002:	f019 0040 	ands.w	r0, r9, #64	@ 0x40
10013006:	f000 815f 	beq.w	100132c8 <_svfprintf_r+0x13d0>
1001300a:	b29b      	uxth	r3, r3
1001300c:	460a      	mov	r2, r1
1001300e:	e6f1      	b.n	10012df4 <_svfprintf_r+0xefc>
10013010:	9909      	ldr	r1, [sp, #36]	@ 0x24
10013012:	aa32      	add	r2, sp, #200	@ 0xc8
10013014:	4658      	mov	r0, fp
10013016:	f002 ff27 	bl	10015e68 <__ssprint_r>
1001301a:	2800      	cmp	r0, #0
1001301c:	f47f ae11 	bne.w	10012c42 <_svfprintf_r+0xd4a>
10013020:	9934      	ldr	r1, [sp, #208]	@ 0xd0
10013022:	aa35      	add	r2, sp, #212	@ 0xd4
10013024:	e77f      	b.n	10012f26 <_svfprintf_r+0x102e>
10013026:	f404 6b80 	and.w	fp, r4, #1024	@ 0x400
1001302a:	2100      	movs	r1, #0
1001302c:	f8cd 8030 	str.w	r8, [sp, #48]	@ 0x30
10013030:	f8df 90a8 	ldr.w	r9, [pc, #168]	@ 100130dc <_svfprintf_r+0x11e4>
10013034:	f8dd 806c 	ldr.w	r8, [sp, #108]	@ 0x6c
10013038:	9406      	str	r4, [sp, #24]
1001303a:	ad5e      	add	r5, sp, #376	@ 0x178
1001303c:	f04f 3acc 	mov.w	sl, #3435973836	@ 0xcccccccc
10013040:	2705      	movs	r7, #5
10013042:	468c      	mov	ip, r1
10013044:	465e      	mov	r6, fp
10013046:	e005      	b.n	10013054 <_svfprintf_r+0x115c>
10013048:	2b0a      	cmp	r3, #10
1001304a:	f172 0200 	sbcs.w	r2, r2, #0
1001304e:	d333      	bcc.n	100130b8 <_svfprintf_r+0x11c0>
10013050:	465b      	mov	r3, fp
10013052:	4622      	mov	r2, r4
10013054:	1899      	adds	r1, r3, r2
10013056:	f141 0100 	adc.w	r1, r1, #0
1001305a:	fba9 0401 	umull	r0, r4, r9, r1
1001305e:	f024 0003 	bic.w	r0, r4, #3
10013062:	eb00 0094 	add.w	r0, r0, r4, lsr #2
10013066:	1a09      	subs	r1, r1, r0
10013068:	1a58      	subs	r0, r3, r1
1001306a:	f162 0e00 	sbc.w	lr, r2, #0
1001306e:	fb0a f400 	mul.w	r4, sl, r0
10013072:	fba0 b009 	umull	fp, r0, r0, r9
10013076:	fb09 440e 	mla	r4, r9, lr, r4
1001307a:	f00b 0e01 	and.w	lr, fp, #1
1001307e:	4404      	add	r4, r0
10013080:	fbae 0e07 	umull	r0, lr, lr, r7
10013084:	1840      	adds	r0, r0, r1
10013086:	ea4f 0b5b 	mov.w	fp, fp, lsr #1
1001308a:	3030      	adds	r0, #48	@ 0x30
1001308c:	f805 0c01 	strb.w	r0, [r5, #-1]
10013090:	ea4b 7bc4 	orr.w	fp, fp, r4, lsl #31
10013094:	f10c 0c01 	add.w	ip, ip, #1
10013098:	3d01      	subs	r5, #1
1001309a:	0864      	lsrs	r4, r4, #1
1001309c:	2e00      	cmp	r6, #0
1001309e:	d0d3      	beq.n	10013048 <_svfprintf_r+0x1150>
100130a0:	f898 1000 	ldrb.w	r1, [r8]
100130a4:	458c      	cmp	ip, r1
100130a6:	d1cf      	bne.n	10013048 <_svfprintf_r+0x1150>
100130a8:	f1bc 0fff 	cmp.w	ip, #255	@ 0xff
100130ac:	d0cc      	beq.n	10013048 <_svfprintf_r+0x1150>
100130ae:	2b0a      	cmp	r3, #10
100130b0:	f172 0200 	sbcs.w	r2, r2, #0
100130b4:	f080 8136 	bcs.w	10013324 <_svfprintf_r+0x142c>
100130b8:	f8cd 806c 	str.w	r8, [sp, #108]	@ 0x6c
100130bc:	9c06      	ldr	r4, [sp, #24]
100130be:	f8dd 8030 	ldr.w	r8, [sp, #48]	@ 0x30
100130c2:	f8cd c04c 	str.w	ip, [sp, #76]	@ 0x4c
100130c6:	f7ff bb15 	b.w	100126f4 <_svfprintf_r+0x7fc>
100130ca:	bf00      	nop
100130cc:	1001b114 	.word	0x1001b114
100130d0:	1001b100 	.word	0x1001b100
100130d4:	1001b128 	.word	0x1001b128
100130d8:	1001b134 	.word	0x1001b134
100130dc:	cccccccd 	.word	0xcccccccd
100130e0:	9909      	ldr	r1, [sp, #36]	@ 0x24
100130e2:	9807      	ldr	r0, [sp, #28]
100130e4:	9315      	str	r3, [sp, #84]	@ 0x54
100130e6:	aa32      	add	r2, sp, #200	@ 0xc8
100130e8:	f002 febe 	bl	10015e68 <__ssprint_r>
100130ec:	2800      	cmp	r0, #0
100130ee:	f47f abba 	bne.w	10012866 <_svfprintf_r+0x96e>
100130f2:	f89d 209f 	ldrb.w	r2, [sp, #159]	@ 0x9f
100130f6:	9c34      	ldr	r4, [sp, #208]	@ 0xd0
100130f8:	9b15      	ldr	r3, [sp, #84]	@ 0x54
100130fa:	f10d 08d4 	add.w	r8, sp, #212	@ 0xd4
100130fe:	f7ff b83f 	b.w	10012180 <_svfprintf_r+0x288>
10013102:	46a3      	mov	fp, r4
10013104:	e59d      	b.n	10012c42 <_svfprintf_r+0xd4a>
10013106:	46d3      	mov	fp, sl
10013108:	e59b      	b.n	10012c42 <_svfprintf_r+0xd4a>
1001310a:	9b10      	ldr	r3, [sp, #64]	@ 0x40
1001310c:	3b01      	subs	r3, #1
1001310e:	f10a 3aff 	add.w	sl, sl, #4294967295	@ 0xffffffff
10013112:	9310      	str	r3, [sp, #64]	@ 0x40
10013114:	e6fc      	b.n	10012f10 <_svfprintf_r+0x1018>
10013116:	2901      	cmp	r1, #1
10013118:	464c      	mov	r4, r9
1001311a:	f47f aadb 	bne.w	100126d4 <_svfprintf_r+0x7dc>
1001311e:	e42f      	b.n	10012980 <_svfprintf_r+0xa88>
10013120:	9909      	ldr	r1, [sp, #36]	@ 0x24
10013122:	9807      	ldr	r0, [sp, #28]
10013124:	aa32      	add	r2, sp, #200	@ 0xc8
10013126:	f002 fe9f 	bl	10015e68 <__ssprint_r>
1001312a:	2800      	cmp	r0, #0
1001312c:	f47f ab9b 	bne.w	10012866 <_svfprintf_r+0x96e>
10013130:	9c34      	ldr	r4, [sp, #208]	@ 0xd0
10013132:	f10d 08d4 	add.w	r8, sp, #212	@ 0xd4
10013136:	f7ff ba8a 	b.w	1001264e <_svfprintf_r+0x756>
1001313a:	af30      	add	r7, sp, #192	@ 0xc0
1001313c:	2208      	movs	r2, #8
1001313e:	2100      	movs	r1, #0
10013140:	4638      	mov	r0, r7
10013142:	952b      	str	r5, [sp, #172]	@ 0xac
10013144:	f000 ff6c 	bl	10014020 <memset>
10013148:	9b08      	ldr	r3, [sp, #32]
1001314a:	1c58      	adds	r0, r3, #1
1001314c:	f000 80c9 	beq.w	100132e2 <_svfprintf_r+0x13ea>
10013150:	2400      	movs	r4, #0
10013152:	f8cd 9018 	str.w	r9, [sp, #24]
10013156:	46a3      	mov	fp, r4
10013158:	f8dd 901c 	ldr.w	r9, [sp, #28]
1001315c:	469a      	mov	sl, r3
1001315e:	e00c      	b.n	1001317a <_svfprintf_r+0x1282>
10013160:	a945      	add	r1, sp, #276	@ 0x114
10013162:	4648      	mov	r0, r9
10013164:	f000 ffae 	bl	100140c4 <_wcrtomb_r>
10013168:	1c41      	adds	r1, r0, #1
1001316a:	4458      	add	r0, fp
1001316c:	f000 838e 	beq.w	1001388c <_svfprintf_r+0x1994>
10013170:	4550      	cmp	r0, sl
10013172:	dc08      	bgt.n	10013186 <_svfprintf_r+0x128e>
10013174:	f000 8441 	beq.w	100139fa <_svfprintf_r+0x1b02>
10013178:	4683      	mov	fp, r0
1001317a:	9a2b      	ldr	r2, [sp, #172]	@ 0xac
1001317c:	5912      	ldr	r2, [r2, r4]
1001317e:	463b      	mov	r3, r7
10013180:	3404      	adds	r4, #4
10013182:	2a00      	cmp	r2, #0
10013184:	d1ec      	bne.n	10013160 <_svfprintf_r+0x1268>
10013186:	f8dd 9018 	ldr.w	r9, [sp, #24]
1001318a:	f1bb 0f00 	cmp.w	fp, #0
1001318e:	f000 80dd 	beq.w	1001334c <_svfprintf_r+0x1454>
10013192:	f1bb 0f63 	cmp.w	fp, #99	@ 0x63
10013196:	f300 81b9 	bgt.w	1001350c <_svfprintf_r+0x1614>
1001319a:	2300      	movs	r3, #0
1001319c:	930c      	str	r3, [sp, #48]	@ 0x30
1001319e:	ad45      	add	r5, sp, #276	@ 0x114
100131a0:	2208      	movs	r2, #8
100131a2:	2100      	movs	r1, #0
100131a4:	4638      	mov	r0, r7
100131a6:	f000 ff3b 	bl	10014020 <memset>
100131aa:	9807      	ldr	r0, [sp, #28]
100131ac:	9700      	str	r7, [sp, #0]
100131ae:	465b      	mov	r3, fp
100131b0:	aa2b      	add	r2, sp, #172	@ 0xac
100131b2:	4629      	mov	r1, r5
100131b4:	f001 f882 	bl	100142bc <_wcsrtombs_r>
100131b8:	4583      	cmp	fp, r0
100131ba:	f040 845a 	bne.w	10013a72 <_svfprintf_r+0x1b7a>
100131be:	2300      	movs	r3, #0
100131c0:	f805 300b 	strb.w	r3, [r5, fp]
100131c4:	ea2b 71eb 	bic.w	r1, fp, fp, asr #31
100131c8:	f89d 209f 	ldrb.w	r2, [sp, #159]	@ 0x9f
100131cc:	960d      	str	r6, [sp, #52]	@ 0x34
100131ce:	9308      	str	r3, [sp, #32]
100131d0:	9106      	str	r1, [sp, #24]
100131d2:	9314      	str	r3, [sp, #80]	@ 0x50
100131d4:	9310      	str	r3, [sp, #64]	@ 0x40
100131d6:	9312      	str	r3, [sp, #72]	@ 0x48
100131d8:	f7ff b875 	b.w	100122c6 <_svfprintf_r+0x3ce>
100131dc:	46cb      	mov	fp, r9
100131de:	e530      	b.n	10012c42 <_svfprintf_r+0xd4a>
100131e0:	4a74      	ldr	r2, [pc, #464]	@ (100133b4 <_svfprintf_r+0x14bc>)
100131e2:	9215      	str	r2, [sp, #84]	@ 0x54
100131e4:	3301      	adds	r3, #1
100131e6:	9a15      	ldr	r2, [sp, #84]	@ 0x54
100131e8:	f8c8 2000 	str.w	r2, [r8]
100131ec:	442c      	add	r4, r5
100131ee:	2b07      	cmp	r3, #7
100131f0:	f8c8 5004 	str.w	r5, [r8, #4]
100131f4:	e9cd 3433 	strd	r3, r4, [sp, #204]	@ 0xcc
100131f8:	f77e afff 	ble.w	100121fa <_svfprintf_r+0x302>
100131fc:	f7ff bb69 	b.w	100128d2 <_svfprintf_r+0x9da>
10013200:	9909      	ldr	r1, [sp, #36]	@ 0x24
10013202:	9807      	ldr	r0, [sp, #28]
10013204:	aa32      	add	r2, sp, #200	@ 0xc8
10013206:	f002 fe2f 	bl	10015e68 <__ssprint_r>
1001320a:	2800      	cmp	r0, #0
1001320c:	f47f ab2b 	bne.w	10012866 <_svfprintf_r+0x96e>
10013210:	9c34      	ldr	r4, [sp, #208]	@ 0xd0
10013212:	f10d 08d4 	add.w	r8, sp, #212	@ 0xd4
10013216:	f7fe bfda 	b.w	100121ce <_svfprintf_r+0x2d6>
1001321a:	9909      	ldr	r1, [sp, #36]	@ 0x24
1001321c:	aa32      	add	r2, sp, #200	@ 0xc8
1001321e:	4658      	mov	r0, fp
10013220:	f002 fe22 	bl	10015e68 <__ssprint_r>
10013224:	2800      	cmp	r0, #0
10013226:	f47f ad0c 	bne.w	10012c42 <_svfprintf_r+0xd4a>
1001322a:	f89a 0000 	ldrb.w	r0, [sl]
1001322e:	9934      	ldr	r1, [sp, #208]	@ 0xd0
10013230:	aa35      	add	r2, sp, #212	@ 0xd4
10013232:	e68e      	b.n	10012f52 <_svfprintf_r+0x105a>
10013234:	9b0d      	ldr	r3, [sp, #52]	@ 0x34
10013236:	9a0a      	ldr	r2, [sp, #40]	@ 0x28
10013238:	681b      	ldr	r3, [r3, #0]
1001323a:	601a      	str	r2, [r3, #0]
1001323c:	f7ff b966 	b.w	1001250c <_svfprintf_r+0x614>
10013240:	f8dd 9020 	ldr.w	r9, [sp, #32]
10013244:	9b15      	ldr	r3, [sp, #84]	@ 0x54
10013246:	603b      	str	r3, [r7, #0]
10013248:	3601      	adds	r6, #1
1001324a:	4444      	add	r4, r8
1001324c:	2e07      	cmp	r6, #7
1001324e:	e9cd 6433 	strd	r6, r4, [sp, #204]	@ 0xcc
10013252:	f8c7 8004 	str.w	r8, [r7, #4]
10013256:	f77f ab7f 	ble.w	10012958 <_svfprintf_r+0xa60>
1001325a:	e487      	b.n	10012b6c <_svfprintf_r+0xc74>
1001325c:	9b18      	ldr	r3, [sp, #96]	@ 0x60
1001325e:	991a      	ldr	r1, [sp, #104]	@ 0x68
10013260:	441c      	add	r4, r3
10013262:	e9c8 1300 	strd	r1, r3, [r8]
10013266:	9b33      	ldr	r3, [sp, #204]	@ 0xcc
10013268:	9434      	str	r4, [sp, #208]	@ 0xd0
1001326a:	3301      	adds	r3, #1
1001326c:	2b07      	cmp	r3, #7
1001326e:	9333      	str	r3, [sp, #204]	@ 0xcc
10013270:	f300 8164 	bgt.w	1001353c <_svfprintf_r+0x1644>
10013274:	f108 0808 	add.w	r8, r8, #8
10013278:	2a00      	cmp	r2, #0
1001327a:	f6bf ab1e 	bge.w	100128ba <_svfprintf_r+0x9c2>
1001327e:	4256      	negs	r6, r2
10013280:	3210      	adds	r2, #16
10013282:	4a4c      	ldr	r2, [pc, #304]	@ (100133b4 <_svfprintf_r+0x14bc>)
10013284:	9215      	str	r2, [sp, #84]	@ 0x54
10013286:	f280 82e7 	bge.w	10013858 <_svfprintf_r+0x1960>
1001328a:	46aa      	mov	sl, r5
1001328c:	2710      	movs	r7, #16
1001328e:	4615      	mov	r5, r2
10013290:	e005      	b.n	1001329e <_svfprintf_r+0x13a6>
10013292:	f108 0808 	add.w	r8, r8, #8
10013296:	3e10      	subs	r6, #16
10013298:	2e10      	cmp	r6, #16
1001329a:	f340 82dc 	ble.w	10013856 <_svfprintf_r+0x195e>
1001329e:	3301      	adds	r3, #1
100132a0:	3410      	adds	r4, #16
100132a2:	2b07      	cmp	r3, #7
100132a4:	e9c8 5700 	strd	r5, r7, [r8]
100132a8:	e9cd 3433 	strd	r3, r4, [sp, #204]	@ 0xcc
100132ac:	ddf1      	ble.n	10013292 <_svfprintf_r+0x139a>
100132ae:	9909      	ldr	r1, [sp, #36]	@ 0x24
100132b0:	9807      	ldr	r0, [sp, #28]
100132b2:	aa32      	add	r2, sp, #200	@ 0xc8
100132b4:	f002 fdd8 	bl	10015e68 <__ssprint_r>
100132b8:	2800      	cmp	r0, #0
100132ba:	f47f aad4 	bne.w	10012866 <_svfprintf_r+0x96e>
100132be:	e9dd 3433 	ldrd	r3, r4, [sp, #204]	@ 0xcc
100132c2:	f10d 08d4 	add.w	r8, sp, #212	@ 0xd4
100132c6:	e7e6      	b.n	10013296 <_svfprintf_r+0x139e>
100132c8:	f419 7200 	ands.w	r2, r9, #512	@ 0x200
100132cc:	bf1c      	itt	ne
100132ce:	b2db      	uxtbne	r3, r3
100132d0:	4602      	movne	r2, r0
100132d2:	e58f      	b.n	10012df4 <_svfprintf_r+0xefc>
100132d4:	f419 7200 	ands.w	r2, r9, #512	@ 0x200
100132d8:	bf1c      	itt	ne
100132da:	b2db      	uxtbne	r3, r3
100132dc:	4602      	movne	r2, r0
100132de:	f7ff b8e0 	b.w	100124a2 <_svfprintf_r+0x5aa>
100132e2:	2300      	movs	r3, #0
100132e4:	9807      	ldr	r0, [sp, #28]
100132e6:	9700      	str	r7, [sp, #0]
100132e8:	aa2b      	add	r2, sp, #172	@ 0xac
100132ea:	4619      	mov	r1, r3
100132ec:	f000 ffe6 	bl	100142bc <_wcsrtombs_r>
100132f0:	f1b0 3fff 	cmp.w	r0, #4294967295	@ 0xffffffff
100132f4:	4683      	mov	fp, r0
100132f6:	f000 82c9 	beq.w	1001388c <_svfprintf_r+0x1994>
100132fa:	952b      	str	r5, [sp, #172]	@ 0xac
100132fc:	e745      	b.n	1001318a <_svfprintf_r+0x1292>
100132fe:	4645      	mov	r5, r8
10013300:	460c      	mov	r4, r1
10013302:	4690      	mov	r8, r2
10013304:	3301      	adds	r3, #1
10013306:	9a15      	ldr	r2, [sp, #84]	@ 0x54
10013308:	f8c8 2000 	str.w	r2, [r8]
1001330c:	4434      	add	r4, r6
1001330e:	2b07      	cmp	r3, #7
10013310:	e9cd 3433 	strd	r3, r4, [sp, #204]	@ 0xcc
10013314:	f8c8 6004 	str.w	r6, [r8, #4]
10013318:	f300 8103 	bgt.w	10013522 <_svfprintf_r+0x162a>
1001331c:	f108 0808 	add.w	r8, r8, #8
10013320:	f7ff bbb6 	b.w	10012a90 <_svfprintf_r+0xb98>
10013324:	9b1e      	ldr	r3, [sp, #120]	@ 0x78
10013326:	991d      	ldr	r1, [sp, #116]	@ 0x74
10013328:	1aed      	subs	r5, r5, r3
1001332a:	461a      	mov	r2, r3
1001332c:	4628      	mov	r0, r5
1001332e:	f002 fb45 	bl	100159bc <strncpy>
10013332:	f898 3001 	ldrb.w	r3, [r8, #1]
10013336:	b10b      	cbz	r3, 1001333c <_svfprintf_r+0x1444>
10013338:	f108 0801 	add.w	r8, r8, #1
1001333c:	f04f 0c00 	mov.w	ip, #0
10013340:	e686      	b.n	10013050 <_svfprintf_r+0x1158>
10013342:	222d      	movs	r2, #45	@ 0x2d
10013344:	f88d 209f 	strb.w	r2, [sp, #159]	@ 0x9f
10013348:	f7fe bfac 	b.w	100122a4 <_svfprintf_r+0x3ac>
1001334c:	f89d 209f 	ldrb.w	r2, [sp, #159]	@ 0x9f
10013350:	960d      	str	r6, [sp, #52]	@ 0x34
10013352:	f8cd b018 	str.w	fp, [sp, #24]
10013356:	f8cd b020 	str.w	fp, [sp, #32]
1001335a:	f8cd b050 	str.w	fp, [sp, #80]	@ 0x50
1001335e:	f8cd b040 	str.w	fp, [sp, #64]	@ 0x40
10013362:	f8cd b048 	str.w	fp, [sp, #72]	@ 0x48
10013366:	f8cd b030 	str.w	fp, [sp, #48]	@ 0x30
1001336a:	f7fe bfac 	b.w	100122c6 <_svfprintf_r+0x3ce>
1001336e:	9909      	ldr	r1, [sp, #36]	@ 0x24
10013370:	9807      	ldr	r0, [sp, #28]
10013372:	aa32      	add	r2, sp, #200	@ 0xc8
10013374:	f002 fd78 	bl	10015e68 <__ssprint_r>
10013378:	2800      	cmp	r0, #0
1001337a:	f47f aa74 	bne.w	10012866 <_svfprintf_r+0x96e>
1001337e:	9a29      	ldr	r2, [sp, #164]	@ 0xa4
10013380:	9c34      	ldr	r4, [sp, #208]	@ 0xd0
10013382:	f10d 08d4 	add.w	r8, sp, #212	@ 0xd4
10013386:	f7ff ba81 	b.w	1001288c <_svfprintf_r+0x994>
1001338a:	9b13      	ldr	r3, [sp, #76]	@ 0x4c
1001338c:	ebab 060a 	sub.w	r6, fp, sl
10013390:	1b5d      	subs	r5, r3, r5
10013392:	42ae      	cmp	r6, r5
10013394:	bfa8      	it	ge
10013396:	462e      	movge	r6, r5
10013398:	f7ff bbae 	b.w	10012af8 <_svfprintf_r+0xc00>
1001339c:	9b0d      	ldr	r3, [sp, #52]	@ 0x34
1001339e:	9a0a      	ldr	r2, [sp, #40]	@ 0x28
100133a0:	681b      	ldr	r3, [r3, #0]
100133a2:	801a      	strh	r2, [r3, #0]
100133a4:	f7ff b8b2 	b.w	1001250c <_svfprintf_r+0x614>
100133a8:	f343 12c0 	sbfx	r2, r3, #7, #1
100133ac:	4611      	mov	r1, r2
100133ae:	b25b      	sxtb	r3, r3
100133b0:	f7ff b83d 	b.w	1001242e <_svfprintf_r+0x536>
100133b4:	1001b134 	.word	0x1001b134
100133b8:	9e08      	ldr	r6, [sp, #32]
100133ba:	2302      	movs	r3, #2
100133bc:	e9cd 3600 	strd	r3, r6, [sp]
100133c0:	ab30      	add	r3, sp, #192	@ 0xc0
100133c2:	9304      	str	r3, [sp, #16]
100133c4:	ab2b      	add	r3, sp, #172	@ 0xac
100133c6:	9303      	str	r3, [sp, #12]
100133c8:	ab29      	add	r3, sp, #164	@ 0xa4
100133ca:	9302      	str	r3, [sp, #8]
100133cc:	9807      	ldr	r0, [sp, #28]
100133ce:	e9dd 2324 	ldrd	r2, r3, [sp, #144]	@ 0x90
100133d2:	f001 f815 	bl	10014400 <_dtoa_r>
100133d6:	9b0e      	ldr	r3, [sp, #56]	@ 0x38
100133d8:	2b67      	cmp	r3, #103	@ 0x67
100133da:	4605      	mov	r5, r0
100133dc:	f000 813b 	beq.w	10013656 <_svfprintf_r+0x175e>
100133e0:	9b0e      	ldr	r3, [sp, #56]	@ 0x38
100133e2:	2b47      	cmp	r3, #71	@ 0x47
100133e4:	f000 8137 	beq.w	10013656 <_svfprintf_r+0x175e>
100133e8:	9b0e      	ldr	r3, [sp, #56]	@ 0x38
100133ea:	f023 0720 	bic.w	r7, r3, #32
100133ee:	2f46      	cmp	r7, #70	@ 0x46
100133f0:	eb00 0406 	add.w	r4, r0, r6
100133f4:	d105      	bne.n	10013402 <_svfprintf_r+0x150a>
100133f6:	7803      	ldrb	r3, [r0, #0]
100133f8:	2b30      	cmp	r3, #48	@ 0x30
100133fa:	f000 82f1 	beq.w	100139e0 <_svfprintf_r+0x1ae8>
100133fe:	9e29      	ldr	r6, [sp, #164]	@ 0xa4
10013400:	4434      	add	r4, r6
10013402:	e9dd 0124 	ldrd	r0, r1, [sp, #144]	@ 0x90
10013406:	2200      	movs	r2, #0
10013408:	2300      	movs	r3, #0
1001340a:	f007 fb41 	bl	1001aa90 <__aeabi_dcmpeq>
1001340e:	2800      	cmp	r0, #0
10013410:	f000 813f 	beq.w	10013692 <_svfprintf_r+0x179a>
10013414:	4623      	mov	r3, r4
10013416:	1b5b      	subs	r3, r3, r5
10013418:	9313      	str	r3, [sp, #76]	@ 0x4c
1001341a:	9a29      	ldr	r2, [sp, #164]	@ 0xa4
1001341c:	9212      	str	r2, [sp, #72]	@ 0x48
1001341e:	2f47      	cmp	r7, #71	@ 0x47
10013420:	f000 8121 	beq.w	10013666 <_svfprintf_r+0x176e>
10013424:	2f46      	cmp	r7, #70	@ 0x46
10013426:	f000 81e3 	beq.w	100137f0 <_svfprintf_r+0x18f8>
1001342a:	990e      	ldr	r1, [sp, #56]	@ 0x38
1001342c:	1e53      	subs	r3, r2, #1
1001342e:	2961      	cmp	r1, #97	@ 0x61
10013430:	9329      	str	r3, [sp, #164]	@ 0xa4
10013432:	f000 8316 	beq.w	10013a62 <_svfprintf_r+0x1b6a>
10013436:	2941      	cmp	r1, #65	@ 0x41
10013438:	f040 8120 	bne.w	1001367c <_svfprintf_r+0x1784>
1001343c:	2150      	movs	r1, #80	@ 0x50
1001343e:	2001      	movs	r0, #1
10013440:	2b00      	cmp	r3, #0
10013442:	bfb6      	itet	lt
10013444:	f1c2 0301 	rsblt	r3, r2, #1
10013448:	222b      	movge	r2, #43	@ 0x2b
1001344a:	222d      	movlt	r2, #45	@ 0x2d
1001344c:	2b09      	cmp	r3, #9
1001344e:	f88d 10b0 	strb.w	r1, [sp, #176]	@ 0xb0
10013452:	f88d 20b1 	strb.w	r2, [sp, #177]	@ 0xb1
10013456:	f340 8227 	ble.w	100138a8 <_svfprintf_r+0x19b0>
1001345a:	f10d 04c7 	add.w	r4, sp, #199	@ 0xc7
1001345e:	4eae      	ldr	r6, [pc, #696]	@ (10013718 <_svfprintf_r+0x1820>)
10013460:	4622      	mov	r2, r4
10013462:	4610      	mov	r0, r2
10013464:	fba6 1203 	umull	r1, r2, r6, r3
10013468:	08d2      	lsrs	r2, r2, #3
1001346a:	eb02 0182 	add.w	r1, r2, r2, lsl #2
1001346e:	eba3 0141 	sub.w	r1, r3, r1, lsl #1
10013472:	3130      	adds	r1, #48	@ 0x30
10013474:	f800 1c01 	strb.w	r1, [r0, #-1]
10013478:	4619      	mov	r1, r3
1001347a:	2963      	cmp	r1, #99	@ 0x63
1001347c:	4613      	mov	r3, r2
1001347e:	f100 32ff 	add.w	r2, r0, #4294967295	@ 0xffffffff
10013482:	dcee      	bgt.n	10013462 <_svfprintf_r+0x156a>
10013484:	3330      	adds	r3, #48	@ 0x30
10013486:	f802 3c01 	strb.w	r3, [r2, #-1]
1001348a:	1e83      	subs	r3, r0, #2
1001348c:	42a3      	cmp	r3, r4
1001348e:	f080 82ed 	bcs.w	10013a6c <_svfprintf_r+0x1b74>
10013492:	f10d 02b1 	add.w	r2, sp, #177	@ 0xb1
10013496:	f813 1b01 	ldrb.w	r1, [r3], #1
1001349a:	f802 1f01 	strb.w	r1, [r2, #1]!
1001349e:	42a3      	cmp	r3, r4
100134a0:	d1f9      	bne.n	10013496 <_svfprintf_r+0x159e>
100134a2:	ab5e      	add	r3, sp, #376	@ 0x178
100134a4:	1a18      	subs	r0, r3, r0
100134a6:	f1a0 03ad 	sub.w	r3, r0, #173	@ 0xad
100134aa:	931c      	str	r3, [sp, #112]	@ 0x70
100134ac:	9b13      	ldr	r3, [sp, #76]	@ 0x4c
100134ae:	9a1c      	ldr	r2, [sp, #112]	@ 0x70
100134b0:	2b01      	cmp	r3, #1
100134b2:	eb03 0b02 	add.w	fp, r3, r2
100134b6:	f340 822a 	ble.w	1001390e <_svfprintf_r+0x1a16>
100134ba:	9b18      	ldr	r3, [sp, #96]	@ 0x60
100134bc:	449b      	add	fp, r3
100134be:	9b06      	ldr	r3, [sp, #24]
100134c0:	f423 6380 	bic.w	r3, r3, #1024	@ 0x400
100134c4:	f443 7980 	orr.w	r9, r3, #256	@ 0x100
100134c8:	ea2b 72eb 	bic.w	r2, fp, fp, asr #31
100134cc:	2300      	movs	r3, #0
100134ce:	9314      	str	r3, [sp, #80]	@ 0x50
100134d0:	9206      	str	r2, [sp, #24]
100134d2:	9310      	str	r3, [sp, #64]	@ 0x40
100134d4:	9312      	str	r3, [sp, #72]	@ 0x48
100134d6:	9b1f      	ldr	r3, [sp, #124]	@ 0x7c
100134d8:	2b00      	cmp	r3, #0
100134da:	f040 80d3 	bne.w	10013684 <_svfprintf_r+0x178c>
100134de:	f89d 209f 	ldrb.w	r2, [sp, #159]	@ 0x9f
100134e2:	9308      	str	r3, [sp, #32]
100134e4:	f7fe beef 	b.w	100122c6 <_svfprintf_r+0x3ce>
100134e8:	9c09      	ldr	r4, [sp, #36]	@ 0x24
100134ea:	aa32      	add	r2, sp, #200	@ 0xc8
100134ec:	4621      	mov	r1, r4
100134ee:	4658      	mov	r0, fp
100134f0:	f002 fcba 	bl	10015e68 <__ssprint_r>
100134f4:	89a3      	ldrh	r3, [r4, #12]
100134f6:	f003 0340 	and.w	r3, r3, #64	@ 0x40
100134fa:	f7fe be06 	b.w	1001210a <_svfprintf_r+0x212>
100134fe:	4628      	mov	r0, r5
10013500:	960d      	str	r6, [sp, #52]	@ 0x34
10013502:	f002 f85d 	bl	100155c0 <strlen>
10013506:	4683      	mov	fp, r0
10013508:	f7fe bf74 	b.w	100123f4 <_svfprintf_r+0x4fc>
1001350c:	9807      	ldr	r0, [sp, #28]
1001350e:	f10b 0101 	add.w	r1, fp, #1
10013512:	f000 fac1 	bl	10013a98 <_malloc_r>
10013516:	4605      	mov	r5, r0
10013518:	2800      	cmp	r0, #0
1001351a:	f000 81b7 	beq.w	1001388c <_svfprintf_r+0x1994>
1001351e:	900c      	str	r0, [sp, #48]	@ 0x30
10013520:	e63e      	b.n	100131a0 <_svfprintf_r+0x12a8>
10013522:	9909      	ldr	r1, [sp, #36]	@ 0x24
10013524:	9807      	ldr	r0, [sp, #28]
10013526:	aa32      	add	r2, sp, #200	@ 0xc8
10013528:	f002 fc9e 	bl	10015e68 <__ssprint_r>
1001352c:	2800      	cmp	r0, #0
1001352e:	f47f a99a 	bne.w	10012866 <_svfprintf_r+0x96e>
10013532:	9c34      	ldr	r4, [sp, #208]	@ 0xd0
10013534:	f10d 08d4 	add.w	r8, sp, #212	@ 0xd4
10013538:	f7ff baaa 	b.w	10012a90 <_svfprintf_r+0xb98>
1001353c:	9909      	ldr	r1, [sp, #36]	@ 0x24
1001353e:	9807      	ldr	r0, [sp, #28]
10013540:	aa32      	add	r2, sp, #200	@ 0xc8
10013542:	f002 fc91 	bl	10015e68 <__ssprint_r>
10013546:	2800      	cmp	r0, #0
10013548:	f47f a98d 	bne.w	10012866 <_svfprintf_r+0x96e>
1001354c:	e9dd 3433 	ldrd	r3, r4, [sp, #204]	@ 0xcc
10013550:	9a29      	ldr	r2, [sp, #164]	@ 0xa4
10013552:	f10d 08d4 	add.w	r8, sp, #212	@ 0xd4
10013556:	e68f      	b.n	10013278 <_svfprintf_r+0x1380>
10013558:	2306      	movs	r3, #6
1001355a:	9308      	str	r3, [sp, #32]
1001355c:	f7ff bbf1 	b.w	10012d42 <_svfprintf_r+0xe4a>
10013560:	9b08      	ldr	r3, [sp, #32]
10013562:	1c5e      	adds	r6, r3, #1
10013564:	2302      	movs	r3, #2
10013566:	e729      	b.n	100133bc <_svfprintf_r+0x14c4>
10013568:	9e08      	ldr	r6, [sp, #32]
1001356a:	2303      	movs	r3, #3
1001356c:	e726      	b.n	100133bc <_svfprintf_r+0x14c4>
1001356e:	aa29      	add	r2, sp, #164	@ 0xa4
10013570:	e9dd 0124 	ldrd	r0, r1, [sp, #144]	@ 0x90
10013574:	f002 f890 	bl	10015698 <frexp>
10013578:	2200      	movs	r2, #0
1001357a:	f04f 537f 	mov.w	r3, #1069547520	@ 0x3fc00000
1001357e:	f007 f81f 	bl	1001a5c0 <__aeabi_dmul>
10013582:	4602      	mov	r2, r0
10013584:	460b      	mov	r3, r1
10013586:	e9cd 2310 	strd	r2, r3, [sp, #64]	@ 0x40
1001358a:	2200      	movs	r2, #0
1001358c:	2300      	movs	r3, #0
1001358e:	f007 fa7f 	bl	1001aa90 <__aeabi_dcmpeq>
10013592:	2800      	cmp	r0, #0
10013594:	f040 81c0 	bne.w	10013918 <_svfprintf_r+0x1a20>
10013598:	4b60      	ldr	r3, [pc, #384]	@ (1001371c <_svfprintf_r+0x1824>)
1001359a:	9312      	str	r3, [sp, #72]	@ 0x48
1001359c:	9b08      	ldr	r3, [sp, #32]
1001359e:	f8cd 804c 	str.w	r8, [sp, #76]	@ 0x4c
100135a2:	f103 39ff 	add.w	r9, r3, #4294967295	@ 0xffffffff
100135a6:	462e      	mov	r6, r5
100135a8:	9514      	str	r5, [sp, #80]	@ 0x50
100135aa:	f8dd b048 	ldr.w	fp, [sp, #72]	@ 0x48
100135ae:	464d      	mov	r5, r9
100135b0:	e9dd 8910 	ldrd	r8, r9, [sp, #64]	@ 0x40
100135b4:	e005      	b.n	100135c2 <_svfprintf_r+0x16ca>
100135b6:	2200      	movs	r2, #0
100135b8:	2300      	movs	r3, #0
100135ba:	f007 fa69 	bl	1001aa90 <__aeabi_dcmpeq>
100135be:	b9f0      	cbnz	r0, 100135fe <_svfprintf_r+0x1706>
100135c0:	463d      	mov	r5, r7
100135c2:	4b57      	ldr	r3, [pc, #348]	@ (10013720 <_svfprintf_r+0x1828>)
100135c4:	2200      	movs	r2, #0
100135c6:	4640      	mov	r0, r8
100135c8:	4649      	mov	r1, r9
100135ca:	f006 fff9 	bl	1001a5c0 <__aeabi_dmul>
100135ce:	4689      	mov	r9, r1
100135d0:	4680      	mov	r8, r0
100135d2:	f007 faa5 	bl	1001ab20 <__aeabi_d2iz>
100135d6:	4604      	mov	r4, r0
100135d8:	f006 ff88 	bl	1001a4ec <__aeabi_i2d>
100135dc:	460b      	mov	r3, r1
100135de:	4602      	mov	r2, r0
100135e0:	4649      	mov	r1, r9
100135e2:	4640      	mov	r0, r8
100135e4:	f006 fe34 	bl	1001a250 <__aeabi_dsub>
100135e8:	f81b 3004 	ldrb.w	r3, [fp, r4]
100135ec:	46b2      	mov	sl, r6
100135ee:	f806 3b01 	strb.w	r3, [r6], #1
100135f2:	1c6b      	adds	r3, r5, #1
100135f4:	f105 37ff 	add.w	r7, r5, #4294967295	@ 0xffffffff
100135f8:	4680      	mov	r8, r0
100135fa:	4689      	mov	r9, r1
100135fc:	d1db      	bne.n	100135b6 <_svfprintf_r+0x16be>
100135fe:	46cb      	mov	fp, r9
10013600:	4657      	mov	r7, sl
10013602:	46c2      	mov	sl, r8
10013604:	4b47      	ldr	r3, [pc, #284]	@ (10013724 <_svfprintf_r+0x182c>)
10013606:	f8dd 804c 	ldr.w	r8, [sp, #76]	@ 0x4c
1001360a:	2200      	movs	r2, #0
1001360c:	4650      	mov	r0, sl
1001360e:	4659      	mov	r1, fp
10013610:	46a9      	mov	r9, r5
10013612:	9d14      	ldr	r5, [sp, #80]	@ 0x50
10013614:	f007 fa64 	bl	1001aae0 <__aeabi_dcmpgt>
10013618:	2800      	cmp	r0, #0
1001361a:	f040 8153 	bne.w	100138c4 <_svfprintf_r+0x19cc>
1001361e:	4b41      	ldr	r3, [pc, #260]	@ (10013724 <_svfprintf_r+0x182c>)
10013620:	4650      	mov	r0, sl
10013622:	4659      	mov	r1, fp
10013624:	2200      	movs	r2, #0
10013626:	f007 fa33 	bl	1001aa90 <__aeabi_dcmpeq>
1001362a:	b110      	cbz	r0, 10013632 <_svfprintf_r+0x173a>
1001362c:	07e2      	lsls	r2, r4, #31
1001362e:	f100 8149 	bmi.w	100138c4 <_svfprintf_r+0x19cc>
10013632:	f1b9 0f00 	cmp.w	r9, #0
10013636:	f2c0 815f 	blt.w	100138f8 <_svfprintf_r+0x1a00>
1001363a:	f109 0301 	add.w	r3, r9, #1
1001363e:	4433      	add	r3, r6
10013640:	2230      	movs	r2, #48	@ 0x30
10013642:	f806 2b01 	strb.w	r2, [r6], #1
10013646:	42b3      	cmp	r3, r6
10013648:	d1fb      	bne.n	10013642 <_svfprintf_r+0x174a>
1001364a:	1b5b      	subs	r3, r3, r5
1001364c:	9313      	str	r3, [sp, #76]	@ 0x4c
1001364e:	9b0e      	ldr	r3, [sp, #56]	@ 0x38
10013650:	f023 0720 	bic.w	r7, r3, #32
10013654:	e6e1      	b.n	1001341a <_svfprintf_r+0x1522>
10013656:	9b06      	ldr	r3, [sp, #24]
10013658:	07db      	lsls	r3, r3, #31
1001365a:	f100 80f9 	bmi.w	10013850 <_svfprintf_r+0x1958>
1001365e:	9b30      	ldr	r3, [sp, #192]	@ 0xc0
10013660:	9a29      	ldr	r2, [sp, #164]	@ 0xa4
10013662:	1b5b      	subs	r3, r3, r5
10013664:	9313      	str	r3, [sp, #76]	@ 0x4c
10013666:	1cd3      	adds	r3, r2, #3
10013668:	9212      	str	r2, [sp, #72]	@ 0x48
1001366a:	db02      	blt.n	10013672 <_svfprintf_r+0x177a>
1001366c:	9b08      	ldr	r3, [sp, #32]
1001366e:	4293      	cmp	r3, r2
10013670:	da1b      	bge.n	100136aa <_svfprintf_r+0x17b2>
10013672:	9b0e      	ldr	r3, [sp, #56]	@ 0x38
10013674:	3b02      	subs	r3, #2
10013676:	930e      	str	r3, [sp, #56]	@ 0x38
10013678:	1e53      	subs	r3, r2, #1
1001367a:	9329      	str	r3, [sp, #164]	@ 0xa4
1001367c:	f89d 1038 	ldrb.w	r1, [sp, #56]	@ 0x38
10013680:	2000      	movs	r0, #0
10013682:	e6dd      	b.n	10013440 <_svfprintf_r+0x1548>
10013684:	222d      	movs	r2, #45	@ 0x2d
10013686:	2300      	movs	r3, #0
10013688:	f88d 209f 	strb.w	r2, [sp, #159]	@ 0x9f
1001368c:	9308      	str	r3, [sp, #32]
1001368e:	f7fe be1d 	b.w	100122cc <_svfprintf_r+0x3d4>
10013692:	9b30      	ldr	r3, [sp, #192]	@ 0xc0
10013694:	42a3      	cmp	r3, r4
10013696:	f4bf aebe 	bcs.w	10013416 <_svfprintf_r+0x151e>
1001369a:	2130      	movs	r1, #48	@ 0x30
1001369c:	1c5a      	adds	r2, r3, #1
1001369e:	9230      	str	r2, [sp, #192]	@ 0xc0
100136a0:	7019      	strb	r1, [r3, #0]
100136a2:	9b30      	ldr	r3, [sp, #192]	@ 0xc0
100136a4:	429c      	cmp	r4, r3
100136a6:	d8f9      	bhi.n	1001369c <_svfprintf_r+0x17a4>
100136a8:	e6b5      	b.n	10013416 <_svfprintf_r+0x151e>
100136aa:	9913      	ldr	r1, [sp, #76]	@ 0x4c
100136ac:	428a      	cmp	r2, r1
100136ae:	f2c0 80c4 	blt.w	1001383a <_svfprintf_r+0x1942>
100136b2:	9b06      	ldr	r3, [sp, #24]
100136b4:	07de      	lsls	r6, r3, #31
100136b6:	f140 8184 	bpl.w	100139c2 <_svfprintf_r+0x1aca>
100136ba:	9b18      	ldr	r3, [sp, #96]	@ 0x60
100136bc:	eb02 0b03 	add.w	fp, r2, r3
100136c0:	9b06      	ldr	r3, [sp, #24]
100136c2:	055c      	lsls	r4, r3, #21
100136c4:	d502      	bpl.n	100136cc <_svfprintf_r+0x17d4>
100136c6:	2a00      	cmp	r2, #0
100136c8:	f300 814d 	bgt.w	10013966 <_svfprintf_r+0x1a6e>
100136cc:	ea2b 73eb 	bic.w	r3, fp, fp, asr #31
100136d0:	9306      	str	r3, [sp, #24]
100136d2:	f8dd 9054 	ldr.w	r9, [sp, #84]	@ 0x54
100136d6:	2367      	movs	r3, #103	@ 0x67
100136d8:	930e      	str	r3, [sp, #56]	@ 0x38
100136da:	2300      	movs	r3, #0
100136dc:	9314      	str	r3, [sp, #80]	@ 0x50
100136de:	9310      	str	r3, [sp, #64]	@ 0x40
100136e0:	e6f9      	b.n	100134d6 <_svfprintf_r+0x15de>
100136e2:	9909      	ldr	r1, [sp, #36]	@ 0x24
100136e4:	aa32      	add	r2, sp, #200	@ 0xc8
100136e6:	4658      	mov	r0, fp
100136e8:	f002 fbbe 	bl	10015e68 <__ssprint_r>
100136ec:	2800      	cmp	r0, #0
100136ee:	f47f aaa8 	bne.w	10012c42 <_svfprintf_r+0xd4a>
100136f2:	f89a 0000 	ldrb.w	r0, [sl]
100136f6:	9934      	ldr	r1, [sp, #208]	@ 0xd0
100136f8:	aa35      	add	r2, sp, #212	@ 0xd4
100136fa:	4404      	add	r4, r0
100136fc:	e430      	b.n	10012f60 <_svfprintf_r+0x1068>
100136fe:	9909      	ldr	r1, [sp, #36]	@ 0x24
10013700:	9807      	ldr	r0, [sp, #28]
10013702:	aa32      	add	r2, sp, #200	@ 0xc8
10013704:	f002 fbb0 	bl	10015e68 <__ssprint_r>
10013708:	2800      	cmp	r0, #0
1001370a:	f47f a8ac 	bne.w	10012866 <_svfprintf_r+0x96e>
1001370e:	9c34      	ldr	r4, [sp, #208]	@ 0xd0
10013710:	f10d 08d4 	add.w	r8, sp, #212	@ 0xd4
10013714:	f7ff b9b5 	b.w	10012a82 <_svfprintf_r+0xb8a>
10013718:	cccccccd 	.word	0xcccccccd
1001371c:	1001b114 	.word	0x1001b114
10013720:	40300000 	.word	0x40300000
10013724:	3fe00000 	.word	0x3fe00000
10013728:	2378      	movs	r3, #120	@ 0x78
1001372a:	f88d 30a1 	strb.w	r3, [sp, #161]	@ 0xa1
1001372e:	2330      	movs	r3, #48	@ 0x30
10013730:	f88d 30a0 	strb.w	r3, [sp, #160]	@ 0xa0
10013734:	f049 0302 	orr.w	r3, r9, #2
10013738:	9306      	str	r3, [sp, #24]
1001373a:	9b08      	ldr	r3, [sp, #32]
1001373c:	2b63      	cmp	r3, #99	@ 0x63
1001373e:	f300 80dd 	bgt.w	100138fc <_svfprintf_r+0x1a04>
10013742:	2300      	movs	r3, #0
10013744:	930c      	str	r3, [sp, #48]	@ 0x30
10013746:	ad45      	add	r5, sp, #276	@ 0x114
10013748:	f449 7381 	orr.w	r3, r9, #258	@ 0x102
1001374c:	9315      	str	r3, [sp, #84]	@ 0x54
1001374e:	9b17      	ldr	r3, [sp, #92]	@ 0x5c
10013750:	2b00      	cmp	r3, #0
10013752:	db22      	blt.n	1001379a <_svfprintf_r+0x18a2>
10013754:	ed9d 7b16 	vldr	d7, [sp, #88]	@ 0x58
10013758:	ed8d 7b24 	vstr	d7, [sp, #144]	@ 0x90
1001375c:	2300      	movs	r3, #0
1001375e:	931f      	str	r3, [sp, #124]	@ 0x7c
10013760:	9b0e      	ldr	r3, [sp, #56]	@ 0x38
10013762:	2b61      	cmp	r3, #97	@ 0x61
10013764:	f47f aafd 	bne.w	10012d62 <_svfprintf_r+0xe6a>
10013768:	aa29      	add	r2, sp, #164	@ 0xa4
1001376a:	e9dd 0124 	ldrd	r0, r1, [sp, #144]	@ 0x90
1001376e:	f001 ff93 	bl	10015698 <frexp>
10013772:	2200      	movs	r2, #0
10013774:	f04f 537f 	mov.w	r3, #1069547520	@ 0x3fc00000
10013778:	f006 ff22 	bl	1001a5c0 <__aeabi_dmul>
1001377c:	4602      	mov	r2, r0
1001377e:	460b      	mov	r3, r1
10013780:	e9cd 2310 	strd	r2, r3, [sp, #64]	@ 0x40
10013784:	2200      	movs	r2, #0
10013786:	2300      	movs	r3, #0
10013788:	f007 f982 	bl	1001aa90 <__aeabi_dcmpeq>
1001378c:	2800      	cmp	r0, #0
1001378e:	f040 80c3 	bne.w	10013918 <_svfprintf_r+0x1a20>
10013792:	4ba8      	ldr	r3, [pc, #672]	@ (10013a34 <_svfprintf_r+0x1b3c>)
10013794:	9312      	str	r3, [sp, #72]	@ 0x48
10013796:	e701      	b.n	1001359c <_svfprintf_r+0x16a4>
10013798:	930c      	str	r3, [sp, #48]	@ 0x30
1001379a:	e9dd 1216 	ldrd	r1, r2, [sp, #88]	@ 0x58
1001379e:	f102 4300 	add.w	r3, r2, #2147483648	@ 0x80000000
100137a2:	9325      	str	r3, [sp, #148]	@ 0x94
100137a4:	232d      	movs	r3, #45	@ 0x2d
100137a6:	9124      	str	r1, [sp, #144]	@ 0x90
100137a8:	931f      	str	r3, [sp, #124]	@ 0x7c
100137aa:	e7d9      	b.n	10013760 <_svfprintf_r+0x1868>
100137ac:	9909      	ldr	r1, [sp, #36]	@ 0x24
100137ae:	9807      	ldr	r0, [sp, #28]
100137b0:	aa32      	add	r2, sp, #200	@ 0xc8
100137b2:	f002 fb59 	bl	10015e68 <__ssprint_r>
100137b6:	2800      	cmp	r0, #0
100137b8:	f47f a855 	bne.w	10012866 <_svfprintf_r+0x96e>
100137bc:	9d29      	ldr	r5, [sp, #164]	@ 0xa4
100137be:	9c34      	ldr	r4, [sp, #208]	@ 0xd0
100137c0:	f10d 08d4 	add.w	r8, sp, #212	@ 0xd4
100137c4:	f7ff b981 	b.w	10012aca <_svfprintf_r+0xbd2>
100137c8:	499b      	ldr	r1, [pc, #620]	@ (10013a38 <_svfprintf_r+0x1b40>)
100137ca:	9115      	str	r1, [sp, #84]	@ 0x54
100137cc:	f7fe bdb2 	b.w	10012334 <_svfprintf_r+0x43c>
100137d0:	9909      	ldr	r1, [sp, #36]	@ 0x24
100137d2:	9807      	ldr	r0, [sp, #28]
100137d4:	aa32      	add	r2, sp, #200	@ 0xc8
100137d6:	f002 fb47 	bl	10015e68 <__ssprint_r>
100137da:	2800      	cmp	r0, #0
100137dc:	f47f a843 	bne.w	10012866 <_svfprintf_r+0x96e>
100137e0:	9d29      	ldr	r5, [sp, #164]	@ 0xa4
100137e2:	9b13      	ldr	r3, [sp, #76]	@ 0x4c
100137e4:	9c34      	ldr	r4, [sp, #208]	@ 0xd0
100137e6:	1b5d      	subs	r5, r3, r5
100137e8:	f10d 08d4 	add.w	r8, sp, #212	@ 0xd4
100137ec:	f7ff b984 	b.w	10012af8 <_svfprintf_r+0xc00>
100137f0:	9b06      	ldr	r3, [sp, #24]
100137f2:	9912      	ldr	r1, [sp, #72]	@ 0x48
100137f4:	9a08      	ldr	r2, [sp, #32]
100137f6:	f003 0301 	and.w	r3, r3, #1
100137fa:	2900      	cmp	r1, #0
100137fc:	ea43 0302 	orr.w	r3, r3, r2
10013800:	f340 810f 	ble.w	10013a22 <_svfprintf_r+0x1b2a>
10013804:	2b00      	cmp	r3, #0
10013806:	f040 80d5 	bne.w	100139b4 <_svfprintf_r+0x1abc>
1001380a:	2366      	movs	r3, #102	@ 0x66
1001380c:	f8dd b048 	ldr.w	fp, [sp, #72]	@ 0x48
10013810:	930e      	str	r3, [sp, #56]	@ 0x38
10013812:	9b06      	ldr	r3, [sp, #24]
10013814:	055a      	lsls	r2, r3, #21
10013816:	f100 80a8 	bmi.w	1001396a <_svfprintf_r+0x1a72>
1001381a:	ea2b 73eb 	bic.w	r3, fp, fp, asr #31
1001381e:	f8dd 9054 	ldr.w	r9, [sp, #84]	@ 0x54
10013822:	9306      	str	r3, [sp, #24]
10013824:	e759      	b.n	100136da <_svfprintf_r+0x17e2>
10013826:	2358      	movs	r3, #88	@ 0x58
10013828:	e77f      	b.n	1001372a <_svfprintf_r+0x1832>
1001382a:	2200      	movs	r2, #0
1001382c:	9208      	str	r2, [sp, #32]
1001382e:	f7fe bbbb 	b.w	10011fa8 <_svfprintf_r+0xb0>
10013832:	4a81      	ldr	r2, [pc, #516]	@ (10013a38 <_svfprintf_r+0x1b40>)
10013834:	9215      	str	r2, [sp, #84]	@ 0x54
10013836:	f7ff b8ef 	b.w	10012a18 <_svfprintf_r+0xb20>
1001383a:	9b13      	ldr	r3, [sp, #76]	@ 0x4c
1001383c:	9a18      	ldr	r2, [sp, #96]	@ 0x60
1001383e:	eb03 0b02 	add.w	fp, r3, r2
10013842:	9b12      	ldr	r3, [sp, #72]	@ 0x48
10013844:	2b00      	cmp	r3, #0
10013846:	f340 8083 	ble.w	10013950 <_svfprintf_r+0x1a58>
1001384a:	2367      	movs	r3, #103	@ 0x67
1001384c:	930e      	str	r3, [sp, #56]	@ 0x38
1001384e:	e7e0      	b.n	10013812 <_svfprintf_r+0x191a>
10013850:	19ac      	adds	r4, r5, r6
10013852:	2747      	movs	r7, #71	@ 0x47
10013854:	e5d5      	b.n	10013402 <_svfprintf_r+0x150a>
10013856:	4655      	mov	r5, sl
10013858:	3301      	adds	r3, #1
1001385a:	9a15      	ldr	r2, [sp, #84]	@ 0x54
1001385c:	f8c8 2000 	str.w	r2, [r8]
10013860:	4434      	add	r4, r6
10013862:	2b07      	cmp	r3, #7
10013864:	e9cd 3433 	strd	r3, r4, [sp, #204]	@ 0xcc
10013868:	f8c8 6004 	str.w	r6, [r8, #4]
1001386c:	f77f a823 	ble.w	100128b6 <_svfprintf_r+0x9be>
10013870:	9909      	ldr	r1, [sp, #36]	@ 0x24
10013872:	9807      	ldr	r0, [sp, #28]
10013874:	aa32      	add	r2, sp, #200	@ 0xc8
10013876:	f002 faf7 	bl	10015e68 <__ssprint_r>
1001387a:	2800      	cmp	r0, #0
1001387c:	f47e aff3 	bne.w	10012866 <_svfprintf_r+0x96e>
10013880:	e9dd 3433 	ldrd	r3, r4, [sp, #204]	@ 0xcc
10013884:	f10d 08d4 	add.w	r8, sp, #212	@ 0xd4
10013888:	f7ff b817 	b.w	100128ba <_svfprintf_r+0x9c2>
1001388c:	9a09      	ldr	r2, [sp, #36]	@ 0x24
1001388e:	8993      	ldrh	r3, [r2, #12]
10013890:	f043 0340 	orr.w	r3, r3, #64	@ 0x40
10013894:	8193      	strh	r3, [r2, #12]
10013896:	f04f 33ff 	mov.w	r3, #4294967295	@ 0xffffffff
1001389a:	930a      	str	r3, [sp, #40]	@ 0x28
1001389c:	f7fe bc38 	b.w	10012110 <_svfprintf_r+0x218>
100138a0:	4a66      	ldr	r2, [pc, #408]	@ (10013a3c <_svfprintf_r+0x1b44>)
100138a2:	9215      	str	r2, [sp, #84]	@ 0x54
100138a4:	f7fe bf84 	b.w	100127b0 <_svfprintf_r+0x8b8>
100138a8:	2800      	cmp	r0, #0
100138aa:	d13f      	bne.n	1001392c <_svfprintf_r+0x1a34>
100138ac:	2230      	movs	r2, #48	@ 0x30
100138ae:	f88d 20b2 	strb.w	r2, [sp, #178]	@ 0xb2
100138b2:	f10d 02b3 	add.w	r2, sp, #179	@ 0xb3
100138b6:	3330      	adds	r3, #48	@ 0x30
100138b8:	f802 3b01 	strb.w	r3, [r2], #1
100138bc:	ab2c      	add	r3, sp, #176	@ 0xb0
100138be:	1ad3      	subs	r3, r2, r3
100138c0:	931c      	str	r3, [sp, #112]	@ 0x70
100138c2:	e5f3      	b.n	100134ac <_svfprintf_r+0x15b4>
100138c4:	9b12      	ldr	r3, [sp, #72]	@ 0x48
100138c6:	9730      	str	r7, [sp, #192]	@ 0xc0
100138c8:	7bd9      	ldrb	r1, [r3, #15]
100138ca:	f816 2c01 	ldrb.w	r2, [r6, #-1]
100138ce:	428a      	cmp	r2, r1
100138d0:	4633      	mov	r3, r6
100138d2:	d109      	bne.n	100138e8 <_svfprintf_r+0x19f0>
100138d4:	2030      	movs	r0, #48	@ 0x30
100138d6:	f803 0c01 	strb.w	r0, [r3, #-1]
100138da:	9b30      	ldr	r3, [sp, #192]	@ 0xc0
100138dc:	1e5a      	subs	r2, r3, #1
100138de:	9230      	str	r2, [sp, #192]	@ 0xc0
100138e0:	f813 2c01 	ldrb.w	r2, [r3, #-1]
100138e4:	4291      	cmp	r1, r2
100138e6:	d0f6      	beq.n	100138d6 <_svfprintf_r+0x19de>
100138e8:	2a39      	cmp	r2, #57	@ 0x39
100138ea:	bf0b      	itete	eq
100138ec:	9a12      	ldreq	r2, [sp, #72]	@ 0x48
100138ee:	3201      	addne	r2, #1
100138f0:	7a92      	ldrbeq	r2, [r2, #10]
100138f2:	b2d2      	uxtbne	r2, r2
100138f4:	f803 2c01 	strb.w	r2, [r3, #-1]
100138f8:	4633      	mov	r3, r6
100138fa:	e6a6      	b.n	1001364a <_svfprintf_r+0x1752>
100138fc:	9807      	ldr	r0, [sp, #28]
100138fe:	1c59      	adds	r1, r3, #1
10013900:	f000 f8ca 	bl	10013a98 <_malloc_r>
10013904:	4605      	mov	r5, r0
10013906:	2800      	cmp	r0, #0
10013908:	d0c0      	beq.n	1001388c <_svfprintf_r+0x1994>
1001390a:	900c      	str	r0, [sp, #48]	@ 0x30
1001390c:	e71c      	b.n	10013748 <_svfprintf_r+0x1850>
1001390e:	9b06      	ldr	r3, [sp, #24]
10013910:	07df      	lsls	r7, r3, #31
10013912:	f57f add4 	bpl.w	100134be <_svfprintf_r+0x15c6>
10013916:	e5d0      	b.n	100134ba <_svfprintf_r+0x15c2>
10013918:	4b49      	ldr	r3, [pc, #292]	@ (10013a40 <_svfprintf_r+0x1b48>)
1001391a:	4a46      	ldr	r2, [pc, #280]	@ (10013a34 <_svfprintf_r+0x1b3c>)
1001391c:	990e      	ldr	r1, [sp, #56]	@ 0x38
1001391e:	2961      	cmp	r1, #97	@ 0x61
10013920:	bf18      	it	ne
10013922:	461a      	movne	r2, r3
10013924:	2301      	movs	r3, #1
10013926:	9212      	str	r2, [sp, #72]	@ 0x48
10013928:	9329      	str	r3, [sp, #164]	@ 0xa4
1001392a:	e637      	b.n	1001359c <_svfprintf_r+0x16a4>
1001392c:	f10d 02b2 	add.w	r2, sp, #178	@ 0xb2
10013930:	e7c1      	b.n	100138b6 <_svfprintf_r+0x19be>
10013932:	9b17      	ldr	r3, [sp, #92]	@ 0x5c
10013934:	4d43      	ldr	r5, [pc, #268]	@ (10013a44 <_svfprintf_r+0x1b4c>)
10013936:	2b00      	cmp	r3, #0
10013938:	bfb4      	ite	lt
1001393a:	222d      	movlt	r2, #45	@ 0x2d
1001393c:	f89d 209f 	ldrbge.w	r2, [sp, #159]	@ 0x9f
10013940:	4b41      	ldr	r3, [pc, #260]	@ (10013a48 <_svfprintf_r+0x1b50>)
10013942:	bfb8      	it	lt
10013944:	f88d 209f 	strblt.w	r2, [sp, #159]	@ 0x9f
10013948:	f029 0980 	bic.w	r9, r9, #128	@ 0x80
1001394c:	f7fe bcae 	b.w	100122ac <_svfprintf_r+0x3b4>
10013950:	f1c3 0301 	rsb	r3, r3, #1
10013954:	449b      	add	fp, r3
10013956:	ea2b 73eb 	bic.w	r3, fp, fp, asr #31
1001395a:	9306      	str	r3, [sp, #24]
1001395c:	2367      	movs	r3, #103	@ 0x67
1001395e:	f8dd 9054 	ldr.w	r9, [sp, #84]	@ 0x54
10013962:	930e      	str	r3, [sp, #56]	@ 0x38
10013964:	e6b9      	b.n	100136da <_svfprintf_r+0x17e2>
10013966:	2367      	movs	r3, #103	@ 0x67
10013968:	930e      	str	r3, [sp, #56]	@ 0x38
1001396a:	991b      	ldr	r1, [sp, #108]	@ 0x6c
1001396c:	780b      	ldrb	r3, [r1, #0]
1001396e:	2bff      	cmp	r3, #255	@ 0xff
10013970:	f000 808c 	beq.w	10013a8c <_svfprintf_r+0x1b94>
10013974:	2400      	movs	r4, #0
10013976:	9a12      	ldr	r2, [sp, #72]	@ 0x48
10013978:	4620      	mov	r0, r4
1001397a:	e003      	b.n	10013984 <_svfprintf_r+0x1a8c>
1001397c:	3001      	adds	r0, #1
1001397e:	3101      	adds	r1, #1
10013980:	2bff      	cmp	r3, #255	@ 0xff
10013982:	d008      	beq.n	10013996 <_svfprintf_r+0x1a9e>
10013984:	4293      	cmp	r3, r2
10013986:	da06      	bge.n	10013996 <_svfprintf_r+0x1a9e>
10013988:	1ad2      	subs	r2, r2, r3
1001398a:	784b      	ldrb	r3, [r1, #1]
1001398c:	2b00      	cmp	r3, #0
1001398e:	d1f5      	bne.n	1001397c <_svfprintf_r+0x1a84>
10013990:	780b      	ldrb	r3, [r1, #0]
10013992:	3401      	adds	r4, #1
10013994:	e7f4      	b.n	10013980 <_svfprintf_r+0x1a88>
10013996:	911b      	str	r1, [sp, #108]	@ 0x6c
10013998:	9010      	str	r0, [sp, #64]	@ 0x40
1001399a:	9414      	str	r4, [sp, #80]	@ 0x50
1001399c:	9212      	str	r2, [sp, #72]	@ 0x48
1001399e:	e9dd 3914 	ldrd	r3, r9, [sp, #80]	@ 0x50
100139a2:	9a10      	ldr	r2, [sp, #64]	@ 0x40
100139a4:	4413      	add	r3, r2
100139a6:	9a1e      	ldr	r2, [sp, #120]	@ 0x78
100139a8:	fb02 bb03 	mla	fp, r2, r3, fp
100139ac:	ea2b 73eb 	bic.w	r3, fp, fp, asr #31
100139b0:	9306      	str	r3, [sp, #24]
100139b2:	e590      	b.n	100134d6 <_svfprintf_r+0x15de>
100139b4:	9b18      	ldr	r3, [sp, #96]	@ 0x60
100139b6:	18cf      	adds	r7, r1, r3
100139b8:	443a      	add	r2, r7
100139ba:	2366      	movs	r3, #102	@ 0x66
100139bc:	4693      	mov	fp, r2
100139be:	930e      	str	r3, [sp, #56]	@ 0x38
100139c0:	e727      	b.n	10013812 <_svfprintf_r+0x191a>
100139c2:	4693      	mov	fp, r2
100139c4:	e67c      	b.n	100136c0 <_svfprintf_r+0x17c8>
100139c6:	9b08      	ldr	r3, [sp, #32]
100139c8:	9306      	str	r3, [sp, #24]
100139ca:	469b      	mov	fp, r3
100139cc:	2373      	movs	r3, #115	@ 0x73
100139ce:	f89d 209f 	ldrb.w	r2, [sp, #159]	@ 0x9f
100139d2:	960d      	str	r6, [sp, #52]	@ 0x34
100139d4:	9008      	str	r0, [sp, #32]
100139d6:	9014      	str	r0, [sp, #80]	@ 0x50
100139d8:	9010      	str	r0, [sp, #64]	@ 0x40
100139da:	930e      	str	r3, [sp, #56]	@ 0x38
100139dc:	f7fe bc73 	b.w	100122c6 <_svfprintf_r+0x3ce>
100139e0:	e9dd 0124 	ldrd	r0, r1, [sp, #144]	@ 0x90
100139e4:	2200      	movs	r2, #0
100139e6:	2300      	movs	r3, #0
100139e8:	f007 f852 	bl	1001aa90 <__aeabi_dcmpeq>
100139ec:	2800      	cmp	r0, #0
100139ee:	f47f ad06 	bne.w	100133fe <_svfprintf_r+0x1506>
100139f2:	f1c6 0601 	rsb	r6, r6, #1
100139f6:	9629      	str	r6, [sp, #164]	@ 0xa4
100139f8:	e502      	b.n	10013400 <_svfprintf_r+0x1508>
100139fa:	f8dd 9018 	ldr.w	r9, [sp, #24]
100139fe:	f8dd b020 	ldr.w	fp, [sp, #32]
10013a02:	f7ff bbc2 	b.w	1001318a <_svfprintf_r+0x1292>
10013a06:	4e0d      	ldr	r6, [pc, #52]	@ (10013a3c <_svfprintf_r+0x1b44>)
10013a08:	f7ff bae5 	b.w	10012fd6 <_svfprintf_r+0x10de>
10013a0c:	9a0d      	ldr	r2, [sp, #52]	@ 0x34
10013a0e:	7863      	ldrb	r3, [r4, #1]
10013a10:	460c      	mov	r4, r1
10013a12:	f852 1b04 	ldr.w	r1, [r2], #4
10013a16:	920d      	str	r2, [sp, #52]	@ 0x34
10013a18:	ea41 71e1 	orr.w	r1, r1, r1, asr #31
10013a1c:	9108      	str	r1, [sp, #32]
10013a1e:	f7fe bac2 	b.w	10011fa6 <_svfprintf_r+0xae>
10013a22:	f8dd 9054 	ldr.w	r9, [sp, #84]	@ 0x54
10013a26:	b98b      	cbnz	r3, 10013a4c <_svfprintf_r+0x1b54>
10013a28:	2301      	movs	r3, #1
10013a2a:	2266      	movs	r2, #102	@ 0x66
10013a2c:	9306      	str	r3, [sp, #24]
10013a2e:	920e      	str	r2, [sp, #56]	@ 0x38
10013a30:	469b      	mov	fp, r3
10013a32:	e652      	b.n	100136da <_svfprintf_r+0x17e2>
10013a34:	1001b100 	.word	0x1001b100
10013a38:	1001b144 	.word	0x1001b144
10013a3c:	1001b134 	.word	0x1001b134
10013a40:	1001b114 	.word	0x1001b114
10013a44:	1001b0f8 	.word	0x1001b0f8
10013a48:	1001b0fc 	.word	0x1001b0fc
10013a4c:	9b18      	ldr	r3, [sp, #96]	@ 0x60
10013a4e:	1c5f      	adds	r7, r3, #1
10013a50:	9b08      	ldr	r3, [sp, #32]
10013a52:	443b      	add	r3, r7
10013a54:	469b      	mov	fp, r3
10013a56:	ea23 73e3 	bic.w	r3, r3, r3, asr #31
10013a5a:	9306      	str	r3, [sp, #24]
10013a5c:	2366      	movs	r3, #102	@ 0x66
10013a5e:	930e      	str	r3, [sp, #56]	@ 0x38
10013a60:	e63b      	b.n	100136da <_svfprintf_r+0x17e2>
10013a62:	2170      	movs	r1, #112	@ 0x70
10013a64:	e4eb      	b.n	1001343e <_svfprintf_r+0x1546>
10013a66:	4a0b      	ldr	r2, [pc, #44]	@ (10013a94 <_svfprintf_r+0x1b9c>)
10013a68:	9215      	str	r2, [sp, #84]	@ 0x54
10013a6a:	e44b      	b.n	10013304 <_svfprintf_r+0x140c>
10013a6c:	2302      	movs	r3, #2
10013a6e:	931c      	str	r3, [sp, #112]	@ 0x70
10013a70:	e51c      	b.n	100134ac <_svfprintf_r+0x15b4>
10013a72:	9a09      	ldr	r2, [sp, #36]	@ 0x24
10013a74:	f8dd b01c 	ldr.w	fp, [sp, #28]
10013a78:	8993      	ldrh	r3, [r2, #12]
10013a7a:	f043 0340 	orr.w	r3, r3, #64	@ 0x40
10013a7e:	8193      	strh	r3, [r2, #12]
10013a80:	f7ff b8df 	b.w	10012c42 <_svfprintf_r+0xd4a>
10013a84:	230c      	movs	r3, #12
10013a86:	f8cb 3000 	str.w	r3, [fp]
10013a8a:	e704      	b.n	10013896 <_svfprintf_r+0x199e>
10013a8c:	2300      	movs	r3, #0
10013a8e:	9314      	str	r3, [sp, #80]	@ 0x50
10013a90:	9310      	str	r3, [sp, #64]	@ 0x40
10013a92:	e784      	b.n	1001399e <_svfprintf_r+0x1aa6>
10013a94:	1001b134 	.word	0x1001b134

10013a98 <_malloc_r>:
10013a98:	e92d 4ff0 	stmdb	sp!, {r4, r5, r6, r7, r8, r9, sl, fp, lr}
10013a9c:	f101 050b 	add.w	r5, r1, #11
10013aa0:	2d16      	cmp	r5, #22
10013aa2:	b085      	sub	sp, #20
10013aa4:	4606      	mov	r6, r0
10013aa6:	d824      	bhi.n	10013af2 <_malloc_r+0x5a>
10013aa8:	2910      	cmp	r1, #16
10013aaa:	f200 80b1 	bhi.w	10013c10 <_malloc_r+0x178>
10013aae:	f000 fbf3 	bl	10014298 <__malloc_lock>
10013ab2:	2510      	movs	r5, #16
10013ab4:	2318      	movs	r3, #24
10013ab6:	f04f 0c02 	mov.w	ip, #2
10013aba:	4fba      	ldr	r7, [pc, #744]	@ (10013da4 <_malloc_r+0x30c>)
10013abc:	443b      	add	r3, r7
10013abe:	f1a3 0208 	sub.w	r2, r3, #8
10013ac2:	685c      	ldr	r4, [r3, #4]
10013ac4:	4294      	cmp	r4, r2
10013ac6:	f000 8122 	beq.w	10013d0e <_malloc_r+0x276>
10013aca:	6863      	ldr	r3, [r4, #4]
10013acc:	68e2      	ldr	r2, [r4, #12]
10013ace:	68a1      	ldr	r1, [r4, #8]
10013ad0:	f023 0303 	bic.w	r3, r3, #3
10013ad4:	60ca      	str	r2, [r1, #12]
10013ad6:	4423      	add	r3, r4
10013ad8:	4630      	mov	r0, r6
10013ada:	6091      	str	r1, [r2, #8]
10013adc:	685a      	ldr	r2, [r3, #4]
10013ade:	f042 0201 	orr.w	r2, r2, #1
10013ae2:	605a      	str	r2, [r3, #4]
10013ae4:	3408      	adds	r4, #8
10013ae6:	f000 fbdd 	bl	100142a4 <__malloc_unlock>
10013aea:	4620      	mov	r0, r4
10013aec:	b005      	add	sp, #20
10013aee:	e8bd 8ff0 	ldmia.w	sp!, {r4, r5, r6, r7, r8, r9, sl, fp, pc}
10013af2:	f035 0507 	bics.w	r5, r5, #7
10013af6:	f100 808b 	bmi.w	10013c10 <_malloc_r+0x178>
10013afa:	42a9      	cmp	r1, r5
10013afc:	f200 8088 	bhi.w	10013c10 <_malloc_r+0x178>
10013b00:	f000 fbca 	bl	10014298 <__malloc_lock>
10013b04:	f5b5 7ffc 	cmp.w	r5, #504	@ 0x1f8
10013b08:	f0c0 8173 	bcc.w	10013df2 <_malloc_r+0x35a>
10013b0c:	0a6b      	lsrs	r3, r5, #9
10013b0e:	f000 8083 	beq.w	10013c18 <_malloc_r+0x180>
10013b12:	2b04      	cmp	r3, #4
10013b14:	f200 8122 	bhi.w	10013d5c <_malloc_r+0x2c4>
10013b18:	09ab      	lsrs	r3, r5, #6
10013b1a:	f103 0c39 	add.w	ip, r3, #57	@ 0x39
10013b1e:	f103 0e38 	add.w	lr, r3, #56	@ 0x38
10013b22:	ea4f 03cc 	mov.w	r3, ip, lsl #3
10013b26:	4f9f      	ldr	r7, [pc, #636]	@ (10013da4 <_malloc_r+0x30c>)
10013b28:	443b      	add	r3, r7
10013b2a:	f1a3 0008 	sub.w	r0, r3, #8
10013b2e:	685c      	ldr	r4, [r3, #4]
10013b30:	42a0      	cmp	r0, r4
10013b32:	d107      	bne.n	10013b44 <_malloc_r+0xac>
10013b34:	e00d      	b.n	10013b52 <_malloc_r+0xba>
10013b36:	2a00      	cmp	r2, #0
10013b38:	68e1      	ldr	r1, [r4, #12]
10013b3a:	f280 80e2 	bge.w	10013d02 <_malloc_r+0x26a>
10013b3e:	4288      	cmp	r0, r1
10013b40:	d007      	beq.n	10013b52 <_malloc_r+0xba>
10013b42:	460c      	mov	r4, r1
10013b44:	6863      	ldr	r3, [r4, #4]
10013b46:	f023 0303 	bic.w	r3, r3, #3
10013b4a:	1b5a      	subs	r2, r3, r5
10013b4c:	2a0f      	cmp	r2, #15
10013b4e:	ddf2      	ble.n	10013b36 <_malloc_r+0x9e>
10013b50:	46f4      	mov	ip, lr
10013b52:	f8df 8264 	ldr.w	r8, [pc, #612]	@ 10013db8 <_malloc_r+0x320>
10013b56:	693c      	ldr	r4, [r7, #16]
10013b58:	4544      	cmp	r4, r8
10013b5a:	f000 80bf 	beq.w	10013cdc <_malloc_r+0x244>
10013b5e:	6863      	ldr	r3, [r4, #4]
10013b60:	f023 0903 	bic.w	r9, r3, #3
10013b64:	eba9 0305 	sub.w	r3, r9, r5
10013b68:	2b0f      	cmp	r3, #15
10013b6a:	f300 8147 	bgt.w	10013dfc <_malloc_r+0x364>
10013b6e:	2b00      	cmp	r3, #0
10013b70:	e9c7 8804 	strd	r8, r8, [r7, #16]
10013b74:	f280 8131 	bge.w	10013dda <_malloc_r+0x342>
10013b78:	f5b9 7f00 	cmp.w	r9, #512	@ 0x200
10013b7c:	f8d7 e004 	ldr.w	lr, [r7, #4]
10013b80:	f080 80cc 	bcs.w	10013d1c <_malloc_r+0x284>
10013b84:	ea4f 01d9 	mov.w	r1, r9, lsr #3
10013b88:	3101      	adds	r1, #1
10013b8a:	ea4f 1959 	mov.w	r9, r9, lsr #5
10013b8e:	2301      	movs	r3, #1
10013b90:	fa03 f309 	lsl.w	r3, r3, r9
10013b94:	f857 2031 	ldr.w	r2, [r7, r1, lsl #3]
10013b98:	60a2      	str	r2, [r4, #8]
10013b9a:	ea4e 0e03 	orr.w	lr, lr, r3
10013b9e:	eb07 03c1 	add.w	r3, r7, r1, lsl #3
10013ba2:	3b08      	subs	r3, #8
10013ba4:	60e3      	str	r3, [r4, #12]
10013ba6:	f8c7 e004 	str.w	lr, [r7, #4]
10013baa:	f847 4031 	str.w	r4, [r7, r1, lsl #3]
10013bae:	60d4      	str	r4, [r2, #12]
10013bb0:	ea4f 03ac 	mov.w	r3, ip, asr #2
10013bb4:	2001      	movs	r0, #1
10013bb6:	4098      	lsls	r0, r3
10013bb8:	4570      	cmp	r0, lr
10013bba:	d834      	bhi.n	10013c26 <_malloc_r+0x18e>
10013bbc:	ea10 0f0e 	tst.w	r0, lr
10013bc0:	d107      	bne.n	10013bd2 <_malloc_r+0x13a>
10013bc2:	f02c 0c03 	bic.w	ip, ip, #3
10013bc6:	0040      	lsls	r0, r0, #1
10013bc8:	ea10 0f0e 	tst.w	r0, lr
10013bcc:	f10c 0c04 	add.w	ip, ip, #4
10013bd0:	d0f9      	beq.n	10013bc6 <_malloc_r+0x12e>
10013bd2:	eb07 0acc 	add.w	sl, r7, ip, lsl #3
10013bd6:	4652      	mov	r2, sl
10013bd8:	46e1      	mov	r9, ip
10013bda:	68d1      	ldr	r1, [r2, #12]
10013bdc:	e00e      	b.n	10013bfc <_malloc_r+0x164>
10013bde:	684b      	ldr	r3, [r1, #4]
10013be0:	f023 0303 	bic.w	r3, r3, #3
10013be4:	eba3 0e05 	sub.w	lr, r3, r5
10013be8:	f1be 0f0f 	cmp.w	lr, #15
10013bec:	460c      	mov	r4, r1
10013bee:	68c9      	ldr	r1, [r1, #12]
10013bf0:	f300 80c1 	bgt.w	10013d76 <_malloc_r+0x2de>
10013bf4:	f1be 0f00 	cmp.w	lr, #0
10013bf8:	f280 80e2 	bge.w	10013dc0 <_malloc_r+0x328>
10013bfc:	428a      	cmp	r2, r1
10013bfe:	d1ee      	bne.n	10013bde <_malloc_r+0x146>
10013c00:	f109 0901 	add.w	r9, r9, #1
10013c04:	f019 0f03 	tst.w	r9, #3
10013c08:	f102 0208 	add.w	r2, r2, #8
10013c0c:	d1e5      	bne.n	10013bda <_malloc_r+0x142>
10013c0e:	e121      	b.n	10013e54 <_malloc_r+0x3bc>
10013c10:	230c      	movs	r3, #12
10013c12:	6033      	str	r3, [r6, #0]
10013c14:	2400      	movs	r4, #0
10013c16:	e768      	b.n	10013aea <_malloc_r+0x52>
10013c18:	f44f 7300 	mov.w	r3, #512	@ 0x200
10013c1c:	f04f 0c40 	mov.w	ip, #64	@ 0x40
10013c20:	f04f 0e3f 	mov.w	lr, #63	@ 0x3f
10013c24:	e77f      	b.n	10013b26 <_malloc_r+0x8e>
10013c26:	68bc      	ldr	r4, [r7, #8]
10013c28:	6863      	ldr	r3, [r4, #4]
10013c2a:	f023 0903 	bic.w	r9, r3, #3
10013c2e:	45a9      	cmp	r9, r5
10013c30:	d303      	bcc.n	10013c3a <_malloc_r+0x1a2>
10013c32:	eba9 0305 	sub.w	r3, r9, r5
10013c36:	2b0f      	cmp	r3, #15
10013c38:	dc53      	bgt.n	10013ce2 <_malloc_r+0x24a>
10013c3a:	4b5b      	ldr	r3, [pc, #364]	@ (10013da8 <_malloc_r+0x310>)
10013c3c:	f8df b17c 	ldr.w	fp, [pc, #380]	@ 10013dbc <_malloc_r+0x324>
10013c40:	681b      	ldr	r3, [r3, #0]
10013c42:	2008      	movs	r0, #8
10013c44:	f103 0810 	add.w	r8, r3, #16
10013c48:	f000 fab0 	bl	100141ac <sysconf>
10013c4c:	f8db 3000 	ldr.w	r3, [fp]
10013c50:	9001      	str	r0, [sp, #4]
10013c52:	3301      	adds	r3, #1
10013c54:	44a8      	add	r8, r5
10013c56:	eb04 0209 	add.w	r2, r4, r9
10013c5a:	d005      	beq.n	10013c68 <_malloc_r+0x1d0>
10013c5c:	f108 38ff 	add.w	r8, r8, #4294967295	@ 0xffffffff
10013c60:	4480      	add	r8, r0
10013c62:	4243      	negs	r3, r0
10013c64:	ea03 0808 	and.w	r8, r3, r8
10013c68:	4641      	mov	r1, r8
10013c6a:	4630      	mov	r0, r6
10013c6c:	9202      	str	r2, [sp, #8]
10013c6e:	f001 ff2f 	bl	10015ad0 <_sbrk_r>
10013c72:	f1b0 3fff 	cmp.w	r0, #4294967295	@ 0xffffffff
10013c76:	9a02      	ldr	r2, [sp, #8]
10013c78:	4682      	mov	sl, r0
10013c7a:	f000 80dc 	beq.w	10013e36 <_malloc_r+0x39e>
10013c7e:	4282      	cmp	r2, r0
10013c80:	f200 80d7 	bhi.w	10013e32 <_malloc_r+0x39a>
10013c84:	4b49      	ldr	r3, [pc, #292]	@ (10013dac <_malloc_r+0x314>)
10013c86:	9901      	ldr	r1, [sp, #4]
10013c88:	6818      	ldr	r0, [r3, #0]
10013c8a:	4440      	add	r0, r8
10013c8c:	f101 31ff 	add.w	r1, r1, #4294967295	@ 0xffffffff
10013c90:	6018      	str	r0, [r3, #0]
10013c92:	4684      	mov	ip, r0
10013c94:	f040 80fc 	bne.w	10013e90 <_malloc_r+0x3f8>
10013c98:	ea1a 0f01 	tst.w	sl, r1
10013c9c:	f040 80f8 	bne.w	10013e90 <_malloc_r+0x3f8>
10013ca0:	f8d7 a008 	ldr.w	sl, [r7, #8]
10013ca4:	44c8      	add	r8, r9
10013ca6:	f048 0201 	orr.w	r2, r8, #1
10013caa:	f8ca 2004 	str.w	r2, [sl, #4]
10013cae:	4b40      	ldr	r3, [pc, #256]	@ (10013db0 <_malloc_r+0x318>)
10013cb0:	6819      	ldr	r1, [r3, #0]
10013cb2:	4281      	cmp	r1, r0
10013cb4:	bf38      	it	cc
10013cb6:	6018      	strcc	r0, [r3, #0]
10013cb8:	4b3e      	ldr	r3, [pc, #248]	@ (10013db4 <_malloc_r+0x31c>)
10013cba:	6819      	ldr	r1, [r3, #0]
10013cbc:	4281      	cmp	r1, r0
10013cbe:	bf38      	it	cc
10013cc0:	6018      	strcc	r0, [r3, #0]
10013cc2:	4654      	mov	r4, sl
10013cc4:	f022 0803 	bic.w	r8, r2, #3
10013cc8:	45a8      	cmp	r8, r5
10013cca:	eba8 0305 	sub.w	r3, r8, r5
10013cce:	d301      	bcc.n	10013cd4 <_malloc_r+0x23c>
10013cd0:	2b0f      	cmp	r3, #15
10013cd2:	dc06      	bgt.n	10013ce2 <_malloc_r+0x24a>
10013cd4:	4630      	mov	r0, r6
10013cd6:	f000 fae5 	bl	100142a4 <__malloc_unlock>
10013cda:	e79b      	b.n	10013c14 <_malloc_r+0x17c>
10013cdc:	f8d7 e004 	ldr.w	lr, [r7, #4]
10013ce0:	e766      	b.n	10013bb0 <_malloc_r+0x118>
10013ce2:	1962      	adds	r2, r4, r5
10013ce4:	f043 0301 	orr.w	r3, r3, #1
10013ce8:	f045 0501 	orr.w	r5, r5, #1
10013cec:	6065      	str	r5, [r4, #4]
10013cee:	4630      	mov	r0, r6
10013cf0:	60ba      	str	r2, [r7, #8]
10013cf2:	6053      	str	r3, [r2, #4]
10013cf4:	f000 fad6 	bl	100142a4 <__malloc_unlock>
10013cf8:	3408      	adds	r4, #8
10013cfa:	4620      	mov	r0, r4
10013cfc:	b005      	add	sp, #20
10013cfe:	e8bd 8ff0 	ldmia.w	sp!, {r4, r5, r6, r7, r8, r9, sl, fp, pc}
10013d02:	68a2      	ldr	r2, [r4, #8]
10013d04:	4423      	add	r3, r4
10013d06:	60d1      	str	r1, [r2, #12]
10013d08:	4630      	mov	r0, r6
10013d0a:	608a      	str	r2, [r1, #8]
10013d0c:	e6e6      	b.n	10013adc <_malloc_r+0x44>
10013d0e:	68dc      	ldr	r4, [r3, #12]
10013d10:	42a3      	cmp	r3, r4
10013d12:	f47f aeda 	bne.w	10013aca <_malloc_r+0x32>
10013d16:	f10c 0c02 	add.w	ip, ip, #2
10013d1a:	e71a      	b.n	10013b52 <_malloc_r+0xba>
10013d1c:	f5b9 6f20 	cmp.w	r9, #2560	@ 0xa00
10013d20:	ea4f 2259 	mov.w	r2, r9, lsr #9
10013d24:	d37e      	bcc.n	10013e24 <_malloc_r+0x38c>
10013d26:	2a14      	cmp	r2, #20
10013d28:	f200 8115 	bhi.w	10013f56 <_malloc_r+0x4be>
10013d2c:	f102 035c 	add.w	r3, r2, #92	@ 0x5c
10013d30:	00db      	lsls	r3, r3, #3
10013d32:	325b      	adds	r2, #91	@ 0x5b
10013d34:	18f9      	adds	r1, r7, r3
10013d36:	58fb      	ldr	r3, [r7, r3]
10013d38:	3908      	subs	r1, #8
10013d3a:	4299      	cmp	r1, r3
10013d3c:	d103      	bne.n	10013d46 <_malloc_r+0x2ae>
10013d3e:	e0f0      	b.n	10013f22 <_malloc_r+0x48a>
10013d40:	689b      	ldr	r3, [r3, #8]
10013d42:	4299      	cmp	r1, r3
10013d44:	d004      	beq.n	10013d50 <_malloc_r+0x2b8>
10013d46:	685a      	ldr	r2, [r3, #4]
10013d48:	f022 0203 	bic.w	r2, r2, #3
10013d4c:	454a      	cmp	r2, r9
10013d4e:	d8f7      	bhi.n	10013d40 <_malloc_r+0x2a8>
10013d50:	68d9      	ldr	r1, [r3, #12]
10013d52:	e9c4 3102 	strd	r3, r1, [r4, #8]
10013d56:	608c      	str	r4, [r1, #8]
10013d58:	60dc      	str	r4, [r3, #12]
10013d5a:	e729      	b.n	10013bb0 <_malloc_r+0x118>
10013d5c:	2b14      	cmp	r3, #20
10013d5e:	d96d      	bls.n	10013e3c <_malloc_r+0x3a4>
10013d60:	2b54      	cmp	r3, #84	@ 0x54
10013d62:	f200 8101 	bhi.w	10013f68 <_malloc_r+0x4d0>
10013d66:	0b2b      	lsrs	r3, r5, #12
10013d68:	f103 0c6f 	add.w	ip, r3, #111	@ 0x6f
10013d6c:	f103 0e6e 	add.w	lr, r3, #110	@ 0x6e
10013d70:	ea4f 03cc 	mov.w	r3, ip, lsl #3
10013d74:	e6d7      	b.n	10013b26 <_malloc_r+0x8e>
10013d76:	4630      	mov	r0, r6
10013d78:	68a6      	ldr	r6, [r4, #8]
10013d7a:	1962      	adds	r2, r4, r5
10013d7c:	f045 0501 	orr.w	r5, r5, #1
10013d80:	6065      	str	r5, [r4, #4]
10013d82:	60f1      	str	r1, [r6, #12]
10013d84:	608e      	str	r6, [r1, #8]
10013d86:	f04e 0101 	orr.w	r1, lr, #1
10013d8a:	e9c7 2204 	strd	r2, r2, [r7, #16]
10013d8e:	f8c2 8008 	str.w	r8, [r2, #8]
10013d92:	f8c2 800c 	str.w	r8, [r2, #12]
10013d96:	6051      	str	r1, [r2, #4]
10013d98:	f844 e003 	str.w	lr, [r4, r3]
10013d9c:	f000 fa82 	bl	100142a4 <__malloc_unlock>
10013da0:	3408      	adds	r4, #8
10013da2:	e6a2      	b.n	10013aea <_malloc_r+0x52>
10013da4:	20000040 	.word	0x20000040
10013da8:	2000145c 	.word	0x2000145c
10013dac:	2000142c 	.word	0x2000142c
10013db0:	20001458 	.word	0x20001458
10013db4:	20001454 	.word	0x20001454
10013db8:	20000048 	.word	0x20000048
10013dbc:	20000038 	.word	0x20000038
10013dc0:	4423      	add	r3, r4
10013dc2:	4630      	mov	r0, r6
10013dc4:	685a      	ldr	r2, [r3, #4]
10013dc6:	f042 0201 	orr.w	r2, r2, #1
10013dca:	605a      	str	r2, [r3, #4]
10013dcc:	f854 3f08 	ldr.w	r3, [r4, #8]!
10013dd0:	60d9      	str	r1, [r3, #12]
10013dd2:	608b      	str	r3, [r1, #8]
10013dd4:	f000 fa66 	bl	100142a4 <__malloc_unlock>
10013dd8:	e687      	b.n	10013aea <_malloc_r+0x52>
10013dda:	44a1      	add	r9, r4
10013ddc:	4630      	mov	r0, r6
10013dde:	f8d9 3004 	ldr.w	r3, [r9, #4]
10013de2:	f043 0301 	orr.w	r3, r3, #1
10013de6:	f8c9 3004 	str.w	r3, [r9, #4]
10013dea:	3408      	adds	r4, #8
10013dec:	f000 fa5a 	bl	100142a4 <__malloc_unlock>
10013df0:	e67b      	b.n	10013aea <_malloc_r+0x52>
10013df2:	ea4f 0cd5 	mov.w	ip, r5, lsr #3
10013df6:	f105 0308 	add.w	r3, r5, #8
10013dfa:	e65e      	b.n	10013aba <_malloc_r+0x22>
10013dfc:	1962      	adds	r2, r4, r5
10013dfe:	f043 0101 	orr.w	r1, r3, #1
10013e02:	f045 0501 	orr.w	r5, r5, #1
10013e06:	6065      	str	r5, [r4, #4]
10013e08:	4630      	mov	r0, r6
10013e0a:	e9c7 2204 	strd	r2, r2, [r7, #16]
10013e0e:	f8c2 8008 	str.w	r8, [r2, #8]
10013e12:	f8c2 800c 	str.w	r8, [r2, #12]
10013e16:	6051      	str	r1, [r2, #4]
10013e18:	f844 3009 	str.w	r3, [r4, r9]
10013e1c:	f000 fa42 	bl	100142a4 <__malloc_unlock>
10013e20:	3408      	adds	r4, #8
10013e22:	e662      	b.n	10013aea <_malloc_r+0x52>
10013e24:	ea4f 1299 	mov.w	r2, r9, lsr #6
10013e28:	f102 0339 	add.w	r3, r2, #57	@ 0x39
10013e2c:	00db      	lsls	r3, r3, #3
10013e2e:	3238      	adds	r2, #56	@ 0x38
10013e30:	e780      	b.n	10013d34 <_malloc_r+0x29c>
10013e32:	42bc      	cmp	r4, r7
10013e34:	d024      	beq.n	10013e80 <_malloc_r+0x3e8>
10013e36:	68bc      	ldr	r4, [r7, #8]
10013e38:	6862      	ldr	r2, [r4, #4]
10013e3a:	e743      	b.n	10013cc4 <_malloc_r+0x22c>
10013e3c:	f103 0c5c 	add.w	ip, r3, #92	@ 0x5c
10013e40:	f103 0e5b 	add.w	lr, r3, #91	@ 0x5b
10013e44:	ea4f 03cc 	mov.w	r3, ip, lsl #3
10013e48:	e66d      	b.n	10013b26 <_malloc_r+0x8e>
10013e4a:	f85a 3908 	ldr.w	r3, [sl], #-8
10013e4e:	4553      	cmp	r3, sl
10013e50:	f040 80d8 	bne.w	10014004 <_malloc_r+0x56c>
10013e54:	f01c 0f03 	tst.w	ip, #3
10013e58:	f10c 3cff 	add.w	ip, ip, #4294967295	@ 0xffffffff
10013e5c:	d1f5      	bne.n	10013e4a <_malloc_r+0x3b2>
10013e5e:	687b      	ldr	r3, [r7, #4]
10013e60:	ea23 0300 	bic.w	r3, r3, r0
10013e64:	607b      	str	r3, [r7, #4]
10013e66:	0040      	lsls	r0, r0, #1
10013e68:	4298      	cmp	r0, r3
10013e6a:	f63f aedc 	bhi.w	10013c26 <_malloc_r+0x18e>
10013e6e:	b918      	cbnz	r0, 10013e78 <_malloc_r+0x3e0>
10013e70:	e6d9      	b.n	10013c26 <_malloc_r+0x18e>
10013e72:	0040      	lsls	r0, r0, #1
10013e74:	f109 0904 	add.w	r9, r9, #4
10013e78:	4218      	tst	r0, r3
10013e7a:	d0fa      	beq.n	10013e72 <_malloc_r+0x3da>
10013e7c:	46cc      	mov	ip, r9
10013e7e:	e6a8      	b.n	10013bd2 <_malloc_r+0x13a>
10013e80:	4b61      	ldr	r3, [pc, #388]	@ (10014008 <_malloc_r+0x570>)
10013e82:	9901      	ldr	r1, [sp, #4]
10013e84:	6818      	ldr	r0, [r3, #0]
10013e86:	eb08 0c00 	add.w	ip, r8, r0
10013e8a:	3901      	subs	r1, #1
10013e8c:	f8c3 c000 	str.w	ip, [r3]
10013e90:	f8db 0000 	ldr.w	r0, [fp]
10013e94:	3001      	adds	r0, #1
10013e96:	bf1b      	ittet	ne
10013e98:	ebaa 0202 	subne.w	r2, sl, r2
10013e9c:	4462      	addne	r2, ip
10013e9e:	f8cb a000 	streq.w	sl, [fp]
10013ea2:	601a      	strne	r2, [r3, #0]
10013ea4:	f01a 0207 	ands.w	r2, sl, #7
10013ea8:	e9cd 2302 	strd	r2, r3, [sp, #8]
10013eac:	d042      	beq.n	10013f34 <_malloc_r+0x49c>
10013eae:	f1c2 0208 	rsb	r2, r2, #8
10013eb2:	9b01      	ldr	r3, [sp, #4]
10013eb4:	4492      	add	sl, r2
10013eb6:	44d0      	add	r8, sl
10013eb8:	4413      	add	r3, r2
10013eba:	ea08 0001 	and.w	r0, r8, r1
10013ebe:	1a1a      	subs	r2, r3, r0
10013ec0:	ea02 0b01 	and.w	fp, r2, r1
10013ec4:	4659      	mov	r1, fp
10013ec6:	4630      	mov	r0, r6
10013ec8:	f001 fe02 	bl	10015ad0 <_sbrk_r>
10013ecc:	1c42      	adds	r2, r0, #1
10013ece:	9b03      	ldr	r3, [sp, #12]
10013ed0:	d07a      	beq.n	10013fc8 <_malloc_r+0x530>
10013ed2:	eba0 000a 	sub.w	r0, r0, sl
10013ed6:	eb00 080b 	add.w	r8, r0, fp
10013eda:	6818      	ldr	r0, [r3, #0]
10013edc:	f8c7 a008 	str.w	sl, [r7, #8]
10013ee0:	f048 0201 	orr.w	r2, r8, #1
10013ee4:	4458      	add	r0, fp
10013ee6:	42bc      	cmp	r4, r7
10013ee8:	f8ca 2004 	str.w	r2, [sl, #4]
10013eec:	6018      	str	r0, [r3, #0]
10013eee:	f43f aede 	beq.w	10013cae <_malloc_r+0x216>
10013ef2:	f1b9 0f0f 	cmp.w	r9, #15
10013ef6:	d942      	bls.n	10013f7e <_malloc_r+0x4e6>
10013ef8:	6861      	ldr	r1, [r4, #4]
10013efa:	f1a9 020c 	sub.w	r2, r9, #12
10013efe:	f022 0207 	bic.w	r2, r2, #7
10013f02:	f001 0101 	and.w	r1, r1, #1
10013f06:	4311      	orrs	r1, r2
10013f08:	6061      	str	r1, [r4, #4]
10013f0a:	18a1      	adds	r1, r4, r2
10013f0c:	f04f 0c05 	mov.w	ip, #5
10013f10:	2a0f      	cmp	r2, #15
10013f12:	f8c1 c004 	str.w	ip, [r1, #4]
10013f16:	f8c1 c008 	str.w	ip, [r1, #8]
10013f1a:	d84a      	bhi.n	10013fb2 <_malloc_r+0x51a>
10013f1c:	f8da 2004 	ldr.w	r2, [sl, #4]
10013f20:	e6c5      	b.n	10013cae <_malloc_r+0x216>
10013f22:	1092      	asrs	r2, r2, #2
10013f24:	2001      	movs	r0, #1
10013f26:	fa00 f202 	lsl.w	r2, r0, r2
10013f2a:	ea4e 0e02 	orr.w	lr, lr, r2
10013f2e:	f8c7 e004 	str.w	lr, [r7, #4]
10013f32:	e70e      	b.n	10013d52 <_malloc_r+0x2ba>
10013f34:	9b01      	ldr	r3, [sp, #4]
10013f36:	eb0a 0208 	add.w	r2, sl, r8
10013f3a:	400a      	ands	r2, r1
10013f3c:	1a9a      	subs	r2, r3, r2
10013f3e:	ea02 0b01 	and.w	fp, r2, r1
10013f42:	4659      	mov	r1, fp
10013f44:	4630      	mov	r0, r6
10013f46:	f001 fdc3 	bl	10015ad0 <_sbrk_r>
10013f4a:	1c43      	adds	r3, r0, #1
10013f4c:	9b03      	ldr	r3, [sp, #12]
10013f4e:	d1c0      	bne.n	10013ed2 <_malloc_r+0x43a>
10013f50:	f8dd b008 	ldr.w	fp, [sp, #8]
10013f54:	e7c1      	b.n	10013eda <_malloc_r+0x442>
10013f56:	2a54      	cmp	r2, #84	@ 0x54
10013f58:	d815      	bhi.n	10013f86 <_malloc_r+0x4ee>
10013f5a:	ea4f 3219 	mov.w	r2, r9, lsr #12
10013f5e:	f102 036f 	add.w	r3, r2, #111	@ 0x6f
10013f62:	00db      	lsls	r3, r3, #3
10013f64:	326e      	adds	r2, #110	@ 0x6e
10013f66:	e6e5      	b.n	10013d34 <_malloc_r+0x29c>
10013f68:	f5b3 7faa 	cmp.w	r3, #340	@ 0x154
10013f6c:	d815      	bhi.n	10013f9a <_malloc_r+0x502>
10013f6e:	0beb      	lsrs	r3, r5, #15
10013f70:	f103 0c78 	add.w	ip, r3, #120	@ 0x78
10013f74:	f103 0e77 	add.w	lr, r3, #119	@ 0x77
10013f78:	ea4f 03cc 	mov.w	r3, ip, lsl #3
10013f7c:	e5d3      	b.n	10013b26 <_malloc_r+0x8e>
10013f7e:	2301      	movs	r3, #1
10013f80:	f8ca 3004 	str.w	r3, [sl, #4]
10013f84:	e6a6      	b.n	10013cd4 <_malloc_r+0x23c>
10013f86:	f5b2 7faa 	cmp.w	r2, #340	@ 0x154
10013f8a:	d825      	bhi.n	10013fd8 <_malloc_r+0x540>
10013f8c:	ea4f 32d9 	mov.w	r2, r9, lsr #15
10013f90:	f102 0378 	add.w	r3, r2, #120	@ 0x78
10013f94:	00db      	lsls	r3, r3, #3
10013f96:	3277      	adds	r2, #119	@ 0x77
10013f98:	e6cc      	b.n	10013d34 <_malloc_r+0x29c>
10013f9a:	f240 5254 	movw	r2, #1364	@ 0x554
10013f9e:	4293      	cmp	r3, r2
10013fa0:	d825      	bhi.n	10013fee <_malloc_r+0x556>
10013fa2:	0cab      	lsrs	r3, r5, #18
10013fa4:	f103 0c7d 	add.w	ip, r3, #125	@ 0x7d
10013fa8:	f103 0e7c 	add.w	lr, r3, #124	@ 0x7c
10013fac:	ea4f 03cc 	mov.w	r3, ip, lsl #3
10013fb0:	e5b9      	b.n	10013b26 <_malloc_r+0x8e>
10013fb2:	4630      	mov	r0, r6
10013fb4:	f104 0108 	add.w	r1, r4, #8
10013fb8:	9301      	str	r3, [sp, #4]
10013fba:	f001 fc01 	bl	100157c0 <_free_r>
10013fbe:	9b01      	ldr	r3, [sp, #4]
10013fc0:	f8d7 a008 	ldr.w	sl, [r7, #8]
10013fc4:	6818      	ldr	r0, [r3, #0]
10013fc6:	e7a9      	b.n	10013f1c <_malloc_r+0x484>
10013fc8:	9a02      	ldr	r2, [sp, #8]
10013fca:	3a08      	subs	r2, #8
10013fcc:	4490      	add	r8, r2
10013fce:	eba8 080a 	sub.w	r8, r8, sl
10013fd2:	f04f 0b00 	mov.w	fp, #0
10013fd6:	e780      	b.n	10013eda <_malloc_r+0x442>
10013fd8:	f240 5354 	movw	r3, #1364	@ 0x554
10013fdc:	429a      	cmp	r2, r3
10013fde:	d80d      	bhi.n	10013ffc <_malloc_r+0x564>
10013fe0:	ea4f 4299 	mov.w	r2, r9, lsr #18
10013fe4:	f102 037d 	add.w	r3, r2, #125	@ 0x7d
10013fe8:	00db      	lsls	r3, r3, #3
10013fea:	327c      	adds	r2, #124	@ 0x7c
10013fec:	e6a2      	b.n	10013d34 <_malloc_r+0x29c>
10013fee:	f44f 737e 	mov.w	r3, #1016	@ 0x3f8
10013ff2:	f04f 0c7f 	mov.w	ip, #127	@ 0x7f
10013ff6:	f04f 0e7e 	mov.w	lr, #126	@ 0x7e
10013ffa:	e594      	b.n	10013b26 <_malloc_r+0x8e>
10013ffc:	f44f 737e 	mov.w	r3, #1016	@ 0x3f8
10014000:	227e      	movs	r2, #126	@ 0x7e
10014002:	e697      	b.n	10013d34 <_malloc_r+0x29c>
10014004:	687b      	ldr	r3, [r7, #4]
10014006:	e72e      	b.n	10013e66 <_malloc_r+0x3ce>
10014008:	2000142c 	.word	0x2000142c

1001400c <register_fini>:
1001400c:	4b02      	ldr	r3, [pc, #8]	@ (10014018 <register_fini+0xc>)
1001400e:	b113      	cbz	r3, 10014016 <register_fini+0xa>
10014010:	4802      	ldr	r0, [pc, #8]	@ (1001401c <register_fini+0x10>)
10014012:	f000 b94d 	b.w	100142b0 <atexit>
10014016:	4770      	bx	lr
10014018:	00000000 	.word	0x00000000
1001401c:	10014161 	.word	0x10014161

10014020 <memset>:
10014020:	0783      	lsls	r3, r0, #30
10014022:	b530      	push	{r4, r5, lr}
10014024:	d047      	beq.n	100140b6 <memset+0x96>
10014026:	1e54      	subs	r4, r2, #1
10014028:	2a00      	cmp	r2, #0
1001402a:	d03e      	beq.n	100140aa <memset+0x8a>
1001402c:	b2ca      	uxtb	r2, r1
1001402e:	4603      	mov	r3, r0
10014030:	e001      	b.n	10014036 <memset+0x16>
10014032:	3c01      	subs	r4, #1
10014034:	d339      	bcc.n	100140aa <memset+0x8a>
10014036:	f803 2b01 	strb.w	r2, [r3], #1
1001403a:	079d      	lsls	r5, r3, #30
1001403c:	d1f9      	bne.n	10014032 <memset+0x12>
1001403e:	2c03      	cmp	r4, #3
10014040:	d92c      	bls.n	1001409c <memset+0x7c>
10014042:	b2cd      	uxtb	r5, r1
10014044:	eb05 2505 	add.w	r5, r5, r5, lsl #8
10014048:	2c0f      	cmp	r4, #15
1001404a:	eb05 4505 	add.w	r5, r5, r5, lsl #16
1001404e:	d935      	bls.n	100140bc <memset+0x9c>
10014050:	f1a4 0210 	sub.w	r2, r4, #16
10014054:	f022 0c0f 	bic.w	ip, r2, #15
10014058:	f103 0e10 	add.w	lr, r3, #16
1001405c:	44e6      	add	lr, ip
1001405e:	ea4f 1c12 	mov.w	ip, r2, lsr #4
10014062:	461a      	mov	r2, r3
10014064:	6015      	str	r5, [r2, #0]
10014066:	6055      	str	r5, [r2, #4]
10014068:	6095      	str	r5, [r2, #8]
1001406a:	60d5      	str	r5, [r2, #12]
1001406c:	3210      	adds	r2, #16
1001406e:	4572      	cmp	r2, lr
10014070:	d1f8      	bne.n	10014064 <memset+0x44>
10014072:	f10c 0201 	add.w	r2, ip, #1
10014076:	f014 0f0c 	tst.w	r4, #12
1001407a:	eb03 1202 	add.w	r2, r3, r2, lsl #4
1001407e:	f004 0c0f 	and.w	ip, r4, #15
10014082:	d013      	beq.n	100140ac <memset+0x8c>
10014084:	f1ac 0304 	sub.w	r3, ip, #4
10014088:	f023 0303 	bic.w	r3, r3, #3
1001408c:	3304      	adds	r3, #4
1001408e:	4413      	add	r3, r2
10014090:	f842 5b04 	str.w	r5, [r2], #4
10014094:	429a      	cmp	r2, r3
10014096:	d1fb      	bne.n	10014090 <memset+0x70>
10014098:	f00c 0403 	and.w	r4, ip, #3
1001409c:	b12c      	cbz	r4, 100140aa <memset+0x8a>
1001409e:	b2c9      	uxtb	r1, r1
100140a0:	441c      	add	r4, r3
100140a2:	f803 1b01 	strb.w	r1, [r3], #1
100140a6:	429c      	cmp	r4, r3
100140a8:	d1fb      	bne.n	100140a2 <memset+0x82>
100140aa:	bd30      	pop	{r4, r5, pc}
100140ac:	4664      	mov	r4, ip
100140ae:	4613      	mov	r3, r2
100140b0:	2c00      	cmp	r4, #0
100140b2:	d1f4      	bne.n	1001409e <memset+0x7e>
100140b4:	e7f9      	b.n	100140aa <memset+0x8a>
100140b6:	4603      	mov	r3, r0
100140b8:	4614      	mov	r4, r2
100140ba:	e7c0      	b.n	1001403e <memset+0x1e>
100140bc:	461a      	mov	r2, r3
100140be:	46a4      	mov	ip, r4
100140c0:	e7e0      	b.n	10014084 <memset+0x64>
100140c2:	bf00      	nop

100140c4 <_wcrtomb_r>:
100140c4:	b570      	push	{r4, r5, r6, lr}
100140c6:	4605      	mov	r5, r0
100140c8:	b084      	sub	sp, #16
100140ca:	b15b      	cbz	r3, 100140e4 <_wcrtomb_r+0x20>
100140cc:	461c      	mov	r4, r3
100140ce:	4b0f      	ldr	r3, [pc, #60]	@ (1001410c <_wcrtomb_r+0x48>)
100140d0:	f8d3 60e0 	ldr.w	r6, [r3, #224]	@ 0xe0
100140d4:	4623      	mov	r3, r4
100140d6:	b169      	cbz	r1, 100140f4 <_wcrtomb_r+0x30>
100140d8:	4628      	mov	r0, r5
100140da:	47b0      	blx	r6
100140dc:	1c43      	adds	r3, r0, #1
100140de:	d00f      	beq.n	10014100 <_wcrtomb_r+0x3c>
100140e0:	b004      	add	sp, #16
100140e2:	bd70      	pop	{r4, r5, r6, pc}
100140e4:	4b09      	ldr	r3, [pc, #36]	@ (1001410c <_wcrtomb_r+0x48>)
100140e6:	f500 7482 	add.w	r4, r0, #260	@ 0x104
100140ea:	f8d3 60e0 	ldr.w	r6, [r3, #224]	@ 0xe0
100140ee:	4623      	mov	r3, r4
100140f0:	2900      	cmp	r1, #0
100140f2:	d1f1      	bne.n	100140d8 <_wcrtomb_r+0x14>
100140f4:	460a      	mov	r2, r1
100140f6:	4628      	mov	r0, r5
100140f8:	a901      	add	r1, sp, #4
100140fa:	47b0      	blx	r6
100140fc:	1c43      	adds	r3, r0, #1
100140fe:	d1ef      	bne.n	100140e0 <_wcrtomb_r+0x1c>
10014100:	2200      	movs	r2, #0
10014102:	238a      	movs	r3, #138	@ 0x8a
10014104:	6022      	str	r2, [r4, #0]
10014106:	602b      	str	r3, [r5, #0]
10014108:	b004      	add	sp, #16
1001410a:	bd70      	pop	{r4, r5, r6, pc}
1001410c:	2000044c 	.word	0x2000044c

10014110 <__libc_init_array>:
10014110:	b570      	push	{r4, r5, r6, lr}
10014112:	4b0f      	ldr	r3, [pc, #60]	@ (10014150 <__libc_init_array+0x40>)
10014114:	4d0f      	ldr	r5, [pc, #60]	@ (10014154 <__libc_init_array+0x44>)
10014116:	42ab      	cmp	r3, r5
10014118:	eba3 0605 	sub.w	r6, r3, r5
1001411c:	d007      	beq.n	1001412e <__libc_init_array+0x1e>
1001411e:	10b6      	asrs	r6, r6, #2
10014120:	2400      	movs	r4, #0
10014122:	f855 3b04 	ldr.w	r3, [r5], #4
10014126:	3401      	adds	r4, #1
10014128:	4798      	blx	r3
1001412a:	42a6      	cmp	r6, r4
1001412c:	d8f9      	bhi.n	10014122 <__libc_init_array+0x12>
1001412e:	f007 f9e3 	bl	1001b4f8 <_init>
10014132:	4d09      	ldr	r5, [pc, #36]	@ (10014158 <__libc_init_array+0x48>)
10014134:	4b09      	ldr	r3, [pc, #36]	@ (1001415c <__libc_init_array+0x4c>)
10014136:	1b5e      	subs	r6, r3, r5
10014138:	42ab      	cmp	r3, r5
1001413a:	ea4f 06a6 	mov.w	r6, r6, asr #2
1001413e:	d006      	beq.n	1001414e <__libc_init_array+0x3e>
10014140:	2400      	movs	r4, #0
10014142:	f855 3b04 	ldr.w	r3, [r5], #4
10014146:	3401      	adds	r4, #1
10014148:	4798      	blx	r3
1001414a:	42a6      	cmp	r6, r4
1001414c:	d8f9      	bhi.n	10014142 <__libc_init_array+0x32>
1001414e:	bd70      	pop	{r4, r5, r6, pc}
10014150:	200006ec 	.word	0x200006ec
10014154:	200006ec 	.word	0x200006ec
10014158:	200006ec 	.word	0x200006ec
1001415c:	200006f4 	.word	0x200006f4

10014160 <__libc_fini_array>:
10014160:	b538      	push	{r3, r4, r5, lr}
10014162:	4d07      	ldr	r5, [pc, #28]	@ (10014180 <__libc_fini_array+0x20>)
10014164:	4c07      	ldr	r4, [pc, #28]	@ (10014184 <__libc_fini_array+0x24>)
10014166:	1b2c      	subs	r4, r5, r4
10014168:	10a4      	asrs	r4, r4, #2
1001416a:	d005      	beq.n	10014178 <__libc_fini_array+0x18>
1001416c:	3c01      	subs	r4, #1
1001416e:	f855 3d04 	ldr.w	r3, [r5, #-4]!
10014172:	4798      	blx	r3
10014174:	2c00      	cmp	r4, #0
10014176:	d1f9      	bne.n	1001416c <__libc_fini_array+0xc>
10014178:	e8bd 4038 	ldmia.w	sp!, {r3, r4, r5, lr}
1001417c:	f007 b9c2 	b.w	1001b504 <_fini>
10014180:	200006f8 	.word	0x200006f8
10014184:	200006f4 	.word	0x200006f4

10014188 <__retarget_lock_init_recursive>:
10014188:	4770      	bx	lr
1001418a:	bf00      	nop

1001418c <__retarget_lock_close_recursive>:
1001418c:	4770      	bx	lr
1001418e:	bf00      	nop

10014190 <__retarget_lock_acquire_recursive>:
10014190:	4770      	bx	lr
10014192:	bf00      	nop

10014194 <__retarget_lock_release_recursive>:
10014194:	4770      	bx	lr
10014196:	bf00      	nop

10014198 <__locale_mb_cur_max>:
10014198:	4b01      	ldr	r3, [pc, #4]	@ (100141a0 <__locale_mb_cur_max+0x8>)
1001419a:	f893 0128 	ldrb.w	r0, [r3, #296]	@ 0x128
1001419e:	4770      	bx	lr
100141a0:	2000044c 	.word	0x2000044c

100141a4 <_localeconv_r>:
100141a4:	4800      	ldr	r0, [pc, #0]	@ (100141a8 <_localeconv_r+0x4>)
100141a6:	4770      	bx	lr
100141a8:	2000053c 	.word	0x2000053c

100141ac <sysconf>:
100141ac:	2808      	cmp	r0, #8
100141ae:	d102      	bne.n	100141b6 <sysconf+0xa>
100141b0:	f44f 5080 	mov.w	r0, #4096	@ 0x1000
100141b4:	4770      	bx	lr
100141b6:	b508      	push	{r3, lr}
100141b8:	f7fd fe96 	bl	10011ee8 <__errno>
100141bc:	2316      	movs	r3, #22
100141be:	6003      	str	r3, [r0, #0]
100141c0:	f04f 30ff 	mov.w	r0, #4294967295	@ 0xffffffff
100141c4:	bd08      	pop	{r3, pc}
100141c6:	bf00      	nop

100141c8 <printf>:
100141c8:	b40f      	push	{r0, r1, r2, r3}
100141ca:	b500      	push	{lr}
100141cc:	4907      	ldr	r1, [pc, #28]	@ (100141ec <printf+0x24>)
100141ce:	b083      	sub	sp, #12
100141d0:	ab04      	add	r3, sp, #16
100141d2:	6808      	ldr	r0, [r1, #0]
100141d4:	f853 2b04 	ldr.w	r2, [r3], #4
100141d8:	6881      	ldr	r1, [r0, #8]
100141da:	9301      	str	r3, [sp, #4]
100141dc:	f001 fec8 	bl	10015f70 <_vfprintf_r>
100141e0:	b003      	add	sp, #12
100141e2:	f85d eb04 	ldr.w	lr, [sp], #4
100141e6:	b004      	add	sp, #16
100141e8:	4770      	bx	lr
100141ea:	bf00      	nop
100141ec:	200005b8 	.word	0x200005b8

100141f0 <_puts_r>:
100141f0:	b570      	push	{r4, r5, r6, lr}
100141f2:	4605      	mov	r5, r0
100141f4:	b088      	sub	sp, #32
100141f6:	4608      	mov	r0, r1
100141f8:	460c      	mov	r4, r1
100141fa:	f001 f9e1 	bl	100155c0 <strlen>
100141fe:	4e21      	ldr	r6, [pc, #132]	@ (10014284 <_puts_r+0x94>)
10014200:	6b6a      	ldr	r2, [r5, #52]	@ 0x34
10014202:	9005      	str	r0, [sp, #20]
10014204:	2101      	movs	r1, #1
10014206:	1843      	adds	r3, r0, r1
10014208:	e9cd 6106 	strd	r6, r1, [sp, #24]
1001420c:	a804      	add	r0, sp, #16
1001420e:	2102      	movs	r1, #2
10014210:	9404      	str	r4, [sp, #16]
10014212:	9303      	str	r3, [sp, #12]
10014214:	68ac      	ldr	r4, [r5, #8]
10014216:	9001      	str	r0, [sp, #4]
10014218:	9102      	str	r1, [sp, #8]
1001421a:	2a00      	cmp	r2, #0
1001421c:	d02e      	beq.n	1001427c <_puts_r+0x8c>
1001421e:	6e62      	ldr	r2, [r4, #100]	@ 0x64
10014220:	f9b4 300c 	ldrsh.w	r3, [r4, #12]
10014224:	07d6      	lsls	r6, r2, #31
10014226:	d401      	bmi.n	1001422c <_puts_r+0x3c>
10014228:	0598      	lsls	r0, r3, #22
1001422a:	d521      	bpl.n	10014270 <_puts_r+0x80>
1001422c:	0499      	lsls	r1, r3, #18
1001422e:	d406      	bmi.n	1001423e <_puts_r+0x4e>
10014230:	6e62      	ldr	r2, [r4, #100]	@ 0x64
10014232:	f443 5300 	orr.w	r3, r3, #8192	@ 0x2000
10014236:	f422 5200 	bic.w	r2, r2, #8192	@ 0x2000
1001423a:	81a3      	strh	r3, [r4, #12]
1001423c:	6662      	str	r2, [r4, #100]	@ 0x64
1001423e:	4628      	mov	r0, r5
10014240:	aa01      	add	r2, sp, #4
10014242:	4621      	mov	r1, r4
10014244:	f001 fc56 	bl	10015af4 <__sfvwrite_r>
10014248:	6e63      	ldr	r3, [r4, #100]	@ 0x64
1001424a:	2800      	cmp	r0, #0
1001424c:	bf0c      	ite	eq
1001424e:	250a      	moveq	r5, #10
10014250:	f04f 35ff 	movne.w	r5, #4294967295	@ 0xffffffff
10014254:	07da      	lsls	r2, r3, #31
10014256:	d402      	bmi.n	1001425e <_puts_r+0x6e>
10014258:	89a3      	ldrh	r3, [r4, #12]
1001425a:	059b      	lsls	r3, r3, #22
1001425c:	d502      	bpl.n	10014264 <_puts_r+0x74>
1001425e:	4628      	mov	r0, r5
10014260:	b008      	add	sp, #32
10014262:	bd70      	pop	{r4, r5, r6, pc}
10014264:	6da0      	ldr	r0, [r4, #88]	@ 0x58
10014266:	f7ff ff95 	bl	10014194 <__retarget_lock_release_recursive>
1001426a:	4628      	mov	r0, r5
1001426c:	b008      	add	sp, #32
1001426e:	bd70      	pop	{r4, r5, r6, pc}
10014270:	6da0      	ldr	r0, [r4, #88]	@ 0x58
10014272:	f7ff ff8d 	bl	10014190 <__retarget_lock_acquire_recursive>
10014276:	f9b4 300c 	ldrsh.w	r3, [r4, #12]
1001427a:	e7d7      	b.n	1001422c <_puts_r+0x3c>
1001427c:	4628      	mov	r0, r5
1001427e:	f001 f885 	bl	1001538c <__sinit>
10014282:	e7cc      	b.n	1001421e <_puts_r+0x2e>
10014284:	1001b198 	.word	0x1001b198

10014288 <puts>:
10014288:	4b02      	ldr	r3, [pc, #8]	@ (10014294 <puts+0xc>)
1001428a:	4601      	mov	r1, r0
1001428c:	6818      	ldr	r0, [r3, #0]
1001428e:	f7ff bfaf 	b.w	100141f0 <_puts_r>
10014292:	bf00      	nop
10014294:	200005b8 	.word	0x200005b8

10014298 <__malloc_lock>:
10014298:	4801      	ldr	r0, [pc, #4]	@ (100142a0 <__malloc_lock+0x8>)
1001429a:	f7ff bf79 	b.w	10014190 <__retarget_lock_acquire_recursive>
1001429e:	bf00      	nop
100142a0:	20001464 	.word	0x20001464

100142a4 <__malloc_unlock>:
100142a4:	4801      	ldr	r0, [pc, #4]	@ (100142ac <__malloc_unlock+0x8>)
100142a6:	f7ff bf75 	b.w	10014194 <__retarget_lock_release_recursive>
100142aa:	bf00      	nop
100142ac:	20001464 	.word	0x20001464

100142b0 <atexit>:
100142b0:	2300      	movs	r3, #0
100142b2:	4601      	mov	r1, r0
100142b4:	461a      	mov	r2, r3
100142b6:	4618      	mov	r0, r3
100142b8:	f004 bd1e 	b.w	10018cf8 <__register_exitproc>

100142bc <_wcsrtombs_r>:
100142bc:	b510      	push	{r4, lr}
100142be:	b082      	sub	sp, #8
100142c0:	9c04      	ldr	r4, [sp, #16]
100142c2:	e9cd 3400 	strd	r3, r4, [sp]
100142c6:	f04f 33ff 	mov.w	r3, #4294967295	@ 0xffffffff
100142ca:	f005 fba7 	bl	10019a1c <_wcsnrtombs_r>
100142ce:	b002      	add	sp, #8
100142d0:	bd10      	pop	{r4, pc}
100142d2:	bf00      	nop

100142d4 <quorem>:
100142d4:	e92d 4ff0 	stmdb	sp!, {r4, r5, r6, r7, r8, r9, sl, fp, lr}
100142d8:	6903      	ldr	r3, [r0, #16]
100142da:	690c      	ldr	r4, [r1, #16]
100142dc:	42a3      	cmp	r3, r4
100142de:	b083      	sub	sp, #12
100142e0:	f2c0 808a 	blt.w	100143f8 <quorem+0x124>
100142e4:	3c01      	subs	r4, #1
100142e6:	f101 0514 	add.w	r5, r1, #20
100142ea:	f100 0814 	add.w	r8, r0, #20
100142ee:	f855 3024 	ldr.w	r3, [r5, r4, lsl #2]
100142f2:	f858 2024 	ldr.w	r2, [r8, r4, lsl #2]
100142f6:	3301      	adds	r3, #1
100142f8:	429a      	cmp	r2, r3
100142fa:	468e      	mov	lr, r1
100142fc:	4681      	mov	r9, r0
100142fe:	ea4f 0184 	mov.w	r1, r4, lsl #2
10014302:	eb05 0784 	add.w	r7, r5, r4, lsl #2
10014306:	eb08 0a84 	add.w	sl, r8, r4, lsl #2
1001430a:	fbb2 f6f3 	udiv	r6, r2, r3
1001430e:	d33a      	bcc.n	10014386 <quorem+0xb2>
10014310:	e9cd 1500 	strd	r1, r5, [sp]
10014314:	2200      	movs	r2, #0
10014316:	46ac      	mov	ip, r5
10014318:	4640      	mov	r0, r8
1001431a:	4613      	mov	r3, r2
1001431c:	f85c 1b04 	ldr.w	r1, [ip], #4
10014320:	6805      	ldr	r5, [r0, #0]
10014322:	fa1f fb81 	uxth.w	fp, r1
10014326:	fb06 220b 	mla	r2, r6, fp, r2
1001432a:	0c09      	lsrs	r1, r1, #16
1001432c:	ea4f 4b12 	mov.w	fp, r2, lsr #16
10014330:	fb06 bb01 	mla	fp, r6, r1, fp
10014334:	b292      	uxth	r2, r2
10014336:	b2a9      	uxth	r1, r5
10014338:	1a89      	subs	r1, r1, r2
1001433a:	4419      	add	r1, r3
1001433c:	fa1f f38b 	uxth.w	r3, fp
10014340:	ebc3 4321 	rsb	r3, r3, r1, asr #16
10014344:	eb03 4315 	add.w	r3, r3, r5, lsr #16
10014348:	b289      	uxth	r1, r1
1001434a:	ea41 4103 	orr.w	r1, r1, r3, lsl #16
1001434e:	4567      	cmp	r7, ip
10014350:	f840 1b04 	str.w	r1, [r0], #4
10014354:	ea4f 421b 	mov.w	r2, fp, lsr #16
10014358:	ea4f 4323 	mov.w	r3, r3, asr #16
1001435c:	d2de      	bcs.n	1001431c <quorem+0x48>
1001435e:	e9dd 1500 	ldrd	r1, r5, [sp]
10014362:	f858 3001 	ldr.w	r3, [r8, r1]
10014366:	b973      	cbnz	r3, 10014386 <quorem+0xb2>
10014368:	f1aa 0a04 	sub.w	sl, sl, #4
1001436c:	45d0      	cmp	r8, sl
1001436e:	d304      	bcc.n	1001437a <quorem+0xa6>
10014370:	e007      	b.n	10014382 <quorem+0xae>
10014372:	45d0      	cmp	r8, sl
10014374:	f104 34ff 	add.w	r4, r4, #4294967295	@ 0xffffffff
10014378:	d203      	bcs.n	10014382 <quorem+0xae>
1001437a:	f85a 3904 	ldr.w	r3, [sl], #-4
1001437e:	2b00      	cmp	r3, #0
10014380:	d0f7      	beq.n	10014372 <quorem+0x9e>
10014382:	f8c9 4010 	str.w	r4, [r9, #16]
10014386:	4671      	mov	r1, lr
10014388:	4648      	mov	r0, r9
1001438a:	f005 f961 	bl	10019650 <__mcmp>
1001438e:	2800      	cmp	r0, #0
10014390:	db2e      	blt.n	100143f0 <quorem+0x11c>
10014392:	4641      	mov	r1, r8
10014394:	2200      	movs	r2, #0
10014396:	f855 0b04 	ldr.w	r0, [r5], #4
1001439a:	f8d1 c000 	ldr.w	ip, [r1]
1001439e:	fa1f fe80 	uxth.w	lr, r0
100143a2:	fa1f f38c 	uxth.w	r3, ip
100143a6:	eba3 030e 	sub.w	r3, r3, lr
100143aa:	4413      	add	r3, r2
100143ac:	0c02      	lsrs	r2, r0, #16
100143ae:	ebc2 4223 	rsb	r2, r2, r3, asr #16
100143b2:	eb02 421c 	add.w	r2, r2, ip, lsr #16
100143b6:	b29b      	uxth	r3, r3
100143b8:	ea43 4302 	orr.w	r3, r3, r2, lsl #16
100143bc:	42af      	cmp	r7, r5
100143be:	f841 3b04 	str.w	r3, [r1], #4
100143c2:	ea4f 4222 	mov.w	r2, r2, asr #16
100143c6:	d2e6      	bcs.n	10014396 <quorem+0xc2>
100143c8:	f858 2024 	ldr.w	r2, [r8, r4, lsl #2]
100143cc:	eb08 0384 	add.w	r3, r8, r4, lsl #2
100143d0:	b96a      	cbnz	r2, 100143ee <quorem+0x11a>
100143d2:	3b04      	subs	r3, #4
100143d4:	4598      	cmp	r8, r3
100143d6:	d304      	bcc.n	100143e2 <quorem+0x10e>
100143d8:	e007      	b.n	100143ea <quorem+0x116>
100143da:	4598      	cmp	r8, r3
100143dc:	f104 34ff 	add.w	r4, r4, #4294967295	@ 0xffffffff
100143e0:	d203      	bcs.n	100143ea <quorem+0x116>
100143e2:	f853 2904 	ldr.w	r2, [r3], #-4
100143e6:	2a00      	cmp	r2, #0
100143e8:	d0f7      	beq.n	100143da <quorem+0x106>
100143ea:	f8c9 4010 	str.w	r4, [r9, #16]
100143ee:	3601      	adds	r6, #1
100143f0:	4630      	mov	r0, r6
100143f2:	b003      	add	sp, #12
100143f4:	e8bd 8ff0 	ldmia.w	sp!, {r4, r5, r6, r7, r8, r9, sl, fp, pc}
100143f8:	2000      	movs	r0, #0
100143fa:	b003      	add	sp, #12
100143fc:	e8bd 8ff0 	ldmia.w	sp!, {r4, r5, r6, r7, r8, r9, sl, fp, pc}

10014400 <_dtoa_r>:
10014400:	e92d 4ff0 	stmdb	sp!, {r4, r5, r6, r7, r8, r9, sl, fp, lr}
10014404:	6b81      	ldr	r1, [r0, #56]	@ 0x38
10014406:	b09d      	sub	sp, #116	@ 0x74
10014408:	4616      	mov	r6, r2
1001440a:	461f      	mov	r7, r3
1001440c:	e9cd 6704 	strd	r6, r7, [sp, #16]
10014410:	9d29      	ldr	r5, [sp, #164]	@ 0xa4
10014412:	9002      	str	r0, [sp, #8]
10014414:	b149      	cbz	r1, 1001442a <_dtoa_r+0x2a>
10014416:	6bc2      	ldr	r2, [r0, #60]	@ 0x3c
10014418:	604a      	str	r2, [r1, #4]
1001441a:	2301      	movs	r3, #1
1001441c:	4093      	lsls	r3, r2
1001441e:	4604      	mov	r4, r0
10014420:	608b      	str	r3, [r1, #8]
10014422:	f004 feb3 	bl	1001918c <_Bfree>
10014426:	2300      	movs	r3, #0
10014428:	63a3      	str	r3, [r4, #56]	@ 0x38
1001442a:	f1b7 0900 	subs.w	r9, r7, #0
1001442e:	bfb4      	ite	lt
10014430:	2301      	movlt	r3, #1
10014432:	2300      	movge	r3, #0
10014434:	602b      	str	r3, [r5, #0]
10014436:	4b76      	ldr	r3, [pc, #472]	@ (10014610 <_dtoa_r+0x210>)
10014438:	bfbc      	itt	lt
1001443a:	f029 4900 	biclt.w	r9, r9, #2147483648	@ 0x80000000
1001443e:	f8cd 9014 	strlt.w	r9, [sp, #20]
10014442:	ea33 0309 	bics.w	r3, r3, r9
10014446:	f000 80aa 	beq.w	1001459e <_dtoa_r+0x19e>
1001444a:	ed9d 7b04 	vldr	d7, [sp, #16]
1001444e:	2200      	movs	r2, #0
10014450:	ec51 0b17 	vmov	r0, r1, d7
10014454:	2300      	movs	r3, #0
10014456:	ed8d 7b06 	vstr	d7, [sp, #24]
1001445a:	f006 fb19 	bl	1001aa90 <__aeabi_dcmpeq>
1001445e:	4680      	mov	r8, r0
10014460:	b168      	cbz	r0, 1001447e <_dtoa_r+0x7e>
10014462:	9a28      	ldr	r2, [sp, #160]	@ 0xa0
10014464:	2301      	movs	r3, #1
10014466:	6013      	str	r3, [r2, #0]
10014468:	9b2a      	ldr	r3, [sp, #168]	@ 0xa8
1001446a:	b113      	cbz	r3, 10014472 <_dtoa_r+0x72>
1001446c:	9a2a      	ldr	r2, [sp, #168]	@ 0xa8
1001446e:	4b69      	ldr	r3, [pc, #420]	@ (10014614 <_dtoa_r+0x214>)
10014470:	6013      	str	r3, [r2, #0]
10014472:	4b69      	ldr	r3, [pc, #420]	@ (10014618 <_dtoa_r+0x218>)
10014474:	9303      	str	r3, [sp, #12]
10014476:	9803      	ldr	r0, [sp, #12]
10014478:	b01d      	add	sp, #116	@ 0x74
1001447a:	e8bd 8ff0 	ldmia.w	sp!, {r4, r5, r6, r7, r8, r9, sl, fp, pc}
1001447e:	ab1a      	add	r3, sp, #104	@ 0x68
10014480:	9301      	str	r3, [sp, #4]
10014482:	ab1b      	add	r3, sp, #108	@ 0x6c
10014484:	9300      	str	r3, [sp, #0]
10014486:	9802      	ldr	r0, [sp, #8]
10014488:	e9dd 2306 	ldrd	r2, r3, [sp, #24]
1001448c:	f005 f9b4 	bl	100197f8 <__d2b>
10014490:	ea5f 5519 	movs.w	r5, r9, lsr #20
10014494:	4682      	mov	sl, r0
10014496:	f040 8098 	bne.w	100145ca <_dtoa_r+0x1ca>
1001449a:	e9dd 851a 	ldrd	r8, r5, [sp, #104]	@ 0x68
1001449e:	4445      	add	r5, r8
100144a0:	f205 4332 	addw	r3, r5, #1074	@ 0x432
100144a4:	2b20      	cmp	r3, #32
100144a6:	f340 8381 	ble.w	10014bac <_dtoa_r+0x7ac>
100144aa:	f1c3 0340 	rsb	r3, r3, #64	@ 0x40
100144ae:	fa09 f903 	lsl.w	r9, r9, r3
100144b2:	f205 4312 	addw	r3, r5, #1042	@ 0x412
100144b6:	fa26 f303 	lsr.w	r3, r6, r3
100144ba:	ea49 0003 	orr.w	r0, r9, r3
100144be:	f006 f805 	bl	1001a4cc <__aeabi_ui2d>
100144c2:	2301      	movs	r3, #1
100144c4:	3d01      	subs	r5, #1
100144c6:	930f      	str	r3, [sp, #60]	@ 0x3c
100144c8:	f1a1 71f8 	sub.w	r1, r1, #32505856	@ 0x1f00000
100144cc:	4b53      	ldr	r3, [pc, #332]	@ (1001461c <_dtoa_r+0x21c>)
100144ce:	2200      	movs	r2, #0
100144d0:	f005 febe 	bl	1001a250 <__aeabi_dsub>
100144d4:	a348      	add	r3, pc, #288	@ (adr r3, 100145f8 <_dtoa_r+0x1f8>)
100144d6:	e9d3 2300 	ldrd	r2, r3, [r3]
100144da:	f006 f871 	bl	1001a5c0 <__aeabi_dmul>
100144de:	a348      	add	r3, pc, #288	@ (adr r3, 10014600 <_dtoa_r+0x200>)
100144e0:	e9d3 2300 	ldrd	r2, r3, [r3]
100144e4:	f005 feb6 	bl	1001a254 <__adddf3>
100144e8:	4606      	mov	r6, r0
100144ea:	4628      	mov	r0, r5
100144ec:	460f      	mov	r7, r1
100144ee:	f005 fffd 	bl	1001a4ec <__aeabi_i2d>
100144f2:	a345      	add	r3, pc, #276	@ (adr r3, 10014608 <_dtoa_r+0x208>)
100144f4:	e9d3 2300 	ldrd	r2, r3, [r3]
100144f8:	f006 f862 	bl	1001a5c0 <__aeabi_dmul>
100144fc:	4602      	mov	r2, r0
100144fe:	460b      	mov	r3, r1
10014500:	4630      	mov	r0, r6
10014502:	4639      	mov	r1, r7
10014504:	f005 fea6 	bl	1001a254 <__adddf3>
10014508:	4606      	mov	r6, r0
1001450a:	460f      	mov	r7, r1
1001450c:	f006 fb08 	bl	1001ab20 <__aeabi_d2iz>
10014510:	2200      	movs	r2, #0
10014512:	4683      	mov	fp, r0
10014514:	2300      	movs	r3, #0
10014516:	4630      	mov	r0, r6
10014518:	4639      	mov	r1, r7
1001451a:	f006 fac3 	bl	1001aaa4 <__aeabi_dcmplt>
1001451e:	2800      	cmp	r0, #0
10014520:	f040 8318 	bne.w	10014b54 <_dtoa_r+0x754>
10014524:	eba8 0805 	sub.w	r8, r8, r5
10014528:	f1bb 0f16 	cmp.w	fp, #22
1001452c:	f108 34ff 	add.w	r4, r8, #4294967295	@ 0xffffffff
10014530:	f200 818a 	bhi.w	10014848 <_dtoa_r+0x448>
10014534:	4d3a      	ldr	r5, [pc, #232]	@ (10014620 <_dtoa_r+0x220>)
10014536:	eb05 05cb 	add.w	r5, r5, fp, lsl #3
1001453a:	e9d5 2300 	ldrd	r2, r3, [r5]
1001453e:	e9dd 0106 	ldrd	r0, r1, [sp, #24]
10014542:	f006 faaf 	bl	1001aaa4 <__aeabi_dcmplt>
10014546:	2800      	cmp	r0, #0
10014548:	d070      	beq.n	1001462c <_dtoa_r+0x22c>
1001454a:	2300      	movs	r3, #0
1001454c:	2c00      	cmp	r4, #0
1001454e:	f10b 3bff 	add.w	fp, fp, #4294967295	@ 0xffffffff
10014552:	930e      	str	r3, [sp, #56]	@ 0x38
10014554:	f2c0 817d 	blt.w	10014852 <_dtoa_r+0x452>
10014558:	2300      	movs	r3, #0
1001455a:	9309      	str	r3, [sp, #36]	@ 0x24
1001455c:	f1bb 0f00 	cmp.w	fp, #0
10014560:	da6a      	bge.n	10014638 <_dtoa_r+0x238>
10014562:	9b09      	ldr	r3, [sp, #36]	@ 0x24
10014564:	eba3 030b 	sub.w	r3, r3, fp
10014568:	9309      	str	r3, [sp, #36]	@ 0x24
1001456a:	f1cb 0300 	rsb	r3, fp, #0
1001456e:	e9cd b30c 	strd	fp, r3, [sp, #48]	@ 0x30
10014572:	9b26      	ldr	r3, [sp, #152]	@ 0x98
10014574:	2b09      	cmp	r3, #9
10014576:	f04f 0b00 	mov.w	fp, #0
1001457a:	d865      	bhi.n	10014648 <_dtoa_r+0x248>
1001457c:	2b05      	cmp	r3, #5
1001457e:	f340 831a 	ble.w	10014bb6 <_dtoa_r+0x7b6>
10014582:	3b04      	subs	r3, #4
10014584:	9326      	str	r3, [sp, #152]	@ 0x98
10014586:	2500      	movs	r5, #0
10014588:	9b26      	ldr	r3, [sp, #152]	@ 0x98
1001458a:	3b02      	subs	r3, #2
1001458c:	2b03      	cmp	r3, #3
1001458e:	f200 8621 	bhi.w	100151d4 <_dtoa_r+0xdd4>
10014592:	e8df f013 	tbh	[pc, r3, lsl #1]
10014596:	045e      	.short	0x045e
10014598:	0452045b 	.word	0x0452045b
1001459c:	0436      	.short	0x0436
1001459e:	9a28      	ldr	r2, [sp, #160]	@ 0xa0
100145a0:	f3c9 0913 	ubfx	r9, r9, #0, #20
100145a4:	f242 730f 	movw	r3, #9999	@ 0x270f
100145a8:	ea59 0906 	orrs.w	r9, r9, r6
100145ac:	6013      	str	r3, [r2, #0]
100145ae:	d11c      	bne.n	100145ea <_dtoa_r+0x1ea>
100145b0:	9b2a      	ldr	r3, [sp, #168]	@ 0xa8
100145b2:	2b00      	cmp	r3, #0
100145b4:	f000 8629 	beq.w	1001520a <_dtoa_r+0xe0a>
100145b8:	4b1a      	ldr	r3, [pc, #104]	@ (10014624 <_dtoa_r+0x224>)
100145ba:	9303      	str	r3, [sp, #12]
100145bc:	3308      	adds	r3, #8
100145be:	9a2a      	ldr	r2, [sp, #168]	@ 0xa8
100145c0:	9803      	ldr	r0, [sp, #12]
100145c2:	6013      	str	r3, [r2, #0]
100145c4:	b01d      	add	sp, #116	@ 0x74
100145c6:	e8bd 8ff0 	ldmia.w	sp!, {r4, r5, r6, r7, r8, r9, sl, fp, pc}
100145ca:	e9dd 1206 	ldrd	r1, r2, [sp, #24]
100145ce:	f3c2 0313 	ubfx	r3, r2, #0, #20
100145d2:	4608      	mov	r0, r1
100145d4:	f043 517f 	orr.w	r1, r3, #1069547520	@ 0x3fc00000
100145d8:	f8cd 803c 	str.w	r8, [sp, #60]	@ 0x3c
100145dc:	f2a5 35ff 	subw	r5, r5, #1023	@ 0x3ff
100145e0:	f8dd 8068 	ldr.w	r8, [sp, #104]	@ 0x68
100145e4:	f441 1140 	orr.w	r1, r1, #3145728	@ 0x300000
100145e8:	e770      	b.n	100144cc <_dtoa_r+0xcc>
100145ea:	9b2a      	ldr	r3, [sp, #168]	@ 0xa8
100145ec:	2b00      	cmp	r3, #0
100145ee:	f040 83e5 	bne.w	10014dbc <_dtoa_r+0x9bc>
100145f2:	4b0d      	ldr	r3, [pc, #52]	@ (10014628 <_dtoa_r+0x228>)
100145f4:	9303      	str	r3, [sp, #12]
100145f6:	e73e      	b.n	10014476 <_dtoa_r+0x76>
100145f8:	636f4361 	.word	0x636f4361
100145fc:	3fd287a7 	.word	0x3fd287a7
10014600:	8b60c8b3 	.word	0x8b60c8b3
10014604:	3fc68a28 	.word	0x3fc68a28
10014608:	509f79fb 	.word	0x509f79fb
1001460c:	3fd34413 	.word	0x3fd34413
10014610:	7ff00000 	.word	0x7ff00000
10014614:	1001b131 	.word	0x1001b131
10014618:	1001b130 	.word	0x1001b130
1001461c:	3ff80000 	.word	0x3ff80000
10014620:	1001b430 	.word	0x1001b430
10014624:	1001b19c 	.word	0x1001b19c
10014628:	1001b1a8 	.word	0x1001b1a8
1001462c:	f1b8 0f00 	cmp.w	r8, #0
10014630:	f340 845e 	ble.w	10014ef0 <_dtoa_r+0xaf0>
10014634:	900e      	str	r0, [sp, #56]	@ 0x38
10014636:	9009      	str	r0, [sp, #36]	@ 0x24
10014638:	2300      	movs	r3, #0
1001463a:	930d      	str	r3, [sp, #52]	@ 0x34
1001463c:	9b26      	ldr	r3, [sp, #152]	@ 0x98
1001463e:	f8cd b030 	str.w	fp, [sp, #48]	@ 0x30
10014642:	2b09      	cmp	r3, #9
10014644:	445c      	add	r4, fp
10014646:	d999      	bls.n	1001457c <_dtoa_r+0x17c>
10014648:	2300      	movs	r3, #0
1001464a:	e9cd 3326 	strd	r3, r3, [sp, #152]	@ 0x98
1001464e:	2501      	movs	r5, #1
10014650:	f04f 33ff 	mov.w	r3, #4294967295	@ 0xffffffff
10014654:	950a      	str	r5, [sp, #40]	@ 0x28
10014656:	9308      	str	r3, [sp, #32]
10014658:	9b02      	ldr	r3, [sp, #8]
1001465a:	2100      	movs	r1, #0
1001465c:	63d9      	str	r1, [r3, #60]	@ 0x3c
1001465e:	9b08      	ldr	r3, [sp, #32]
10014660:	9316      	str	r3, [sp, #88]	@ 0x58
10014662:	9802      	ldr	r0, [sp, #8]
10014664:	f004 fd6c 	bl	10019140 <_Balloc>
10014668:	9003      	str	r0, [sp, #12]
1001466a:	2800      	cmp	r0, #0
1001466c:	f000 85bb 	beq.w	100151e6 <_dtoa_r+0xde6>
10014670:	e9dd 3202 	ldrd	r3, r2, [sp, #8]
10014674:	639a      	str	r2, [r3, #56]	@ 0x38
10014676:	9b08      	ldr	r3, [sp, #32]
10014678:	2b0e      	cmp	r3, #14
1001467a:	f200 8114 	bhi.w	100148a6 <_dtoa_r+0x4a6>
1001467e:	2d00      	cmp	r5, #0
10014680:	f000 8111 	beq.w	100148a6 <_dtoa_r+0x4a6>
10014684:	9a0c      	ldr	r2, [sp, #48]	@ 0x30
10014686:	2a00      	cmp	r2, #0
10014688:	f340 8439 	ble.w	10014efe <_dtoa_r+0xafe>
1001468c:	4db1      	ldr	r5, [pc, #708]	@ (10014954 <_dtoa_r+0x554>)
1001468e:	f002 030f 	and.w	r3, r2, #15
10014692:	eb05 03c3 	add.w	r3, r5, r3, lsl #3
10014696:	1115      	asrs	r5, r2, #4
10014698:	05d2      	lsls	r2, r2, #23
1001469a:	e9d3 8900 	ldrd	r8, r9, [r3]
1001469e:	f140 83f9 	bpl.w	10014e94 <_dtoa_r+0xa94>
100146a2:	4bad      	ldr	r3, [pc, #692]	@ (10014958 <_dtoa_r+0x558>)
100146a4:	e9dd 0106 	ldrd	r0, r1, [sp, #24]
100146a8:	e9d3 2308 	ldrd	r2, r3, [r3, #32]
100146ac:	f006 f8b2 	bl	1001a814 <__aeabi_ddiv>
100146b0:	e9cd 0110 	strd	r0, r1, [sp, #64]	@ 0x40
100146b4:	f005 050f 	and.w	r5, r5, #15
100146b8:	2703      	movs	r7, #3
100146ba:	b17d      	cbz	r5, 100146dc <_dtoa_r+0x2dc>
100146bc:	4ea6      	ldr	r6, [pc, #664]	@ (10014958 <_dtoa_r+0x558>)
100146be:	07eb      	lsls	r3, r5, #31
100146c0:	d508      	bpl.n	100146d4 <_dtoa_r+0x2d4>
100146c2:	4640      	mov	r0, r8
100146c4:	4649      	mov	r1, r9
100146c6:	e9d6 2300 	ldrd	r2, r3, [r6]
100146ca:	f005 ff79 	bl	1001a5c0 <__aeabi_dmul>
100146ce:	3701      	adds	r7, #1
100146d0:	4680      	mov	r8, r0
100146d2:	4689      	mov	r9, r1
100146d4:	106d      	asrs	r5, r5, #1
100146d6:	f106 0608 	add.w	r6, r6, #8
100146da:	d1f0      	bne.n	100146be <_dtoa_r+0x2be>
100146dc:	4642      	mov	r2, r8
100146de:	464b      	mov	r3, r9
100146e0:	e9dd 0110 	ldrd	r0, r1, [sp, #64]	@ 0x40
100146e4:	f006 f896 	bl	1001a814 <__aeabi_ddiv>
100146e8:	4680      	mov	r8, r0
100146ea:	4689      	mov	r9, r1
100146ec:	9b0e      	ldr	r3, [sp, #56]	@ 0x38
100146ee:	b143      	cbz	r3, 10014702 <_dtoa_r+0x302>
100146f0:	4b9a      	ldr	r3, [pc, #616]	@ (1001495c <_dtoa_r+0x55c>)
100146f2:	2200      	movs	r2, #0
100146f4:	4640      	mov	r0, r8
100146f6:	4649      	mov	r1, r9
100146f8:	f006 f9d4 	bl	1001aaa4 <__aeabi_dcmplt>
100146fc:	2800      	cmp	r0, #0
100146fe:	f040 84f0 	bne.w	100150e2 <_dtoa_r+0xce2>
10014702:	4638      	mov	r0, r7
10014704:	f005 fef2 	bl	1001a4ec <__aeabi_i2d>
10014708:	4642      	mov	r2, r8
1001470a:	464b      	mov	r3, r9
1001470c:	f005 ff58 	bl	1001a5c0 <__aeabi_dmul>
10014710:	4b93      	ldr	r3, [pc, #588]	@ (10014960 <_dtoa_r+0x560>)
10014712:	2200      	movs	r2, #0
10014714:	f005 fd9e 	bl	1001a254 <__adddf3>
10014718:	9b08      	ldr	r3, [sp, #32]
1001471a:	4606      	mov	r6, r0
1001471c:	f1a1 7750 	sub.w	r7, r1, #54525952	@ 0x3400000
10014720:	2b00      	cmp	r3, #0
10014722:	f000 80a9 	beq.w	10014878 <_dtoa_r+0x478>
10014726:	9b0c      	ldr	r3, [sp, #48]	@ 0x30
10014728:	9317      	str	r3, [sp, #92]	@ 0x5c
1001472a:	9b08      	ldr	r3, [sp, #32]
1001472c:	9310      	str	r3, [sp, #64]	@ 0x40
1001472e:	9b03      	ldr	r3, [sp, #12]
10014730:	4d88      	ldr	r5, [pc, #544]	@ (10014954 <_dtoa_r+0x554>)
10014732:	4649      	mov	r1, r9
10014734:	4640      	mov	r0, r8
10014736:	e9cd 6712 	strd	r6, r7, [sp, #72]	@ 0x48
1001473a:	1c5e      	adds	r6, r3, #1
1001473c:	f006 f9f0 	bl	1001ab20 <__aeabi_d2iz>
10014740:	9910      	ldr	r1, [sp, #64]	@ 0x40
10014742:	eb05 03c1 	add.w	r3, r5, r1, lsl #3
10014746:	ed13 7b02 	vldr	d7, [r3, #-8]
1001474a:	4607      	mov	r7, r0
1001474c:	ed8d 7b14 	vstr	d7, [sp, #80]	@ 0x50
10014750:	f005 fecc 	bl	1001a4ec <__aeabi_i2d>
10014754:	4602      	mov	r2, r0
10014756:	460b      	mov	r3, r1
10014758:	4640      	mov	r0, r8
1001475a:	4649      	mov	r1, r9
1001475c:	f005 fd78 	bl	1001a250 <__aeabi_dsub>
10014760:	4689      	mov	r9, r1
10014762:	990a      	ldr	r1, [sp, #40]	@ 0x28
10014764:	3730      	adds	r7, #48	@ 0x30
10014766:	e9dd 2314 	ldrd	r2, r3, [sp, #80]	@ 0x50
1001476a:	4680      	mov	r8, r0
1001476c:	b2ff      	uxtb	r7, r7
1001476e:	2900      	cmp	r1, #0
10014770:	f000 8452 	beq.w	10015018 <_dtoa_r+0xc18>
10014774:	497b      	ldr	r1, [pc, #492]	@ (10014964 <_dtoa_r+0x564>)
10014776:	2000      	movs	r0, #0
10014778:	f006 f84c 	bl	1001a814 <__aeabi_ddiv>
1001477c:	e9dd 2312 	ldrd	r2, r3, [sp, #72]	@ 0x48
10014780:	f005 fd66 	bl	1001a250 <__aeabi_dsub>
10014784:	9d03      	ldr	r5, [sp, #12]
10014786:	4602      	mov	r2, r0
10014788:	460b      	mov	r3, r1
1001478a:	e9cd 2312 	strd	r2, r3, [sp, #72]	@ 0x48
1001478e:	702f      	strb	r7, [r5, #0]
10014790:	4642      	mov	r2, r8
10014792:	464b      	mov	r3, r9
10014794:	f006 f9a4 	bl	1001aae0 <__aeabi_dcmpgt>
10014798:	2800      	cmp	r0, #0
1001479a:	f040 8496 	bne.w	100150ca <_dtoa_r+0xcca>
1001479e:	e9cd b418 	strd	fp, r4, [sp, #96]	@ 0x60
100147a2:	f8cd a050 	str.w	sl, [sp, #80]	@ 0x50
100147a6:	9d10      	ldr	r5, [sp, #64]	@ 0x40
100147a8:	e9dd ab12 	ldrd	sl, fp, [sp, #72]	@ 0x48
100147ac:	2700      	movs	r7, #0
100147ae:	e02a      	b.n	10014806 <_dtoa_r+0x406>
100147b0:	3701      	adds	r7, #1
100147b2:	42af      	cmp	r7, r5
100147b4:	f280 84dd 	bge.w	10015172 <_dtoa_r+0xd72>
100147b8:	4b6b      	ldr	r3, [pc, #428]	@ (10014968 <_dtoa_r+0x568>)
100147ba:	4650      	mov	r0, sl
100147bc:	4659      	mov	r1, fp
100147be:	2200      	movs	r2, #0
100147c0:	f005 fefe 	bl	1001a5c0 <__aeabi_dmul>
100147c4:	4b68      	ldr	r3, [pc, #416]	@ (10014968 <_dtoa_r+0x568>)
100147c6:	2200      	movs	r2, #0
100147c8:	4682      	mov	sl, r0
100147ca:	468b      	mov	fp, r1
100147cc:	4640      	mov	r0, r8
100147ce:	4649      	mov	r1, r9
100147d0:	f005 fef6 	bl	1001a5c0 <__aeabi_dmul>
100147d4:	4689      	mov	r9, r1
100147d6:	4680      	mov	r8, r0
100147d8:	f006 f9a2 	bl	1001ab20 <__aeabi_d2iz>
100147dc:	4604      	mov	r4, r0
100147de:	f005 fe85 	bl	1001a4ec <__aeabi_i2d>
100147e2:	4602      	mov	r2, r0
100147e4:	460b      	mov	r3, r1
100147e6:	4640      	mov	r0, r8
100147e8:	4649      	mov	r1, r9
100147ea:	f005 fd31 	bl	1001a250 <__aeabi_dsub>
100147ee:	3430      	adds	r4, #48	@ 0x30
100147f0:	f806 4b01 	strb.w	r4, [r6], #1
100147f4:	4652      	mov	r2, sl
100147f6:	465b      	mov	r3, fp
100147f8:	4680      	mov	r8, r0
100147fa:	4689      	mov	r9, r1
100147fc:	f006 f952 	bl	1001aaa4 <__aeabi_dcmplt>
10014800:	2800      	cmp	r0, #0
10014802:	f040 84b3 	bne.w	1001516c <_dtoa_r+0xd6c>
10014806:	4642      	mov	r2, r8
10014808:	464b      	mov	r3, r9
1001480a:	4954      	ldr	r1, [pc, #336]	@ (1001495c <_dtoa_r+0x55c>)
1001480c:	2000      	movs	r0, #0
1001480e:	f005 fd1f 	bl	1001a250 <__aeabi_dsub>
10014812:	4652      	mov	r2, sl
10014814:	465b      	mov	r3, fp
10014816:	f006 f945 	bl	1001aaa4 <__aeabi_dcmplt>
1001481a:	2800      	cmp	r0, #0
1001481c:	d0c8      	beq.n	100147b0 <_dtoa_r+0x3b0>
1001481e:	9b17      	ldr	r3, [sp, #92]	@ 0x5c
10014820:	f8dd a050 	ldr.w	sl, [sp, #80]	@ 0x50
10014824:	9a03      	ldr	r2, [sp, #12]
10014826:	4637      	mov	r7, r6
10014828:	f103 0801 	add.w	r8, r3, #1
1001482c:	e002      	b.n	10014834 <_dtoa_r+0x434>
1001482e:	4297      	cmp	r7, r2
10014830:	f000 847b 	beq.w	1001512a <_dtoa_r+0xd2a>
10014834:	463e      	mov	r6, r7
10014836:	f817 3d01 	ldrb.w	r3, [r7, #-1]!
1001483a:	2b39      	cmp	r3, #57	@ 0x39
1001483c:	d0f7      	beq.n	1001482e <_dtoa_r+0x42e>
1001483e:	3301      	adds	r3, #1
10014840:	b2db      	uxtb	r3, r3
10014842:	703b      	strb	r3, [r7, #0]
10014844:	4645      	mov	r5, r8
10014846:	e174      	b.n	10014b32 <_dtoa_r+0x732>
10014848:	2301      	movs	r3, #1
1001484a:	2c00      	cmp	r4, #0
1001484c:	930e      	str	r3, [sp, #56]	@ 0x38
1001484e:	f6bf ae83 	bge.w	10014558 <_dtoa_r+0x158>
10014852:	f1c8 0301 	rsb	r3, r8, #1
10014856:	9309      	str	r3, [sp, #36]	@ 0x24
10014858:	2400      	movs	r4, #0
1001485a:	e67f      	b.n	1001455c <_dtoa_r+0x15c>
1001485c:	4638      	mov	r0, r7
1001485e:	f005 fe45 	bl	1001a4ec <__aeabi_i2d>
10014862:	4642      	mov	r2, r8
10014864:	464b      	mov	r3, r9
10014866:	f005 feab 	bl	1001a5c0 <__aeabi_dmul>
1001486a:	4b3d      	ldr	r3, [pc, #244]	@ (10014960 <_dtoa_r+0x560>)
1001486c:	2200      	movs	r2, #0
1001486e:	f005 fcf1 	bl	1001a254 <__adddf3>
10014872:	4606      	mov	r6, r0
10014874:	f1a1 7750 	sub.w	r7, r1, #54525952	@ 0x3400000
10014878:	4b3c      	ldr	r3, [pc, #240]	@ (1001496c <_dtoa_r+0x56c>)
1001487a:	4640      	mov	r0, r8
1001487c:	4649      	mov	r1, r9
1001487e:	2200      	movs	r2, #0
10014880:	f005 fce6 	bl	1001a250 <__aeabi_dsub>
10014884:	4632      	mov	r2, r6
10014886:	463b      	mov	r3, r7
10014888:	4680      	mov	r8, r0
1001488a:	4689      	mov	r9, r1
1001488c:	f006 f928 	bl	1001aae0 <__aeabi_dcmpgt>
10014890:	2800      	cmp	r0, #0
10014892:	f040 8459 	bne.w	10015148 <_dtoa_r+0xd48>
10014896:	4640      	mov	r0, r8
10014898:	4649      	mov	r1, r9
1001489a:	4632      	mov	r2, r6
1001489c:	f107 4300 	add.w	r3, r7, #2147483648	@ 0x80000000
100148a0:	f006 f900 	bl	1001aaa4 <__aeabi_dcmplt>
100148a4:	bb28      	cbnz	r0, 100148f2 <_dtoa_r+0x4f2>
100148a6:	9b1b      	ldr	r3, [sp, #108]	@ 0x6c
100148a8:	2b00      	cmp	r3, #0
100148aa:	f2c0 8091 	blt.w	100149d0 <_dtoa_r+0x5d0>
100148ae:	9a0c      	ldr	r2, [sp, #48]	@ 0x30
100148b0:	2a0e      	cmp	r2, #14
100148b2:	f300 808d 	bgt.w	100149d0 <_dtoa_r+0x5d0>
100148b6:	4d27      	ldr	r5, [pc, #156]	@ (10014954 <_dtoa_r+0x554>)
100148b8:	9b0c      	ldr	r3, [sp, #48]	@ 0x30
100148ba:	eb05 05c3 	add.w	r5, r5, r3, lsl #3
100148be:	ed95 7b00 	vldr	d7, [r5]
100148c2:	9b27      	ldr	r3, [sp, #156]	@ 0x9c
100148c4:	2b00      	cmp	r3, #0
100148c6:	ed8d 7b04 	vstr	d7, [sp, #16]
100148ca:	da19      	bge.n	10014900 <_dtoa_r+0x500>
100148cc:	9b08      	ldr	r3, [sp, #32]
100148ce:	2b00      	cmp	r3, #0
100148d0:	dc16      	bgt.n	10014900 <_dtoa_r+0x500>
100148d2:	d10e      	bne.n	100148f2 <_dtoa_r+0x4f2>
100148d4:	4b25      	ldr	r3, [pc, #148]	@ (1001496c <_dtoa_r+0x56c>)
100148d6:	2200      	movs	r2, #0
100148d8:	e9dd 0104 	ldrd	r0, r1, [sp, #16]
100148dc:	f005 fe70 	bl	1001a5c0 <__aeabi_dmul>
100148e0:	4602      	mov	r2, r0
100148e2:	460b      	mov	r3, r1
100148e4:	e9dd 0106 	ldrd	r0, r1, [sp, #24]
100148e8:	f006 f8e6 	bl	1001aab8 <__aeabi_dcmple>
100148ec:	2800      	cmp	r0, #0
100148ee:	f000 842b 	beq.w	10015148 <_dtoa_r+0xd48>
100148f2:	f04f 0900 	mov.w	r9, #0
100148f6:	9e03      	ldr	r6, [sp, #12]
100148f8:	464f      	mov	r7, r9
100148fa:	9b27      	ldr	r3, [sp, #156]	@ 0x9c
100148fc:	43dd      	mvns	r5, r3
100148fe:	e224      	b.n	10014d4a <_dtoa_r+0x94a>
10014900:	e9dd 4504 	ldrd	r4, r5, [sp, #16]
10014904:	e9dd 8906 	ldrd	r8, r9, [sp, #24]
10014908:	4622      	mov	r2, r4
1001490a:	462b      	mov	r3, r5
1001490c:	4640      	mov	r0, r8
1001490e:	4649      	mov	r1, r9
10014910:	f005 ff80 	bl	1001a814 <__aeabi_ddiv>
10014914:	f006 f904 	bl	1001ab20 <__aeabi_d2iz>
10014918:	4606      	mov	r6, r0
1001491a:	f005 fde7 	bl	1001a4ec <__aeabi_i2d>
1001491e:	4622      	mov	r2, r4
10014920:	462b      	mov	r3, r5
10014922:	f005 fe4d 	bl	1001a5c0 <__aeabi_dmul>
10014926:	9f03      	ldr	r7, [sp, #12]
10014928:	460b      	mov	r3, r1
1001492a:	4602      	mov	r2, r0
1001492c:	4649      	mov	r1, r9
1001492e:	4640      	mov	r0, r8
10014930:	f005 fc8e 	bl	1001a250 <__aeabi_dsub>
10014934:	f106 0330 	add.w	r3, r6, #48	@ 0x30
10014938:	f807 3b01 	strb.w	r3, [r7], #1
1001493c:	9b08      	ldr	r3, [sp, #32]
1001493e:	2b01      	cmp	r3, #1
10014940:	f000 8311 	beq.w	10014f66 <_dtoa_r+0xb66>
10014944:	2501      	movs	r5, #1
10014946:	f8cd a018 	str.w	sl, [sp, #24]
1001494a:	4699      	mov	r9, r3
1001494c:	e9dd ab04 	ldrd	sl, fp, [sp, #16]
10014950:	46a8      	mov	r8, r5
10014952:	e02b      	b.n	100149ac <_dtoa_r+0x5ac>
10014954:	1001b430 	.word	0x1001b430
10014958:	1001b408 	.word	0x1001b408
1001495c:	3ff00000 	.word	0x3ff00000
10014960:	401c0000 	.word	0x401c0000
10014964:	3fe00000 	.word	0x3fe00000
10014968:	40240000 	.word	0x40240000
1001496c:	40140000 	.word	0x40140000
10014970:	4652      	mov	r2, sl
10014972:	465b      	mov	r3, fp
10014974:	4620      	mov	r0, r4
10014976:	4629      	mov	r1, r5
10014978:	f005 ff4c 	bl	1001a814 <__aeabi_ddiv>
1001497c:	f006 f8d0 	bl	1001ab20 <__aeabi_d2iz>
10014980:	4606      	mov	r6, r0
10014982:	f005 fdb3 	bl	1001a4ec <__aeabi_i2d>
10014986:	4652      	mov	r2, sl
10014988:	465b      	mov	r3, fp
1001498a:	f005 fe19 	bl	1001a5c0 <__aeabi_dmul>
1001498e:	f108 0801 	add.w	r8, r8, #1
10014992:	460b      	mov	r3, r1
10014994:	4602      	mov	r2, r0
10014996:	4629      	mov	r1, r5
10014998:	4620      	mov	r0, r4
1001499a:	f005 fc59 	bl	1001a250 <__aeabi_dsub>
1001499e:	f106 0330 	add.w	r3, r6, #48	@ 0x30
100149a2:	45c8      	cmp	r8, r9
100149a4:	f807 3b01 	strb.w	r3, [r7], #1
100149a8:	f000 82db 	beq.w	10014f62 <_dtoa_r+0xb62>
100149ac:	4bb9      	ldr	r3, [pc, #740]	@ (10014c94 <_dtoa_r+0x894>)
100149ae:	2200      	movs	r2, #0
100149b0:	f005 fe06 	bl	1001a5c0 <__aeabi_dmul>
100149b4:	2200      	movs	r2, #0
100149b6:	2300      	movs	r3, #0
100149b8:	4604      	mov	r4, r0
100149ba:	460d      	mov	r5, r1
100149bc:	f006 f868 	bl	1001aa90 <__aeabi_dcmpeq>
100149c0:	2800      	cmp	r0, #0
100149c2:	d0d5      	beq.n	10014970 <_dtoa_r+0x570>
100149c4:	9d0c      	ldr	r5, [sp, #48]	@ 0x30
100149c6:	f8dd a018 	ldr.w	sl, [sp, #24]
100149ca:	3501      	adds	r5, #1
100149cc:	463e      	mov	r6, r7
100149ce:	e0b0      	b.n	10014b32 <_dtoa_r+0x732>
100149d0:	9a0a      	ldr	r2, [sp, #40]	@ 0x28
100149d2:	2a00      	cmp	r2, #0
100149d4:	f040 80d2 	bne.w	10014b7c <_dtoa_r+0x77c>
100149d8:	2300      	movs	r3, #0
100149da:	9d0d      	ldr	r5, [sp, #52]	@ 0x34
100149dc:	9e09      	ldr	r6, [sp, #36]	@ 0x24
100149de:	930a      	str	r3, [sp, #40]	@ 0x28
100149e0:	461f      	mov	r7, r3
100149e2:	b156      	cbz	r6, 100149fa <_dtoa_r+0x5fa>
100149e4:	2c00      	cmp	r4, #0
100149e6:	dd08      	ble.n	100149fa <_dtoa_r+0x5fa>
100149e8:	42a6      	cmp	r6, r4
100149ea:	9a09      	ldr	r2, [sp, #36]	@ 0x24
100149ec:	4633      	mov	r3, r6
100149ee:	bfa8      	it	ge
100149f0:	4623      	movge	r3, r4
100149f2:	1ad2      	subs	r2, r2, r3
100149f4:	9209      	str	r2, [sp, #36]	@ 0x24
100149f6:	1af6      	subs	r6, r6, r3
100149f8:	1ae4      	subs	r4, r4, r3
100149fa:	9b0d      	ldr	r3, [sp, #52]	@ 0x34
100149fc:	b153      	cbz	r3, 10014a14 <_dtoa_r+0x614>
100149fe:	9b0a      	ldr	r3, [sp, #40]	@ 0x28
10014a00:	b113      	cbz	r3, 10014a08 <_dtoa_r+0x608>
10014a02:	2d00      	cmp	r5, #0
10014a04:	f040 82e8 	bne.w	10014fd8 <_dtoa_r+0xbd8>
10014a08:	4651      	mov	r1, sl
10014a0a:	9a0d      	ldr	r2, [sp, #52]	@ 0x34
10014a0c:	9802      	ldr	r0, [sp, #8]
10014a0e:	f004 fd4d 	bl	100194ac <__pow5mult>
10014a12:	4682      	mov	sl, r0
10014a14:	9802      	ldr	r0, [sp, #8]
10014a16:	2101      	movs	r1, #1
10014a18:	f004 fc64 	bl	100192e4 <__i2b>
10014a1c:	4681      	mov	r9, r0
10014a1e:	f1bb 0f00 	cmp.w	fp, #0
10014a22:	f040 81b6 	bne.w	10014d92 <_dtoa_r+0x992>
10014a26:	9b26      	ldr	r3, [sp, #152]	@ 0x98
10014a28:	2b01      	cmp	r3, #1
10014a2a:	f340 81cc 	ble.w	10014dc6 <_dtoa_r+0x9c6>
10014a2e:	2001      	movs	r0, #1
10014a30:	4420      	add	r0, r4
10014a32:	f010 001f 	ands.w	r0, r0, #31
10014a36:	f000 809a 	beq.w	10014b6e <_dtoa_r+0x76e>
10014a3a:	f1c0 0320 	rsb	r3, r0, #32
10014a3e:	2b04      	cmp	r3, #4
10014a40:	f340 81da 	ble.w	10014df8 <_dtoa_r+0x9f8>
10014a44:	9b09      	ldr	r3, [sp, #36]	@ 0x24
10014a46:	f1c0 001c 	rsb	r0, r0, #28
10014a4a:	4403      	add	r3, r0
10014a4c:	9309      	str	r3, [sp, #36]	@ 0x24
10014a4e:	4406      	add	r6, r0
10014a50:	4404      	add	r4, r0
10014a52:	9b09      	ldr	r3, [sp, #36]	@ 0x24
10014a54:	2b00      	cmp	r3, #0
10014a56:	dd05      	ble.n	10014a64 <_dtoa_r+0x664>
10014a58:	4651      	mov	r1, sl
10014a5a:	9802      	ldr	r0, [sp, #8]
10014a5c:	461a      	mov	r2, r3
10014a5e:	f004 fd7f 	bl	10019560 <__lshift>
10014a62:	4682      	mov	sl, r0
10014a64:	2c00      	cmp	r4, #0
10014a66:	dd05      	ble.n	10014a74 <_dtoa_r+0x674>
10014a68:	4649      	mov	r1, r9
10014a6a:	9802      	ldr	r0, [sp, #8]
10014a6c:	4622      	mov	r2, r4
10014a6e:	f004 fd77 	bl	10019560 <__lshift>
10014a72:	4681      	mov	r9, r0
10014a74:	9b0e      	ldr	r3, [sp, #56]	@ 0x38
10014a76:	2b00      	cmp	r3, #0
10014a78:	f040 8170 	bne.w	10014d5c <_dtoa_r+0x95c>
10014a7c:	9b08      	ldr	r3, [sp, #32]
10014a7e:	2b00      	cmp	r3, #0
10014a80:	f340 8148 	ble.w	10014d14 <_dtoa_r+0x914>
10014a84:	9b0a      	ldr	r3, [sp, #40]	@ 0x28
10014a86:	2b00      	cmp	r3, #0
10014a88:	f040 80a4 	bne.w	10014bd4 <_dtoa_r+0x7d4>
10014a8c:	9d0c      	ldr	r5, [sp, #48]	@ 0x30
10014a8e:	3501      	adds	r5, #1
10014a90:	f8dd 800c 	ldr.w	r8, [sp, #12]
10014a94:	9c08      	ldr	r4, [sp, #32]
10014a96:	f8dd b008 	ldr.w	fp, [sp, #8]
10014a9a:	2601      	movs	r6, #1
10014a9c:	e007      	b.n	10014aae <_dtoa_r+0x6ae>
10014a9e:	4651      	mov	r1, sl
10014aa0:	2300      	movs	r3, #0
10014aa2:	220a      	movs	r2, #10
10014aa4:	4658      	mov	r0, fp
10014aa6:	f004 fb7b 	bl	100191a0 <__multadd>
10014aaa:	3601      	adds	r6, #1
10014aac:	4682      	mov	sl, r0
10014aae:	4649      	mov	r1, r9
10014ab0:	4650      	mov	r0, sl
10014ab2:	f7ff fc0f 	bl	100142d4 <quorem>
10014ab6:	42a6      	cmp	r6, r4
10014ab8:	f100 0330 	add.w	r3, r0, #48	@ 0x30
10014abc:	f808 3b01 	strb.w	r3, [r8], #1
10014ac0:	dbed      	blt.n	10014a9e <_dtoa_r+0x69e>
10014ac2:	9a08      	ldr	r2, [sp, #32]
10014ac4:	2a00      	cmp	r2, #0
10014ac6:	bfc8      	it	gt
10014ac8:	4616      	movgt	r6, r2
10014aca:	9a03      	ldr	r2, [sp, #12]
10014acc:	bfd8      	it	le
10014ace:	2601      	movle	r6, #1
10014ad0:	eb02 0b06 	add.w	fp, r2, r6
10014ad4:	2400      	movs	r4, #0
10014ad6:	4651      	mov	r1, sl
10014ad8:	2201      	movs	r2, #1
10014ada:	9802      	ldr	r0, [sp, #8]
10014adc:	9304      	str	r3, [sp, #16]
10014ade:	f004 fd3f 	bl	10019560 <__lshift>
10014ae2:	4649      	mov	r1, r9
10014ae4:	4682      	mov	sl, r0
10014ae6:	f004 fdb3 	bl	10019650 <__mcmp>
10014aea:	2800      	cmp	r0, #0
10014aec:	f340 81e3 	ble.w	10014eb6 <_dtoa_r+0xab6>
10014af0:	9a03      	ldr	r2, [sp, #12]
10014af2:	e002      	b.n	10014afa <_dtoa_r+0x6fa>
10014af4:	455a      	cmp	r2, fp
10014af6:	f000 81e9 	beq.w	10014ecc <_dtoa_r+0xacc>
10014afa:	465e      	mov	r6, fp
10014afc:	f10b 3bff 	add.w	fp, fp, #4294967295	@ 0xffffffff
10014b00:	f816 3c01 	ldrb.w	r3, [r6, #-1]
10014b04:	2b39      	cmp	r3, #57	@ 0x39
10014b06:	d0f5      	beq.n	10014af4 <_dtoa_r+0x6f4>
10014b08:	3301      	adds	r3, #1
10014b0a:	f88b 3000 	strb.w	r3, [fp]
10014b0e:	f8dd 8008 	ldr.w	r8, [sp, #8]
10014b12:	4649      	mov	r1, r9
10014b14:	4640      	mov	r0, r8
10014b16:	f004 fb39 	bl	1001918c <_Bfree>
10014b1a:	b157      	cbz	r7, 10014b32 <_dtoa_r+0x732>
10014b1c:	b12c      	cbz	r4, 10014b2a <_dtoa_r+0x72a>
10014b1e:	42bc      	cmp	r4, r7
10014b20:	d003      	beq.n	10014b2a <_dtoa_r+0x72a>
10014b22:	4621      	mov	r1, r4
10014b24:	4640      	mov	r0, r8
10014b26:	f004 fb31 	bl	1001918c <_Bfree>
10014b2a:	9802      	ldr	r0, [sp, #8]
10014b2c:	4639      	mov	r1, r7
10014b2e:	f004 fb2d 	bl	1001918c <_Bfree>
10014b32:	9802      	ldr	r0, [sp, #8]
10014b34:	4651      	mov	r1, sl
10014b36:	f004 fb29 	bl	1001918c <_Bfree>
10014b3a:	2300      	movs	r3, #0
10014b3c:	7033      	strb	r3, [r6, #0]
10014b3e:	9b28      	ldr	r3, [sp, #160]	@ 0xa0
10014b40:	601d      	str	r5, [r3, #0]
10014b42:	9b2a      	ldr	r3, [sp, #168]	@ 0xa8
10014b44:	2b00      	cmp	r3, #0
10014b46:	f43f ac96 	beq.w	10014476 <_dtoa_r+0x76>
10014b4a:	9803      	ldr	r0, [sp, #12]
10014b4c:	601e      	str	r6, [r3, #0]
10014b4e:	b01d      	add	sp, #116	@ 0x74
10014b50:	e8bd 8ff0 	ldmia.w	sp!, {r4, r5, r6, r7, r8, r9, sl, fp, pc}
10014b54:	4658      	mov	r0, fp
10014b56:	f005 fcc9 	bl	1001a4ec <__aeabi_i2d>
10014b5a:	4632      	mov	r2, r6
10014b5c:	463b      	mov	r3, r7
10014b5e:	f005 ff97 	bl	1001aa90 <__aeabi_dcmpeq>
10014b62:	2800      	cmp	r0, #0
10014b64:	f47f acde 	bne.w	10014524 <_dtoa_r+0x124>
10014b68:	f10b 3bff 	add.w	fp, fp, #4294967295	@ 0xffffffff
10014b6c:	e4da      	b.n	10014524 <_dtoa_r+0x124>
10014b6e:	231c      	movs	r3, #28
10014b70:	9a09      	ldr	r2, [sp, #36]	@ 0x24
10014b72:	441a      	add	r2, r3
10014b74:	9209      	str	r2, [sp, #36]	@ 0x24
10014b76:	441e      	add	r6, r3
10014b78:	441c      	add	r4, r3
10014b7a:	e76a      	b.n	10014a52 <_dtoa_r+0x652>
10014b7c:	9a26      	ldr	r2, [sp, #152]	@ 0x98
10014b7e:	2a01      	cmp	r2, #1
10014b80:	f340 81a9 	ble.w	10014ed6 <_dtoa_r+0xad6>
10014b84:	9b08      	ldr	r3, [sp, #32]
10014b86:	9a0d      	ldr	r2, [sp, #52]	@ 0x34
10014b88:	1e5d      	subs	r5, r3, #1
10014b8a:	42aa      	cmp	r2, r5
10014b8c:	f2c0 816b 	blt.w	10014e66 <_dtoa_r+0xa66>
10014b90:	2b00      	cmp	r3, #0
10014b92:	eba2 0505 	sub.w	r5, r2, r5
10014b96:	f280 82dd 	bge.w	10015154 <_dtoa_r+0xd54>
10014b9a:	e9dd 2308 	ldrd	r2, r3, [sp, #32]
10014b9e:	1a9e      	subs	r6, r3, r2
10014ba0:	9802      	ldr	r0, [sp, #8]
10014ba2:	2101      	movs	r1, #1
10014ba4:	f004 fb9e 	bl	100192e4 <__i2b>
10014ba8:	4607      	mov	r7, r0
10014baa:	e71a      	b.n	100149e2 <_dtoa_r+0x5e2>
10014bac:	f1c3 0320 	rsb	r3, r3, #32
10014bb0:	fa06 f003 	lsl.w	r0, r6, r3
10014bb4:	e483      	b.n	100144be <_dtoa_r+0xbe>
10014bb6:	2501      	movs	r5, #1
10014bb8:	e4e6      	b.n	10014588 <_dtoa_r+0x188>
10014bba:	4639      	mov	r1, r7
10014bbc:	2300      	movs	r3, #0
10014bbe:	9802      	ldr	r0, [sp, #8]
10014bc0:	220a      	movs	r2, #10
10014bc2:	f004 faed 	bl	100191a0 <__multadd>
10014bc6:	9b16      	ldr	r3, [sp, #88]	@ 0x58
10014bc8:	2b00      	cmp	r3, #0
10014bca:	4607      	mov	r7, r0
10014bcc:	f340 82ef 	ble.w	100151ae <_dtoa_r+0xdae>
10014bd0:	950c      	str	r5, [sp, #48]	@ 0x30
10014bd2:	9308      	str	r3, [sp, #32]
10014bd4:	2e00      	cmp	r6, #0
10014bd6:	f300 813f 	bgt.w	10014e58 <_dtoa_r+0xa58>
10014bda:	f1bb 0f00 	cmp.w	fp, #0
10014bde:	f040 81df 	bne.w	10014fa0 <_dtoa_r+0xba0>
10014be2:	46b8      	mov	r8, r7
10014be4:	9e03      	ldr	r6, [sp, #12]
10014be6:	9c08      	ldr	r4, [sp, #32]
10014be8:	1e73      	subs	r3, r6, #1
10014bea:	441c      	add	r4, r3
10014bec:	9b04      	ldr	r3, [sp, #16]
10014bee:	940a      	str	r4, [sp, #40]	@ 0x28
10014bf0:	f003 0301 	and.w	r3, r3, #1
10014bf4:	9c02      	ldr	r4, [sp, #8]
10014bf6:	930d      	str	r3, [sp, #52]	@ 0x34
10014bf8:	4649      	mov	r1, r9
10014bfa:	4650      	mov	r0, sl
10014bfc:	f7ff fb6a 	bl	100142d4 <quorem>
10014c00:	4639      	mov	r1, r7
10014c02:	4683      	mov	fp, r0
10014c04:	4650      	mov	r0, sl
10014c06:	f004 fd23 	bl	10019650 <__mcmp>
10014c0a:	4642      	mov	r2, r8
10014c0c:	4649      	mov	r1, r9
10014c0e:	4605      	mov	r5, r0
10014c10:	4620      	mov	r0, r4
10014c12:	f004 fd3f 	bl	10019694 <__mdiff>
10014c16:	68c2      	ldr	r2, [r0, #12]
10014c18:	4601      	mov	r1, r0
10014c1a:	f10b 0330 	add.w	r3, fp, #48	@ 0x30
10014c1e:	2a00      	cmp	r2, #0
10014c20:	d13a      	bne.n	10014c98 <_dtoa_r+0x898>
10014c22:	e9cd 0308 	strd	r0, r3, [sp, #32]
10014c26:	4650      	mov	r0, sl
10014c28:	f004 fd12 	bl	10019650 <__mcmp>
10014c2c:	9908      	ldr	r1, [sp, #32]
10014c2e:	9006      	str	r0, [sp, #24]
10014c30:	4620      	mov	r0, r4
10014c32:	f004 faab 	bl	1001918c <_Bfree>
10014c36:	9a06      	ldr	r2, [sp, #24]
10014c38:	9b09      	ldr	r3, [sp, #36]	@ 0x24
10014c3a:	2a00      	cmp	r2, #0
10014c3c:	d15a      	bne.n	10014cf4 <_dtoa_r+0x8f4>
10014c3e:	9a26      	ldr	r2, [sp, #152]	@ 0x98
10014c40:	b91a      	cbnz	r2, 10014c4a <_dtoa_r+0x84a>
10014c42:	9a0d      	ldr	r2, [sp, #52]	@ 0x34
10014c44:	2a00      	cmp	r2, #0
10014c46:	f000 829a 	beq.w	1001517e <_dtoa_r+0xd7e>
10014c4a:	2d00      	cmp	r5, #0
10014c4c:	db45      	blt.n	10014cda <_dtoa_r+0x8da>
10014c4e:	9a0a      	ldr	r2, [sp, #40]	@ 0x28
10014c50:	46b3      	mov	fp, r6
10014c52:	42b2      	cmp	r2, r6
10014c54:	f80b 3b01 	strb.w	r3, [fp], #1
10014c58:	f000 81b9 	beq.w	10014fce <_dtoa_r+0xbce>
10014c5c:	4651      	mov	r1, sl
10014c5e:	2300      	movs	r3, #0
10014c60:	220a      	movs	r2, #10
10014c62:	4620      	mov	r0, r4
10014c64:	f004 fa9c 	bl	100191a0 <__multadd>
10014c68:	4547      	cmp	r7, r8
10014c6a:	4682      	mov	sl, r0
10014c6c:	4639      	mov	r1, r7
10014c6e:	f04f 0300 	mov.w	r3, #0
10014c72:	f04f 020a 	mov.w	r2, #10
10014c76:	4620      	mov	r0, r4
10014c78:	d036      	beq.n	10014ce8 <_dtoa_r+0x8e8>
10014c7a:	f004 fa91 	bl	100191a0 <__multadd>
10014c7e:	4641      	mov	r1, r8
10014c80:	4607      	mov	r7, r0
10014c82:	2300      	movs	r3, #0
10014c84:	220a      	movs	r2, #10
10014c86:	4620      	mov	r0, r4
10014c88:	f004 fa8a 	bl	100191a0 <__multadd>
10014c8c:	465e      	mov	r6, fp
10014c8e:	4680      	mov	r8, r0
10014c90:	e7b2      	b.n	10014bf8 <_dtoa_r+0x7f8>
10014c92:	bf00      	nop
10014c94:	40240000 	.word	0x40240000
10014c98:	9802      	ldr	r0, [sp, #8]
10014c9a:	9306      	str	r3, [sp, #24]
10014c9c:	f004 fa76 	bl	1001918c <_Bfree>
10014ca0:	2d00      	cmp	r5, #0
10014ca2:	9b06      	ldr	r3, [sp, #24]
10014ca4:	db06      	blt.n	10014cb4 <_dtoa_r+0x8b4>
10014ca6:	9a04      	ldr	r2, [sp, #16]
10014ca8:	9926      	ldr	r1, [sp, #152]	@ 0x98
10014caa:	f002 0201 	and.w	r2, r2, #1
10014cae:	430d      	orrs	r5, r1
10014cb0:	432a      	orrs	r2, r5
10014cb2:	d12a      	bne.n	10014d0a <_dtoa_r+0x90a>
10014cb4:	4651      	mov	r1, sl
10014cb6:	2201      	movs	r2, #1
10014cb8:	9802      	ldr	r0, [sp, #8]
10014cba:	9304      	str	r3, [sp, #16]
10014cbc:	f004 fc50 	bl	10019560 <__lshift>
10014cc0:	4649      	mov	r1, r9
10014cc2:	4682      	mov	sl, r0
10014cc4:	f004 fcc4 	bl	10019650 <__mcmp>
10014cc8:	2800      	cmp	r0, #0
10014cca:	9b04      	ldr	r3, [sp, #16]
10014ccc:	f340 80e8 	ble.w	10014ea0 <_dtoa_r+0xaa0>
10014cd0:	2b39      	cmp	r3, #57	@ 0x39
10014cd2:	f000 822f 	beq.w	10015134 <_dtoa_r+0xd34>
10014cd6:	f10b 0331 	add.w	r3, fp, #49	@ 0x31
10014cda:	9d0c      	ldr	r5, [sp, #48]	@ 0x30
10014cdc:	f806 3b01 	strb.w	r3, [r6], #1
10014ce0:	463c      	mov	r4, r7
10014ce2:	3501      	adds	r5, #1
10014ce4:	4647      	mov	r7, r8
10014ce6:	e712      	b.n	10014b0e <_dtoa_r+0x70e>
10014ce8:	f004 fa5a 	bl	100191a0 <__multadd>
10014cec:	465e      	mov	r6, fp
10014cee:	4607      	mov	r7, r0
10014cf0:	4680      	mov	r8, r0
10014cf2:	e781      	b.n	10014bf8 <_dtoa_r+0x7f8>
10014cf4:	2d00      	cmp	r5, #0
10014cf6:	f2c0 827d 	blt.w	100151f4 <_dtoa_r+0xdf4>
10014cfa:	9926      	ldr	r1, [sp, #152]	@ 0x98
10014cfc:	430d      	orrs	r5, r1
10014cfe:	990d      	ldr	r1, [sp, #52]	@ 0x34
10014d00:	430d      	orrs	r5, r1
10014d02:	f000 8277 	beq.w	100151f4 <_dtoa_r+0xdf4>
10014d06:	2a00      	cmp	r2, #0
10014d08:	dda1      	ble.n	10014c4e <_dtoa_r+0x84e>
10014d0a:	2b39      	cmp	r3, #57	@ 0x39
10014d0c:	f000 8212 	beq.w	10015134 <_dtoa_r+0xd34>
10014d10:	3301      	adds	r3, #1
10014d12:	e7e2      	b.n	10014cda <_dtoa_r+0x8da>
10014d14:	9b26      	ldr	r3, [sp, #152]	@ 0x98
10014d16:	2b02      	cmp	r3, #2
10014d18:	f77f aeb4 	ble.w	10014a84 <_dtoa_r+0x684>
10014d1c:	9b08      	ldr	r3, [sp, #32]
10014d1e:	2b00      	cmp	r3, #0
10014d20:	f040 811d 	bne.w	10014f5e <_dtoa_r+0xb5e>
10014d24:	4649      	mov	r1, r9
10014d26:	2205      	movs	r2, #5
10014d28:	9802      	ldr	r0, [sp, #8]
10014d2a:	f004 fa39 	bl	100191a0 <__multadd>
10014d2e:	4601      	mov	r1, r0
10014d30:	4681      	mov	r9, r0
10014d32:	4650      	mov	r0, sl
10014d34:	f004 fc8c 	bl	10019650 <__mcmp>
10014d38:	2800      	cmp	r0, #0
10014d3a:	f340 8110 	ble.w	10014f5e <_dtoa_r+0xb5e>
10014d3e:	9e03      	ldr	r6, [sp, #12]
10014d40:	9d0c      	ldr	r5, [sp, #48]	@ 0x30
10014d42:	2331      	movs	r3, #49	@ 0x31
10014d44:	f806 3b01 	strb.w	r3, [r6], #1
10014d48:	3501      	adds	r5, #1
10014d4a:	9802      	ldr	r0, [sp, #8]
10014d4c:	4649      	mov	r1, r9
10014d4e:	3501      	adds	r5, #1
10014d50:	f004 fa1c 	bl	1001918c <_Bfree>
10014d54:	2f00      	cmp	r7, #0
10014d56:	f47f aee8 	bne.w	10014b2a <_dtoa_r+0x72a>
10014d5a:	e6ea      	b.n	10014b32 <_dtoa_r+0x732>
10014d5c:	4649      	mov	r1, r9
10014d5e:	4650      	mov	r0, sl
10014d60:	f004 fc76 	bl	10019650 <__mcmp>
10014d64:	2800      	cmp	r0, #0
10014d66:	f6bf ae89 	bge.w	10014a7c <_dtoa_r+0x67c>
10014d6a:	4651      	mov	r1, sl
10014d6c:	2300      	movs	r3, #0
10014d6e:	9802      	ldr	r0, [sp, #8]
10014d70:	220a      	movs	r2, #10
10014d72:	f004 fa15 	bl	100191a0 <__multadd>
10014d76:	9b0c      	ldr	r3, [sp, #48]	@ 0x30
10014d78:	1e5d      	subs	r5, r3, #1
10014d7a:	9b0a      	ldr	r3, [sp, #40]	@ 0x28
10014d7c:	4682      	mov	sl, r0
10014d7e:	2b00      	cmp	r3, #0
10014d80:	f47f af1b 	bne.w	10014bba <_dtoa_r+0x7ba>
10014d84:	9b16      	ldr	r3, [sp, #88]	@ 0x58
10014d86:	2b00      	cmp	r3, #0
10014d88:	f340 81ff 	ble.w	1001518a <_dtoa_r+0xd8a>
10014d8c:	9d0c      	ldr	r5, [sp, #48]	@ 0x30
10014d8e:	9308      	str	r3, [sp, #32]
10014d90:	e67e      	b.n	10014a90 <_dtoa_r+0x690>
10014d92:	4601      	mov	r1, r0
10014d94:	465a      	mov	r2, fp
10014d96:	9802      	ldr	r0, [sp, #8]
10014d98:	f004 fb88 	bl	100194ac <__pow5mult>
10014d9c:	9b26      	ldr	r3, [sp, #152]	@ 0x98
10014d9e:	2b01      	cmp	r3, #1
10014da0:	4681      	mov	r9, r0
10014da2:	dd6c      	ble.n	10014e7e <_dtoa_r+0xa7e>
10014da4:	f04f 0b00 	mov.w	fp, #0
10014da8:	f8d9 3010 	ldr.w	r3, [r9, #16]
10014dac:	eb09 0383 	add.w	r3, r9, r3, lsl #2
10014db0:	6918      	ldr	r0, [r3, #16]
10014db2:	f004 fa45 	bl	10019240 <__hi0bits>
10014db6:	f1c0 0020 	rsb	r0, r0, #32
10014dba:	e639      	b.n	10014a30 <_dtoa_r+0x630>
10014dbc:	4b92      	ldr	r3, [pc, #584]	@ (10015008 <_dtoa_r+0xc08>)
10014dbe:	9303      	str	r3, [sp, #12]
10014dc0:	3303      	adds	r3, #3
10014dc2:	f7ff bbfc 	b.w	100145be <_dtoa_r+0x1be>
10014dc6:	9b04      	ldr	r3, [sp, #16]
10014dc8:	2b00      	cmp	r3, #0
10014dca:	f47f ae30 	bne.w	10014a2e <_dtoa_r+0x62e>
10014dce:	e9dd 1204 	ldrd	r1, r2, [sp, #16]
10014dd2:	f3c2 0313 	ubfx	r3, r2, #0, #20
10014dd6:	2b00      	cmp	r3, #0
10014dd8:	f47f ae29 	bne.w	10014a2e <_dtoa_r+0x62e>
10014ddc:	4b8b      	ldr	r3, [pc, #556]	@ (1001500c <_dtoa_r+0xc0c>)
10014dde:	4013      	ands	r3, r2
10014de0:	b123      	cbz	r3, 10014dec <_dtoa_r+0x9ec>
10014de2:	9b09      	ldr	r3, [sp, #36]	@ 0x24
10014de4:	3301      	adds	r3, #1
10014de6:	9309      	str	r3, [sp, #36]	@ 0x24
10014de8:	3401      	adds	r4, #1
10014dea:	2301      	movs	r3, #1
10014dec:	f1bb 0f00 	cmp.w	fp, #0
10014df0:	f040 81ae 	bne.w	10015150 <_dtoa_r+0xd50>
10014df4:	469b      	mov	fp, r3
10014df6:	e61a      	b.n	10014a2e <_dtoa_r+0x62e>
10014df8:	f43f ae2b 	beq.w	10014a52 <_dtoa_r+0x652>
10014dfc:	f1c0 033c 	rsb	r3, r0, #60	@ 0x3c
10014e00:	e6b6      	b.n	10014b70 <_dtoa_r+0x770>
10014e02:	2301      	movs	r3, #1
10014e04:	930a      	str	r3, [sp, #40]	@ 0x28
10014e06:	9b27      	ldr	r3, [sp, #156]	@ 0x9c
10014e08:	9a0c      	ldr	r2, [sp, #48]	@ 0x30
10014e0a:	4413      	add	r3, r2
10014e0c:	9316      	str	r3, [sp, #88]	@ 0x58
10014e0e:	3301      	adds	r3, #1
10014e10:	2b01      	cmp	r3, #1
10014e12:	461e      	mov	r6, r3
10014e14:	9308      	str	r3, [sp, #32]
10014e16:	bfb8      	it	lt
10014e18:	2601      	movlt	r6, #1
10014e1a:	2e17      	cmp	r6, #23
10014e1c:	f340 81d5 	ble.w	100151ca <_dtoa_r+0xdca>
10014e20:	2201      	movs	r2, #1
10014e22:	2304      	movs	r3, #4
10014e24:	005b      	lsls	r3, r3, #1
10014e26:	f103 0014 	add.w	r0, r3, #20
10014e2a:	42b0      	cmp	r0, r6
10014e2c:	4611      	mov	r1, r2
10014e2e:	f102 0201 	add.w	r2, r2, #1
10014e32:	d9f7      	bls.n	10014e24 <_dtoa_r+0xa24>
10014e34:	9b02      	ldr	r3, [sp, #8]
10014e36:	63d9      	str	r1, [r3, #60]	@ 0x3c
10014e38:	e413      	b.n	10014662 <_dtoa_r+0x262>
10014e3a:	2301      	movs	r3, #1
10014e3c:	930a      	str	r3, [sp, #40]	@ 0x28
10014e3e:	9b27      	ldr	r3, [sp, #156]	@ 0x9c
10014e40:	2b00      	cmp	r3, #0
10014e42:	dd33      	ble.n	10014eac <_dtoa_r+0xaac>
10014e44:	9316      	str	r3, [sp, #88]	@ 0x58
10014e46:	9308      	str	r3, [sp, #32]
10014e48:	461e      	mov	r6, r3
10014e4a:	e7e6      	b.n	10014e1a <_dtoa_r+0xa1a>
10014e4c:	2300      	movs	r3, #0
10014e4e:	930a      	str	r3, [sp, #40]	@ 0x28
10014e50:	e7d9      	b.n	10014e06 <_dtoa_r+0xa06>
10014e52:	2300      	movs	r3, #0
10014e54:	930a      	str	r3, [sp, #40]	@ 0x28
10014e56:	e7f2      	b.n	10014e3e <_dtoa_r+0xa3e>
10014e58:	4639      	mov	r1, r7
10014e5a:	9802      	ldr	r0, [sp, #8]
10014e5c:	4632      	mov	r2, r6
10014e5e:	f004 fb7f 	bl	10019560 <__lshift>
10014e62:	4607      	mov	r7, r0
10014e64:	e6b9      	b.n	10014bda <_dtoa_r+0x7da>
10014e66:	9b0d      	ldr	r3, [sp, #52]	@ 0x34
10014e68:	9a09      	ldr	r2, [sp, #36]	@ 0x24
10014e6a:	950d      	str	r5, [sp, #52]	@ 0x34
10014e6c:	1aeb      	subs	r3, r5, r3
10014e6e:	449b      	add	fp, r3
10014e70:	9b08      	ldr	r3, [sp, #32]
10014e72:	4616      	mov	r6, r2
10014e74:	441a      	add	r2, r3
10014e76:	441c      	add	r4, r3
10014e78:	9209      	str	r2, [sp, #36]	@ 0x24
10014e7a:	2500      	movs	r5, #0
10014e7c:	e690      	b.n	10014ba0 <_dtoa_r+0x7a0>
10014e7e:	9b04      	ldr	r3, [sp, #16]
10014e80:	2b00      	cmp	r3, #0
10014e82:	d18f      	bne.n	10014da4 <_dtoa_r+0x9a4>
10014e84:	e9dd 0104 	ldrd	r0, r1, [sp, #16]
10014e88:	f3c1 0313 	ubfx	r3, r1, #0, #20
10014e8c:	460a      	mov	r2, r1
10014e8e:	2b00      	cmp	r3, #0
10014e90:	d188      	bne.n	10014da4 <_dtoa_r+0x9a4>
10014e92:	e7a3      	b.n	10014ddc <_dtoa_r+0x9dc>
10014e94:	ed9d 7b06 	vldr	d7, [sp, #24]
10014e98:	2702      	movs	r7, #2
10014e9a:	ed8d 7b10 	vstr	d7, [sp, #64]	@ 0x40
10014e9e:	e40c      	b.n	100146ba <_dtoa_r+0x2ba>
10014ea0:	f47f af1b 	bne.w	10014cda <_dtoa_r+0x8da>
10014ea4:	07da      	lsls	r2, r3, #31
10014ea6:	f57f af18 	bpl.w	10014cda <_dtoa_r+0x8da>
10014eaa:	e711      	b.n	10014cd0 <_dtoa_r+0x8d0>
10014eac:	2301      	movs	r3, #1
10014eae:	9327      	str	r3, [sp, #156]	@ 0x9c
10014eb0:	9308      	str	r3, [sp, #32]
10014eb2:	f7ff bbd1 	b.w	10014658 <_dtoa_r+0x258>
10014eb6:	d103      	bne.n	10014ec0 <_dtoa_r+0xac0>
10014eb8:	9b04      	ldr	r3, [sp, #16]
10014eba:	07db      	lsls	r3, r3, #31
10014ebc:	f53f ae18 	bmi.w	10014af0 <_dtoa_r+0x6f0>
10014ec0:	465e      	mov	r6, fp
10014ec2:	f81b 3d01 	ldrb.w	r3, [fp, #-1]!
10014ec6:	2b30      	cmp	r3, #48	@ 0x30
10014ec8:	d0fa      	beq.n	10014ec0 <_dtoa_r+0xac0>
10014eca:	e620      	b.n	10014b0e <_dtoa_r+0x70e>
10014ecc:	9a03      	ldr	r2, [sp, #12]
10014ece:	2331      	movs	r3, #49	@ 0x31
10014ed0:	3501      	adds	r5, #1
10014ed2:	7013      	strb	r3, [r2, #0]
10014ed4:	e61b      	b.n	10014b0e <_dtoa_r+0x70e>
10014ed6:	9a0f      	ldr	r2, [sp, #60]	@ 0x3c
10014ed8:	2a00      	cmp	r2, #0
10014eda:	f000 80f9 	beq.w	100150d0 <_dtoa_r+0xcd0>
10014ede:	f203 4333 	addw	r3, r3, #1075	@ 0x433
10014ee2:	9a09      	ldr	r2, [sp, #36]	@ 0x24
10014ee4:	9d0d      	ldr	r5, [sp, #52]	@ 0x34
10014ee6:	4616      	mov	r6, r2
10014ee8:	441a      	add	r2, r3
10014eea:	441c      	add	r4, r3
10014eec:	9209      	str	r2, [sp, #36]	@ 0x24
10014eee:	e657      	b.n	10014ba0 <_dtoa_r+0x7a0>
10014ef0:	f1c8 0301 	rsb	r3, r8, #1
10014ef4:	4604      	mov	r4, r0
10014ef6:	9309      	str	r3, [sp, #36]	@ 0x24
10014ef8:	900e      	str	r0, [sp, #56]	@ 0x38
10014efa:	f7ff bb9d 	b.w	10014638 <_dtoa_r+0x238>
10014efe:	f000 80eb 	beq.w	100150d8 <_dtoa_r+0xcd8>
10014f02:	9b0c      	ldr	r3, [sp, #48]	@ 0x30
10014f04:	4d42      	ldr	r5, [pc, #264]	@ (10015010 <_dtoa_r+0xc10>)
10014f06:	425e      	negs	r6, r3
10014f08:	f006 030f 	and.w	r3, r6, #15
10014f0c:	eb05 03c3 	add.w	r3, r5, r3, lsl #3
10014f10:	e9d3 2300 	ldrd	r2, r3, [r3]
10014f14:	e9dd 0106 	ldrd	r0, r1, [sp, #24]
10014f18:	f005 fb52 	bl	1001a5c0 <__aeabi_dmul>
10014f1c:	1135      	asrs	r5, r6, #4
10014f1e:	e9cd 0110 	strd	r0, r1, [sp, #64]	@ 0x40
10014f22:	f000 814d 	beq.w	100151c0 <_dtoa_r+0xdc0>
10014f26:	4e3b      	ldr	r6, [pc, #236]	@ (10015014 <_dtoa_r+0xc14>)
10014f28:	2300      	movs	r3, #0
10014f2a:	2702      	movs	r7, #2
10014f2c:	4680      	mov	r8, r0
10014f2e:	4689      	mov	r9, r1
10014f30:	07e8      	lsls	r0, r5, #31
10014f32:	d509      	bpl.n	10014f48 <_dtoa_r+0xb48>
10014f34:	e9d6 2300 	ldrd	r2, r3, [r6]
10014f38:	4640      	mov	r0, r8
10014f3a:	4649      	mov	r1, r9
10014f3c:	f005 fb40 	bl	1001a5c0 <__aeabi_dmul>
10014f40:	3701      	adds	r7, #1
10014f42:	4680      	mov	r8, r0
10014f44:	4689      	mov	r9, r1
10014f46:	2301      	movs	r3, #1
10014f48:	106d      	asrs	r5, r5, #1
10014f4a:	f106 0608 	add.w	r6, r6, #8
10014f4e:	d1ef      	bne.n	10014f30 <_dtoa_r+0xb30>
10014f50:	2b00      	cmp	r3, #0
10014f52:	f47f abcb 	bne.w	100146ec <_dtoa_r+0x2ec>
10014f56:	e9dd 8910 	ldrd	r8, r9, [sp, #64]	@ 0x40
10014f5a:	f7ff bbc7 	b.w	100146ec <_dtoa_r+0x2ec>
10014f5e:	9e03      	ldr	r6, [sp, #12]
10014f60:	e4cb      	b.n	100148fa <_dtoa_r+0x4fa>
10014f62:	f8dd a018 	ldr.w	sl, [sp, #24]
10014f66:	9d0c      	ldr	r5, [sp, #48]	@ 0x30
10014f68:	4602      	mov	r2, r0
10014f6a:	460b      	mov	r3, r1
10014f6c:	f005 f972 	bl	1001a254 <__adddf3>
10014f70:	4602      	mov	r2, r0
10014f72:	460b      	mov	r3, r1
10014f74:	e9cd 2306 	strd	r2, r3, [sp, #24]
10014f78:	3501      	adds	r5, #1
10014f7a:	e9dd 2304 	ldrd	r2, r3, [sp, #16]
10014f7e:	46a8      	mov	r8, r5
10014f80:	f005 fdae 	bl	1001aae0 <__aeabi_dcmpgt>
10014f84:	b940      	cbnz	r0, 10014f98 <_dtoa_r+0xb98>
10014f86:	e9dd 2304 	ldrd	r2, r3, [sp, #16]
10014f8a:	e9dd 0106 	ldrd	r0, r1, [sp, #24]
10014f8e:	f005 fd7f 	bl	1001aa90 <__aeabi_dcmpeq>
10014f92:	b118      	cbz	r0, 10014f9c <_dtoa_r+0xb9c>
10014f94:	07f1      	lsls	r1, r6, #31
10014f96:	d501      	bpl.n	10014f9c <_dtoa_r+0xb9c>
10014f98:	9a03      	ldr	r2, [sp, #12]
10014f9a:	e44b      	b.n	10014834 <_dtoa_r+0x434>
10014f9c:	463e      	mov	r6, r7
10014f9e:	e5c8      	b.n	10014b32 <_dtoa_r+0x732>
10014fa0:	6879      	ldr	r1, [r7, #4]
10014fa2:	9802      	ldr	r0, [sp, #8]
10014fa4:	f004 f8cc 	bl	10019140 <_Balloc>
10014fa8:	4605      	mov	r5, r0
10014faa:	2800      	cmp	r0, #0
10014fac:	f000 8126 	beq.w	100151fc <_dtoa_r+0xdfc>
10014fb0:	693b      	ldr	r3, [r7, #16]
10014fb2:	3302      	adds	r3, #2
10014fb4:	009a      	lsls	r2, r3, #2
10014fb6:	f107 010c 	add.w	r1, r7, #12
10014fba:	300c      	adds	r0, #12
10014fbc:	f000 fa60 	bl	10015480 <memcpy>
10014fc0:	9802      	ldr	r0, [sp, #8]
10014fc2:	4629      	mov	r1, r5
10014fc4:	2201      	movs	r2, #1
10014fc6:	f004 facb 	bl	10019560 <__lshift>
10014fca:	4680      	mov	r8, r0
10014fcc:	e60a      	b.n	10014be4 <_dtoa_r+0x7e4>
10014fce:	9d0c      	ldr	r5, [sp, #48]	@ 0x30
10014fd0:	463c      	mov	r4, r7
10014fd2:	3501      	adds	r5, #1
10014fd4:	4647      	mov	r7, r8
10014fd6:	e57e      	b.n	10014ad6 <_dtoa_r+0x6d6>
10014fd8:	f8dd 8008 	ldr.w	r8, [sp, #8]
10014fdc:	4639      	mov	r1, r7
10014fde:	462a      	mov	r2, r5
10014fe0:	4640      	mov	r0, r8
10014fe2:	f004 fa63 	bl	100194ac <__pow5mult>
10014fe6:	4652      	mov	r2, sl
10014fe8:	4601      	mov	r1, r0
10014fea:	4607      	mov	r7, r0
10014fec:	4640      	mov	r0, r8
10014fee:	f004 f9a7 	bl	10019340 <__multiply>
10014ff2:	4651      	mov	r1, sl
10014ff4:	4682      	mov	sl, r0
10014ff6:	4640      	mov	r0, r8
10014ff8:	f004 f8c8 	bl	1001918c <_Bfree>
10014ffc:	9b0d      	ldr	r3, [sp, #52]	@ 0x34
10014ffe:	1b5b      	subs	r3, r3, r5
10015000:	930d      	str	r3, [sp, #52]	@ 0x34
10015002:	f43f ad07 	beq.w	10014a14 <_dtoa_r+0x614>
10015006:	e4ff      	b.n	10014a08 <_dtoa_r+0x608>
10015008:	1001b1a8 	.word	0x1001b1a8
1001500c:	7ff00000 	.word	0x7ff00000
10015010:	1001b430 	.word	0x1001b430
10015014:	1001b408 	.word	0x1001b408
10015018:	e9dd 0112 	ldrd	r0, r1, [sp, #72]	@ 0x48
1001501c:	f005 fad0 	bl	1001a5c0 <__aeabi_dmul>
10015020:	9b03      	ldr	r3, [sp, #12]
10015022:	701f      	strb	r7, [r3, #0]
10015024:	9b10      	ldr	r3, [sp, #64]	@ 0x40
10015026:	2b01      	cmp	r3, #1
10015028:	e9cd 010a 	strd	r0, r1, [sp, #40]	@ 0x28
1001502c:	f000 80c6 	beq.w	100151bc <_dtoa_r+0xdbc>
10015030:	9f10      	ldr	r7, [sp, #64]	@ 0x40
10015032:	9b03      	ldr	r3, [sp, #12]
10015034:	f8cd b03c 	str.w	fp, [sp, #60]	@ 0x3c
10015038:	441f      	add	r7, r3
1001503a:	4b7c      	ldr	r3, [pc, #496]	@ (1001522c <_dtoa_r+0xe2c>)
1001503c:	2200      	movs	r2, #0
1001503e:	4640      	mov	r0, r8
10015040:	4649      	mov	r1, r9
10015042:	f005 fabd 	bl	1001a5c0 <__aeabi_dmul>
10015046:	4689      	mov	r9, r1
10015048:	4680      	mov	r8, r0
1001504a:	f005 fd69 	bl	1001ab20 <__aeabi_d2iz>
1001504e:	4683      	mov	fp, r0
10015050:	f005 fa4c 	bl	1001a4ec <__aeabi_i2d>
10015054:	f10b 0b30 	add.w	fp, fp, #48	@ 0x30
10015058:	4602      	mov	r2, r0
1001505a:	460b      	mov	r3, r1
1001505c:	4640      	mov	r0, r8
1001505e:	4649      	mov	r1, r9
10015060:	f005 f8f6 	bl	1001a250 <__aeabi_dsub>
10015064:	f806 bb01 	strb.w	fp, [r6], #1
10015068:	42b7      	cmp	r7, r6
1001506a:	4680      	mov	r8, r0
1001506c:	4689      	mov	r9, r1
1001506e:	d1e4      	bne.n	1001503a <_dtoa_r+0xc3a>
10015070:	f8dd b03c 	ldr.w	fp, [sp, #60]	@ 0x3c
10015074:	4b6e      	ldr	r3, [pc, #440]	@ (10015230 <_dtoa_r+0xe30>)
10015076:	2200      	movs	r2, #0
10015078:	e9dd 010a 	ldrd	r0, r1, [sp, #40]	@ 0x28
1001507c:	f005 f8ea 	bl	1001a254 <__adddf3>
10015080:	4602      	mov	r2, r0
10015082:	460b      	mov	r3, r1
10015084:	4640      	mov	r0, r8
10015086:	4649      	mov	r1, r9
10015088:	f005 fd2a 	bl	1001aae0 <__aeabi_dcmpgt>
1001508c:	2800      	cmp	r0, #0
1001508e:	d167      	bne.n	10015160 <_dtoa_r+0xd60>
10015090:	e9dd 230a 	ldrd	r2, r3, [sp, #40]	@ 0x28
10015094:	4966      	ldr	r1, [pc, #408]	@ (10015230 <_dtoa_r+0xe30>)
10015096:	2000      	movs	r0, #0
10015098:	f005 f8da 	bl	1001a250 <__aeabi_dsub>
1001509c:	4602      	mov	r2, r0
1001509e:	460b      	mov	r3, r1
100150a0:	4640      	mov	r0, r8
100150a2:	4649      	mov	r1, r9
100150a4:	f005 fcfe 	bl	1001aaa4 <__aeabi_dcmplt>
100150a8:	b948      	cbnz	r0, 100150be <_dtoa_r+0xcbe>
100150aa:	9b1b      	ldr	r3, [sp, #108]	@ 0x6c
100150ac:	2b00      	cmp	r3, #0
100150ae:	f6ff ac93 	blt.w	100149d8 <_dtoa_r+0x5d8>
100150b2:	9b0c      	ldr	r3, [sp, #48]	@ 0x30
100150b4:	2b0e      	cmp	r3, #14
100150b6:	f73f ac8f 	bgt.w	100149d8 <_dtoa_r+0x5d8>
100150ba:	f7ff bbfd 	b.w	100148b8 <_dtoa_r+0x4b8>
100150be:	463e      	mov	r6, r7
100150c0:	3f01      	subs	r7, #1
100150c2:	f816 3c01 	ldrb.w	r3, [r6, #-1]
100150c6:	2b30      	cmp	r3, #48	@ 0x30
100150c8:	d0f9      	beq.n	100150be <_dtoa_r+0xcbe>
100150ca:	9d17      	ldr	r5, [sp, #92]	@ 0x5c
100150cc:	3501      	adds	r5, #1
100150ce:	e530      	b.n	10014b32 <_dtoa_r+0x732>
100150d0:	9b1a      	ldr	r3, [sp, #104]	@ 0x68
100150d2:	f1c3 0336 	rsb	r3, r3, #54	@ 0x36
100150d6:	e704      	b.n	10014ee2 <_dtoa_r+0xae2>
100150d8:	e9dd 8906 	ldrd	r8, r9, [sp, #24]
100150dc:	2702      	movs	r7, #2
100150de:	f7ff bb05 	b.w	100146ec <_dtoa_r+0x2ec>
100150e2:	9b08      	ldr	r3, [sp, #32]
100150e4:	2b00      	cmp	r3, #0
100150e6:	f43f abb9 	beq.w	1001485c <_dtoa_r+0x45c>
100150ea:	9b16      	ldr	r3, [sp, #88]	@ 0x58
100150ec:	2b00      	cmp	r3, #0
100150ee:	f77f abda 	ble.w	100148a6 <_dtoa_r+0x4a6>
100150f2:	9a0c      	ldr	r2, [sp, #48]	@ 0x30
100150f4:	9310      	str	r3, [sp, #64]	@ 0x40
100150f6:	3a01      	subs	r2, #1
100150f8:	4b4c      	ldr	r3, [pc, #304]	@ (1001522c <_dtoa_r+0xe2c>)
100150fa:	9217      	str	r2, [sp, #92]	@ 0x5c
100150fc:	4640      	mov	r0, r8
100150fe:	2200      	movs	r2, #0
10015100:	4649      	mov	r1, r9
10015102:	f005 fa5d 	bl	1001a5c0 <__aeabi_dmul>
10015106:	4680      	mov	r8, r0
10015108:	4689      	mov	r9, r1
1001510a:	1c78      	adds	r0, r7, #1
1001510c:	f005 f9ee 	bl	1001a4ec <__aeabi_i2d>
10015110:	4642      	mov	r2, r8
10015112:	464b      	mov	r3, r9
10015114:	f005 fa54 	bl	1001a5c0 <__aeabi_dmul>
10015118:	4b46      	ldr	r3, [pc, #280]	@ (10015234 <_dtoa_r+0xe34>)
1001511a:	2200      	movs	r2, #0
1001511c:	f005 f89a 	bl	1001a254 <__adddf3>
10015120:	4606      	mov	r6, r0
10015122:	f1a1 7750 	sub.w	r7, r1, #54525952	@ 0x3400000
10015126:	f7ff bb02 	b.w	1001472e <_dtoa_r+0x32e>
1001512a:	f108 0801 	add.w	r8, r8, #1
1001512e:	2331      	movs	r3, #49	@ 0x31
10015130:	f7ff bb87 	b.w	10014842 <_dtoa_r+0x442>
10015134:	9d0c      	ldr	r5, [sp, #48]	@ 0x30
10015136:	9a03      	ldr	r2, [sp, #12]
10015138:	46b3      	mov	fp, r6
1001513a:	2339      	movs	r3, #57	@ 0x39
1001513c:	463c      	mov	r4, r7
1001513e:	f80b 3b01 	strb.w	r3, [fp], #1
10015142:	3501      	adds	r5, #1
10015144:	4647      	mov	r7, r8
10015146:	e4d8      	b.n	10014afa <_dtoa_r+0x6fa>
10015148:	f04f 0900 	mov.w	r9, #0
1001514c:	464f      	mov	r7, r9
1001514e:	e5f6      	b.n	10014d3e <_dtoa_r+0x93e>
10015150:	469b      	mov	fp, r3
10015152:	e629      	b.n	10014da8 <_dtoa_r+0x9a8>
10015154:	9a09      	ldr	r2, [sp, #36]	@ 0x24
10015156:	4616      	mov	r6, r2
10015158:	441a      	add	r2, r3
1001515a:	441c      	add	r4, r3
1001515c:	9209      	str	r2, [sp, #36]	@ 0x24
1001515e:	e51f      	b.n	10014ba0 <_dtoa_r+0x7a0>
10015160:	9b17      	ldr	r3, [sp, #92]	@ 0x5c
10015162:	9a03      	ldr	r2, [sp, #12]
10015164:	f103 0801 	add.w	r8, r3, #1
10015168:	f7ff bb64 	b.w	10014834 <_dtoa_r+0x434>
1001516c:	f8dd a050 	ldr.w	sl, [sp, #80]	@ 0x50
10015170:	e7ab      	b.n	100150ca <_dtoa_r+0xcca>
10015172:	e9dd b418 	ldrd	fp, r4, [sp, #96]	@ 0x60
10015176:	f8dd a050 	ldr.w	sl, [sp, #80]	@ 0x50
1001517a:	f7ff bb94 	b.w	100148a6 <_dtoa_r+0x4a6>
1001517e:	2b39      	cmp	r3, #57	@ 0x39
10015180:	d0d8      	beq.n	10015134 <_dtoa_r+0xd34>
10015182:	2d00      	cmp	r5, #0
10015184:	f73f ada7 	bgt.w	10014cd6 <_dtoa_r+0x8d6>
10015188:	e5a7      	b.n	10014cda <_dtoa_r+0x8da>
1001518a:	9b26      	ldr	r3, [sp, #152]	@ 0x98
1001518c:	2b02      	cmp	r3, #2
1001518e:	dc0a      	bgt.n	100151a6 <_dtoa_r+0xda6>
10015190:	9b16      	ldr	r3, [sp, #88]	@ 0x58
10015192:	9308      	str	r3, [sp, #32]
10015194:	4649      	mov	r1, r9
10015196:	9d0c      	ldr	r5, [sp, #48]	@ 0x30
10015198:	f7ff f89c 	bl	100142d4 <quorem>
1001519c:	9a03      	ldr	r2, [sp, #12]
1001519e:	f100 0330 	add.w	r3, r0, #48	@ 0x30
100151a2:	7013      	strb	r3, [r2, #0]
100151a4:	e48d      	b.n	10014ac2 <_dtoa_r+0x6c2>
100151a6:	9b16      	ldr	r3, [sp, #88]	@ 0x58
100151a8:	9308      	str	r3, [sp, #32]
100151aa:	950c      	str	r5, [sp, #48]	@ 0x30
100151ac:	e5b6      	b.n	10014d1c <_dtoa_r+0x91c>
100151ae:	9b26      	ldr	r3, [sp, #152]	@ 0x98
100151b0:	2b02      	cmp	r3, #2
100151b2:	dcf8      	bgt.n	100151a6 <_dtoa_r+0xda6>
100151b4:	9b16      	ldr	r3, [sp, #88]	@ 0x58
100151b6:	950c      	str	r5, [sp, #48]	@ 0x30
100151b8:	9308      	str	r3, [sp, #32]
100151ba:	e50b      	b.n	10014bd4 <_dtoa_r+0x7d4>
100151bc:	4637      	mov	r7, r6
100151be:	e759      	b.n	10015074 <_dtoa_r+0xc74>
100151c0:	e9dd 8910 	ldrd	r8, r9, [sp, #64]	@ 0x40
100151c4:	2702      	movs	r7, #2
100151c6:	f7ff ba91 	b.w	100146ec <_dtoa_r+0x2ec>
100151ca:	9b02      	ldr	r3, [sp, #8]
100151cc:	2100      	movs	r1, #0
100151ce:	63d9      	str	r1, [r3, #60]	@ 0x3c
100151d0:	f7ff ba47 	b.w	10014662 <_dtoa_r+0x262>
100151d4:	9b02      	ldr	r3, [sp, #8]
100151d6:	2500      	movs	r5, #0
100151d8:	63dd      	str	r5, [r3, #60]	@ 0x3c
100151da:	4629      	mov	r1, r5
100151dc:	4618      	mov	r0, r3
100151de:	f003 ffaf 	bl	10019140 <_Balloc>
100151e2:	9003      	str	r0, [sp, #12]
100151e4:	b9a8      	cbnz	r0, 10015212 <_dtoa_r+0xe12>
100151e6:	4b14      	ldr	r3, [pc, #80]	@ (10015238 <_dtoa_r+0xe38>)
100151e8:	4814      	ldr	r0, [pc, #80]	@ (1001523c <_dtoa_r+0xe3c>)
100151ea:	2200      	movs	r2, #0
100151ec:	f240 11af 	movw	r1, #431	@ 0x1af
100151f0:	f003 fe58 	bl	10018ea4 <__assert_func>
100151f4:	2a00      	cmp	r2, #0
100151f6:	f77f ad70 	ble.w	10014cda <_dtoa_r+0x8da>
100151fa:	e55b      	b.n	10014cb4 <_dtoa_r+0x8b4>
100151fc:	4b0e      	ldr	r3, [pc, #56]	@ (10015238 <_dtoa_r+0xe38>)
100151fe:	480f      	ldr	r0, [pc, #60]	@ (1001523c <_dtoa_r+0xe3c>)
10015200:	462a      	mov	r2, r5
10015202:	f240 21ef 	movw	r1, #751	@ 0x2ef
10015206:	f003 fe4d 	bl	10018ea4 <__assert_func>
1001520a:	4b0d      	ldr	r3, [pc, #52]	@ (10015240 <_dtoa_r+0xe40>)
1001520c:	9303      	str	r3, [sp, #12]
1001520e:	f7ff b932 	b.w	10014476 <_dtoa_r+0x76>
10015212:	e9dd 3202 	ldrd	r3, r2, [sp, #8]
10015216:	639a      	str	r2, [r3, #56]	@ 0x38
10015218:	f04f 33ff 	mov.w	r3, #4294967295	@ 0xffffffff
1001521c:	2201      	movs	r2, #1
1001521e:	9527      	str	r5, [sp, #156]	@ 0x9c
10015220:	9316      	str	r3, [sp, #88]	@ 0x58
10015222:	920a      	str	r2, [sp, #40]	@ 0x28
10015224:	9308      	str	r3, [sp, #32]
10015226:	f7ff bb3e 	b.w	100148a6 <_dtoa_r+0x4a6>
1001522a:	bf00      	nop
1001522c:	40240000 	.word	0x40240000
10015230:	3fe00000 	.word	0x3fe00000
10015234:	401c0000 	.word	0x401c0000
10015238:	1001b1ac 	.word	0x1001b1ac
1001523c:	1001b1c0 	.word	0x1001b1c0
10015240:	1001b19c 	.word	0x1001b19c

10015244 <stdio_exit_handler>:
10015244:	4a02      	ldr	r2, [pc, #8]	@ (10015250 <stdio_exit_handler+0xc>)
10015246:	4903      	ldr	r1, [pc, #12]	@ (10015254 <stdio_exit_handler+0x10>)
10015248:	4803      	ldr	r0, [pc, #12]	@ (10015258 <stdio_exit_handler+0x14>)
1001524a:	f000 bde9 	b.w	10015e20 <_fwalk_sglue>
1001524e:	bf00      	nop
10015250:	200006e0 	.word	0x200006e0
10015254:	10018ee5 	.word	0x10018ee5
10015258:	200005c0 	.word	0x200005c0

1001525c <cleanup_stdio>:
1001525c:	4b0c      	ldr	r3, [pc, #48]	@ (10015290 <cleanup_stdio+0x34>)
1001525e:	6841      	ldr	r1, [r0, #4]
10015260:	4299      	cmp	r1, r3
10015262:	b510      	push	{r4, lr}
10015264:	4604      	mov	r4, r0
10015266:	d001      	beq.n	1001526c <cleanup_stdio+0x10>
10015268:	f003 fe3c 	bl	10018ee4 <_fclose_r>
1001526c:	68a1      	ldr	r1, [r4, #8]
1001526e:	4b09      	ldr	r3, [pc, #36]	@ (10015294 <cleanup_stdio+0x38>)
10015270:	4299      	cmp	r1, r3
10015272:	d002      	beq.n	1001527a <cleanup_stdio+0x1e>
10015274:	4620      	mov	r0, r4
10015276:	f003 fe35 	bl	10018ee4 <_fclose_r>
1001527a:	68e1      	ldr	r1, [r4, #12]
1001527c:	4b06      	ldr	r3, [pc, #24]	@ (10015298 <cleanup_stdio+0x3c>)
1001527e:	4299      	cmp	r1, r3
10015280:	d004      	beq.n	1001528c <cleanup_stdio+0x30>
10015282:	4620      	mov	r0, r4
10015284:	e8bd 4010 	ldmia.w	sp!, {r4, lr}
10015288:	f003 be2c 	b.w	10018ee4 <_fclose_r>
1001528c:	bd10      	pop	{r4, pc}
1001528e:	bf00      	nop
10015290:	20001470 	.word	0x20001470
10015294:	200014d8 	.word	0x200014d8
10015298:	20001540 	.word	0x20001540

1001529c <global_stdio_init.part.0>:
1001529c:	e92d 43f8 	stmdb	sp!, {r3, r4, r5, r6, r7, r8, r9, lr}
100152a0:	4c31      	ldr	r4, [pc, #196]	@ (10015368 <global_stdio_init.part.0+0xcc>)
100152a2:	4b32      	ldr	r3, [pc, #200]	@ (1001536c <global_stdio_init.part.0+0xd0>)
100152a4:	4832      	ldr	r0, [pc, #200]	@ (10015370 <global_stdio_init.part.0+0xd4>)
100152a6:	f8df 90dc 	ldr.w	r9, [pc, #220]	@ 10015384 <global_stdio_init.part.0+0xe8>
100152aa:	f8df 80dc 	ldr.w	r8, [pc, #220]	@ 10015388 <global_stdio_init.part.0+0xec>
100152ae:	4f31      	ldr	r7, [pc, #196]	@ (10015374 <global_stdio_init.part.0+0xd8>)
100152b0:	6018      	str	r0, [r3, #0]
100152b2:	2500      	movs	r5, #0
100152b4:	4629      	mov	r1, r5
100152b6:	2304      	movs	r3, #4
100152b8:	2208      	movs	r2, #8
100152ba:	f104 005c 	add.w	r0, r4, #92	@ 0x5c
100152be:	4e2e      	ldr	r6, [pc, #184]	@ (10015378 <global_stdio_init.part.0+0xdc>)
100152c0:	60e3      	str	r3, [r4, #12]
100152c2:	e9c4 5500 	strd	r5, r5, [r4]
100152c6:	e9c4 5504 	strd	r5, r5, [r4, #16]
100152ca:	60a5      	str	r5, [r4, #8]
100152cc:	6665      	str	r5, [r4, #100]	@ 0x64
100152ce:	61a5      	str	r5, [r4, #24]
100152d0:	f7fe fea6 	bl	10014020 <memset>
100152d4:	f104 0058 	add.w	r0, r4, #88	@ 0x58
100152d8:	e9c4 4907 	strd	r4, r9, [r4, #28]
100152dc:	e9c4 8709 	strd	r8, r7, [r4, #36]	@ 0x24
100152e0:	62e6      	str	r6, [r4, #44]	@ 0x2c
100152e2:	f7fe ff51 	bl	10014188 <__retarget_lock_init_recursive>
100152e6:	4629      	mov	r1, r5
100152e8:	4b24      	ldr	r3, [pc, #144]	@ (1001537c <global_stdio_init.part.0+0xe0>)
100152ea:	6763      	str	r3, [r4, #116]	@ 0x74
100152ec:	2208      	movs	r2, #8
100152ee:	f104 00c4 	add.w	r0, r4, #196	@ 0xc4
100152f2:	e9c4 551a 	strd	r5, r5, [r4, #104]	@ 0x68
100152f6:	e9c4 551e 	strd	r5, r5, [r4, #120]	@ 0x78
100152fa:	6725      	str	r5, [r4, #112]	@ 0x70
100152fc:	f8c4 50cc 	str.w	r5, [r4, #204]	@ 0xcc
10015300:	f8c4 5080 	str.w	r5, [r4, #128]	@ 0x80
10015304:	f7fe fe8c 	bl	10014020 <memset>
10015308:	f104 0368 	add.w	r3, r4, #104	@ 0x68
1001530c:	f104 00c0 	add.w	r0, r4, #192	@ 0xc0
10015310:	f8c4 3084 	str.w	r3, [r4, #132]	@ 0x84
10015314:	e9c4 9822 	strd	r9, r8, [r4, #136]	@ 0x88
10015318:	e9c4 7624 	strd	r7, r6, [r4, #144]	@ 0x90
1001531c:	f7fe ff34 	bl	10014188 <__retarget_lock_init_recursive>
10015320:	4b17      	ldr	r3, [pc, #92]	@ (10015380 <global_stdio_init.part.0+0xe4>)
10015322:	f8c4 30dc 	str.w	r3, [r4, #220]	@ 0xdc
10015326:	4629      	mov	r1, r5
10015328:	f504 7096 	add.w	r0, r4, #300	@ 0x12c
1001532c:	2208      	movs	r2, #8
1001532e:	e9c4 5534 	strd	r5, r5, [r4, #208]	@ 0xd0
10015332:	e9c4 5538 	strd	r5, r5, [r4, #224]	@ 0xe0
10015336:	f8c4 50d8 	str.w	r5, [r4, #216]	@ 0xd8
1001533a:	f8c4 5134 	str.w	r5, [r4, #308]	@ 0x134
1001533e:	f8c4 50e8 	str.w	r5, [r4, #232]	@ 0xe8
10015342:	f7fe fe6d 	bl	10014020 <memset>
10015346:	f104 03d0 	add.w	r3, r4, #208	@ 0xd0
1001534a:	e9c4 873d 	strd	r8, r7, [r4, #244]	@ 0xf4
1001534e:	f8c4 90f0 	str.w	r9, [r4, #240]	@ 0xf0
10015352:	f504 7094 	add.w	r0, r4, #296	@ 0x128
10015356:	f8c4 60fc 	str.w	r6, [r4, #252]	@ 0xfc
1001535a:	f8c4 30ec 	str.w	r3, [r4, #236]	@ 0xec
1001535e:	e8bd 43f8 	ldmia.w	sp!, {r3, r4, r5, r6, r7, r8, r9, lr}
10015362:	f7fe bf11 	b.w	10014188 <__retarget_lock_init_recursive>
10015366:	bf00      	nop
10015368:	20001470 	.word	0x20001470
1001536c:	200015a8 	.word	0x200015a8
10015370:	10015245 	.word	0x10015245
10015374:	10015a89 	.word	0x10015a89
10015378:	10015aad 	.word	0x10015aad
1001537c:	00010009 	.word	0x00010009
10015380:	00020012 	.word	0x00020012
10015384:	10015a25 	.word	0x10015a25
10015388:	10015a49 	.word	0x10015a49

1001538c <__sinit>:
1001538c:	b510      	push	{r4, lr}
1001538e:	4604      	mov	r4, r0
10015390:	480a      	ldr	r0, [pc, #40]	@ (100153bc <__sinit+0x30>)
10015392:	f7fe fefd 	bl	10014190 <__retarget_lock_acquire_recursive>
10015396:	6b63      	ldr	r3, [r4, #52]	@ 0x34
10015398:	b923      	cbnz	r3, 100153a4 <__sinit+0x18>
1001539a:	4b09      	ldr	r3, [pc, #36]	@ (100153c0 <__sinit+0x34>)
1001539c:	4a09      	ldr	r2, [pc, #36]	@ (100153c4 <__sinit+0x38>)
1001539e:	681b      	ldr	r3, [r3, #0]
100153a0:	6362      	str	r2, [r4, #52]	@ 0x34
100153a2:	b123      	cbz	r3, 100153ae <__sinit+0x22>
100153a4:	e8bd 4010 	ldmia.w	sp!, {r4, lr}
100153a8:	4804      	ldr	r0, [pc, #16]	@ (100153bc <__sinit+0x30>)
100153aa:	f7fe bef3 	b.w	10014194 <__retarget_lock_release_recursive>
100153ae:	f7ff ff75 	bl	1001529c <global_stdio_init.part.0>
100153b2:	e8bd 4010 	ldmia.w	sp!, {r4, lr}
100153b6:	4801      	ldr	r0, [pc, #4]	@ (100153bc <__sinit+0x30>)
100153b8:	f7fe beec 	b.w	10014194 <__retarget_lock_release_recursive>
100153bc:	2000146c 	.word	0x2000146c
100153c0:	200015a8 	.word	0x200015a8
100153c4:	1001525d 	.word	0x1001525d

100153c8 <__sfp_lock_acquire>:
100153c8:	4801      	ldr	r0, [pc, #4]	@ (100153d0 <__sfp_lock_acquire+0x8>)
100153ca:	f7fe bee1 	b.w	10014190 <__retarget_lock_acquire_recursive>
100153ce:	bf00      	nop
100153d0:	2000146c 	.word	0x2000146c

100153d4 <__sfp_lock_release>:
100153d4:	4801      	ldr	r0, [pc, #4]	@ (100153dc <__sfp_lock_release+0x8>)
100153d6:	f7fe bedd 	b.w	10014194 <__retarget_lock_release_recursive>
100153da:	bf00      	nop
100153dc:	2000146c 	.word	0x2000146c

100153e0 <memchr>:
100153e0:	f001 01ff 	and.w	r1, r1, #255	@ 0xff
100153e4:	2a10      	cmp	r2, #16
100153e6:	db2b      	blt.n	10015440 <memchr+0x60>
100153e8:	f010 0f07 	tst.w	r0, #7
100153ec:	d008      	beq.n	10015400 <memchr+0x20>
100153ee:	f810 3b01 	ldrb.w	r3, [r0], #1
100153f2:	3a01      	subs	r2, #1
100153f4:	428b      	cmp	r3, r1
100153f6:	d02d      	beq.n	10015454 <memchr+0x74>
100153f8:	f010 0f07 	tst.w	r0, #7
100153fc:	b342      	cbz	r2, 10015450 <memchr+0x70>
100153fe:	d1f6      	bne.n	100153ee <memchr+0xe>
10015400:	b4f0      	push	{r4, r5, r6, r7}
10015402:	ea41 2101 	orr.w	r1, r1, r1, lsl #8
10015406:	ea41 4101 	orr.w	r1, r1, r1, lsl #16
1001540a:	f022 0407 	bic.w	r4, r2, #7
1001540e:	f07f 0700 	mvns.w	r7, #0
10015412:	2300      	movs	r3, #0
10015414:	e8f0 5602 	ldrd	r5, r6, [r0], #8
10015418:	3c08      	subs	r4, #8
1001541a:	ea85 0501 	eor.w	r5, r5, r1
1001541e:	ea86 0601 	eor.w	r6, r6, r1
10015422:	fa85 f547 	uadd8	r5, r5, r7
10015426:	faa3 f587 	sel	r5, r3, r7
1001542a:	fa86 f647 	uadd8	r6, r6, r7
1001542e:	faa5 f687 	sel	r6, r5, r7
10015432:	b98e      	cbnz	r6, 10015458 <memchr+0x78>
10015434:	d1ee      	bne.n	10015414 <memchr+0x34>
10015436:	bcf0      	pop	{r4, r5, r6, r7}
10015438:	f001 01ff 	and.w	r1, r1, #255	@ 0xff
1001543c:	f002 0207 	and.w	r2, r2, #7
10015440:	b132      	cbz	r2, 10015450 <memchr+0x70>
10015442:	f810 3b01 	ldrb.w	r3, [r0], #1
10015446:	3a01      	subs	r2, #1
10015448:	ea83 0301 	eor.w	r3, r3, r1
1001544c:	b113      	cbz	r3, 10015454 <memchr+0x74>
1001544e:	d1f8      	bne.n	10015442 <memchr+0x62>
10015450:	2000      	movs	r0, #0
10015452:	4770      	bx	lr
10015454:	3801      	subs	r0, #1
10015456:	4770      	bx	lr
10015458:	2d00      	cmp	r5, #0
1001545a:	bf06      	itte	eq
1001545c:	4635      	moveq	r5, r6
1001545e:	3803      	subeq	r0, #3
10015460:	3807      	subne	r0, #7
10015462:	f015 0f01 	tst.w	r5, #1
10015466:	d107      	bne.n	10015478 <memchr+0x98>
10015468:	3001      	adds	r0, #1
1001546a:	f415 7f80 	tst.w	r5, #256	@ 0x100
1001546e:	bf02      	ittt	eq
10015470:	3001      	addeq	r0, #1
10015472:	f415 3fc0 	tsteq.w	r5, #98304	@ 0x18000
10015476:	3001      	addeq	r0, #1
10015478:	bcf0      	pop	{r4, r5, r6, r7}
1001547a:	3801      	subs	r0, #1
1001547c:	4770      	bx	lr
1001547e:	bf00      	nop

10015480 <memcpy>:
10015480:	4684      	mov	ip, r0
10015482:	ea41 0300 	orr.w	r3, r1, r0
10015486:	f013 0303 	ands.w	r3, r3, #3
1001548a:	d16d      	bne.n	10015568 <memcpy+0xe8>
1001548c:	3a40      	subs	r2, #64	@ 0x40
1001548e:	d341      	bcc.n	10015514 <memcpy+0x94>
10015490:	f851 3b04 	ldr.w	r3, [r1], #4
10015494:	f840 3b04 	str.w	r3, [r0], #4
10015498:	f851 3b04 	ldr.w	r3, [r1], #4
1001549c:	f840 3b04 	str.w	r3, [r0], #4
100154a0:	f851 3b04 	ldr.w	r3, [r1], #4
100154a4:	f840 3b04 	str.w	r3, [r0], #4
100154a8:	f851 3b04 	ldr.w	r3, [r1], #4
100154ac:	f840 3b04 	str.w	r3, [r0], #4
100154b0:	f851 3b04 	ldr.w	r3, [r1], #4
100154b4:	f840 3b04 	str.w	r3, [r0], #4
100154b8:	f851 3b04 	ldr.w	r3, [r1], #4
100154bc:	f840 3b04 	str.w	r3, [r0], #4
100154c0:	f851 3b04 	ldr.w	r3, [r1], #4
100154c4:	f840 3b04 	str.w	r3, [r0], #4
100154c8:	f851 3b04 	ldr.w	r3, [r1], #4
100154cc:	f840 3b04 	str.w	r3, [r0], #4
100154d0:	f851 3b04 	ldr.w	r3, [r1], #4
100154d4:	f840 3b04 	str.w	r3, [r0], #4
100154d8:	f851 3b04 	ldr.w	r3, [r1], #4
100154dc:	f840 3b04 	str.w	r3, [r0], #4
100154e0:	f851 3b04 	ldr.w	r3, [r1], #4
100154e4:	f840 3b04 	str.w	r3, [r0], #4
100154e8:	f851 3b04 	ldr.w	r3, [r1], #4
100154ec:	f840 3b04 	str.w	r3, [r0], #4
100154f0:	f851 3b04 	ldr.w	r3, [r1], #4
100154f4:	f840 3b04 	str.w	r3, [r0], #4
100154f8:	f851 3b04 	ldr.w	r3, [r1], #4
100154fc:	f840 3b04 	str.w	r3, [r0], #4
10015500:	f851 3b04 	ldr.w	r3, [r1], #4
10015504:	f840 3b04 	str.w	r3, [r0], #4
10015508:	f851 3b04 	ldr.w	r3, [r1], #4
1001550c:	f840 3b04 	str.w	r3, [r0], #4
10015510:	3a40      	subs	r2, #64	@ 0x40
10015512:	d2bd      	bcs.n	10015490 <memcpy+0x10>
10015514:	3230      	adds	r2, #48	@ 0x30
10015516:	d311      	bcc.n	1001553c <memcpy+0xbc>
10015518:	f851 3b04 	ldr.w	r3, [r1], #4
1001551c:	f840 3b04 	str.w	r3, [r0], #4
10015520:	f851 3b04 	ldr.w	r3, [r1], #4
10015524:	f840 3b04 	str.w	r3, [r0], #4
10015528:	f851 3b04 	ldr.w	r3, [r1], #4
1001552c:	f840 3b04 	str.w	r3, [r0], #4
10015530:	f851 3b04 	ldr.w	r3, [r1], #4
10015534:	f840 3b04 	str.w	r3, [r0], #4
10015538:	3a10      	subs	r2, #16
1001553a:	d2ed      	bcs.n	10015518 <memcpy+0x98>
1001553c:	320c      	adds	r2, #12
1001553e:	d305      	bcc.n	1001554c <memcpy+0xcc>
10015540:	f851 3b04 	ldr.w	r3, [r1], #4
10015544:	f840 3b04 	str.w	r3, [r0], #4
10015548:	3a04      	subs	r2, #4
1001554a:	d2f9      	bcs.n	10015540 <memcpy+0xc0>
1001554c:	3204      	adds	r2, #4
1001554e:	d008      	beq.n	10015562 <memcpy+0xe2>
10015550:	07d2      	lsls	r2, r2, #31
10015552:	bf1c      	itt	ne
10015554:	f811 3b01 	ldrbne.w	r3, [r1], #1
10015558:	f800 3b01 	strbne.w	r3, [r0], #1
1001555c:	d301      	bcc.n	10015562 <memcpy+0xe2>
1001555e:	880b      	ldrh	r3, [r1, #0]
10015560:	8003      	strh	r3, [r0, #0]
10015562:	4660      	mov	r0, ip
10015564:	4770      	bx	lr
10015566:	bf00      	nop
10015568:	2a08      	cmp	r2, #8
1001556a:	d313      	bcc.n	10015594 <memcpy+0x114>
1001556c:	078b      	lsls	r3, r1, #30
1001556e:	d08d      	beq.n	1001548c <memcpy+0xc>
10015570:	f010 0303 	ands.w	r3, r0, #3
10015574:	d08a      	beq.n	1001548c <memcpy+0xc>
10015576:	f1c3 0304 	rsb	r3, r3, #4
1001557a:	1ad2      	subs	r2, r2, r3
1001557c:	07db      	lsls	r3, r3, #31
1001557e:	bf1c      	itt	ne
10015580:	f811 3b01 	ldrbne.w	r3, [r1], #1
10015584:	f800 3b01 	strbne.w	r3, [r0], #1
10015588:	d380      	bcc.n	1001548c <memcpy+0xc>
1001558a:	f831 3b02 	ldrh.w	r3, [r1], #2
1001558e:	f820 3b02 	strh.w	r3, [r0], #2
10015592:	e77b      	b.n	1001548c <memcpy+0xc>
10015594:	3a04      	subs	r2, #4
10015596:	d3d9      	bcc.n	1001554c <memcpy+0xcc>
10015598:	3a01      	subs	r2, #1
1001559a:	f811 3b01 	ldrb.w	r3, [r1], #1
1001559e:	f800 3b01 	strb.w	r3, [r0], #1
100155a2:	d2f9      	bcs.n	10015598 <memcpy+0x118>
100155a4:	780b      	ldrb	r3, [r1, #0]
100155a6:	7003      	strb	r3, [r0, #0]
100155a8:	784b      	ldrb	r3, [r1, #1]
100155aa:	7043      	strb	r3, [r0, #1]
100155ac:	788b      	ldrb	r3, [r1, #2]
100155ae:	7083      	strb	r3, [r0, #2]
100155b0:	4660      	mov	r0, ip
100155b2:	4770      	bx	lr
	...

100155c0 <strlen>:
100155c0:	b430      	push	{r4, r5}
100155c2:	f890 f000 	pld	[r0]
100155c6:	f020 0107 	bic.w	r1, r0, #7
100155ca:	f06f 0c00 	mvn.w	ip, #0
100155ce:	f010 0407 	ands.w	r4, r0, #7
100155d2:	f891 f020 	pld	[r1, #32]
100155d6:	f040 8048 	bne.w	1001566a <strlen+0xaa>
100155da:	f04f 0400 	mov.w	r4, #0
100155de:	f06f 0007 	mvn.w	r0, #7
100155e2:	e9d1 2300 	ldrd	r2, r3, [r1]
100155e6:	f891 f040 	pld	[r1, #64]	@ 0x40
100155ea:	f100 0008 	add.w	r0, r0, #8
100155ee:	fa82 f24c 	uadd8	r2, r2, ip
100155f2:	faa4 f28c 	sel	r2, r4, ip
100155f6:	fa83 f34c 	uadd8	r3, r3, ip
100155fa:	faa2 f38c 	sel	r3, r2, ip
100155fe:	bb4b      	cbnz	r3, 10015654 <strlen+0x94>
10015600:	e9d1 2302 	ldrd	r2, r3, [r1, #8]
10015604:	fa82 f24c 	uadd8	r2, r2, ip
10015608:	f100 0008 	add.w	r0, r0, #8
1001560c:	faa4 f28c 	sel	r2, r4, ip
10015610:	fa83 f34c 	uadd8	r3, r3, ip
10015614:	faa2 f38c 	sel	r3, r2, ip
10015618:	b9e3      	cbnz	r3, 10015654 <strlen+0x94>
1001561a:	e9d1 2304 	ldrd	r2, r3, [r1, #16]
1001561e:	fa82 f24c 	uadd8	r2, r2, ip
10015622:	f100 0008 	add.w	r0, r0, #8
10015626:	faa4 f28c 	sel	r2, r4, ip
1001562a:	fa83 f34c 	uadd8	r3, r3, ip
1001562e:	faa2 f38c 	sel	r3, r2, ip
10015632:	b97b      	cbnz	r3, 10015654 <strlen+0x94>
10015634:	e9d1 2306 	ldrd	r2, r3, [r1, #24]
10015638:	f101 0120 	add.w	r1, r1, #32
1001563c:	fa82 f24c 	uadd8	r2, r2, ip
10015640:	f100 0008 	add.w	r0, r0, #8
10015644:	faa4 f28c 	sel	r2, r4, ip
10015648:	fa83 f34c 	uadd8	r3, r3, ip
1001564c:	faa2 f38c 	sel	r3, r2, ip
10015650:	2b00      	cmp	r3, #0
10015652:	d0c6      	beq.n	100155e2 <strlen+0x22>
10015654:	2a00      	cmp	r2, #0
10015656:	bf04      	itt	eq
10015658:	3004      	addeq	r0, #4
1001565a:	461a      	moveq	r2, r3
1001565c:	ba12      	rev	r2, r2
1001565e:	fab2 f282 	clz	r2, r2
10015662:	eb00 00d2 	add.w	r0, r0, r2, lsr #3
10015666:	bc30      	pop	{r4, r5}
10015668:	4770      	bx	lr
1001566a:	e9d1 2300 	ldrd	r2, r3, [r1]
1001566e:	f004 0503 	and.w	r5, r4, #3
10015672:	f1c4 0000 	rsb	r0, r4, #0
10015676:	ea4f 05c5 	mov.w	r5, r5, lsl #3
1001567a:	f014 0f04 	tst.w	r4, #4
1001567e:	f891 f040 	pld	[r1, #64]	@ 0x40
10015682:	fa0c f505 	lsl.w	r5, ip, r5
10015686:	ea62 0205 	orn	r2, r2, r5
1001568a:	bf1c      	itt	ne
1001568c:	ea63 0305 	ornne	r3, r3, r5
10015690:	4662      	movne	r2, ip
10015692:	f04f 0400 	mov.w	r4, #0
10015696:	e7aa      	b.n	100155ee <strlen+0x2e>

10015698 <frexp>:
10015698:	f8df c064 	ldr.w	ip, [pc, #100]	@ 10015700 <frexp+0x68>
1001569c:	b5f8      	push	{r3, r4, r5, r6, r7, lr}
1001569e:	f021 4300 	bic.w	r3, r1, #2147483648	@ 0x80000000
100156a2:	2700      	movs	r7, #0
100156a4:	4563      	cmp	r3, ip
100156a6:	4604      	mov	r4, r0
100156a8:	460d      	mov	r5, r1
100156aa:	4616      	mov	r6, r2
100156ac:	6017      	str	r7, [r2, #0]
100156ae:	d822      	bhi.n	100156f6 <frexp+0x5e>
100156b0:	4684      	mov	ip, r0
100156b2:	ea53 0c0c 	orrs.w	ip, r3, ip
100156b6:	d01e      	beq.n	100156f6 <frexp+0x5e>
100156b8:	f8df c048 	ldr.w	ip, [pc, #72]	@ 10015704 <frexp+0x6c>
100156bc:	ea01 0c0c 	and.w	ip, r1, ip
100156c0:	460a      	mov	r2, r1
100156c2:	f1bc 0f00 	cmp.w	ip, #0
100156c6:	d109      	bne.n	100156dc <frexp+0x44>
100156c8:	4b0c      	ldr	r3, [pc, #48]	@ (100156fc <frexp+0x64>)
100156ca:	2200      	movs	r2, #0
100156cc:	f004 ff78 	bl	1001a5c0 <__aeabi_dmul>
100156d0:	f06f 0735 	mvn.w	r7, #53	@ 0x35
100156d4:	4604      	mov	r4, r0
100156d6:	460a      	mov	r2, r1
100156d8:	f021 4300 	bic.w	r3, r1, #2147483648	@ 0x80000000
100156dc:	f022 42ff 	bic.w	r2, r2, #2139095040	@ 0x7f800000
100156e0:	151b      	asrs	r3, r3, #20
100156e2:	f422 02e0 	bic.w	r2, r2, #7340032	@ 0x700000
100156e6:	f2a3 33fe 	subw	r3, r3, #1022	@ 0x3fe
100156ea:	f042 557f 	orr.w	r5, r2, #1069547520	@ 0x3fc00000
100156ee:	443b      	add	r3, r7
100156f0:	f445 1500 	orr.w	r5, r5, #2097152	@ 0x200000
100156f4:	6033      	str	r3, [r6, #0]
100156f6:	4620      	mov	r0, r4
100156f8:	4629      	mov	r1, r5
100156fa:	bdf8      	pop	{r3, r4, r5, r6, r7, pc}
100156fc:	43500000 	.word	0x43500000
10015700:	7fefffff 	.word	0x7fefffff
10015704:	7ff00000 	.word	0x7ff00000

10015708 <_malloc_trim_r>:
10015708:	e92d 43f8 	stmdb	sp!, {r3, r4, r5, r6, r7, r8, r9, lr}
1001570c:	4606      	mov	r6, r0
1001570e:	2008      	movs	r0, #8
10015710:	4689      	mov	r9, r1
10015712:	f7fe fd4b 	bl	100141ac <sysconf>
10015716:	f8df 80a4 	ldr.w	r8, [pc, #164]	@ 100157bc <_malloc_trim_r+0xb4>
1001571a:	4605      	mov	r5, r0
1001571c:	4630      	mov	r0, r6
1001571e:	f7fe fdbb 	bl	10014298 <__malloc_lock>
10015722:	f8d8 3008 	ldr.w	r3, [r8, #8]
10015726:	685f      	ldr	r7, [r3, #4]
10015728:	f027 0703 	bic.w	r7, r7, #3
1001572c:	f1a7 0411 	sub.w	r4, r7, #17
10015730:	eba4 0409 	sub.w	r4, r4, r9
10015734:	442c      	add	r4, r5
10015736:	fbb4 f4f5 	udiv	r4, r4, r5
1001573a:	3c01      	subs	r4, #1
1001573c:	fb05 f404 	mul.w	r4, r5, r4
10015740:	42a5      	cmp	r5, r4
10015742:	dc08      	bgt.n	10015756 <_malloc_trim_r+0x4e>
10015744:	2100      	movs	r1, #0
10015746:	4630      	mov	r0, r6
10015748:	f000 f9c2 	bl	10015ad0 <_sbrk_r>
1001574c:	f8d8 3008 	ldr.w	r3, [r8, #8]
10015750:	443b      	add	r3, r7
10015752:	4298      	cmp	r0, r3
10015754:	d005      	beq.n	10015762 <_malloc_trim_r+0x5a>
10015756:	4630      	mov	r0, r6
10015758:	f7fe fda4 	bl	100142a4 <__malloc_unlock>
1001575c:	2000      	movs	r0, #0
1001575e:	e8bd 83f8 	ldmia.w	sp!, {r3, r4, r5, r6, r7, r8, r9, pc}
10015762:	4261      	negs	r1, r4
10015764:	4630      	mov	r0, r6
10015766:	f000 f9b3 	bl	10015ad0 <_sbrk_r>
1001576a:	3001      	adds	r0, #1
1001576c:	d00f      	beq.n	1001578e <_malloc_trim_r+0x86>
1001576e:	4a11      	ldr	r2, [pc, #68]	@ (100157b4 <_malloc_trim_r+0xac>)
10015770:	f8d8 3008 	ldr.w	r3, [r8, #8]
10015774:	1b3f      	subs	r7, r7, r4
10015776:	f047 0701 	orr.w	r7, r7, #1
1001577a:	605f      	str	r7, [r3, #4]
1001577c:	6813      	ldr	r3, [r2, #0]
1001577e:	4630      	mov	r0, r6
10015780:	1b1b      	subs	r3, r3, r4
10015782:	6013      	str	r3, [r2, #0]
10015784:	f7fe fd8e 	bl	100142a4 <__malloc_unlock>
10015788:	2001      	movs	r0, #1
1001578a:	e8bd 83f8 	ldmia.w	sp!, {r3, r4, r5, r6, r7, r8, r9, pc}
1001578e:	2100      	movs	r1, #0
10015790:	4630      	mov	r0, r6
10015792:	f000 f99d 	bl	10015ad0 <_sbrk_r>
10015796:	f8d8 2008 	ldr.w	r2, [r8, #8]
1001579a:	1a83      	subs	r3, r0, r2
1001579c:	2b0f      	cmp	r3, #15
1001579e:	ddda      	ble.n	10015756 <_malloc_trim_r+0x4e>
100157a0:	f043 0301 	orr.w	r3, r3, #1
100157a4:	6053      	str	r3, [r2, #4]
100157a6:	4b04      	ldr	r3, [pc, #16]	@ (100157b8 <_malloc_trim_r+0xb0>)
100157a8:	4902      	ldr	r1, [pc, #8]	@ (100157b4 <_malloc_trim_r+0xac>)
100157aa:	681b      	ldr	r3, [r3, #0]
100157ac:	1ac0      	subs	r0, r0, r3
100157ae:	6008      	str	r0, [r1, #0]
100157b0:	e7d1      	b.n	10015756 <_malloc_trim_r+0x4e>
100157b2:	bf00      	nop
100157b4:	2000142c 	.word	0x2000142c
100157b8:	20000038 	.word	0x20000038
100157bc:	20000040 	.word	0x20000040

100157c0 <_free_r>:
100157c0:	2900      	cmp	r1, #0
100157c2:	d07c      	beq.n	100158be <_free_r+0xfe>
100157c4:	e92d 41f0 	stmdb	sp!, {r4, r5, r6, r7, r8, lr}
100157c8:	460c      	mov	r4, r1
100157ca:	4680      	mov	r8, r0
100157cc:	f7fe fd64 	bl	10014298 <__malloc_lock>
100157d0:	f854 3c04 	ldr.w	r3, [r4, #-4]
100157d4:	4f76      	ldr	r7, [pc, #472]	@ (100159b0 <_free_r+0x1f0>)
100157d6:	f1a4 0508 	sub.w	r5, r4, #8
100157da:	f023 0101 	bic.w	r1, r3, #1
100157de:	1868      	adds	r0, r5, r1
100157e0:	68be      	ldr	r6, [r7, #8]
100157e2:	6842      	ldr	r2, [r0, #4]
100157e4:	4286      	cmp	r6, r0
100157e6:	f022 0203 	bic.w	r2, r2, #3
100157ea:	f000 8083 	beq.w	100158f4 <_free_r+0x134>
100157ee:	07de      	lsls	r6, r3, #31
100157f0:	6042      	str	r2, [r0, #4]
100157f2:	eb00 0c02 	add.w	ip, r0, r2
100157f6:	d433      	bmi.n	10015860 <_free_r+0xa0>
100157f8:	f854 4c08 	ldr.w	r4, [r4, #-8]
100157fc:	f8dc 3004 	ldr.w	r3, [ip, #4]
10015800:	1b2d      	subs	r5, r5, r4
10015802:	4421      	add	r1, r4
10015804:	68ac      	ldr	r4, [r5, #8]
10015806:	f107 0c08 	add.w	ip, r7, #8
1001580a:	4564      	cmp	r4, ip
1001580c:	f003 0301 	and.w	r3, r3, #1
10015810:	d064      	beq.n	100158dc <_free_r+0x11c>
10015812:	f8d5 e00c 	ldr.w	lr, [r5, #12]
10015816:	f8c4 e00c 	str.w	lr, [r4, #12]
1001581a:	f8ce 4008 	str.w	r4, [lr, #8]
1001581e:	2b00      	cmp	r3, #0
10015820:	f000 8081 	beq.w	10015926 <_free_r+0x166>
10015824:	f041 0301 	orr.w	r3, r1, #1
10015828:	606b      	str	r3, [r5, #4]
1001582a:	6001      	str	r1, [r0, #0]
1001582c:	f5b1 7f00 	cmp.w	r1, #512	@ 0x200
10015830:	d222      	bcs.n	10015878 <_free_r+0xb8>
10015832:	6878      	ldr	r0, [r7, #4]
10015834:	08cb      	lsrs	r3, r1, #3
10015836:	2201      	movs	r2, #1
10015838:	0949      	lsrs	r1, r1, #5
1001583a:	3301      	adds	r3, #1
1001583c:	408a      	lsls	r2, r1
1001583e:	4302      	orrs	r2, r0
10015840:	f857 1033 	ldr.w	r1, [r7, r3, lsl #3]
10015844:	607a      	str	r2, [r7, #4]
10015846:	eb07 02c3 	add.w	r2, r7, r3, lsl #3
1001584a:	3a08      	subs	r2, #8
1001584c:	e9c5 1202 	strd	r1, r2, [r5, #8]
10015850:	f847 5033 	str.w	r5, [r7, r3, lsl #3]
10015854:	60cd      	str	r5, [r1, #12]
10015856:	4640      	mov	r0, r8
10015858:	e8bd 41f0 	ldmia.w	sp!, {r4, r5, r6, r7, r8, lr}
1001585c:	f7fe bd22 	b.w	100142a4 <__malloc_unlock>
10015860:	f8dc 3004 	ldr.w	r3, [ip, #4]
10015864:	07db      	lsls	r3, r3, #31
10015866:	d52b      	bpl.n	100158c0 <_free_r+0x100>
10015868:	f041 0301 	orr.w	r3, r1, #1
1001586c:	f5b1 7f00 	cmp.w	r1, #512	@ 0x200
10015870:	f844 3c04 	str.w	r3, [r4, #-4]
10015874:	6001      	str	r1, [r0, #0]
10015876:	d3dc      	bcc.n	10015832 <_free_r+0x72>
10015878:	f5b1 6f20 	cmp.w	r1, #2560	@ 0xa00
1001587c:	ea4f 2351 	mov.w	r3, r1, lsr #9
10015880:	d253      	bcs.n	1001592a <_free_r+0x16a>
10015882:	098b      	lsrs	r3, r1, #6
10015884:	f103 0039 	add.w	r0, r3, #57	@ 0x39
10015888:	f103 0238 	add.w	r2, r3, #56	@ 0x38
1001588c:	00c3      	lsls	r3, r0, #3
1001588e:	18f8      	adds	r0, r7, r3
10015890:	58fb      	ldr	r3, [r7, r3]
10015892:	3808      	subs	r0, #8
10015894:	4298      	cmp	r0, r3
10015896:	d103      	bne.n	100158a0 <_free_r+0xe0>
10015898:	e063      	b.n	10015962 <_free_r+0x1a2>
1001589a:	689b      	ldr	r3, [r3, #8]
1001589c:	4298      	cmp	r0, r3
1001589e:	d004      	beq.n	100158aa <_free_r+0xea>
100158a0:	685a      	ldr	r2, [r3, #4]
100158a2:	f022 0203 	bic.w	r2, r2, #3
100158a6:	428a      	cmp	r2, r1
100158a8:	d8f7      	bhi.n	1001589a <_free_r+0xda>
100158aa:	68d8      	ldr	r0, [r3, #12]
100158ac:	e9c5 3002 	strd	r3, r0, [r5, #8]
100158b0:	6085      	str	r5, [r0, #8]
100158b2:	60dd      	str	r5, [r3, #12]
100158b4:	4640      	mov	r0, r8
100158b6:	e8bd 41f0 	ldmia.w	sp!, {r4, r5, r6, r7, r8, lr}
100158ba:	f7fe bcf3 	b.w	100142a4 <__malloc_unlock>
100158be:	4770      	bx	lr
100158c0:	4411      	add	r1, r2
100158c2:	f107 0c08 	add.w	ip, r7, #8
100158c6:	6883      	ldr	r3, [r0, #8]
100158c8:	4563      	cmp	r3, ip
100158ca:	d03f      	beq.n	1001594c <_free_r+0x18c>
100158cc:	68c2      	ldr	r2, [r0, #12]
100158ce:	60da      	str	r2, [r3, #12]
100158d0:	6093      	str	r3, [r2, #8]
100158d2:	f041 0301 	orr.w	r3, r1, #1
100158d6:	606b      	str	r3, [r5, #4]
100158d8:	5069      	str	r1, [r5, r1]
100158da:	e7a7      	b.n	1001582c <_free_r+0x6c>
100158dc:	2b00      	cmp	r3, #0
100158de:	d161      	bne.n	100159a4 <_free_r+0x1e4>
100158e0:	440a      	add	r2, r1
100158e2:	e9d0 1302 	ldrd	r1, r3, [r0, #8]
100158e6:	60cb      	str	r3, [r1, #12]
100158e8:	6099      	str	r1, [r3, #8]
100158ea:	f042 0301 	orr.w	r3, r2, #1
100158ee:	606b      	str	r3, [r5, #4]
100158f0:	50aa      	str	r2, [r5, r2]
100158f2:	e7b0      	b.n	10015856 <_free_r+0x96>
100158f4:	07db      	lsls	r3, r3, #31
100158f6:	440a      	add	r2, r1
100158f8:	d407      	bmi.n	1001590a <_free_r+0x14a>
100158fa:	f854 3c08 	ldr.w	r3, [r4, #-8]
100158fe:	1aed      	subs	r5, r5, r3
10015900:	441a      	add	r2, r3
10015902:	e9d5 1302 	ldrd	r1, r3, [r5, #8]
10015906:	60cb      	str	r3, [r1, #12]
10015908:	6099      	str	r1, [r3, #8]
1001590a:	f042 0301 	orr.w	r3, r2, #1
1001590e:	606b      	str	r3, [r5, #4]
10015910:	4b28      	ldr	r3, [pc, #160]	@ (100159b4 <_free_r+0x1f4>)
10015912:	60bd      	str	r5, [r7, #8]
10015914:	681b      	ldr	r3, [r3, #0]
10015916:	4293      	cmp	r3, r2
10015918:	d89d      	bhi.n	10015856 <_free_r+0x96>
1001591a:	4b27      	ldr	r3, [pc, #156]	@ (100159b8 <_free_r+0x1f8>)
1001591c:	4640      	mov	r0, r8
1001591e:	6819      	ldr	r1, [r3, #0]
10015920:	f7ff fef2 	bl	10015708 <_malloc_trim_r>
10015924:	e797      	b.n	10015856 <_free_r+0x96>
10015926:	4411      	add	r1, r2
10015928:	e7cd      	b.n	100158c6 <_free_r+0x106>
1001592a:	2b14      	cmp	r3, #20
1001592c:	d908      	bls.n	10015940 <_free_r+0x180>
1001592e:	2b54      	cmp	r3, #84	@ 0x54
10015930:	d81f      	bhi.n	10015972 <_free_r+0x1b2>
10015932:	0b0b      	lsrs	r3, r1, #12
10015934:	f103 006f 	add.w	r0, r3, #111	@ 0x6f
10015938:	f103 026e 	add.w	r2, r3, #110	@ 0x6e
1001593c:	00c3      	lsls	r3, r0, #3
1001593e:	e7a6      	b.n	1001588e <_free_r+0xce>
10015940:	f103 005c 	add.w	r0, r3, #92	@ 0x5c
10015944:	f103 025b 	add.w	r2, r3, #91	@ 0x5b
10015948:	00c3      	lsls	r3, r0, #3
1001594a:	e7a0      	b.n	1001588e <_free_r+0xce>
1001594c:	f041 0301 	orr.w	r3, r1, #1
10015950:	613d      	str	r5, [r7, #16]
10015952:	617d      	str	r5, [r7, #20]
10015954:	f8c5 c008 	str.w	ip, [r5, #8]
10015958:	f8c5 c00c 	str.w	ip, [r5, #12]
1001595c:	606b      	str	r3, [r5, #4]
1001595e:	5069      	str	r1, [r5, r1]
10015960:	e779      	b.n	10015856 <_free_r+0x96>
10015962:	6879      	ldr	r1, [r7, #4]
10015964:	1092      	asrs	r2, r2, #2
10015966:	2401      	movs	r4, #1
10015968:	fa04 f202 	lsl.w	r2, r4, r2
1001596c:	430a      	orrs	r2, r1
1001596e:	607a      	str	r2, [r7, #4]
10015970:	e79c      	b.n	100158ac <_free_r+0xec>
10015972:	f5b3 7faa 	cmp.w	r3, #340	@ 0x154
10015976:	d806      	bhi.n	10015986 <_free_r+0x1c6>
10015978:	0bcb      	lsrs	r3, r1, #15
1001597a:	f103 0078 	add.w	r0, r3, #120	@ 0x78
1001597e:	f103 0277 	add.w	r2, r3, #119	@ 0x77
10015982:	00c3      	lsls	r3, r0, #3
10015984:	e783      	b.n	1001588e <_free_r+0xce>
10015986:	f240 5254 	movw	r2, #1364	@ 0x554
1001598a:	4293      	cmp	r3, r2
1001598c:	d806      	bhi.n	1001599c <_free_r+0x1dc>
1001598e:	0c8b      	lsrs	r3, r1, #18
10015990:	f103 007d 	add.w	r0, r3, #125	@ 0x7d
10015994:	f103 027c 	add.w	r2, r3, #124	@ 0x7c
10015998:	00c3      	lsls	r3, r0, #3
1001599a:	e778      	b.n	1001588e <_free_r+0xce>
1001599c:	f44f 737e 	mov.w	r3, #1016	@ 0x3f8
100159a0:	227e      	movs	r2, #126	@ 0x7e
100159a2:	e774      	b.n	1001588e <_free_r+0xce>
100159a4:	f041 0301 	orr.w	r3, r1, #1
100159a8:	606b      	str	r3, [r5, #4]
100159aa:	6001      	str	r1, [r0, #0]
100159ac:	e753      	b.n	10015856 <_free_r+0x96>
100159ae:	bf00      	nop
100159b0:	20000040 	.word	0x20000040
100159b4:	2000003c 	.word	0x2000003c
100159b8:	2000145c 	.word	0x2000145c

100159bc <strncpy>:
100159bc:	ea40 0301 	orr.w	r3, r0, r1
100159c0:	079b      	lsls	r3, r3, #30
100159c2:	b510      	push	{r4, lr}
100159c4:	d101      	bne.n	100159ca <strncpy+0xe>
100159c6:	2a03      	cmp	r2, #3
100159c8:	d817      	bhi.n	100159fa <strncpy+0x3e>
100159ca:	4684      	mov	ip, r0
100159cc:	f101 3eff 	add.w	lr, r1, #4294967295	@ 0xffffffff
100159d0:	e007      	b.n	100159e2 <strncpy+0x26>
100159d2:	f81e 1f01 	ldrb.w	r1, [lr, #1]!
100159d6:	f803 1b01 	strb.w	r1, [r3], #1
100159da:	1e54      	subs	r4, r2, #1
100159dc:	b129      	cbz	r1, 100159ea <strncpy+0x2e>
100159de:	469c      	mov	ip, r3
100159e0:	4622      	mov	r2, r4
100159e2:	4663      	mov	r3, ip
100159e4:	2a00      	cmp	r2, #0
100159e6:	d1f4      	bne.n	100159d2 <strncpy+0x16>
100159e8:	bd10      	pop	{r4, pc}
100159ea:	4494      	add	ip, r2
100159ec:	2c00      	cmp	r4, #0
100159ee:	d0fb      	beq.n	100159e8 <strncpy+0x2c>
100159f0:	f803 1b01 	strb.w	r1, [r3], #1
100159f4:	4563      	cmp	r3, ip
100159f6:	d1fb      	bne.n	100159f0 <strncpy+0x34>
100159f8:	bd10      	pop	{r4, pc}
100159fa:	468e      	mov	lr, r1
100159fc:	4684      	mov	ip, r0
100159fe:	f8de 4000 	ldr.w	r4, [lr]
10015a02:	f1a4 3301 	sub.w	r3, r4, #16843009	@ 0x1010101
10015a06:	ea23 0304 	bic.w	r3, r3, r4
10015a0a:	f013 3f80 	tst.w	r3, #2155905152	@ 0x80808080
10015a0e:	4671      	mov	r1, lr
10015a10:	f10e 0e04 	add.w	lr, lr, #4
10015a14:	d1da      	bne.n	100159cc <strncpy+0x10>
10015a16:	3a04      	subs	r2, #4
10015a18:	2a03      	cmp	r2, #3
10015a1a:	f84c 4b04 	str.w	r4, [ip], #4
10015a1e:	d8ee      	bhi.n	100159fe <strncpy+0x42>
10015a20:	4671      	mov	r1, lr
10015a22:	e7d3      	b.n	100159cc <strncpy+0x10>

10015a24 <__sread>:
10015a24:	b510      	push	{r4, lr}
10015a26:	460c      	mov	r4, r1
10015a28:	f9b1 100e 	ldrsh.w	r1, [r1, #14]
10015a2c:	f004 fac0 	bl	10019fb0 <_read_r>
10015a30:	2800      	cmp	r0, #0
10015a32:	db03      	blt.n	10015a3c <__sread+0x18>
10015a34:	6d23      	ldr	r3, [r4, #80]	@ 0x50
10015a36:	4403      	add	r3, r0
10015a38:	6523      	str	r3, [r4, #80]	@ 0x50
10015a3a:	bd10      	pop	{r4, pc}
10015a3c:	89a3      	ldrh	r3, [r4, #12]
10015a3e:	f423 5380 	bic.w	r3, r3, #4096	@ 0x1000
10015a42:	81a3      	strh	r3, [r4, #12]
10015a44:	bd10      	pop	{r4, pc}
10015a46:	bf00      	nop

10015a48 <__swrite>:
10015a48:	e92d 41f0 	stmdb	sp!, {r4, r5, r6, r7, r8, lr}
10015a4c:	460c      	mov	r4, r1
10015a4e:	f9b1 100c 	ldrsh.w	r1, [r1, #12]
10015a52:	461f      	mov	r7, r3
10015a54:	05cb      	lsls	r3, r1, #23
10015a56:	4605      	mov	r5, r0
10015a58:	4616      	mov	r6, r2
10015a5a:	d40b      	bmi.n	10015a74 <__swrite+0x2c>
10015a5c:	f421 5180 	bic.w	r1, r1, #4096	@ 0x1000
10015a60:	81a1      	strh	r1, [r4, #12]
10015a62:	463b      	mov	r3, r7
10015a64:	f9b4 100e 	ldrsh.w	r1, [r4, #14]
10015a68:	4632      	mov	r2, r6
10015a6a:	4628      	mov	r0, r5
10015a6c:	e8bd 41f0 	ldmia.w	sp!, {r4, r5, r6, r7, r8, lr}
10015a70:	f000 b9c0 	b.w	10015df4 <_write_r>
10015a74:	f9b4 100e 	ldrsh.w	r1, [r4, #14]
10015a78:	2302      	movs	r3, #2
10015a7a:	2200      	movs	r2, #0
10015a7c:	f004 fa82 	bl	10019f84 <_lseek_r>
10015a80:	f9b4 100c 	ldrsh.w	r1, [r4, #12]
10015a84:	e7ea      	b.n	10015a5c <__swrite+0x14>
10015a86:	bf00      	nop

10015a88 <__sseek>:
10015a88:	b510      	push	{r4, lr}
10015a8a:	460c      	mov	r4, r1
10015a8c:	f9b1 100e 	ldrsh.w	r1, [r1, #14]
10015a90:	f004 fa78 	bl	10019f84 <_lseek_r>
10015a94:	f9b4 300c 	ldrsh.w	r3, [r4, #12]
10015a98:	1c42      	adds	r2, r0, #1
10015a9a:	bf0e      	itee	eq
10015a9c:	f423 5380 	biceq.w	r3, r3, #4096	@ 0x1000
10015aa0:	f443 5380 	orrne.w	r3, r3, #4096	@ 0x1000
10015aa4:	6520      	strne	r0, [r4, #80]	@ 0x50
10015aa6:	81a3      	strh	r3, [r4, #12]
10015aa8:	bd10      	pop	{r4, pc}
10015aaa:	bf00      	nop

10015aac <__sclose>:
10015aac:	f9b1 100e 	ldrsh.w	r1, [r1, #14]
10015ab0:	f003 bfc6 	b.w	10019a40 <_close_r>

10015ab4 <__ascii_wctomb>:
10015ab4:	b149      	cbz	r1, 10015aca <__ascii_wctomb+0x16>
10015ab6:	2aff      	cmp	r2, #255	@ 0xff
10015ab8:	d802      	bhi.n	10015ac0 <__ascii_wctomb+0xc>
10015aba:	700a      	strb	r2, [r1, #0]
10015abc:	2001      	movs	r0, #1
10015abe:	4770      	bx	lr
10015ac0:	238a      	movs	r3, #138	@ 0x8a
10015ac2:	6003      	str	r3, [r0, #0]
10015ac4:	f04f 30ff 	mov.w	r0, #4294967295	@ 0xffffffff
10015ac8:	4770      	bx	lr
10015aca:	4608      	mov	r0, r1
10015acc:	4770      	bx	lr
10015ace:	bf00      	nop

10015ad0 <_sbrk_r>:
10015ad0:	b538      	push	{r3, r4, r5, lr}
10015ad2:	4d07      	ldr	r5, [pc, #28]	@ (10015af0 <_sbrk_r+0x20>)
10015ad4:	2200      	movs	r2, #0
10015ad6:	4604      	mov	r4, r0
10015ad8:	4608      	mov	r0, r1
10015ada:	602a      	str	r2, [r5, #0]
10015adc:	f7fa ffe8 	bl	10010ab0 <_sbrk>
10015ae0:	1c43      	adds	r3, r0, #1
10015ae2:	d000      	beq.n	10015ae6 <_sbrk_r+0x16>
10015ae4:	bd38      	pop	{r3, r4, r5, pc}
10015ae6:	682b      	ldr	r3, [r5, #0]
10015ae8:	2b00      	cmp	r3, #0
10015aea:	d0fb      	beq.n	10015ae4 <_sbrk_r+0x14>
10015aec:	6023      	str	r3, [r4, #0]
10015aee:	bd38      	pop	{r3, r4, r5, pc}
10015af0:	2000173c 	.word	0x2000173c

10015af4 <__sfvwrite_r>:
10015af4:	6893      	ldr	r3, [r2, #8]
10015af6:	2b00      	cmp	r3, #0
10015af8:	f000 80f8 	beq.w	10015cec <__sfvwrite_r+0x1f8>
10015afc:	e92d 4ff0 	stmdb	sp!, {r4, r5, r6, r7, r8, r9, sl, fp, lr}
10015b00:	f9b1 c00c 	ldrsh.w	ip, [r1, #12]
10015b04:	f01c 0f08 	tst.w	ip, #8
10015b08:	b083      	sub	sp, #12
10015b0a:	4690      	mov	r8, r2
10015b0c:	4681      	mov	r9, r0
10015b0e:	460c      	mov	r4, r1
10015b10:	d031      	beq.n	10015b76 <__sfvwrite_r+0x82>
10015b12:	690b      	ldr	r3, [r1, #16]
10015b14:	b37b      	cbz	r3, 10015b76 <__sfvwrite_r+0x82>
10015b16:	f01c 0702 	ands.w	r7, ip, #2
10015b1a:	f8d8 6000 	ldr.w	r6, [r8]
10015b1e:	d038      	beq.n	10015b92 <__sfvwrite_r+0x9e>
10015b20:	2700      	movs	r7, #0
10015b22:	f8d4 b024 	ldr.w	fp, [r4, #36]	@ 0x24
10015b26:	69e1      	ldr	r1, [r4, #28]
10015b28:	f8df a2c4 	ldr.w	sl, [pc, #708]	@ 10015df0 <__sfvwrite_r+0x2fc>
10015b2c:	463d      	mov	r5, r7
10015b2e:	4555      	cmp	r5, sl
10015b30:	462b      	mov	r3, r5
10015b32:	463a      	mov	r2, r7
10015b34:	bf28      	it	cs
10015b36:	4653      	movcs	r3, sl
10015b38:	4648      	mov	r0, r9
10015b3a:	b1c5      	cbz	r5, 10015b6e <__sfvwrite_r+0x7a>
10015b3c:	47d8      	blx	fp
10015b3e:	2800      	cmp	r0, #0
10015b40:	f340 80ca 	ble.w	10015cd8 <__sfvwrite_r+0x1e4>
10015b44:	f8d8 3008 	ldr.w	r3, [r8, #8]
10015b48:	1a1b      	subs	r3, r3, r0
10015b4a:	4407      	add	r7, r0
10015b4c:	1a2d      	subs	r5, r5, r0
10015b4e:	f8c8 3008 	str.w	r3, [r8, #8]
10015b52:	2b00      	cmp	r3, #0
10015b54:	f000 80b6 	beq.w	10015cc4 <__sfvwrite_r+0x1d0>
10015b58:	4555      	cmp	r5, sl
10015b5a:	462b      	mov	r3, r5
10015b5c:	f8d4 b024 	ldr.w	fp, [r4, #36]	@ 0x24
10015b60:	69e1      	ldr	r1, [r4, #28]
10015b62:	bf28      	it	cs
10015b64:	4653      	movcs	r3, sl
10015b66:	463a      	mov	r2, r7
10015b68:	4648      	mov	r0, r9
10015b6a:	2d00      	cmp	r5, #0
10015b6c:	d1e6      	bne.n	10015b3c <__sfvwrite_r+0x48>
10015b6e:	e9d6 7500 	ldrd	r7, r5, [r6]
10015b72:	3608      	adds	r6, #8
10015b74:	e7db      	b.n	10015b2e <__sfvwrite_r+0x3a>
10015b76:	4621      	mov	r1, r4
10015b78:	4648      	mov	r0, r9
10015b7a:	f003 fa13 	bl	10018fa4 <__swsetup_r>
10015b7e:	2800      	cmp	r0, #0
10015b80:	f040 80af 	bne.w	10015ce2 <__sfvwrite_r+0x1ee>
10015b84:	f9b4 c00c 	ldrsh.w	ip, [r4, #12]
10015b88:	f8d8 6000 	ldr.w	r6, [r8]
10015b8c:	f01c 0702 	ands.w	r7, ip, #2
10015b90:	d1c6      	bne.n	10015b20 <__sfvwrite_r+0x2c>
10015b92:	f01c 0a01 	ands.w	sl, ip, #1
10015b96:	d163      	bne.n	10015c60 <__sfvwrite_r+0x16c>
10015b98:	6823      	ldr	r3, [r4, #0]
10015b9a:	68a1      	ldr	r1, [r4, #8]
10015b9c:	4657      	mov	r7, sl
10015b9e:	4618      	mov	r0, r3
10015ba0:	468b      	mov	fp, r1
10015ba2:	2f00      	cmp	r7, #0
10015ba4:	d058      	beq.n	10015c58 <__sfvwrite_r+0x164>
10015ba6:	f41c 7f00 	tst.w	ip, #512	@ 0x200
10015baa:	f000 80b5 	beq.w	10015d18 <__sfvwrite_r+0x224>
10015bae:	42b9      	cmp	r1, r7
10015bb0:	460a      	mov	r2, r1
10015bb2:	f200 80e1 	bhi.w	10015d78 <__sfvwrite_r+0x284>
10015bb6:	f41c 6f90 	tst.w	ip, #1152	@ 0x480
10015bba:	d02f      	beq.n	10015c1c <__sfvwrite_r+0x128>
10015bbc:	6921      	ldr	r1, [r4, #16]
10015bbe:	6962      	ldr	r2, [r4, #20]
10015bc0:	1a5d      	subs	r5, r3, r1
10015bc2:	eb02 0242 	add.w	r2, r2, r2, lsl #1
10015bc6:	eb02 72d2 	add.w	r2, r2, r2, lsr #31
10015bca:	1c6b      	adds	r3, r5, #1
10015bcc:	1052      	asrs	r2, r2, #1
10015bce:	443b      	add	r3, r7
10015bd0:	4293      	cmp	r3, r2
10015bd2:	bf92      	itee	ls
10015bd4:	4693      	movls	fp, r2
10015bd6:	469b      	movhi	fp, r3
10015bd8:	461a      	movhi	r2, r3
10015bda:	f41c 6f80 	tst.w	ip, #1024	@ 0x400
10015bde:	f000 80ea 	beq.w	10015db6 <__sfvwrite_r+0x2c2>
10015be2:	4611      	mov	r1, r2
10015be4:	4648      	mov	r0, r9
10015be6:	f7fd ff57 	bl	10013a98 <_malloc_r>
10015bea:	2800      	cmp	r0, #0
10015bec:	f000 80f9 	beq.w	10015de2 <__sfvwrite_r+0x2ee>
10015bf0:	462a      	mov	r2, r5
10015bf2:	6921      	ldr	r1, [r4, #16]
10015bf4:	9000      	str	r0, [sp, #0]
10015bf6:	f7ff fc43 	bl	10015480 <memcpy>
10015bfa:	89a2      	ldrh	r2, [r4, #12]
10015bfc:	9b00      	ldr	r3, [sp, #0]
10015bfe:	f422 6290 	bic.w	r2, r2, #1152	@ 0x480
10015c02:	f042 0280 	orr.w	r2, r2, #128	@ 0x80
10015c06:	81a2      	strh	r2, [r4, #12]
10015c08:	1958      	adds	r0, r3, r5
10015c0a:	ebab 0505 	sub.w	r5, fp, r5
10015c0e:	f8c4 b014 	str.w	fp, [r4, #20]
10015c12:	6123      	str	r3, [r4, #16]
10015c14:	60a5      	str	r5, [r4, #8]
10015c16:	6020      	str	r0, [r4, #0]
10015c18:	46bb      	mov	fp, r7
10015c1a:	463a      	mov	r2, r7
10015c1c:	4651      	mov	r1, sl
10015c1e:	9200      	str	r2, [sp, #0]
10015c20:	f003 f8c0 	bl	10018da4 <memmove>
10015c24:	68a1      	ldr	r1, [r4, #8]
10015c26:	6823      	ldr	r3, [r4, #0]
10015c28:	9a00      	ldr	r2, [sp, #0]
10015c2a:	eba1 010b 	sub.w	r1, r1, fp
10015c2e:	441a      	add	r2, r3
10015c30:	463d      	mov	r5, r7
10015c32:	60a1      	str	r1, [r4, #8]
10015c34:	6022      	str	r2, [r4, #0]
10015c36:	2700      	movs	r7, #0
10015c38:	f8d8 3008 	ldr.w	r3, [r8, #8]
10015c3c:	1b5b      	subs	r3, r3, r5
10015c3e:	44aa      	add	sl, r5
10015c40:	f8c8 3008 	str.w	r3, [r8, #8]
10015c44:	2b00      	cmp	r3, #0
10015c46:	d03d      	beq.n	10015cc4 <__sfvwrite_r+0x1d0>
10015c48:	6823      	ldr	r3, [r4, #0]
10015c4a:	68a1      	ldr	r1, [r4, #8]
10015c4c:	f9b4 c00c 	ldrsh.w	ip, [r4, #12]
10015c50:	4618      	mov	r0, r3
10015c52:	468b      	mov	fp, r1
10015c54:	2f00      	cmp	r7, #0
10015c56:	d1a6      	bne.n	10015ba6 <__sfvwrite_r+0xb2>
10015c58:	e9d6 a700 	ldrd	sl, r7, [r6]
10015c5c:	3608      	adds	r6, #8
10015c5e:	e79e      	b.n	10015b9e <__sfvwrite_r+0xaa>
10015c60:	4638      	mov	r0, r7
10015c62:	46bb      	mov	fp, r7
10015c64:	463d      	mov	r5, r7
10015c66:	9700      	str	r7, [sp, #0]
10015c68:	2d00      	cmp	r5, #0
10015c6a:	d041      	beq.n	10015cf0 <__sfvwrite_r+0x1fc>
10015c6c:	2800      	cmp	r0, #0
10015c6e:	d046      	beq.n	10015cfe <__sfvwrite_r+0x20a>
10015c70:	9a00      	ldr	r2, [sp, #0]
10015c72:	6820      	ldr	r0, [r4, #0]
10015c74:	68a1      	ldr	r1, [r4, #8]
10015c76:	e9d4 7304 	ldrd	r7, r3, [r4, #16]
10015c7a:	42aa      	cmp	r2, r5
10015c7c:	bf28      	it	cs
10015c7e:	462a      	movcs	r2, r5
10015c80:	42b8      	cmp	r0, r7
10015c82:	d904      	bls.n	10015c8e <__sfvwrite_r+0x19a>
10015c84:	eb01 0a03 	add.w	sl, r1, r3
10015c88:	4552      	cmp	r2, sl
10015c8a:	f300 8085 	bgt.w	10015d98 <__sfvwrite_r+0x2a4>
10015c8e:	4293      	cmp	r3, r2
10015c90:	dc75      	bgt.n	10015d7e <__sfvwrite_r+0x28a>
10015c92:	69e1      	ldr	r1, [r4, #28]
10015c94:	6a67      	ldr	r7, [r4, #36]	@ 0x24
10015c96:	465a      	mov	r2, fp
10015c98:	4648      	mov	r0, r9
10015c9a:	47b8      	blx	r7
10015c9c:	f1b0 0a00 	subs.w	sl, r0, #0
10015ca0:	dd1a      	ble.n	10015cd8 <__sfvwrite_r+0x1e4>
10015ca2:	9b00      	ldr	r3, [sp, #0]
10015ca4:	ebb3 030a 	subs.w	r3, r3, sl
10015ca8:	9300      	str	r3, [sp, #0]
10015caa:	d00f      	beq.n	10015ccc <__sfvwrite_r+0x1d8>
10015cac:	2001      	movs	r0, #1
10015cae:	f8d8 3008 	ldr.w	r3, [r8, #8]
10015cb2:	eba3 030a 	sub.w	r3, r3, sl
10015cb6:	44d3      	add	fp, sl
10015cb8:	eba5 050a 	sub.w	r5, r5, sl
10015cbc:	f8c8 3008 	str.w	r3, [r8, #8]
10015cc0:	2b00      	cmp	r3, #0
10015cc2:	d1d1      	bne.n	10015c68 <__sfvwrite_r+0x174>
10015cc4:	2000      	movs	r0, #0
10015cc6:	b003      	add	sp, #12
10015cc8:	e8bd 8ff0 	ldmia.w	sp!, {r4, r5, r6, r7, r8, r9, sl, fp, pc}
10015ccc:	4621      	mov	r1, r4
10015cce:	4648      	mov	r0, r9
10015cd0:	f003 ff64 	bl	10019b9c <_fflush_r>
10015cd4:	2800      	cmp	r0, #0
10015cd6:	d0ea      	beq.n	10015cae <__sfvwrite_r+0x1ba>
10015cd8:	f9b4 300c 	ldrsh.w	r3, [r4, #12]
10015cdc:	f043 0340 	orr.w	r3, r3, #64	@ 0x40
10015ce0:	81a3      	strh	r3, [r4, #12]
10015ce2:	f04f 30ff 	mov.w	r0, #4294967295	@ 0xffffffff
10015ce6:	b003      	add	sp, #12
10015ce8:	e8bd 8ff0 	ldmia.w	sp!, {r4, r5, r6, r7, r8, r9, sl, fp, pc}
10015cec:	2000      	movs	r0, #0
10015cee:	4770      	bx	lr
10015cf0:	6875      	ldr	r5, [r6, #4]
10015cf2:	4633      	mov	r3, r6
10015cf4:	3608      	adds	r6, #8
10015cf6:	2d00      	cmp	r5, #0
10015cf8:	d0fa      	beq.n	10015cf0 <__sfvwrite_r+0x1fc>
10015cfa:	f8d3 b000 	ldr.w	fp, [r3]
10015cfe:	462a      	mov	r2, r5
10015d00:	210a      	movs	r1, #10
10015d02:	4658      	mov	r0, fp
10015d04:	f7ff fb6c 	bl	100153e0 <memchr>
10015d08:	2800      	cmp	r0, #0
10015d0a:	d067      	beq.n	10015ddc <__sfvwrite_r+0x2e8>
10015d0c:	3001      	adds	r0, #1
10015d0e:	eba0 030b 	sub.w	r3, r0, fp
10015d12:	9300      	str	r3, [sp, #0]
10015d14:	461a      	mov	r2, r3
10015d16:	e7ac      	b.n	10015c72 <__sfvwrite_r+0x17e>
10015d18:	6922      	ldr	r2, [r4, #16]
10015d1a:	429a      	cmp	r2, r3
10015d1c:	d314      	bcc.n	10015d48 <__sfvwrite_r+0x254>
10015d1e:	6962      	ldr	r2, [r4, #20]
10015d20:	42ba      	cmp	r2, r7
10015d22:	d811      	bhi.n	10015d48 <__sfvwrite_r+0x254>
10015d24:	f06f 4300 	mvn.w	r3, #2147483648	@ 0x80000000
10015d28:	42bb      	cmp	r3, r7
10015d2a:	bf28      	it	cs
10015d2c:	463b      	movcs	r3, r7
10015d2e:	6a65      	ldr	r5, [r4, #36]	@ 0x24
10015d30:	fb93 f3f2 	sdiv	r3, r3, r2
10015d34:	69e1      	ldr	r1, [r4, #28]
10015d36:	fb02 f303 	mul.w	r3, r2, r3
10015d3a:	4648      	mov	r0, r9
10015d3c:	4652      	mov	r2, sl
10015d3e:	47a8      	blx	r5
10015d40:	1e05      	subs	r5, r0, #0
10015d42:	ddc9      	ble.n	10015cd8 <__sfvwrite_r+0x1e4>
10015d44:	1b7f      	subs	r7, r7, r5
10015d46:	e777      	b.n	10015c38 <__sfvwrite_r+0x144>
10015d48:	42b9      	cmp	r1, r7
10015d4a:	bf28      	it	cs
10015d4c:	4639      	movcs	r1, r7
10015d4e:	460d      	mov	r5, r1
10015d50:	4618      	mov	r0, r3
10015d52:	460a      	mov	r2, r1
10015d54:	4651      	mov	r1, sl
10015d56:	f003 f825 	bl	10018da4 <memmove>
10015d5a:	68a1      	ldr	r1, [r4, #8]
10015d5c:	6823      	ldr	r3, [r4, #0]
10015d5e:	1b49      	subs	r1, r1, r5
10015d60:	442b      	add	r3, r5
10015d62:	60a1      	str	r1, [r4, #8]
10015d64:	6023      	str	r3, [r4, #0]
10015d66:	2900      	cmp	r1, #0
10015d68:	d1ec      	bne.n	10015d44 <__sfvwrite_r+0x250>
10015d6a:	4621      	mov	r1, r4
10015d6c:	4648      	mov	r0, r9
10015d6e:	f003 ff15 	bl	10019b9c <_fflush_r>
10015d72:	2800      	cmp	r0, #0
10015d74:	d0e6      	beq.n	10015d44 <__sfvwrite_r+0x250>
10015d76:	e7af      	b.n	10015cd8 <__sfvwrite_r+0x1e4>
10015d78:	46bb      	mov	fp, r7
10015d7a:	463a      	mov	r2, r7
10015d7c:	e74e      	b.n	10015c1c <__sfvwrite_r+0x128>
10015d7e:	4659      	mov	r1, fp
10015d80:	9201      	str	r2, [sp, #4]
10015d82:	f003 f80f 	bl	10018da4 <memmove>
10015d86:	9a01      	ldr	r2, [sp, #4]
10015d88:	68a3      	ldr	r3, [r4, #8]
10015d8a:	1a9b      	subs	r3, r3, r2
10015d8c:	60a3      	str	r3, [r4, #8]
10015d8e:	6823      	ldr	r3, [r4, #0]
10015d90:	4413      	add	r3, r2
10015d92:	6023      	str	r3, [r4, #0]
10015d94:	4692      	mov	sl, r2
10015d96:	e784      	b.n	10015ca2 <__sfvwrite_r+0x1ae>
10015d98:	4659      	mov	r1, fp
10015d9a:	4652      	mov	r2, sl
10015d9c:	f003 f802 	bl	10018da4 <memmove>
10015da0:	6823      	ldr	r3, [r4, #0]
10015da2:	4453      	add	r3, sl
10015da4:	6023      	str	r3, [r4, #0]
10015da6:	4621      	mov	r1, r4
10015da8:	4648      	mov	r0, r9
10015daa:	f003 fef7 	bl	10019b9c <_fflush_r>
10015dae:	2800      	cmp	r0, #0
10015db0:	f43f af77 	beq.w	10015ca2 <__sfvwrite_r+0x1ae>
10015db4:	e790      	b.n	10015cd8 <__sfvwrite_r+0x1e4>
10015db6:	4648      	mov	r0, r9
10015db8:	f003 ff1a 	bl	10019bf0 <_realloc_r>
10015dbc:	4603      	mov	r3, r0
10015dbe:	2800      	cmp	r0, #0
10015dc0:	f47f af22 	bne.w	10015c08 <__sfvwrite_r+0x114>
10015dc4:	6921      	ldr	r1, [r4, #16]
10015dc6:	4648      	mov	r0, r9
10015dc8:	f7ff fcfa 	bl	100157c0 <_free_r>
10015dcc:	f9b4 300c 	ldrsh.w	r3, [r4, #12]
10015dd0:	220c      	movs	r2, #12
10015dd2:	f023 0380 	bic.w	r3, r3, #128	@ 0x80
10015dd6:	f8c9 2000 	str.w	r2, [r9]
10015dda:	e77f      	b.n	10015cdc <__sfvwrite_r+0x1e8>
10015ddc:	1c6a      	adds	r2, r5, #1
10015dde:	9200      	str	r2, [sp, #0]
10015de0:	e747      	b.n	10015c72 <__sfvwrite_r+0x17e>
10015de2:	220c      	movs	r2, #12
10015de4:	f9b4 300c 	ldrsh.w	r3, [r4, #12]
10015de8:	f8c9 2000 	str.w	r2, [r9]
10015dec:	e776      	b.n	10015cdc <__sfvwrite_r+0x1e8>
10015dee:	bf00      	nop
10015df0:	7ffffc00 	.word	0x7ffffc00

10015df4 <_write_r>:
10015df4:	b538      	push	{r3, r4, r5, lr}
10015df6:	460c      	mov	r4, r1
10015df8:	4d08      	ldr	r5, [pc, #32]	@ (10015e1c <_write_r+0x28>)
10015dfa:	4684      	mov	ip, r0
10015dfc:	4611      	mov	r1, r2
10015dfe:	4620      	mov	r0, r4
10015e00:	461a      	mov	r2, r3
10015e02:	2300      	movs	r3, #0
10015e04:	602b      	str	r3, [r5, #0]
10015e06:	4664      	mov	r4, ip
10015e08:	f7fa fd02 	bl	10010810 <_write>
10015e0c:	1c43      	adds	r3, r0, #1
10015e0e:	d000      	beq.n	10015e12 <_write_r+0x1e>
10015e10:	bd38      	pop	{r3, r4, r5, pc}
10015e12:	682b      	ldr	r3, [r5, #0]
10015e14:	2b00      	cmp	r3, #0
10015e16:	d0fb      	beq.n	10015e10 <_write_r+0x1c>
10015e18:	6023      	str	r3, [r4, #0]
10015e1a:	bd38      	pop	{r3, r4, r5, pc}
10015e1c:	2000173c 	.word	0x2000173c

10015e20 <_fwalk_sglue>:
10015e20:	e92d 43f8 	stmdb	sp!, {r3, r4, r5, r6, r7, r8, r9, lr}
10015e24:	4680      	mov	r8, r0
10015e26:	460f      	mov	r7, r1
10015e28:	4616      	mov	r6, r2
10015e2a:	f04f 0900 	mov.w	r9, #0
10015e2e:	e9d6 5401 	ldrd	r5, r4, [r6, #4]
10015e32:	3d01      	subs	r5, #1
10015e34:	d411      	bmi.n	10015e5a <_fwalk_sglue+0x3a>
10015e36:	89a3      	ldrh	r3, [r4, #12]
10015e38:	2b01      	cmp	r3, #1
10015e3a:	f105 35ff 	add.w	r5, r5, #4294967295	@ 0xffffffff
10015e3e:	d908      	bls.n	10015e52 <_fwalk_sglue+0x32>
10015e40:	f9b4 300e 	ldrsh.w	r3, [r4, #14]
10015e44:	3301      	adds	r3, #1
10015e46:	4621      	mov	r1, r4
10015e48:	d003      	beq.n	10015e52 <_fwalk_sglue+0x32>
10015e4a:	4640      	mov	r0, r8
10015e4c:	47b8      	blx	r7
10015e4e:	ea49 0900 	orr.w	r9, r9, r0
10015e52:	1c6b      	adds	r3, r5, #1
10015e54:	f104 0468 	add.w	r4, r4, #104	@ 0x68
10015e58:	d1ed      	bne.n	10015e36 <_fwalk_sglue+0x16>
10015e5a:	6836      	ldr	r6, [r6, #0]
10015e5c:	2e00      	cmp	r6, #0
10015e5e:	d1e6      	bne.n	10015e2e <_fwalk_sglue+0xe>
10015e60:	4648      	mov	r0, r9
10015e62:	e8bd 83f8 	ldmia.w	sp!, {r3, r4, r5, r6, r7, r8, r9, pc}
10015e66:	bf00      	nop

10015e68 <__ssprint_r>:
10015e68:	e92d 4ff0 	stmdb	sp!, {r4, r5, r6, r7, r8, r9, sl, fp, lr}
10015e6c:	6893      	ldr	r3, [r2, #8]
10015e6e:	6817      	ldr	r7, [r2, #0]
10015e70:	b083      	sub	sp, #12
10015e72:	4692      	mov	sl, r2
10015e74:	2b00      	cmp	r3, #0
10015e76:	d074      	beq.n	10015f62 <__ssprint_r+0xfa>
10015e78:	f04f 0b00 	mov.w	fp, #0
10015e7c:	688b      	ldr	r3, [r1, #8]
10015e7e:	680a      	ldr	r2, [r1, #0]
10015e80:	4681      	mov	r9, r0
10015e82:	460c      	mov	r4, r1
10015e84:	465d      	mov	r5, fp
10015e86:	e045      	b.n	10015f14 <__ssprint_r+0xac>
10015e88:	f9b4 300c 	ldrsh.w	r3, [r4, #12]
10015e8c:	f413 6f90 	tst.w	r3, #1152	@ 0x480
10015e90:	d02c      	beq.n	10015eec <__ssprint_r+0x84>
10015e92:	e9d4 0104 	ldrd	r0, r1, [r4, #16]
10015e96:	1a16      	subs	r6, r2, r0
10015e98:	eb01 0241 	add.w	r2, r1, r1, lsl #1
10015e9c:	eb02 72d2 	add.w	r2, r2, r2, lsr #31
10015ea0:	1c71      	adds	r1, r6, #1
10015ea2:	1052      	asrs	r2, r2, #1
10015ea4:	4429      	add	r1, r5
10015ea6:	4291      	cmp	r1, r2
10015ea8:	bf92      	itee	ls
10015eaa:	4690      	movls	r8, r2
10015eac:	4688      	movhi	r8, r1
10015eae:	460a      	movhi	r2, r1
10015eb0:	055b      	lsls	r3, r3, #21
10015eb2:	d539      	bpl.n	10015f28 <__ssprint_r+0xc0>
10015eb4:	4611      	mov	r1, r2
10015eb6:	4648      	mov	r0, r9
10015eb8:	f7fd fdee 	bl	10013a98 <_malloc_r>
10015ebc:	9001      	str	r0, [sp, #4]
10015ebe:	2800      	cmp	r0, #0
10015ec0:	d03d      	beq.n	10015f3e <__ssprint_r+0xd6>
10015ec2:	4632      	mov	r2, r6
10015ec4:	6921      	ldr	r1, [r4, #16]
10015ec6:	f7ff fadb 	bl	10015480 <memcpy>
10015eca:	89a2      	ldrh	r2, [r4, #12]
10015ecc:	9b01      	ldr	r3, [sp, #4]
10015ece:	f422 6290 	bic.w	r2, r2, #1152	@ 0x480
10015ed2:	f042 0280 	orr.w	r2, r2, #128	@ 0x80
10015ed6:	81a2      	strh	r2, [r4, #12]
10015ed8:	1998      	adds	r0, r3, r6
10015eda:	eba8 0606 	sub.w	r6, r8, r6
10015ede:	60a6      	str	r6, [r4, #8]
10015ee0:	f8c4 8014 	str.w	r8, [r4, #20]
10015ee4:	6123      	str	r3, [r4, #16]
10015ee6:	6020      	str	r0, [r4, #0]
10015ee8:	46a8      	mov	r8, r5
10015eea:	462e      	mov	r6, r5
10015eec:	4632      	mov	r2, r6
10015eee:	4659      	mov	r1, fp
10015ef0:	f002 ff58 	bl	10018da4 <memmove>
10015ef4:	f8da 1008 	ldr.w	r1, [sl, #8]
10015ef8:	68a3      	ldr	r3, [r4, #8]
10015efa:	6822      	ldr	r2, [r4, #0]
10015efc:	eba3 0308 	sub.w	r3, r3, r8
10015f00:	4432      	add	r2, r6
10015f02:	1b49      	subs	r1, r1, r5
10015f04:	60a3      	str	r3, [r4, #8]
10015f06:	6022      	str	r2, [r4, #0]
10015f08:	f8ca 1008 	str.w	r1, [sl, #8]
10015f0c:	b349      	cbz	r1, 10015f62 <__ssprint_r+0xfa>
10015f0e:	e9d7 b500 	ldrd	fp, r5, [r7]
10015f12:	3708      	adds	r7, #8
10015f14:	4698      	mov	r8, r3
10015f16:	4610      	mov	r0, r2
10015f18:	2d00      	cmp	r5, #0
10015f1a:	d0f8      	beq.n	10015f0e <__ssprint_r+0xa6>
10015f1c:	429d      	cmp	r5, r3
10015f1e:	461e      	mov	r6, r3
10015f20:	d2b2      	bcs.n	10015e88 <__ssprint_r+0x20>
10015f22:	46a8      	mov	r8, r5
10015f24:	462e      	mov	r6, r5
10015f26:	e7e1      	b.n	10015eec <__ssprint_r+0x84>
10015f28:	4601      	mov	r1, r0
10015f2a:	4648      	mov	r0, r9
10015f2c:	f003 fe60 	bl	10019bf0 <_realloc_r>
10015f30:	4603      	mov	r3, r0
10015f32:	2800      	cmp	r0, #0
10015f34:	d1d0      	bne.n	10015ed8 <__ssprint_r+0x70>
10015f36:	6921      	ldr	r1, [r4, #16]
10015f38:	4648      	mov	r0, r9
10015f3a:	f7ff fc41 	bl	100157c0 <_free_r>
10015f3e:	89a3      	ldrh	r3, [r4, #12]
10015f40:	220c      	movs	r2, #12
10015f42:	f043 0340 	orr.w	r3, r3, #64	@ 0x40
10015f46:	f8c9 2000 	str.w	r2, [r9]
10015f4a:	f04f 30ff 	mov.w	r0, #4294967295	@ 0xffffffff
10015f4e:	81a3      	strh	r3, [r4, #12]
10015f50:	2200      	movs	r2, #0
10015f52:	2300      	movs	r3, #0
10015f54:	f8ca 2008 	str.w	r2, [sl, #8]
10015f58:	f8ca 3004 	str.w	r3, [sl, #4]
10015f5c:	b003      	add	sp, #12
10015f5e:	e8bd 8ff0 	ldmia.w	sp!, {r4, r5, r6, r7, r8, r9, sl, fp, pc}
10015f62:	2000      	movs	r0, #0
10015f64:	2300      	movs	r3, #0
10015f66:	f8ca 3004 	str.w	r3, [sl, #4]
10015f6a:	b003      	add	sp, #12
10015f6c:	e8bd 8ff0 	ldmia.w	sp!, {r4, r5, r6, r7, r8, r9, sl, fp, pc}

10015f70 <_vfprintf_r>:
10015f70:	e92d 4ff0 	stmdb	sp!, {r4, r5, r6, r7, r8, r9, sl, fp, lr}
10015f74:	b0df      	sub	sp, #380	@ 0x17c
10015f76:	461c      	mov	r4, r3
10015f78:	9107      	str	r1, [sp, #28]
10015f7a:	4691      	mov	r9, r2
10015f7c:	4683      	mov	fp, r0
10015f7e:	f7fe f911 	bl	100141a4 <_localeconv_r>
10015f82:	6803      	ldr	r3, [r0, #0]
10015f84:	9319      	str	r3, [sp, #100]	@ 0x64
10015f86:	4618      	mov	r0, r3
10015f88:	f7ff fb1a 	bl	100155c0 <strlen>
10015f8c:	2208      	movs	r2, #8
10015f8e:	9018      	str	r0, [sp, #96]	@ 0x60
10015f90:	2100      	movs	r1, #0
10015f92:	a82e      	add	r0, sp, #184	@ 0xb8
10015f94:	940d      	str	r4, [sp, #52]	@ 0x34
10015f96:	f7fe f843 	bl	10014020 <memset>
10015f9a:	f1bb 0f00 	cmp.w	fp, #0
10015f9e:	d004      	beq.n	10015faa <_vfprintf_r+0x3a>
10015fa0:	f8db 3034 	ldr.w	r3, [fp, #52]	@ 0x34
10015fa4:	2b00      	cmp	r3, #0
10015fa6:	f001 8087 	beq.w	100170b8 <_vfprintf_r+0x1148>
10015faa:	9b07      	ldr	r3, [sp, #28]
10015fac:	6e5a      	ldr	r2, [r3, #100]	@ 0x64
10015fae:	f9b3 300c 	ldrsh.w	r3, [r3, #12]
10015fb2:	07d1      	lsls	r1, r2, #31
10015fb4:	d402      	bmi.n	10015fbc <_vfprintf_r+0x4c>
10015fb6:	059a      	lsls	r2, r3, #22
10015fb8:	f140 86a7 	bpl.w	10016d0a <_vfprintf_r+0xd9a>
10015fbc:	049f      	lsls	r7, r3, #18
10015fbe:	d407      	bmi.n	10015fd0 <_vfprintf_r+0x60>
10015fc0:	9907      	ldr	r1, [sp, #28]
10015fc2:	6e4a      	ldr	r2, [r1, #100]	@ 0x64
10015fc4:	f443 5300 	orr.w	r3, r3, #8192	@ 0x2000
10015fc8:	f422 5200 	bic.w	r2, r2, #8192	@ 0x2000
10015fcc:	818b      	strh	r3, [r1, #12]
10015fce:	664a      	str	r2, [r1, #100]	@ 0x64
10015fd0:	071e      	lsls	r6, r3, #28
10015fd2:	f140 80cc 	bpl.w	1001616e <_vfprintf_r+0x1fe>
10015fd6:	9a07      	ldr	r2, [sp, #28]
10015fd8:	6912      	ldr	r2, [r2, #16]
10015fda:	2a00      	cmp	r2, #0
10015fdc:	f000 80c7 	beq.w	1001616e <_vfprintf_r+0x1fe>
10015fe0:	f003 021a 	and.w	r2, r3, #26
10015fe4:	2a0a      	cmp	r2, #10
10015fe6:	f000 80d1 	beq.w	1001618c <_vfprintf_r+0x21c>
10015fea:	ed9f 7b99 	vldr	d7, [pc, #612]	@ 10016250 <_vfprintf_r+0x2e0>
10015fee:	2300      	movs	r3, #0
10015ff0:	e9cd 3333 	strd	r3, r3, [sp, #204]	@ 0xcc
10015ff4:	e9cd 331b 	strd	r3, r3, [sp, #108]	@ 0x6c
10015ff8:	e9cd 331d 	strd	r3, r3, [sp, #116]	@ 0x74
10015ffc:	ed8d 7b16 	vstr	d7, [sp, #88]	@ 0x58
10016000:	aa35      	add	r2, sp, #212	@ 0xd4
10016002:	9313      	str	r3, [sp, #76]	@ 0x4c
10016004:	9232      	str	r2, [sp, #200]	@ 0xc8
10016006:	4690      	mov	r8, r2
10016008:	931a      	str	r3, [sp, #104]	@ 0x68
1001600a:	930a      	str	r3, [sp, #40]	@ 0x28
1001600c:	f8cd b020 	str.w	fp, [sp, #32]
10016010:	464d      	mov	r5, r9
10016012:	9f08      	ldr	r7, [sp, #32]
10016014:	462e      	mov	r6, r5
10016016:	4b90      	ldr	r3, [pc, #576]	@ (10016258 <_vfprintf_r+0x2e8>)
10016018:	f8d3 40e4 	ldr.w	r4, [r3, #228]	@ 0xe4
1001601c:	f7fe f8bc 	bl	10014198 <__locale_mb_cur_max>
10016020:	4603      	mov	r3, r0
10016022:	a82e      	add	r0, sp, #184	@ 0xb8
10016024:	9000      	str	r0, [sp, #0]
10016026:	4632      	mov	r2, r6
10016028:	a92a      	add	r1, sp, #168	@ 0xa8
1001602a:	4638      	mov	r0, r7
1001602c:	47a0      	blx	r4
1001602e:	2800      	cmp	r0, #0
10016030:	f000 80cb 	beq.w	100161ca <_vfprintf_r+0x25a>
10016034:	f2c0 80c1 	blt.w	100161ba <_vfprintf_r+0x24a>
10016038:	9a2a      	ldr	r2, [sp, #168]	@ 0xa8
1001603a:	2a25      	cmp	r2, #37	@ 0x25
1001603c:	4603      	mov	r3, r0
1001603e:	d001      	beq.n	10016044 <_vfprintf_r+0xd4>
10016040:	441e      	add	r6, r3
10016042:	e7e8      	b.n	10016016 <_vfprintf_r+0xa6>
10016044:	1b77      	subs	r7, r6, r5
10016046:	4604      	mov	r4, r0
10016048:	f040 80c2 	bne.w	100161d0 <_vfprintf_r+0x260>
1001604c:	2300      	movs	r3, #0
1001604e:	f88d 309f 	strb.w	r3, [sp, #159]	@ 0x9f
10016052:	4699      	mov	r9, r3
10016054:	930b      	str	r3, [sp, #44]	@ 0x2c
10016056:	f04f 32ff 	mov.w	r2, #4294967295	@ 0xffffffff
1001605a:	7873      	ldrb	r3, [r6, #1]
1001605c:	9209      	str	r2, [sp, #36]	@ 0x24
1001605e:	1c74      	adds	r4, r6, #1
10016060:	3401      	adds	r4, #1
10016062:	f1a3 0220 	sub.w	r2, r3, #32
10016066:	2a5a      	cmp	r2, #90	@ 0x5a
10016068:	f200 80f8 	bhi.w	1001625c <_vfprintf_r+0x2ec>
1001606c:	e8df f012 	tbh	[pc, r2, lsl #1]
10016070:	00f602d0 	.word	0x00f602d0
10016074:	02cc00f6 	.word	0x02cc00f6
10016078:	00f600f6 	.word	0x00f600f6
1001607c:	006a00f6 	.word	0x006a00f6
10016080:	00f600f6 	.word	0x00f600f6
10016084:	02a90286 	.word	0x02a90286
10016088:	029100f6 	.word	0x029100f6
1001608c:	00f602b2 	.word	0x00f602b2
10016090:	005b02ae 	.word	0x005b02ae
10016094:	005b005b 	.word	0x005b005b
10016098:	005b005b 	.word	0x005b005b
1001609c:	005b005b 	.word	0x005b005b
100160a0:	005b005b 	.word	0x005b005b
100160a4:	00f600f6 	.word	0x00f600f6
100160a8:	00f600f6 	.word	0x00f600f6
100160ac:	00f600f6 	.word	0x00f600f6
100160b0:	017700f6 	.word	0x017700f6
100160b4:	021100f6 	.word	0x021100f6
100160b8:	0177032a 	.word	0x0177032a
100160bc:	01770177 	.word	0x01770177
100160c0:	00f600f6 	.word	0x00f600f6
100160c4:	00f600f6 	.word	0x00f600f6
100160c8:	00f60326 	.word	0x00f60326
100160cc:	02e200f6 	.word	0x02e200f6
100160d0:	00f600f6 	.word	0x00f600f6
100160d4:	022f00f6 	.word	0x022f00f6
100160d8:	031300f6 	.word	0x031300f6
100160dc:	00f600f6 	.word	0x00f600f6
100160e0:	00f6071f 	.word	0x00f6071f
100160e4:	00f600f6 	.word	0x00f600f6
100160e8:	00f600f6 	.word	0x00f600f6
100160ec:	00f600f6 	.word	0x00f600f6
100160f0:	017700f6 	.word	0x017700f6
100160f4:	021100f6 	.word	0x021100f6
100160f8:	01770261 	.word	0x01770261
100160fc:	01770177 	.word	0x01770177
10016100:	0261029f 	.word	0x0261029f
10016104:	00f6020d 	.word	0x00f6020d
10016108:	00f60295 	.word	0x00f60295
1001610c:	07470355 	.word	0x07470355
10016110:	020d0343 	.word	0x020d0343
10016114:	022f00f6 	.word	0x022f00f6
10016118:	0742007d 	.word	0x0742007d
1001611c:	00f600f6 	.word	0x00f600f6
10016120:	00f6074b 	.word	0x00f6074b
10016124:	007d      	.short	0x007d
10016126:	f1a3 0230 	sub.w	r2, r3, #48	@ 0x30
1001612a:	2100      	movs	r1, #0
1001612c:	f814 3b01 	ldrb.w	r3, [r4], #1
10016130:	eb01 0181 	add.w	r1, r1, r1, lsl #2
10016134:	eb02 0141 	add.w	r1, r2, r1, lsl #1
10016138:	f1a3 0230 	sub.w	r2, r3, #48	@ 0x30
1001613c:	2a09      	cmp	r2, #9
1001613e:	d9f5      	bls.n	1001612c <_vfprintf_r+0x1bc>
10016140:	910b      	str	r1, [sp, #44]	@ 0x2c
10016142:	e78e      	b.n	10016062 <_vfprintf_r+0xf2>
10016144:	9f08      	ldr	r7, [sp, #32]
10016146:	4638      	mov	r0, r7
10016148:	f7fe f82c 	bl	100141a4 <_localeconv_r>
1001614c:	6843      	ldr	r3, [r0, #4]
1001614e:	931d      	str	r3, [sp, #116]	@ 0x74
10016150:	4618      	mov	r0, r3
10016152:	f7ff fa35 	bl	100155c0 <strlen>
10016156:	901e      	str	r0, [sp, #120]	@ 0x78
10016158:	4606      	mov	r6, r0
1001615a:	4638      	mov	r0, r7
1001615c:	f7fe f822 	bl	100141a4 <_localeconv_r>
10016160:	6883      	ldr	r3, [r0, #8]
10016162:	931b      	str	r3, [sp, #108]	@ 0x6c
10016164:	2e00      	cmp	r6, #0
10016166:	f040 8629 	bne.w	10016dbc <_vfprintf_r+0xe4c>
1001616a:	7823      	ldrb	r3, [r4, #0]
1001616c:	e778      	b.n	10016060 <_vfprintf_r+0xf0>
1001616e:	9d07      	ldr	r5, [sp, #28]
10016170:	4658      	mov	r0, fp
10016172:	4629      	mov	r1, r5
10016174:	f002 ff16 	bl	10018fa4 <__swsetup_r>
10016178:	2800      	cmp	r0, #0
1001617a:	f041 83ac 	bne.w	100178d6 <_vfprintf_r+0x1966>
1001617e:	f9b5 300c 	ldrsh.w	r3, [r5, #12]
10016182:	f003 021a 	and.w	r2, r3, #26
10016186:	2a0a      	cmp	r2, #10
10016188:	f47f af2f 	bne.w	10015fea <_vfprintf_r+0x7a>
1001618c:	9907      	ldr	r1, [sp, #28]
1001618e:	f9b1 200e 	ldrsh.w	r2, [r1, #14]
10016192:	2a00      	cmp	r2, #0
10016194:	f6ff af29 	blt.w	10015fea <_vfprintf_r+0x7a>
10016198:	6e4a      	ldr	r2, [r1, #100]	@ 0x64
1001619a:	07d0      	lsls	r0, r2, #31
1001619c:	d402      	bmi.n	100161a4 <_vfprintf_r+0x234>
1001619e:	059a      	lsls	r2, r3, #22
100161a0:	f141 81c5 	bpl.w	1001752e <_vfprintf_r+0x15be>
100161a4:	9907      	ldr	r1, [sp, #28]
100161a6:	4623      	mov	r3, r4
100161a8:	464a      	mov	r2, r9
100161aa:	4658      	mov	r0, fp
100161ac:	f001 fd08 	bl	10017bc0 <__sbprintf>
100161b0:	900a      	str	r0, [sp, #40]	@ 0x28
100161b2:	980a      	ldr	r0, [sp, #40]	@ 0x28
100161b4:	b05f      	add	sp, #380	@ 0x17c
100161b6:	e8bd 8ff0 	ldmia.w	sp!, {r4, r5, r6, r7, r8, r9, sl, fp, pc}
100161ba:	2208      	movs	r2, #8
100161bc:	2100      	movs	r1, #0
100161be:	a82e      	add	r0, sp, #184	@ 0xb8
100161c0:	f7fd ff2e 	bl	10014020 <memset>
100161c4:	2301      	movs	r3, #1
100161c6:	441e      	add	r6, r3
100161c8:	e725      	b.n	10016016 <_vfprintf_r+0xa6>
100161ca:	1b77      	subs	r7, r6, r5
100161cc:	4604      	mov	r4, r0
100161ce:	d011      	beq.n	100161f4 <_vfprintf_r+0x284>
100161d0:	9b34      	ldr	r3, [sp, #208]	@ 0xd0
100161d2:	443b      	add	r3, r7
100161d4:	9334      	str	r3, [sp, #208]	@ 0xd0
100161d6:	9b33      	ldr	r3, [sp, #204]	@ 0xcc
100161d8:	3301      	adds	r3, #1
100161da:	2b07      	cmp	r3, #7
100161dc:	e9c8 5700 	strd	r5, r7, [r8]
100161e0:	9333      	str	r3, [sp, #204]	@ 0xcc
100161e2:	dc13      	bgt.n	1001620c <_vfprintf_r+0x29c>
100161e4:	f108 0808 	add.w	r8, r8, #8
100161e8:	9b0a      	ldr	r3, [sp, #40]	@ 0x28
100161ea:	443b      	add	r3, r7
100161ec:	930a      	str	r3, [sp, #40]	@ 0x28
100161ee:	2c00      	cmp	r4, #0
100161f0:	f47f af2c 	bne.w	1001604c <_vfprintf_r+0xdc>
100161f4:	9b34      	ldr	r3, [sp, #208]	@ 0xd0
100161f6:	f8dd b020 	ldr.w	fp, [sp, #32]
100161fa:	2b00      	cmp	r3, #0
100161fc:	f041 80dc 	bne.w	100173b8 <_vfprintf_r+0x1448>
10016200:	9b07      	ldr	r3, [sp, #28]
10016202:	2200      	movs	r2, #0
10016204:	f9b3 300c 	ldrsh.w	r3, [r3, #12]
10016208:	9233      	str	r2, [sp, #204]	@ 0xcc
1001620a:	e012      	b.n	10016232 <_vfprintf_r+0x2c2>
1001620c:	e9dd 1007 	ldrd	r1, r0, [sp, #28]
10016210:	aa32      	add	r2, sp, #200	@ 0xc8
10016212:	f001 fd51 	bl	10017cb8 <__sprint_r>
10016216:	b948      	cbnz	r0, 1001622c <_vfprintf_r+0x2bc>
10016218:	f10d 08d4 	add.w	r8, sp, #212	@ 0xd4
1001621c:	e7e4      	b.n	100161e8 <_vfprintf_r+0x278>
1001621e:	46bb      	mov	fp, r7
10016220:	9b0c      	ldr	r3, [sp, #48]	@ 0x30
10016222:	b11b      	cbz	r3, 1001622c <_vfprintf_r+0x2bc>
10016224:	990c      	ldr	r1, [sp, #48]	@ 0x30
10016226:	4658      	mov	r0, fp
10016228:	f7ff faca 	bl	100157c0 <_free_r>
1001622c:	9b07      	ldr	r3, [sp, #28]
1001622e:	f9b3 300c 	ldrsh.w	r3, [r3, #12]
10016232:	9a07      	ldr	r2, [sp, #28]
10016234:	6e52      	ldr	r2, [r2, #100]	@ 0x64
10016236:	07d4      	lsls	r4, r2, #31
10016238:	f140 811d 	bpl.w	10016476 <_vfprintf_r+0x506>
1001623c:	0659      	lsls	r1, r3, #25
1001623e:	f101 8356 	bmi.w	100178ee <_vfprintf_r+0x197e>
10016242:	980a      	ldr	r0, [sp, #40]	@ 0x28
10016244:	b05f      	add	sp, #380	@ 0x17c
10016246:	e8bd 8ff0 	ldmia.w	sp!, {r4, r5, r6, r7, r8, r9, sl, fp, pc}
1001624a:	bf00      	nop
1001624c:	f3af 8000 	nop.w
	...
10016258:	2000044c 	.word	0x2000044c
1001625c:	e9cd 340e 	strd	r3, r4, [sp, #56]	@ 0x38
10016260:	2b00      	cmp	r3, #0
10016262:	d0c7      	beq.n	100161f4 <_vfprintf_r+0x284>
10016264:	2200      	movs	r2, #0
10016266:	f88d 3114 	strb.w	r3, [sp, #276]	@ 0x114
1001626a:	2301      	movs	r3, #1
1001626c:	f88d 209f 	strb.w	r2, [sp, #159]	@ 0x9f
10016270:	9306      	str	r3, [sp, #24]
10016272:	920c      	str	r2, [sp, #48]	@ 0x30
10016274:	469b      	mov	fp, r3
10016276:	9209      	str	r2, [sp, #36]	@ 0x24
10016278:	9214      	str	r2, [sp, #80]	@ 0x50
1001627a:	9210      	str	r2, [sp, #64]	@ 0x40
1001627c:	9212      	str	r2, [sp, #72]	@ 0x48
1001627e:	ad45      	add	r5, sp, #276	@ 0x114
10016280:	f019 0302 	ands.w	r3, r9, #2
10016284:	d002      	beq.n	1001628c <_vfprintf_r+0x31c>
10016286:	9906      	ldr	r1, [sp, #24]
10016288:	3102      	adds	r1, #2
1001628a:	9106      	str	r1, [sp, #24]
1001628c:	f019 0784 	ands.w	r7, r9, #132	@ 0x84
10016290:	9c34      	ldr	r4, [sp, #208]	@ 0xd0
10016292:	d105      	bne.n	100162a0 <_vfprintf_r+0x330>
10016294:	990b      	ldr	r1, [sp, #44]	@ 0x2c
10016296:	9806      	ldr	r0, [sp, #24]
10016298:	1a0e      	subs	r6, r1, r0
1001629a:	2e00      	cmp	r6, #0
1001629c:	f300 80aa 	bgt.w	100163f4 <_vfprintf_r+0x484>
100162a0:	b182      	cbz	r2, 100162c4 <_vfprintf_r+0x354>
100162a2:	2201      	movs	r2, #1
100162a4:	f8c8 2004 	str.w	r2, [r8, #4]
100162a8:	9a33      	ldr	r2, [sp, #204]	@ 0xcc
100162aa:	3201      	adds	r2, #1
100162ac:	3401      	adds	r4, #1
100162ae:	f10d 019f 	add.w	r1, sp, #159	@ 0x9f
100162b2:	2a07      	cmp	r2, #7
100162b4:	9434      	str	r4, [sp, #208]	@ 0xd0
100162b6:	9233      	str	r2, [sp, #204]	@ 0xcc
100162b8:	f8c8 1000 	str.w	r1, [r8]
100162bc:	f300 83e3 	bgt.w	10016a86 <_vfprintf_r+0xb16>
100162c0:	f108 0808 	add.w	r8, r8, #8
100162c4:	b183      	cbz	r3, 100162e8 <_vfprintf_r+0x378>
100162c6:	9b33      	ldr	r3, [sp, #204]	@ 0xcc
100162c8:	aa28      	add	r2, sp, #160	@ 0xa0
100162ca:	3301      	adds	r3, #1
100162cc:	3402      	adds	r4, #2
100162ce:	f8c8 2000 	str.w	r2, [r8]
100162d2:	2b07      	cmp	r3, #7
100162d4:	f04f 0202 	mov.w	r2, #2
100162d8:	9434      	str	r4, [sp, #208]	@ 0xd0
100162da:	9333      	str	r3, [sp, #204]	@ 0xcc
100162dc:	f8c8 2004 	str.w	r2, [r8, #4]
100162e0:	f300 83df 	bgt.w	10016aa2 <_vfprintf_r+0xb32>
100162e4:	f108 0808 	add.w	r8, r8, #8
100162e8:	2f80      	cmp	r7, #128	@ 0x80
100162ea:	f000 82c0 	beq.w	1001686e <_vfprintf_r+0x8fe>
100162ee:	9b09      	ldr	r3, [sp, #36]	@ 0x24
100162f0:	eba3 060b 	sub.w	r6, r3, fp
100162f4:	2e00      	cmp	r6, #0
100162f6:	f300 82ff 	bgt.w	100168f8 <_vfprintf_r+0x988>
100162fa:	f419 7f80 	tst.w	r9, #256	@ 0x100
100162fe:	f040 821b 	bne.w	10016738 <_vfprintf_r+0x7c8>
10016302:	9b33      	ldr	r3, [sp, #204]	@ 0xcc
10016304:	f8c8 5000 	str.w	r5, [r8]
10016308:	3301      	adds	r3, #1
1001630a:	445c      	add	r4, fp
1001630c:	2b07      	cmp	r3, #7
1001630e:	f8c8 b004 	str.w	fp, [r8, #4]
10016312:	9434      	str	r4, [sp, #208]	@ 0xd0
10016314:	9333      	str	r3, [sp, #204]	@ 0xcc
10016316:	f300 834f 	bgt.w	100169b8 <_vfprintf_r+0xa48>
1001631a:	f108 0808 	add.w	r8, r8, #8
1001631e:	f019 0f04 	tst.w	r9, #4
10016322:	d005      	beq.n	10016330 <_vfprintf_r+0x3c0>
10016324:	9b0b      	ldr	r3, [sp, #44]	@ 0x2c
10016326:	9a06      	ldr	r2, [sp, #24]
10016328:	1a9d      	subs	r5, r3, r2
1001632a:	2d00      	cmp	r5, #0
1001632c:	f300 83c5 	bgt.w	10016aba <_vfprintf_r+0xb4a>
10016330:	e9dd 320a 	ldrd	r3, r2, [sp, #40]	@ 0x28
10016334:	9906      	ldr	r1, [sp, #24]
10016336:	428a      	cmp	r2, r1
10016338:	bfac      	ite	ge
1001633a:	189b      	addge	r3, r3, r2
1001633c:	185b      	addlt	r3, r3, r1
1001633e:	930a      	str	r3, [sp, #40]	@ 0x28
10016340:	2c00      	cmp	r4, #0
10016342:	f040 8311 	bne.w	10016968 <_vfprintf_r+0x9f8>
10016346:	2300      	movs	r3, #0
10016348:	9333      	str	r3, [sp, #204]	@ 0xcc
1001634a:	9b0c      	ldr	r3, [sp, #48]	@ 0x30
1001634c:	b11b      	cbz	r3, 10016356 <_vfprintf_r+0x3e6>
1001634e:	990c      	ldr	r1, [sp, #48]	@ 0x30
10016350:	9808      	ldr	r0, [sp, #32]
10016352:	f7ff fa35 	bl	100157c0 <_free_r>
10016356:	f10d 08d4 	add.w	r8, sp, #212	@ 0xd4
1001635a:	9d0f      	ldr	r5, [sp, #60]	@ 0x3c
1001635c:	e659      	b.n	10016012 <_vfprintf_r+0xa2>
1001635e:	e9cd 340e 	strd	r3, r4, [sp, #56]	@ 0x38
10016362:	9b0d      	ldr	r3, [sp, #52]	@ 0x34
10016364:	3307      	adds	r3, #7
10016366:	f023 0307 	bic.w	r3, r3, #7
1001636a:	ecb3 7b02 	vldmia	r3!, {d7}
1001636e:	ec57 6b17 	vmov	r6, r7, d7
10016372:	930d      	str	r3, [sp, #52]	@ 0x34
10016374:	f027 4300 	bic.w	r3, r7, #2147483648	@ 0x80000000
10016378:	9323      	str	r3, [sp, #140]	@ 0x8c
1001637a:	ed8d 7a22 	vstr	s14, [sp, #136]	@ 0x88
1001637e:	e9dd ab22 	ldrd	sl, fp, [sp, #136]	@ 0x88
10016382:	4ba8      	ldr	r3, [pc, #672]	@ (10016624 <_vfprintf_r+0x6b4>)
10016384:	f04f 32ff 	mov.w	r2, #4294967295	@ 0xffffffff
10016388:	4650      	mov	r0, sl
1001638a:	4659      	mov	r1, fp
1001638c:	ed8d 7b16 	vstr	d7, [sp, #88]	@ 0x58
10016390:	f004 fbb0 	bl	1001aaf4 <__aeabi_dcmpun>
10016394:	2800      	cmp	r0, #0
10016396:	f040 852f 	bne.w	10016df8 <_vfprintf_r+0xe88>
1001639a:	4ba2      	ldr	r3, [pc, #648]	@ (10016624 <_vfprintf_r+0x6b4>)
1001639c:	f04f 32ff 	mov.w	r2, #4294967295	@ 0xffffffff
100163a0:	4650      	mov	r0, sl
100163a2:	4659      	mov	r1, fp
100163a4:	f004 fb88 	bl	1001aab8 <__aeabi_dcmple>
100163a8:	2800      	cmp	r0, #0
100163aa:	f040 8525 	bne.w	10016df8 <_vfprintf_r+0xe88>
100163ae:	2200      	movs	r2, #0
100163b0:	2300      	movs	r3, #0
100163b2:	4630      	mov	r0, r6
100163b4:	4639      	mov	r1, r7
100163b6:	f004 fb75 	bl	1001aaa4 <__aeabi_dcmplt>
100163ba:	2800      	cmp	r0, #0
100163bc:	f041 810c 	bne.w	100175d8 <_vfprintf_r+0x1668>
100163c0:	f89d 209f 	ldrb.w	r2, [sp, #159]	@ 0x9f
100163c4:	4d98      	ldr	r5, [pc, #608]	@ (10016628 <_vfprintf_r+0x6b8>)
100163c6:	4b99      	ldr	r3, [pc, #612]	@ (1001662c <_vfprintf_r+0x6bc>)
100163c8:	f029 0980 	bic.w	r9, r9, #128	@ 0x80
100163cc:	990e      	ldr	r1, [sp, #56]	@ 0x38
100163ce:	2947      	cmp	r1, #71	@ 0x47
100163d0:	bfc8      	it	gt
100163d2:	461d      	movgt	r5, r3
100163d4:	2300      	movs	r3, #0
100163d6:	2103      	movs	r1, #3
100163d8:	930c      	str	r3, [sp, #48]	@ 0x30
100163da:	9106      	str	r1, [sp, #24]
100163dc:	468b      	mov	fp, r1
100163de:	9309      	str	r3, [sp, #36]	@ 0x24
100163e0:	9314      	str	r3, [sp, #80]	@ 0x50
100163e2:	9310      	str	r3, [sp, #64]	@ 0x40
100163e4:	9312      	str	r3, [sp, #72]	@ 0x48
100163e6:	2a00      	cmp	r2, #0
100163e8:	f43f af4a 	beq.w	10016280 <_vfprintf_r+0x310>
100163ec:	9b06      	ldr	r3, [sp, #24]
100163ee:	3301      	adds	r3, #1
100163f0:	9306      	str	r3, [sp, #24]
100163f2:	e745      	b.n	10016280 <_vfprintf_r+0x310>
100163f4:	2e10      	cmp	r6, #16
100163f6:	9a33      	ldr	r2, [sp, #204]	@ 0xcc
100163f8:	f341 823a 	ble.w	10017870 <_vfprintf_r+0x1900>
100163fc:	488c      	ldr	r0, [pc, #560]	@ (10016630 <_vfprintf_r+0x6c0>)
100163fe:	9521      	str	r5, [sp, #132]	@ 0x84
10016400:	e9cd 371f 	strd	r3, r7, [sp, #124]	@ 0x7c
10016404:	4621      	mov	r1, r4
10016406:	9d07      	ldr	r5, [sp, #28]
10016408:	9c08      	ldr	r4, [sp, #32]
1001640a:	9015      	str	r0, [sp, #84]	@ 0x54
1001640c:	f04f 0a10 	mov.w	sl, #16
10016410:	4607      	mov	r7, r0
10016412:	e004      	b.n	1001641e <_vfprintf_r+0x4ae>
10016414:	3e10      	subs	r6, #16
10016416:	2e10      	cmp	r6, #16
10016418:	f108 0808 	add.w	r8, r8, #8
1001641c:	dd16      	ble.n	1001644c <_vfprintf_r+0x4dc>
1001641e:	3201      	adds	r2, #1
10016420:	3110      	adds	r1, #16
10016422:	2a07      	cmp	r2, #7
10016424:	e9c8 7a00 	strd	r7, sl, [r8]
10016428:	e9cd 2133 	strd	r2, r1, [sp, #204]	@ 0xcc
1001642c:	ddf2      	ble.n	10016414 <_vfprintf_r+0x4a4>
1001642e:	aa32      	add	r2, sp, #200	@ 0xc8
10016430:	4629      	mov	r1, r5
10016432:	4620      	mov	r0, r4
10016434:	f10d 08d4 	add.w	r8, sp, #212	@ 0xd4
10016438:	f001 fc3e 	bl	10017cb8 <__sprint_r>
1001643c:	2800      	cmp	r0, #0
1001643e:	f040 8635 	bne.w	100170ac <_vfprintf_r+0x113c>
10016442:	3e10      	subs	r6, #16
10016444:	2e10      	cmp	r6, #16
10016446:	e9dd 2133 	ldrd	r2, r1, [sp, #204]	@ 0xcc
1001644a:	dce8      	bgt.n	1001641e <_vfprintf_r+0x4ae>
1001644c:	e9dd 371f 	ldrd	r3, r7, [sp, #124]	@ 0x7c
10016450:	9d21      	ldr	r5, [sp, #132]	@ 0x84
10016452:	460c      	mov	r4, r1
10016454:	3201      	adds	r2, #1
10016456:	9915      	ldr	r1, [sp, #84]	@ 0x54
10016458:	f8c8 1000 	str.w	r1, [r8]
1001645c:	4434      	add	r4, r6
1001645e:	2a07      	cmp	r2, #7
10016460:	e9cd 2433 	strd	r2, r4, [sp, #204]	@ 0xcc
10016464:	f8c8 6004 	str.w	r6, [r8, #4]
10016468:	f300 860f 	bgt.w	1001708a <_vfprintf_r+0x111a>
1001646c:	f89d 209f 	ldrb.w	r2, [sp, #159]	@ 0x9f
10016470:	f108 0808 	add.w	r8, r8, #8
10016474:	e714      	b.n	100162a0 <_vfprintf_r+0x330>
10016476:	0598      	lsls	r0, r3, #22
10016478:	f53f aee0 	bmi.w	1001623c <_vfprintf_r+0x2cc>
1001647c:	9c07      	ldr	r4, [sp, #28]
1001647e:	6da0      	ldr	r0, [r4, #88]	@ 0x58
10016480:	f7fd fe88 	bl	10014194 <__retarget_lock_release_recursive>
10016484:	f9b4 300c 	ldrsh.w	r3, [r4, #12]
10016488:	e6d8      	b.n	1001623c <_vfprintf_r+0x2cc>
1001648a:	7823      	ldrb	r3, [r4, #0]
1001648c:	f049 0920 	orr.w	r9, r9, #32
10016490:	e5e6      	b.n	10016060 <_vfprintf_r+0xf0>
10016492:	9a0d      	ldr	r2, [sp, #52]	@ 0x34
10016494:	2b43      	cmp	r3, #67	@ 0x43
10016496:	e9cd 340e 	strd	r3, r4, [sp, #56]	@ 0x38
1001649a:	f102 0404 	add.w	r4, r2, #4
1001649e:	f000 8561 	beq.w	10016f64 <_vfprintf_r+0xff4>
100164a2:	f019 0f10 	tst.w	r9, #16
100164a6:	f040 855d 	bne.w	10016f64 <_vfprintf_r+0xff4>
100164aa:	9b0d      	ldr	r3, [sp, #52]	@ 0x34
100164ac:	681b      	ldr	r3, [r3, #0]
100164ae:	f88d 3114 	strb.w	r3, [sp, #276]	@ 0x114
100164b2:	2301      	movs	r3, #1
100164b4:	9306      	str	r3, [sp, #24]
100164b6:	469b      	mov	fp, r3
100164b8:	ad45      	add	r5, sp, #276	@ 0x114
100164ba:	2200      	movs	r2, #0
100164bc:	940d      	str	r4, [sp, #52]	@ 0x34
100164be:	f88d 209f 	strb.w	r2, [sp, #159]	@ 0x9f
100164c2:	920c      	str	r2, [sp, #48]	@ 0x30
100164c4:	9209      	str	r2, [sp, #36]	@ 0x24
100164c6:	9214      	str	r2, [sp, #80]	@ 0x50
100164c8:	9210      	str	r2, [sp, #64]	@ 0x40
100164ca:	9212      	str	r2, [sp, #72]	@ 0x48
100164cc:	e6d8      	b.n	10016280 <_vfprintf_r+0x310>
100164ce:	9e0d      	ldr	r6, [sp, #52]	@ 0x34
100164d0:	f856 5b04 	ldr.w	r5, [r6], #4
100164d4:	e9cd 340e 	strd	r3, r4, [sp, #56]	@ 0x38
100164d8:	2300      	movs	r3, #0
100164da:	f88d 309f 	strb.w	r3, [sp, #159]	@ 0x9f
100164de:	2d00      	cmp	r5, #0
100164e0:	f000 852f 	beq.w	10016f42 <_vfprintf_r+0xfd2>
100164e4:	9b0e      	ldr	r3, [sp, #56]	@ 0x38
100164e6:	2b53      	cmp	r3, #83	@ 0x53
100164e8:	f000 8600 	beq.w	100170ec <_vfprintf_r+0x117c>
100164ec:	f019 0310 	ands.w	r3, r9, #16
100164f0:	9312      	str	r3, [sp, #72]	@ 0x48
100164f2:	f040 85fb 	bne.w	100170ec <_vfprintf_r+0x117c>
100164f6:	9b09      	ldr	r3, [sp, #36]	@ 0x24
100164f8:	1c5a      	adds	r2, r3, #1
100164fa:	f000 8767 	beq.w	100173cc <_vfprintf_r+0x145c>
100164fe:	9912      	ldr	r1, [sp, #72]	@ 0x48
10016500:	461a      	mov	r2, r3
10016502:	4628      	mov	r0, r5
10016504:	f7fe ff6c 	bl	100153e0 <memchr>
10016508:	900c      	str	r0, [sp, #48]	@ 0x30
1001650a:	2800      	cmp	r0, #0
1001650c:	f001 82c2 	beq.w	10017a94 <_vfprintf_r+0x1b24>
10016510:	9b0c      	ldr	r3, [sp, #48]	@ 0x30
10016512:	960d      	str	r6, [sp, #52]	@ 0x34
10016514:	eba3 0b05 	sub.w	fp, r3, r5
10016518:	9b12      	ldr	r3, [sp, #72]	@ 0x48
1001651a:	9309      	str	r3, [sp, #36]	@ 0x24
1001651c:	ea2b 71eb 	bic.w	r1, fp, fp, asr #31
10016520:	9314      	str	r3, [sp, #80]	@ 0x50
10016522:	9310      	str	r3, [sp, #64]	@ 0x40
10016524:	930c      	str	r3, [sp, #48]	@ 0x30
10016526:	2373      	movs	r3, #115	@ 0x73
10016528:	f89d 209f 	ldrb.w	r2, [sp, #159]	@ 0x9f
1001652c:	9106      	str	r1, [sp, #24]
1001652e:	930e      	str	r3, [sp, #56]	@ 0x38
10016530:	e759      	b.n	100163e6 <_vfprintf_r+0x476>
10016532:	f019 0f20 	tst.w	r9, #32
10016536:	e9cd 340e 	strd	r3, r4, [sp, #56]	@ 0x38
1001653a:	f000 80cb 	beq.w	100166d4 <_vfprintf_r+0x764>
1001653e:	9b0d      	ldr	r3, [sp, #52]	@ 0x34
10016540:	3307      	adds	r3, #7
10016542:	f023 0307 	bic.w	r3, r3, #7
10016546:	461a      	mov	r2, r3
10016548:	6859      	ldr	r1, [r3, #4]
1001654a:	f852 3b08 	ldr.w	r3, [r2], #8
1001654e:	920d      	str	r2, [sp, #52]	@ 0x34
10016550:	460a      	mov	r2, r1
10016552:	2900      	cmp	r1, #0
10016554:	f2c0 8424 	blt.w	10016da0 <_vfprintf_r+0xe30>
10016558:	9909      	ldr	r1, [sp, #36]	@ 0x24
1001655a:	3101      	adds	r1, #1
1001655c:	f000 8284 	beq.w	10016a68 <_vfprintf_r+0xaf8>
10016560:	ea53 0102 	orrs.w	r1, r3, r2
10016564:	f029 0480 	bic.w	r4, r9, #128	@ 0x80
10016568:	f040 827f 	bne.w	10016a6a <_vfprintf_r+0xafa>
1001656c:	9a09      	ldr	r2, [sp, #36]	@ 0x24
1001656e:	2a00      	cmp	r2, #0
10016570:	f040 8280 	bne.w	10016a74 <_vfprintf_r+0xb04>
10016574:	46a1      	mov	r9, r4
10016576:	4693      	mov	fp, r2
10016578:	ad5e      	add	r5, sp, #376	@ 0x178
1001657a:	e14f      	b.n	1001681c <_vfprintf_r+0x8ac>
1001657c:	9b0d      	ldr	r3, [sp, #52]	@ 0x34
1001657e:	f853 2b04 	ldr.w	r2, [r3], #4
10016582:	920b      	str	r2, [sp, #44]	@ 0x2c
10016584:	2a00      	cmp	r2, #0
10016586:	f280 83cd 	bge.w	10016d24 <_vfprintf_r+0xdb4>
1001658a:	9a0b      	ldr	r2, [sp, #44]	@ 0x2c
1001658c:	930d      	str	r3, [sp, #52]	@ 0x34
1001658e:	4252      	negs	r2, r2
10016590:	920b      	str	r2, [sp, #44]	@ 0x2c
10016592:	7823      	ldrb	r3, [r4, #0]
10016594:	f049 0904 	orr.w	r9, r9, #4
10016598:	e562      	b.n	10016060 <_vfprintf_r+0xf0>
1001659a:	7823      	ldrb	r3, [r4, #0]
1001659c:	2b6c      	cmp	r3, #108	@ 0x6c
1001659e:	bf03      	ittte	eq
100165a0:	7863      	ldrbeq	r3, [r4, #1]
100165a2:	f049 0920 	orreq.w	r9, r9, #32
100165a6:	3401      	addeq	r4, #1
100165a8:	f049 0910 	orrne.w	r9, r9, #16
100165ac:	e558      	b.n	10016060 <_vfprintf_r+0xf0>
100165ae:	7823      	ldrb	r3, [r4, #0]
100165b0:	2b68      	cmp	r3, #104	@ 0x68
100165b2:	bf03      	ittte	eq
100165b4:	7863      	ldrbeq	r3, [r4, #1]
100165b6:	f449 7900 	orreq.w	r9, r9, #512	@ 0x200
100165ba:	3401      	addeq	r4, #1
100165bc:	f049 0940 	orrne.w	r9, r9, #64	@ 0x40
100165c0:	e54e      	b.n	10016060 <_vfprintf_r+0xf0>
100165c2:	232b      	movs	r3, #43	@ 0x2b
100165c4:	f88d 309f 	strb.w	r3, [sp, #159]	@ 0x9f
100165c8:	7823      	ldrb	r3, [r4, #0]
100165ca:	e549      	b.n	10016060 <_vfprintf_r+0xf0>
100165cc:	7823      	ldrb	r3, [r4, #0]
100165ce:	f049 0980 	orr.w	r9, r9, #128	@ 0x80
100165d2:	e545      	b.n	10016060 <_vfprintf_r+0xf0>
100165d4:	4621      	mov	r1, r4
100165d6:	f811 3b01 	ldrb.w	r3, [r1], #1
100165da:	2b2a      	cmp	r3, #42	@ 0x2a
100165dc:	f001 82d7 	beq.w	10017b8e <_vfprintf_r+0x1c1e>
100165e0:	f1a3 0230 	sub.w	r2, r3, #48	@ 0x30
100165e4:	2a09      	cmp	r2, #9
100165e6:	460c      	mov	r4, r1
100165e8:	bf98      	it	ls
100165ea:	2100      	movls	r1, #0
100165ec:	f201 816f 	bhi.w	100178ce <_vfprintf_r+0x195e>
100165f0:	f814 3b01 	ldrb.w	r3, [r4], #1
100165f4:	eb01 0181 	add.w	r1, r1, r1, lsl #2
100165f8:	eb02 0141 	add.w	r1, r2, r1, lsl #1
100165fc:	f1a3 0230 	sub.w	r2, r3, #48	@ 0x30
10016600:	2a09      	cmp	r2, #9
10016602:	d9f5      	bls.n	100165f0 <_vfprintf_r+0x680>
10016604:	9109      	str	r1, [sp, #36]	@ 0x24
10016606:	e52c      	b.n	10016062 <_vfprintf_r+0xf2>
10016608:	7823      	ldrb	r3, [r4, #0]
1001660a:	f049 0901 	orr.w	r9, r9, #1
1001660e:	e527      	b.n	10016060 <_vfprintf_r+0xf0>
10016610:	f89d 209f 	ldrb.w	r2, [sp, #159]	@ 0x9f
10016614:	7823      	ldrb	r3, [r4, #0]
10016616:	2a00      	cmp	r2, #0
10016618:	f47f ad22 	bne.w	10016060 <_vfprintf_r+0xf0>
1001661c:	2220      	movs	r2, #32
1001661e:	f88d 209f 	strb.w	r2, [sp, #159]	@ 0x9f
10016622:	e51d      	b.n	10016060 <_vfprintf_r+0xf0>
10016624:	7fefffff 	.word	0x7fefffff
10016628:	1001b0f0 	.word	0x1001b0f0
1001662c:	1001b0f4 	.word	0x1001b0f4
10016630:	1001b330 	.word	0x1001b330
10016634:	e9cd 340e 	strd	r3, r4, [sp, #56]	@ 0x38
10016638:	f049 0910 	orr.w	r9, r9, #16
1001663c:	f019 0220 	ands.w	r2, r9, #32
10016640:	f000 8354 	beq.w	10016cec <_vfprintf_r+0xd7c>
10016644:	9b0d      	ldr	r3, [sp, #52]	@ 0x34
10016646:	3307      	adds	r3, #7
10016648:	f023 0307 	bic.w	r3, r3, #7
1001664c:	4619      	mov	r1, r3
1001664e:	685a      	ldr	r2, [r3, #4]
10016650:	f851 3b08 	ldr.w	r3, [r1], #8
10016654:	910d      	str	r1, [sp, #52]	@ 0x34
10016656:	f429 6480 	bic.w	r4, r9, #1024	@ 0x400
1001665a:	2100      	movs	r1, #0
1001665c:	2000      	movs	r0, #0
1001665e:	9d09      	ldr	r5, [sp, #36]	@ 0x24
10016660:	f88d 009f 	strb.w	r0, [sp, #159]	@ 0x9f
10016664:	1c6f      	adds	r7, r5, #1
10016666:	f000 80c2 	beq.w	100167ee <_vfprintf_r+0x87e>
1001666a:	ea53 0002 	orrs.w	r0, r3, r2
1001666e:	f024 0980 	bic.w	r9, r4, #128	@ 0x80
10016672:	f040 80bb 	bne.w	100167ec <_vfprintf_r+0x87c>
10016676:	2d00      	cmp	r5, #0
10016678:	f040 8523 	bne.w	100170c2 <_vfprintf_r+0x1152>
1001667c:	2900      	cmp	r1, #0
1001667e:	f040 8496 	bne.w	10016fae <_vfprintf_r+0x103e>
10016682:	f014 0b01 	ands.w	fp, r4, #1
10016686:	f000 8351 	beq.w	10016d2c <_vfprintf_r+0xdbc>
1001668a:	2330      	movs	r3, #48	@ 0x30
1001668c:	f88d 3177 	strb.w	r3, [sp, #375]	@ 0x177
10016690:	f20d 1577 	addw	r5, sp, #375	@ 0x177
10016694:	e0c2      	b.n	1001681c <_vfprintf_r+0x8ac>
10016696:	e9cd 340e 	strd	r3, r4, [sp, #56]	@ 0x38
1001669a:	f049 0410 	orr.w	r4, r9, #16
1001669e:	f014 0220 	ands.w	r2, r4, #32
100166a2:	f000 8315 	beq.w	10016cd0 <_vfprintf_r+0xd60>
100166a6:	9b0d      	ldr	r3, [sp, #52]	@ 0x34
100166a8:	3307      	adds	r3, #7
100166aa:	f023 0307 	bic.w	r3, r3, #7
100166ae:	4619      	mov	r1, r3
100166b0:	685a      	ldr	r2, [r3, #4]
100166b2:	f851 3b08 	ldr.w	r3, [r1], #8
100166b6:	910d      	str	r1, [sp, #52]	@ 0x34
100166b8:	2101      	movs	r1, #1
100166ba:	e7cf      	b.n	1001665c <_vfprintf_r+0x6ec>
100166bc:	7823      	ldrb	r3, [r4, #0]
100166be:	f049 0908 	orr.w	r9, r9, #8
100166c2:	e4cd      	b.n	10016060 <_vfprintf_r+0xf0>
100166c4:	f049 0910 	orr.w	r9, r9, #16
100166c8:	f019 0f20 	tst.w	r9, #32
100166cc:	e9cd 340e 	strd	r3, r4, [sp, #56]	@ 0x38
100166d0:	f47f af35 	bne.w	1001653e <_vfprintf_r+0x5ce>
100166d4:	9a0d      	ldr	r2, [sp, #52]	@ 0x34
100166d6:	f019 0f10 	tst.w	r9, #16
100166da:	f852 3b04 	ldr.w	r3, [r2], #4
100166de:	920d      	str	r2, [sp, #52]	@ 0x34
100166e0:	f040 8359 	bne.w	10016d96 <_vfprintf_r+0xe26>
100166e4:	f019 0f40 	tst.w	r9, #64	@ 0x40
100166e8:	f000 8351 	beq.w	10016d8e <_vfprintf_r+0xe1e>
100166ec:	f343 32c0 	sbfx	r2, r3, #15, #1
100166f0:	4611      	mov	r1, r2
100166f2:	b21b      	sxth	r3, r3
100166f4:	e72d      	b.n	10016552 <_vfprintf_r+0x5e2>
100166f6:	9a0d      	ldr	r2, [sp, #52]	@ 0x34
100166f8:	940f      	str	r4, [sp, #60]	@ 0x3c
100166fa:	f852 3b04 	ldr.w	r3, [r2], #4
100166fe:	920d      	str	r2, [sp, #52]	@ 0x34
10016700:	f647 0230 	movw	r2, #30768	@ 0x7830
10016704:	f8ad 20a0 	strh.w	r2, [sp, #160]	@ 0xa0
10016708:	2078      	movs	r0, #120	@ 0x78
1001670a:	4ab1      	ldr	r2, [pc, #708]	@ (100169d0 <_vfprintf_r+0xa60>)
1001670c:	921a      	str	r2, [sp, #104]	@ 0x68
1001670e:	f049 0402 	orr.w	r4, r9, #2
10016712:	2200      	movs	r2, #0
10016714:	2102      	movs	r1, #2
10016716:	900e      	str	r0, [sp, #56]	@ 0x38
10016718:	e7a0      	b.n	1001665c <_vfprintf_r+0x6ec>
1001671a:	f019 0f20 	tst.w	r9, #32
1001671e:	940f      	str	r4, [sp, #60]	@ 0x3c
10016720:	f000 8359 	beq.w	10016dd6 <_vfprintf_r+0xe66>
10016724:	9b0d      	ldr	r3, [sp, #52]	@ 0x34
10016726:	9a0a      	ldr	r2, [sp, #40]	@ 0x28
10016728:	681b      	ldr	r3, [r3, #0]
1001672a:	601a      	str	r2, [r3, #0]
1001672c:	17d2      	asrs	r2, r2, #31
1001672e:	605a      	str	r2, [r3, #4]
10016730:	9b0d      	ldr	r3, [sp, #52]	@ 0x34
10016732:	3304      	adds	r3, #4
10016734:	930d      	str	r3, [sp, #52]	@ 0x34
10016736:	e610      	b.n	1001635a <_vfprintf_r+0x3ea>
10016738:	9b0e      	ldr	r3, [sp, #56]	@ 0x38
1001673a:	2b65      	cmp	r3, #101	@ 0x65
1001673c:	f340 814e 	ble.w	100169dc <_vfprintf_r+0xa6c>
10016740:	e9dd 0116 	ldrd	r0, r1, [sp, #88]	@ 0x58
10016744:	2200      	movs	r2, #0
10016746:	2300      	movs	r3, #0
10016748:	f004 f9a2 	bl	1001aa90 <__aeabi_dcmpeq>
1001674c:	2800      	cmp	r0, #0
1001674e:	f000 81ee 	beq.w	10016b2e <_vfprintf_r+0xbbe>
10016752:	9b33      	ldr	r3, [sp, #204]	@ 0xcc
10016754:	4a9f      	ldr	r2, [pc, #636]	@ (100169d4 <_vfprintf_r+0xa64>)
10016756:	f8c8 2000 	str.w	r2, [r8]
1001675a:	3301      	adds	r3, #1
1001675c:	3401      	adds	r4, #1
1001675e:	2201      	movs	r2, #1
10016760:	2b07      	cmp	r3, #7
10016762:	9434      	str	r4, [sp, #208]	@ 0xd0
10016764:	9333      	str	r3, [sp, #204]	@ 0xcc
10016766:	f8c8 2004 	str.w	r2, [r8, #4]
1001676a:	f300 84af 	bgt.w	100170cc <_vfprintf_r+0x115c>
1001676e:	f108 0808 	add.w	r8, r8, #8
10016772:	9b29      	ldr	r3, [sp, #164]	@ 0xa4
10016774:	9a13      	ldr	r2, [sp, #76]	@ 0x4c
10016776:	4293      	cmp	r3, r2
10016778:	f280 82cf 	bge.w	10016d1a <_vfprintf_r+0xdaa>
1001677c:	9b18      	ldr	r3, [sp, #96]	@ 0x60
1001677e:	9a19      	ldr	r2, [sp, #100]	@ 0x64
10016780:	441c      	add	r4, r3
10016782:	e9c8 2300 	strd	r2, r3, [r8]
10016786:	9b33      	ldr	r3, [sp, #204]	@ 0xcc
10016788:	9434      	str	r4, [sp, #208]	@ 0xd0
1001678a:	3301      	adds	r3, #1
1001678c:	2b07      	cmp	r3, #7
1001678e:	9333      	str	r3, [sp, #204]	@ 0xcc
10016790:	f300 83cb 	bgt.w	10016f2a <_vfprintf_r+0xfba>
10016794:	f108 0808 	add.w	r8, r8, #8
10016798:	9b13      	ldr	r3, [sp, #76]	@ 0x4c
1001679a:	1e5d      	subs	r5, r3, #1
1001679c:	2d00      	cmp	r5, #0
1001679e:	f77f adbe 	ble.w	1001631e <_vfprintf_r+0x3ae>
100167a2:	2d10      	cmp	r5, #16
100167a4:	9b33      	ldr	r3, [sp, #204]	@ 0xcc
100167a6:	f340 84f9 	ble.w	1001719c <_vfprintf_r+0x122c>
100167aa:	4f8b      	ldr	r7, [pc, #556]	@ (100169d8 <_vfprintf_r+0xa68>)
100167ac:	9715      	str	r7, [sp, #84]	@ 0x54
100167ae:	e9dd ab07 	ldrd	sl, fp, [sp, #28]
100167b2:	2610      	movs	r6, #16
100167b4:	e005      	b.n	100167c2 <_vfprintf_r+0x852>
100167b6:	f108 0808 	add.w	r8, r8, #8
100167ba:	3d10      	subs	r5, #16
100167bc:	2d10      	cmp	r5, #16
100167be:	f340 84ef 	ble.w	100171a0 <_vfprintf_r+0x1230>
100167c2:	3301      	adds	r3, #1
100167c4:	3410      	adds	r4, #16
100167c6:	2b07      	cmp	r3, #7
100167c8:	e9c8 7600 	strd	r7, r6, [r8]
100167cc:	e9cd 3433 	strd	r3, r4, [sp, #204]	@ 0xcc
100167d0:	ddf1      	ble.n	100167b6 <_vfprintf_r+0x846>
100167d2:	aa32      	add	r2, sp, #200	@ 0xc8
100167d4:	4651      	mov	r1, sl
100167d6:	4658      	mov	r0, fp
100167d8:	f001 fa6e 	bl	10017cb8 <__sprint_r>
100167dc:	2800      	cmp	r0, #0
100167de:	f47f ad1f 	bne.w	10016220 <_vfprintf_r+0x2b0>
100167e2:	e9dd 3433 	ldrd	r3, r4, [sp, #204]	@ 0xcc
100167e6:	f10d 08d4 	add.w	r8, sp, #212	@ 0xd4
100167ea:	e7e6      	b.n	100167ba <_vfprintf_r+0x84a>
100167ec:	464c      	mov	r4, r9
100167ee:	2901      	cmp	r1, #1
100167f0:	f000 813b 	beq.w	10016a6a <_vfprintf_r+0xafa>
100167f4:	2902      	cmp	r1, #2
100167f6:	ad5e      	add	r5, sp, #376	@ 0x178
100167f8:	d11e      	bne.n	10016838 <_vfprintf_r+0x8c8>
100167fa:	981a      	ldr	r0, [sp, #104]	@ 0x68
100167fc:	f003 010f 	and.w	r1, r3, #15
10016800:	091b      	lsrs	r3, r3, #4
10016802:	5c41      	ldrb	r1, [r0, r1]
10016804:	f805 1d01 	strb.w	r1, [r5, #-1]!
10016808:	ea43 7302 	orr.w	r3, r3, r2, lsl #28
1001680c:	0912      	lsrs	r2, r2, #4
1001680e:	ea53 0102 	orrs.w	r1, r3, r2
10016812:	d1f3      	bne.n	100167fc <_vfprintf_r+0x88c>
10016814:	ab5e      	add	r3, sp, #376	@ 0x178
10016816:	46a1      	mov	r9, r4
10016818:	eba3 0b05 	sub.w	fp, r3, r5
1001681c:	9909      	ldr	r1, [sp, #36]	@ 0x24
1001681e:	f89d 209f 	ldrb.w	r2, [sp, #159]	@ 0x9f
10016822:	4559      	cmp	r1, fp
10016824:	f04f 0300 	mov.w	r3, #0
10016828:	bfb8      	it	lt
1001682a:	4659      	movlt	r1, fp
1001682c:	930c      	str	r3, [sp, #48]	@ 0x30
1001682e:	9106      	str	r1, [sp, #24]
10016830:	9314      	str	r3, [sp, #80]	@ 0x50
10016832:	9310      	str	r3, [sp, #64]	@ 0x40
10016834:	9312      	str	r3, [sp, #72]	@ 0x48
10016836:	e5d6      	b.n	100163e6 <_vfprintf_r+0x476>
10016838:	f003 0107 	and.w	r1, r3, #7
1001683c:	08db      	lsrs	r3, r3, #3
1001683e:	ea43 7342 	orr.w	r3, r3, r2, lsl #29
10016842:	08d2      	lsrs	r2, r2, #3
10016844:	3130      	adds	r1, #48	@ 0x30
10016846:	ea53 0602 	orrs.w	r6, r3, r2
1001684a:	4628      	mov	r0, r5
1001684c:	f805 1d01 	strb.w	r1, [r5, #-1]!
10016850:	d1f2      	bne.n	10016838 <_vfprintf_r+0x8c8>
10016852:	07e6      	lsls	r6, r4, #31
10016854:	d5de      	bpl.n	10016814 <_vfprintf_r+0x8a4>
10016856:	2930      	cmp	r1, #48	@ 0x30
10016858:	d0dc      	beq.n	10016814 <_vfprintf_r+0x8a4>
1001685a:	2330      	movs	r3, #48	@ 0x30
1001685c:	3802      	subs	r0, #2
1001685e:	f805 3c01 	strb.w	r3, [r5, #-1]
10016862:	ab5e      	add	r3, sp, #376	@ 0x178
10016864:	46a1      	mov	r9, r4
10016866:	eba3 0b00 	sub.w	fp, r3, r0
1001686a:	4605      	mov	r5, r0
1001686c:	e7d6      	b.n	1001681c <_vfprintf_r+0x8ac>
1001686e:	9b0b      	ldr	r3, [sp, #44]	@ 0x2c
10016870:	9a06      	ldr	r2, [sp, #24]
10016872:	1a9e      	subs	r6, r3, r2
10016874:	2e00      	cmp	r6, #0
10016876:	f77f ad3a 	ble.w	100162ee <_vfprintf_r+0x37e>
1001687a:	2e10      	cmp	r6, #16
1001687c:	9b33      	ldr	r3, [sp, #204]	@ 0xcc
1001687e:	f341 80ab 	ble.w	100179d8 <_vfprintf_r+0x1a68>
10016882:	4855      	ldr	r0, [pc, #340]	@ (100169d8 <_vfprintf_r+0xa68>)
10016884:	f8dd a020 	ldr.w	sl, [sp, #32]
10016888:	9015      	str	r0, [sp, #84]	@ 0x54
1001688a:	4621      	mov	r1, r4
1001688c:	2710      	movs	r7, #16
1001688e:	461a      	mov	r2, r3
10016890:	4604      	mov	r4, r0
10016892:	e004      	b.n	1001689e <_vfprintf_r+0x92e>
10016894:	3e10      	subs	r6, #16
10016896:	2e10      	cmp	r6, #16
10016898:	f108 0808 	add.w	r8, r8, #8
1001689c:	dd16      	ble.n	100168cc <_vfprintf_r+0x95c>
1001689e:	3201      	adds	r2, #1
100168a0:	3110      	adds	r1, #16
100168a2:	2a07      	cmp	r2, #7
100168a4:	e9c8 4700 	strd	r4, r7, [r8]
100168a8:	e9cd 2133 	strd	r2, r1, [sp, #204]	@ 0xcc
100168ac:	ddf2      	ble.n	10016894 <_vfprintf_r+0x924>
100168ae:	9907      	ldr	r1, [sp, #28]
100168b0:	aa32      	add	r2, sp, #200	@ 0xc8
100168b2:	4650      	mov	r0, sl
100168b4:	f10d 08d4 	add.w	r8, sp, #212	@ 0xd4
100168b8:	f001 f9fe 	bl	10017cb8 <__sprint_r>
100168bc:	2800      	cmp	r0, #0
100168be:	f040 83f8 	bne.w	100170b2 <_vfprintf_r+0x1142>
100168c2:	3e10      	subs	r6, #16
100168c4:	2e10      	cmp	r6, #16
100168c6:	e9dd 2133 	ldrd	r2, r1, [sp, #204]	@ 0xcc
100168ca:	dce8      	bgt.n	1001689e <_vfprintf_r+0x92e>
100168cc:	460c      	mov	r4, r1
100168ce:	4613      	mov	r3, r2
100168d0:	3301      	adds	r3, #1
100168d2:	9a15      	ldr	r2, [sp, #84]	@ 0x54
100168d4:	f8c8 2000 	str.w	r2, [r8]
100168d8:	4434      	add	r4, r6
100168da:	2b07      	cmp	r3, #7
100168dc:	e9cd 3433 	strd	r3, r4, [sp, #204]	@ 0xcc
100168e0:	f8c8 6004 	str.w	r6, [r8, #4]
100168e4:	f300 8314 	bgt.w	10016f10 <_vfprintf_r+0xfa0>
100168e8:	9b09      	ldr	r3, [sp, #36]	@ 0x24
100168ea:	eba3 060b 	sub.w	r6, r3, fp
100168ee:	2e00      	cmp	r6, #0
100168f0:	f108 0808 	add.w	r8, r8, #8
100168f4:	f77f ad01 	ble.w	100162fa <_vfprintf_r+0x38a>
100168f8:	4a37      	ldr	r2, [pc, #220]	@ (100169d8 <_vfprintf_r+0xa68>)
100168fa:	9b33      	ldr	r3, [sp, #204]	@ 0xcc
100168fc:	9215      	str	r2, [sp, #84]	@ 0x54
100168fe:	2e10      	cmp	r6, #16
10016900:	dd23      	ble.n	1001694a <_vfprintf_r+0x9da>
10016902:	4622      	mov	r2, r4
10016904:	f04f 0a10 	mov.w	sl, #16
10016908:	e9dd 4707 	ldrd	r4, r7, [sp, #28]
1001690c:	e004      	b.n	10016918 <_vfprintf_r+0x9a8>
1001690e:	3e10      	subs	r6, #16
10016910:	2e10      	cmp	r6, #16
10016912:	f108 0808 	add.w	r8, r8, #8
10016916:	dd17      	ble.n	10016948 <_vfprintf_r+0x9d8>
10016918:	3301      	adds	r3, #1
1001691a:	492f      	ldr	r1, [pc, #188]	@ (100169d8 <_vfprintf_r+0xa68>)
1001691c:	3210      	adds	r2, #16
1001691e:	2b07      	cmp	r3, #7
10016920:	e9c8 1a00 	strd	r1, sl, [r8]
10016924:	e9cd 3233 	strd	r3, r2, [sp, #204]	@ 0xcc
10016928:	ddf1      	ble.n	1001690e <_vfprintf_r+0x99e>
1001692a:	aa32      	add	r2, sp, #200	@ 0xc8
1001692c:	4621      	mov	r1, r4
1001692e:	4638      	mov	r0, r7
10016930:	f001 f9c2 	bl	10017cb8 <__sprint_r>
10016934:	2800      	cmp	r0, #0
10016936:	f47f ac72 	bne.w	1001621e <_vfprintf_r+0x2ae>
1001693a:	3e10      	subs	r6, #16
1001693c:	2e10      	cmp	r6, #16
1001693e:	e9dd 3233 	ldrd	r3, r2, [sp, #204]	@ 0xcc
10016942:	f10d 08d4 	add.w	r8, sp, #212	@ 0xd4
10016946:	dce7      	bgt.n	10016918 <_vfprintf_r+0x9a8>
10016948:	4614      	mov	r4, r2
1001694a:	3301      	adds	r3, #1
1001694c:	9a15      	ldr	r2, [sp, #84]	@ 0x54
1001694e:	f8c8 2000 	str.w	r2, [r8]
10016952:	4434      	add	r4, r6
10016954:	2b07      	cmp	r3, #7
10016956:	e9cd 3433 	strd	r3, r4, [sp, #204]	@ 0xcc
1001695a:	f8c8 6004 	str.w	r6, [r8, #4]
1001695e:	f300 81aa 	bgt.w	10016cb6 <_vfprintf_r+0xd46>
10016962:	f108 0808 	add.w	r8, r8, #8
10016966:	e4c8      	b.n	100162fa <_vfprintf_r+0x38a>
10016968:	e9dd 1007 	ldrd	r1, r0, [sp, #28]
1001696c:	aa32      	add	r2, sp, #200	@ 0xc8
1001696e:	f001 f9a3 	bl	10017cb8 <__sprint_r>
10016972:	2800      	cmp	r0, #0
10016974:	f43f ace7 	beq.w	10016346 <_vfprintf_r+0x3d6>
10016978:	f8dd b020 	ldr.w	fp, [sp, #32]
1001697c:	e450      	b.n	10016220 <_vfprintf_r+0x2b0>
1001697e:	9b18      	ldr	r3, [sp, #96]	@ 0x60
10016980:	9919      	ldr	r1, [sp, #100]	@ 0x64
10016982:	441c      	add	r4, r3
10016984:	e9c8 1300 	strd	r1, r3, [r8]
10016988:	9b33      	ldr	r3, [sp, #204]	@ 0xcc
1001698a:	9434      	str	r4, [sp, #208]	@ 0xd0
1001698c:	3301      	adds	r3, #1
1001698e:	2b07      	cmp	r3, #7
10016990:	9333      	str	r3, [sp, #204]	@ 0xcc
10016992:	f300 85bd 	bgt.w	10017510 <_vfprintf_r+0x15a0>
10016996:	f108 0808 	add.w	r8, r8, #8
1001699a:	2a00      	cmp	r2, #0
1001699c:	f2c0 87ac 	blt.w	100178f8 <_vfprintf_r+0x1988>
100169a0:	9a13      	ldr	r2, [sp, #76]	@ 0x4c
100169a2:	f8c8 5000 	str.w	r5, [r8]
100169a6:	3301      	adds	r3, #1
100169a8:	4414      	add	r4, r2
100169aa:	2b07      	cmp	r3, #7
100169ac:	e9cd 3433 	strd	r3, r4, [sp, #204]	@ 0xcc
100169b0:	f8c8 2004 	str.w	r2, [r8, #4]
100169b4:	f77f acb1 	ble.w	1001631a <_vfprintf_r+0x3aa>
100169b8:	e9dd 1007 	ldrd	r1, r0, [sp, #28]
100169bc:	aa32      	add	r2, sp, #200	@ 0xc8
100169be:	f001 f97b 	bl	10017cb8 <__sprint_r>
100169c2:	2800      	cmp	r0, #0
100169c4:	d1d8      	bne.n	10016978 <_vfprintf_r+0xa08>
100169c6:	9c34      	ldr	r4, [sp, #208]	@ 0xd0
100169c8:	f10d 08d4 	add.w	r8, sp, #212	@ 0xd4
100169cc:	e4a7      	b.n	1001631e <_vfprintf_r+0x3ae>
100169ce:	bf00      	nop
100169d0:	1001b100 	.word	0x1001b100
100169d4:	1001b130 	.word	0x1001b130
100169d8:	1001b320 	.word	0x1001b320
100169dc:	9b13      	ldr	r3, [sp, #76]	@ 0x4c
100169de:	9e33      	ldr	r6, [sp, #204]	@ 0xcc
100169e0:	2b01      	cmp	r3, #1
100169e2:	f104 0401 	add.w	r4, r4, #1
100169e6:	f106 0601 	add.w	r6, r6, #1
100169ea:	f108 0708 	add.w	r7, r8, #8
100169ee:	f340 811d 	ble.w	10016c2c <_vfprintf_r+0xcbc>
100169f2:	2301      	movs	r3, #1
100169f4:	2e07      	cmp	r6, #7
100169f6:	e9cd 6433 	strd	r6, r4, [sp, #204]	@ 0xcc
100169fa:	f8c8 5000 	str.w	r5, [r8]
100169fe:	f8c8 3004 	str.w	r3, [r8, #4]
10016a02:	f300 82e4 	bgt.w	10016fce <_vfprintf_r+0x105e>
10016a06:	9b18      	ldr	r3, [sp, #96]	@ 0x60
10016a08:	9a19      	ldr	r2, [sp, #100]	@ 0x64
10016a0a:	3601      	adds	r6, #1
10016a0c:	441c      	add	r4, r3
10016a0e:	2e07      	cmp	r6, #7
10016a10:	e9c7 2300 	strd	r2, r3, [r7]
10016a14:	e9cd 6433 	strd	r6, r4, [sp, #204]	@ 0xcc
10016a18:	f300 82cd 	bgt.w	10016fb6 <_vfprintf_r+0x1046>
10016a1c:	3708      	adds	r7, #8
10016a1e:	9b13      	ldr	r3, [sp, #76]	@ 0x4c
10016a20:	e9dd 0116 	ldrd	r0, r1, [sp, #88]	@ 0x58
10016a24:	f103 38ff 	add.w	r8, r3, #4294967295	@ 0xffffffff
10016a28:	2200      	movs	r2, #0
10016a2a:	2300      	movs	r3, #0
10016a2c:	f004 f830 	bl	1001aa90 <__aeabi_dcmpeq>
10016a30:	2800      	cmp	r0, #0
10016a32:	f040 8115 	bne.w	10016c60 <_vfprintf_r+0xcf0>
10016a36:	3601      	adds	r6, #1
10016a38:	3501      	adds	r5, #1
10016a3a:	4444      	add	r4, r8
10016a3c:	2e07      	cmp	r6, #7
10016a3e:	e9cd 6433 	strd	r6, r4, [sp, #204]	@ 0xcc
10016a42:	603d      	str	r5, [r7, #0]
10016a44:	f8c7 8004 	str.w	r8, [r7, #4]
10016a48:	f300 80fe 	bgt.w	10016c48 <_vfprintf_r+0xcd8>
10016a4c:	3708      	adds	r7, #8
10016a4e:	9b1c      	ldr	r3, [sp, #112]	@ 0x70
10016a50:	607b      	str	r3, [r7, #4]
10016a52:	3601      	adds	r6, #1
10016a54:	441c      	add	r4, r3
10016a56:	2e07      	cmp	r6, #7
10016a58:	ab2c      	add	r3, sp, #176	@ 0xb0
10016a5a:	e9cd 6433 	strd	r6, r4, [sp, #204]	@ 0xcc
10016a5e:	603b      	str	r3, [r7, #0]
10016a60:	dcaa      	bgt.n	100169b8 <_vfprintf_r+0xa48>
10016a62:	f107 0808 	add.w	r8, r7, #8
10016a66:	e45a      	b.n	1001631e <_vfprintf_r+0x3ae>
10016a68:	464c      	mov	r4, r9
10016a6a:	2b0a      	cmp	r3, #10
10016a6c:	f172 0100 	sbcs.w	r1, r2, #0
10016a70:	f080 82b9 	bcs.w	10016fe6 <_vfprintf_r+0x1076>
10016a74:	3330      	adds	r3, #48	@ 0x30
10016a76:	f88d 3177 	strb.w	r3, [sp, #375]	@ 0x177
10016a7a:	46a1      	mov	r9, r4
10016a7c:	f04f 0b01 	mov.w	fp, #1
10016a80:	f20d 1577 	addw	r5, sp, #375	@ 0x177
10016a84:	e6ca      	b.n	1001681c <_vfprintf_r+0x8ac>
10016a86:	e9dd 1007 	ldrd	r1, r0, [sp, #28]
10016a8a:	aa32      	add	r2, sp, #200	@ 0xc8
10016a8c:	9315      	str	r3, [sp, #84]	@ 0x54
10016a8e:	f001 f913 	bl	10017cb8 <__sprint_r>
10016a92:	2800      	cmp	r0, #0
10016a94:	f47f af70 	bne.w	10016978 <_vfprintf_r+0xa08>
10016a98:	9c34      	ldr	r4, [sp, #208]	@ 0xd0
10016a9a:	9b15      	ldr	r3, [sp, #84]	@ 0x54
10016a9c:	f10d 08d4 	add.w	r8, sp, #212	@ 0xd4
10016aa0:	e410      	b.n	100162c4 <_vfprintf_r+0x354>
10016aa2:	e9dd 1007 	ldrd	r1, r0, [sp, #28]
10016aa6:	aa32      	add	r2, sp, #200	@ 0xc8
10016aa8:	f001 f906 	bl	10017cb8 <__sprint_r>
10016aac:	2800      	cmp	r0, #0
10016aae:	f47f af63 	bne.w	10016978 <_vfprintf_r+0xa08>
10016ab2:	9c34      	ldr	r4, [sp, #208]	@ 0xd0
10016ab4:	f10d 08d4 	add.w	r8, sp, #212	@ 0xd4
10016ab8:	e416      	b.n	100162e8 <_vfprintf_r+0x378>
10016aba:	2d10      	cmp	r5, #16
10016abc:	9b33      	ldr	r3, [sp, #204]	@ 0xcc
10016abe:	f340 8750 	ble.w	10017962 <_vfprintf_r+0x19f2>
10016ac2:	4fbb      	ldr	r7, [pc, #748]	@ (10016db0 <_vfprintf_r+0xe40>)
10016ac4:	9715      	str	r7, [sp, #84]	@ 0x54
10016ac6:	e9dd a907 	ldrd	sl, r9, [sp, #28]
10016aca:	2610      	movs	r6, #16
10016acc:	e004      	b.n	10016ad8 <_vfprintf_r+0xb68>
10016ace:	3d10      	subs	r5, #16
10016ad0:	2d10      	cmp	r5, #16
10016ad2:	f108 0808 	add.w	r8, r8, #8
10016ad6:	dd16      	ble.n	10016b06 <_vfprintf_r+0xb96>
10016ad8:	3301      	adds	r3, #1
10016ada:	3410      	adds	r4, #16
10016adc:	2b07      	cmp	r3, #7
10016ade:	e9c8 7600 	strd	r7, r6, [r8]
10016ae2:	e9cd 3433 	strd	r3, r4, [sp, #204]	@ 0xcc
10016ae6:	ddf2      	ble.n	10016ace <_vfprintf_r+0xb5e>
10016ae8:	aa32      	add	r2, sp, #200	@ 0xc8
10016aea:	4651      	mov	r1, sl
10016aec:	4648      	mov	r0, r9
10016aee:	f10d 08d4 	add.w	r8, sp, #212	@ 0xd4
10016af2:	f001 f8e1 	bl	10017cb8 <__sprint_r>
10016af6:	2800      	cmp	r0, #0
10016af8:	f040 82f5 	bne.w	100170e6 <_vfprintf_r+0x1176>
10016afc:	3d10      	subs	r5, #16
10016afe:	2d10      	cmp	r5, #16
10016b00:	e9dd 3433 	ldrd	r3, r4, [sp, #204]	@ 0xcc
10016b04:	dce8      	bgt.n	10016ad8 <_vfprintf_r+0xb68>
10016b06:	3301      	adds	r3, #1
10016b08:	9a15      	ldr	r2, [sp, #84]	@ 0x54
10016b0a:	442c      	add	r4, r5
10016b0c:	2b07      	cmp	r3, #7
10016b0e:	e9c8 2500 	strd	r2, r5, [r8]
10016b12:	e9cd 3433 	strd	r3, r4, [sp, #204]	@ 0xcc
10016b16:	f77f ac0b 	ble.w	10016330 <_vfprintf_r+0x3c0>
10016b1a:	e9dd 1007 	ldrd	r1, r0, [sp, #28]
10016b1e:	aa32      	add	r2, sp, #200	@ 0xc8
10016b20:	f001 f8ca 	bl	10017cb8 <__sprint_r>
10016b24:	2800      	cmp	r0, #0
10016b26:	f47f af27 	bne.w	10016978 <_vfprintf_r+0xa08>
10016b2a:	9c34      	ldr	r4, [sp, #208]	@ 0xd0
10016b2c:	e400      	b.n	10016330 <_vfprintf_r+0x3c0>
10016b2e:	9a29      	ldr	r2, [sp, #164]	@ 0xa4
10016b30:	2a00      	cmp	r2, #0
10016b32:	f340 80fd 	ble.w	10016d30 <_vfprintf_r+0xdc0>
10016b36:	e9dd 7312 	ldrd	r7, r3, [sp, #72]	@ 0x48
10016b3a:	429f      	cmp	r7, r3
10016b3c:	bfa8      	it	ge
10016b3e:	461f      	movge	r7, r3
10016b40:	2f00      	cmp	r7, #0
10016b42:	eb05 0b03 	add.w	fp, r5, r3
10016b46:	dd0b      	ble.n	10016b60 <_vfprintf_r+0xbf0>
10016b48:	9b33      	ldr	r3, [sp, #204]	@ 0xcc
10016b4a:	3301      	adds	r3, #1
10016b4c:	443c      	add	r4, r7
10016b4e:	2b07      	cmp	r3, #7
10016b50:	e9c8 5700 	strd	r5, r7, [r8]
10016b54:	9434      	str	r4, [sp, #208]	@ 0xd0
10016b56:	9333      	str	r3, [sp, #204]	@ 0xcc
10016b58:	f300 866d 	bgt.w	10017836 <_vfprintf_r+0x18c6>
10016b5c:	f108 0808 	add.w	r8, r8, #8
10016b60:	9e12      	ldr	r6, [sp, #72]	@ 0x48
10016b62:	2f00      	cmp	r7, #0
10016b64:	bfa8      	it	ge
10016b66:	1bf6      	subge	r6, r6, r7
10016b68:	2e00      	cmp	r6, #0
10016b6a:	f300 8345 	bgt.w	100171f8 <_vfprintf_r+0x1288>
10016b6e:	9b12      	ldr	r3, [sp, #72]	@ 0x48
10016b70:	f419 6f80 	tst.w	r9, #1024	@ 0x400
10016b74:	442b      	add	r3, r5
10016b76:	469a      	mov	sl, r3
10016b78:	f040 8578 	bne.w	1001766c <_vfprintf_r+0x16fc>
10016b7c:	9d29      	ldr	r5, [sp, #164]	@ 0xa4
10016b7e:	9b13      	ldr	r3, [sp, #76]	@ 0x4c
10016b80:	429d      	cmp	r5, r3
10016b82:	db03      	blt.n	10016b8c <_vfprintf_r+0xc1c>
10016b84:	f019 0f01 	tst.w	r9, #1
10016b88:	f000 8402 	beq.w	10017390 <_vfprintf_r+0x1420>
10016b8c:	9b18      	ldr	r3, [sp, #96]	@ 0x60
10016b8e:	9a19      	ldr	r2, [sp, #100]	@ 0x64
10016b90:	441c      	add	r4, r3
10016b92:	e9c8 2300 	strd	r2, r3, [r8]
10016b96:	9b33      	ldr	r3, [sp, #204]	@ 0xcc
10016b98:	9434      	str	r4, [sp, #208]	@ 0xd0
10016b9a:	3301      	adds	r3, #1
10016b9c:	2b07      	cmp	r3, #7
10016b9e:	9333      	str	r3, [sp, #204]	@ 0xcc
10016ba0:	f300 8658 	bgt.w	10017854 <_vfprintf_r+0x18e4>
10016ba4:	f108 0808 	add.w	r8, r8, #8
10016ba8:	9b13      	ldr	r3, [sp, #76]	@ 0x4c
10016baa:	ebab 060a 	sub.w	r6, fp, sl
10016bae:	1b5d      	subs	r5, r3, r5
10016bb0:	42ae      	cmp	r6, r5
10016bb2:	bfa8      	it	ge
10016bb4:	462e      	movge	r6, r5
10016bb6:	2e00      	cmp	r6, #0
10016bb8:	dd0d      	ble.n	10016bd6 <_vfprintf_r+0xc66>
10016bba:	9b33      	ldr	r3, [sp, #204]	@ 0xcc
10016bbc:	f8c8 a000 	str.w	sl, [r8]
10016bc0:	3301      	adds	r3, #1
10016bc2:	4434      	add	r4, r6
10016bc4:	2b07      	cmp	r3, #7
10016bc6:	f8c8 6004 	str.w	r6, [r8, #4]
10016bca:	9434      	str	r4, [sp, #208]	@ 0xd0
10016bcc:	9333      	str	r3, [sp, #204]	@ 0xcc
10016bce:	f300 8653 	bgt.w	10017878 <_vfprintf_r+0x1908>
10016bd2:	f108 0808 	add.w	r8, r8, #8
10016bd6:	2e00      	cmp	r6, #0
10016bd8:	bfa8      	it	ge
10016bda:	1bad      	subge	r5, r5, r6
10016bdc:	2d00      	cmp	r5, #0
10016bde:	f77f ab9e 	ble.w	1001631e <_vfprintf_r+0x3ae>
10016be2:	2d10      	cmp	r5, #16
10016be4:	9b33      	ldr	r3, [sp, #204]	@ 0xcc
10016be6:	f340 82d9 	ble.w	1001719c <_vfprintf_r+0x122c>
10016bea:	4f72      	ldr	r7, [pc, #456]	@ (10016db4 <_vfprintf_r+0xe44>)
10016bec:	9715      	str	r7, [sp, #84]	@ 0x54
10016bee:	e9dd ab07 	ldrd	sl, fp, [sp, #28]
10016bf2:	2610      	movs	r6, #16
10016bf4:	e005      	b.n	10016c02 <_vfprintf_r+0xc92>
10016bf6:	f108 0808 	add.w	r8, r8, #8
10016bfa:	3d10      	subs	r5, #16
10016bfc:	2d10      	cmp	r5, #16
10016bfe:	f340 82cf 	ble.w	100171a0 <_vfprintf_r+0x1230>
10016c02:	3301      	adds	r3, #1
10016c04:	3410      	adds	r4, #16
10016c06:	2b07      	cmp	r3, #7
10016c08:	e9c8 7600 	strd	r7, r6, [r8]
10016c0c:	e9cd 3433 	strd	r3, r4, [sp, #204]	@ 0xcc
10016c10:	ddf1      	ble.n	10016bf6 <_vfprintf_r+0xc86>
10016c12:	aa32      	add	r2, sp, #200	@ 0xc8
10016c14:	4651      	mov	r1, sl
10016c16:	4658      	mov	r0, fp
10016c18:	f001 f84e 	bl	10017cb8 <__sprint_r>
10016c1c:	2800      	cmp	r0, #0
10016c1e:	f47f aaff 	bne.w	10016220 <_vfprintf_r+0x2b0>
10016c22:	e9dd 3433 	ldrd	r3, r4, [sp, #204]	@ 0xcc
10016c26:	f10d 08d4 	add.w	r8, sp, #212	@ 0xd4
10016c2a:	e7e6      	b.n	10016bfa <_vfprintf_r+0xc8a>
10016c2c:	f019 0f01 	tst.w	r9, #1
10016c30:	f47f aedf 	bne.w	100169f2 <_vfprintf_r+0xa82>
10016c34:	2301      	movs	r3, #1
10016c36:	2e07      	cmp	r6, #7
10016c38:	e9cd 6433 	strd	r6, r4, [sp, #204]	@ 0xcc
10016c3c:	f8c8 5000 	str.w	r5, [r8]
10016c40:	f8c8 3004 	str.w	r3, [r8, #4]
10016c44:	f77f af03 	ble.w	10016a4e <_vfprintf_r+0xade>
10016c48:	e9dd 1007 	ldrd	r1, r0, [sp, #28]
10016c4c:	aa32      	add	r2, sp, #200	@ 0xc8
10016c4e:	f001 f833 	bl	10017cb8 <__sprint_r>
10016c52:	2800      	cmp	r0, #0
10016c54:	f47f ae90 	bne.w	10016978 <_vfprintf_r+0xa08>
10016c58:	e9dd 6433 	ldrd	r6, r4, [sp, #204]	@ 0xcc
10016c5c:	af35      	add	r7, sp, #212	@ 0xd4
10016c5e:	e6f6      	b.n	10016a4e <_vfprintf_r+0xade>
10016c60:	9b13      	ldr	r3, [sp, #76]	@ 0x4c
10016c62:	2b01      	cmp	r3, #1
10016c64:	f77f aef3 	ble.w	10016a4e <_vfprintf_r+0xade>
10016c68:	2b11      	cmp	r3, #17
10016c6a:	4b52      	ldr	r3, [pc, #328]	@ (10016db4 <_vfprintf_r+0xe44>)
10016c6c:	9315      	str	r3, [sp, #84]	@ 0x54
10016c6e:	f340 82b7 	ble.w	100171e0 <_vfprintf_r+0x1270>
10016c72:	f8cd 9024 	str.w	r9, [sp, #36]	@ 0x24
10016c76:	e9dd ba07 	ldrd	fp, sl, [sp, #28]
10016c7a:	2510      	movs	r5, #16
10016c7c:	4699      	mov	r9, r3
10016c7e:	e006      	b.n	10016c8e <_vfprintf_r+0xd1e>
10016c80:	3708      	adds	r7, #8
10016c82:	f1a8 0810 	sub.w	r8, r8, #16
10016c86:	f1b8 0f10 	cmp.w	r8, #16
10016c8a:	f340 82a7 	ble.w	100171dc <_vfprintf_r+0x126c>
10016c8e:	3601      	adds	r6, #1
10016c90:	3410      	adds	r4, #16
10016c92:	2e07      	cmp	r6, #7
10016c94:	e9c7 9500 	strd	r9, r5, [r7]
10016c98:	e9cd 6433 	strd	r6, r4, [sp, #204]	@ 0xcc
10016c9c:	ddf0      	ble.n	10016c80 <_vfprintf_r+0xd10>
10016c9e:	aa32      	add	r2, sp, #200	@ 0xc8
10016ca0:	4659      	mov	r1, fp
10016ca2:	4650      	mov	r0, sl
10016ca4:	f001 f808 	bl	10017cb8 <__sprint_r>
10016ca8:	2800      	cmp	r0, #0
10016caa:	f040 8202 	bne.w	100170b2 <_vfprintf_r+0x1142>
10016cae:	e9dd 6433 	ldrd	r6, r4, [sp, #204]	@ 0xcc
10016cb2:	af35      	add	r7, sp, #212	@ 0xd4
10016cb4:	e7e5      	b.n	10016c82 <_vfprintf_r+0xd12>
10016cb6:	e9dd 1007 	ldrd	r1, r0, [sp, #28]
10016cba:	aa32      	add	r2, sp, #200	@ 0xc8
10016cbc:	f000 fffc 	bl	10017cb8 <__sprint_r>
10016cc0:	2800      	cmp	r0, #0
10016cc2:	f47f ae59 	bne.w	10016978 <_vfprintf_r+0xa08>
10016cc6:	9c34      	ldr	r4, [sp, #208]	@ 0xd0
10016cc8:	f10d 08d4 	add.w	r8, sp, #212	@ 0xd4
10016ccc:	f7ff bb15 	b.w	100162fa <_vfprintf_r+0x38a>
10016cd0:	990d      	ldr	r1, [sp, #52]	@ 0x34
10016cd2:	f851 3b04 	ldr.w	r3, [r1], #4
10016cd6:	910d      	str	r1, [sp, #52]	@ 0x34
10016cd8:	f014 0110 	ands.w	r1, r4, #16
10016cdc:	d155      	bne.n	10016d8a <_vfprintf_r+0xe1a>
10016cde:	f014 0040 	ands.w	r0, r4, #64	@ 0x40
10016ce2:	d04d      	beq.n	10016d80 <_vfprintf_r+0xe10>
10016ce4:	460a      	mov	r2, r1
10016ce6:	b29b      	uxth	r3, r3
10016ce8:	2101      	movs	r1, #1
10016cea:	e4b7      	b.n	1001665c <_vfprintf_r+0x6ec>
10016cec:	990d      	ldr	r1, [sp, #52]	@ 0x34
10016cee:	f851 3b04 	ldr.w	r3, [r1], #4
10016cf2:	910d      	str	r1, [sp, #52]	@ 0x34
10016cf4:	f019 0110 	ands.w	r1, r9, #16
10016cf8:	f47f acad 	bne.w	10016656 <_vfprintf_r+0x6e6>
10016cfc:	f019 0040 	ands.w	r0, r9, #64	@ 0x40
10016d00:	f000 82a7 	beq.w	10017252 <_vfprintf_r+0x12e2>
10016d04:	b29b      	uxth	r3, r3
10016d06:	460a      	mov	r2, r1
10016d08:	e4a5      	b.n	10016656 <_vfprintf_r+0x6e6>
10016d0a:	9d07      	ldr	r5, [sp, #28]
10016d0c:	6da8      	ldr	r0, [r5, #88]	@ 0x58
10016d0e:	f7fd fa3f 	bl	10014190 <__retarget_lock_acquire_recursive>
10016d12:	f9b5 300c 	ldrsh.w	r3, [r5, #12]
10016d16:	f7ff b951 	b.w	10015fbc <_vfprintf_r+0x4c>
10016d1a:	f019 0f01 	tst.w	r9, #1
10016d1e:	f43f aafe 	beq.w	1001631e <_vfprintf_r+0x3ae>
10016d22:	e52b      	b.n	1001677c <_vfprintf_r+0x80c>
10016d24:	930d      	str	r3, [sp, #52]	@ 0x34
10016d26:	7823      	ldrb	r3, [r4, #0]
10016d28:	f7ff b99a 	b.w	10016060 <_vfprintf_r+0xf0>
10016d2c:	ad5e      	add	r5, sp, #376	@ 0x178
10016d2e:	e575      	b.n	1001681c <_vfprintf_r+0x8ac>
10016d30:	9b33      	ldr	r3, [sp, #204]	@ 0xcc
10016d32:	4921      	ldr	r1, [pc, #132]	@ (10016db8 <_vfprintf_r+0xe48>)
10016d34:	f8c8 1000 	str.w	r1, [r8]
10016d38:	3301      	adds	r3, #1
10016d3a:	3401      	adds	r4, #1
10016d3c:	2101      	movs	r1, #1
10016d3e:	2b07      	cmp	r3, #7
10016d40:	9434      	str	r4, [sp, #208]	@ 0xd0
10016d42:	9333      	str	r3, [sp, #204]	@ 0xcc
10016d44:	f8c8 1004 	str.w	r1, [r8, #4]
10016d48:	f300 854f 	bgt.w	100177ea <_vfprintf_r+0x187a>
10016d4c:	f108 0808 	add.w	r8, r8, #8
10016d50:	2a00      	cmp	r2, #0
10016d52:	f47f ae14 	bne.w	1001697e <_vfprintf_r+0xa0e>
10016d56:	9a13      	ldr	r2, [sp, #76]	@ 0x4c
10016d58:	f009 0301 	and.w	r3, r9, #1
10016d5c:	4313      	orrs	r3, r2
10016d5e:	f43f aade 	beq.w	1001631e <_vfprintf_r+0x3ae>
10016d62:	9b18      	ldr	r3, [sp, #96]	@ 0x60
10016d64:	9a19      	ldr	r2, [sp, #100]	@ 0x64
10016d66:	441c      	add	r4, r3
10016d68:	e9c8 2300 	strd	r2, r3, [r8]
10016d6c:	9b33      	ldr	r3, [sp, #204]	@ 0xcc
10016d6e:	9434      	str	r4, [sp, #208]	@ 0xd0
10016d70:	3301      	adds	r3, #1
10016d72:	2b07      	cmp	r3, #7
10016d74:	9333      	str	r3, [sp, #204]	@ 0xcc
10016d76:	f300 83cb 	bgt.w	10017510 <_vfprintf_r+0x15a0>
10016d7a:	f108 0808 	add.w	r8, r8, #8
10016d7e:	e60f      	b.n	100169a0 <_vfprintf_r+0xa30>
10016d80:	f414 7200 	ands.w	r2, r4, #512	@ 0x200
10016d84:	bf1c      	itt	ne
10016d86:	b2db      	uxtbne	r3, r3
10016d88:	4602      	movne	r2, r0
10016d8a:	2101      	movs	r1, #1
10016d8c:	e466      	b.n	1001665c <_vfprintf_r+0x6ec>
10016d8e:	f419 7f00 	tst.w	r9, #512	@ 0x200
10016d92:	f040 8305 	bne.w	100173a0 <_vfprintf_r+0x1430>
10016d96:	17da      	asrs	r2, r3, #31
10016d98:	4611      	mov	r1, r2
10016d9a:	2900      	cmp	r1, #0
10016d9c:	f6bf abdc 	bge.w	10016558 <_vfprintf_r+0x5e8>
10016da0:	425b      	negs	r3, r3
10016da2:	eb62 0242 	sbc.w	r2, r2, r2, lsl #1
10016da6:	464c      	mov	r4, r9
10016da8:	202d      	movs	r0, #45	@ 0x2d
10016daa:	2101      	movs	r1, #1
10016dac:	e457      	b.n	1001665e <_vfprintf_r+0x6ee>
10016dae:	bf00      	nop
10016db0:	1001b330 	.word	0x1001b330
10016db4:	1001b320 	.word	0x1001b320
10016db8:	1001b130 	.word	0x1001b130
10016dbc:	9a1b      	ldr	r2, [sp, #108]	@ 0x6c
10016dbe:	7823      	ldrb	r3, [r4, #0]
10016dc0:	2a00      	cmp	r2, #0
10016dc2:	f43f a94d 	beq.w	10016060 <_vfprintf_r+0xf0>
10016dc6:	7812      	ldrb	r2, [r2, #0]
10016dc8:	2a00      	cmp	r2, #0
10016dca:	f43f a949 	beq.w	10016060 <_vfprintf_r+0xf0>
10016dce:	f449 6980 	orr.w	r9, r9, #1024	@ 0x400
10016dd2:	f7ff b945 	b.w	10016060 <_vfprintf_r+0xf0>
10016dd6:	f019 0f10 	tst.w	r9, #16
10016dda:	f040 81f9 	bne.w	100171d0 <_vfprintf_r+0x1260>
10016dde:	f019 0f40 	tst.w	r9, #64	@ 0x40
10016de2:	f040 82e3 	bne.w	100173ac <_vfprintf_r+0x143c>
10016de6:	f419 7f00 	tst.w	r9, #512	@ 0x200
10016dea:	f000 81f1 	beq.w	100171d0 <_vfprintf_r+0x1260>
10016dee:	9b0d      	ldr	r3, [sp, #52]	@ 0x34
10016df0:	9a0a      	ldr	r2, [sp, #40]	@ 0x28
10016df2:	681b      	ldr	r3, [r3, #0]
10016df4:	701a      	strb	r2, [r3, #0]
10016df6:	e49b      	b.n	10016730 <_vfprintf_r+0x7c0>
10016df8:	e9dd 0116 	ldrd	r0, r1, [sp, #88]	@ 0x58
10016dfc:	4602      	mov	r2, r0
10016dfe:	460b      	mov	r3, r1
10016e00:	f003 fe78 	bl	1001aaf4 <__aeabi_dcmpun>
10016e04:	2800      	cmp	r0, #0
10016e06:	f040 8636 	bne.w	10017a76 <_vfprintf_r+0x1b06>
10016e0a:	9b0e      	ldr	r3, [sp, #56]	@ 0x38
10016e0c:	2b61      	cmp	r3, #97	@ 0x61
10016e0e:	f000 851f 	beq.w	10017850 <_vfprintf_r+0x18e0>
10016e12:	2b41      	cmp	r3, #65	@ 0x41
10016e14:	f000 82e1 	beq.w	100173da <_vfprintf_r+0x146a>
10016e18:	9b09      	ldr	r3, [sp, #36]	@ 0x24
10016e1a:	3301      	adds	r3, #1
10016e1c:	f000 8615 	beq.w	10017a4a <_vfprintf_r+0x1ada>
10016e20:	9b0e      	ldr	r3, [sp, #56]	@ 0x38
10016e22:	f023 0320 	bic.w	r3, r3, #32
10016e26:	2b47      	cmp	r3, #71	@ 0x47
10016e28:	d104      	bne.n	10016e34 <_vfprintf_r+0xec4>
10016e2a:	9b09      	ldr	r3, [sp, #36]	@ 0x24
10016e2c:	2b00      	cmp	r3, #0
10016e2e:	bf08      	it	eq
10016e30:	2301      	moveq	r3, #1
10016e32:	9309      	str	r3, [sp, #36]	@ 0x24
10016e34:	e9dd 0116 	ldrd	r0, r1, [sp, #88]	@ 0x58
10016e38:	f449 7280 	orr.w	r2, r9, #256	@ 0x100
10016e3c:	2900      	cmp	r1, #0
10016e3e:	9215      	str	r2, [sp, #84]	@ 0x54
10016e40:	f8cd 9018 	str.w	r9, [sp, #24]
10016e44:	f04f 0300 	mov.w	r3, #0
10016e48:	f2c0 84dd 	blt.w	10017806 <_vfprintf_r+0x1896>
10016e4c:	e9cd 0124 	strd	r0, r1, [sp, #144]	@ 0x90
10016e50:	931f      	str	r3, [sp, #124]	@ 0x7c
10016e52:	930c      	str	r3, [sp, #48]	@ 0x30
10016e54:	9b0e      	ldr	r3, [sp, #56]	@ 0x38
10016e56:	3b41      	subs	r3, #65	@ 0x41
10016e58:	2b25      	cmp	r3, #37	@ 0x25
10016e5a:	f200 8201 	bhi.w	10017260 <_vfprintf_r+0x12f0>
10016e5e:	e8df f013 	tbh	[pc, r3, lsl #1]
10016e62:	0372      	.short	0x0372
10016e64:	01ff01ff 	.word	0x01ff01ff
10016e68:	036b01ff 	.word	0x036b01ff
10016e6c:	01ff036f 	.word	0x01ff036f
10016e70:	01ff01ff 	.word	0x01ff01ff
10016e74:	01ff01ff 	.word	0x01ff01ff
10016e78:	01ff01ff 	.word	0x01ff01ff
10016e7c:	01ff01ff 	.word	0x01ff01ff
10016e80:	01ff01ff 	.word	0x01ff01ff
10016e84:	01ff01ff 	.word	0x01ff01ff
10016e88:	01ff01ff 	.word	0x01ff01ff
10016e8c:	01ff01ff 	.word	0x01ff01ff
10016e90:	01ff01ff 	.word	0x01ff01ff
10016e94:	01ff01ff 	.word	0x01ff01ff
10016e98:	01ff01ff 	.word	0x01ff01ff
10016e9c:	01ff01ff 	.word	0x01ff01ff
10016ea0:	01ff01ff 	.word	0x01ff01ff
10016ea4:	01ff01ff 	.word	0x01ff01ff
10016ea8:	036b01ff 	.word	0x036b01ff
10016eac:	036f      	.short	0x036f
10016eae:	e9cd 340e 	strd	r3, r4, [sp, #56]	@ 0x38
10016eb2:	4bc2      	ldr	r3, [pc, #776]	@ (100171bc <_vfprintf_r+0x124c>)
10016eb4:	931a      	str	r3, [sp, #104]	@ 0x68
10016eb6:	f019 0220 	ands.w	r2, r9, #32
10016eba:	d06a      	beq.n	10016f92 <_vfprintf_r+0x1022>
10016ebc:	9b0d      	ldr	r3, [sp, #52]	@ 0x34
10016ebe:	3307      	adds	r3, #7
10016ec0:	f023 0307 	bic.w	r3, r3, #7
10016ec4:	4619      	mov	r1, r3
10016ec6:	685a      	ldr	r2, [r3, #4]
10016ec8:	f851 3b08 	ldr.w	r3, [r1], #8
10016ecc:	910d      	str	r1, [sp, #52]	@ 0x34
10016ece:	f019 0f01 	tst.w	r9, #1
10016ed2:	d00a      	beq.n	10016eea <_vfprintf_r+0xf7a>
10016ed4:	ea53 0102 	orrs.w	r1, r3, r2
10016ed8:	d007      	beq.n	10016eea <_vfprintf_r+0xf7a>
10016eda:	990e      	ldr	r1, [sp, #56]	@ 0x38
10016edc:	f88d 10a1 	strb.w	r1, [sp, #161]	@ 0xa1
10016ee0:	2130      	movs	r1, #48	@ 0x30
10016ee2:	f049 0902 	orr.w	r9, r9, #2
10016ee6:	f88d 10a0 	strb.w	r1, [sp, #160]	@ 0xa0
10016eea:	f429 6480 	bic.w	r4, r9, #1024	@ 0x400
10016eee:	2102      	movs	r1, #2
10016ef0:	f7ff bbb4 	b.w	1001665c <_vfprintf_r+0x6ec>
10016ef4:	e9cd 340e 	strd	r3, r4, [sp, #56]	@ 0x38
10016ef8:	464c      	mov	r4, r9
10016efa:	f7ff bbd0 	b.w	1001669e <_vfprintf_r+0x72e>
10016efe:	e9cd 340e 	strd	r3, r4, [sp, #56]	@ 0x38
10016f02:	f7ff bb9b 	b.w	1001663c <_vfprintf_r+0x6cc>
10016f06:	e9cd 340e 	strd	r3, r4, [sp, #56]	@ 0x38
10016f0a:	4bad      	ldr	r3, [pc, #692]	@ (100171c0 <_vfprintf_r+0x1250>)
10016f0c:	931a      	str	r3, [sp, #104]	@ 0x68
10016f0e:	e7d2      	b.n	10016eb6 <_vfprintf_r+0xf46>
10016f10:	e9dd 1007 	ldrd	r1, r0, [sp, #28]
10016f14:	aa32      	add	r2, sp, #200	@ 0xc8
10016f16:	f000 fecf 	bl	10017cb8 <__sprint_r>
10016f1a:	2800      	cmp	r0, #0
10016f1c:	f47f ad2c 	bne.w	10016978 <_vfprintf_r+0xa08>
10016f20:	9c34      	ldr	r4, [sp, #208]	@ 0xd0
10016f22:	f10d 08d4 	add.w	r8, sp, #212	@ 0xd4
10016f26:	f7ff b9e2 	b.w	100162ee <_vfprintf_r+0x37e>
10016f2a:	e9dd 1007 	ldrd	r1, r0, [sp, #28]
10016f2e:	aa32      	add	r2, sp, #200	@ 0xc8
10016f30:	f000 fec2 	bl	10017cb8 <__sprint_r>
10016f34:	2800      	cmp	r0, #0
10016f36:	f47f ad1f 	bne.w	10016978 <_vfprintf_r+0xa08>
10016f3a:	9c34      	ldr	r4, [sp, #208]	@ 0xd0
10016f3c:	f10d 08d4 	add.w	r8, sp, #212	@ 0xd4
10016f40:	e42a      	b.n	10016798 <_vfprintf_r+0x828>
10016f42:	9b09      	ldr	r3, [sp, #36]	@ 0x24
10016f44:	950c      	str	r5, [sp, #48]	@ 0x30
10016f46:	2b06      	cmp	r3, #6
10016f48:	4629      	mov	r1, r5
10016f4a:	bf28      	it	cs
10016f4c:	2306      	movcs	r3, #6
10016f4e:	9509      	str	r5, [sp, #36]	@ 0x24
10016f50:	462a      	mov	r2, r5
10016f52:	9306      	str	r3, [sp, #24]
10016f54:	4d9b      	ldr	r5, [pc, #620]	@ (100171c4 <_vfprintf_r+0x1254>)
10016f56:	960d      	str	r6, [sp, #52]	@ 0x34
10016f58:	469b      	mov	fp, r3
10016f5a:	9114      	str	r1, [sp, #80]	@ 0x50
10016f5c:	9110      	str	r1, [sp, #64]	@ 0x40
10016f5e:	9112      	str	r1, [sp, #72]	@ 0x48
10016f60:	f7ff ba41 	b.w	100163e6 <_vfprintf_r+0x476>
10016f64:	2208      	movs	r2, #8
10016f66:	2100      	movs	r1, #0
10016f68:	a830      	add	r0, sp, #192	@ 0xc0
10016f6a:	f7fd f859 	bl	10014020 <memset>
10016f6e:	9b0d      	ldr	r3, [sp, #52]	@ 0x34
10016f70:	9808      	ldr	r0, [sp, #32]
10016f72:	681a      	ldr	r2, [r3, #0]
10016f74:	ad45      	add	r5, sp, #276	@ 0x114
10016f76:	ab30      	add	r3, sp, #192	@ 0xc0
10016f78:	4629      	mov	r1, r5
10016f7a:	f7fd f8a3 	bl	100140c4 <_wcrtomb_r>
10016f7e:	f1b0 3fff 	cmp.w	r0, #4294967295	@ 0xffffffff
10016f82:	4683      	mov	fp, r0
10016f84:	f000 8542 	beq.w	10017a0c <_vfprintf_r+0x1a9c>
10016f88:	ea20 73e0 	bic.w	r3, r0, r0, asr #31
10016f8c:	9306      	str	r3, [sp, #24]
10016f8e:	f7ff ba94 	b.w	100164ba <_vfprintf_r+0x54a>
10016f92:	990d      	ldr	r1, [sp, #52]	@ 0x34
10016f94:	f851 3b04 	ldr.w	r3, [r1], #4
10016f98:	910d      	str	r1, [sp, #52]	@ 0x34
10016f9a:	f019 0110 	ands.w	r1, r9, #16
10016f9e:	d196      	bne.n	10016ece <_vfprintf_r+0xf5e>
10016fa0:	f019 0040 	ands.w	r0, r9, #64	@ 0x40
10016fa4:	f000 814f 	beq.w	10017246 <_vfprintf_r+0x12d6>
10016fa8:	b29b      	uxth	r3, r3
10016faa:	460a      	mov	r2, r1
10016fac:	e78f      	b.n	10016ece <_vfprintf_r+0xf5e>
10016fae:	f8dd b024 	ldr.w	fp, [sp, #36]	@ 0x24
10016fb2:	ad5e      	add	r5, sp, #376	@ 0x178
10016fb4:	e432      	b.n	1001681c <_vfprintf_r+0x8ac>
10016fb6:	e9dd 1007 	ldrd	r1, r0, [sp, #28]
10016fba:	aa32      	add	r2, sp, #200	@ 0xc8
10016fbc:	f000 fe7c 	bl	10017cb8 <__sprint_r>
10016fc0:	2800      	cmp	r0, #0
10016fc2:	f47f acd9 	bne.w	10016978 <_vfprintf_r+0xa08>
10016fc6:	e9dd 6433 	ldrd	r6, r4, [sp, #204]	@ 0xcc
10016fca:	af35      	add	r7, sp, #212	@ 0xd4
10016fcc:	e527      	b.n	10016a1e <_vfprintf_r+0xaae>
10016fce:	e9dd 1007 	ldrd	r1, r0, [sp, #28]
10016fd2:	aa32      	add	r2, sp, #200	@ 0xc8
10016fd4:	f000 fe70 	bl	10017cb8 <__sprint_r>
10016fd8:	2800      	cmp	r0, #0
10016fda:	f47f accd 	bne.w	10016978 <_vfprintf_r+0xa08>
10016fde:	e9dd 6433 	ldrd	r6, r4, [sp, #204]	@ 0xcc
10016fe2:	af35      	add	r7, sp, #212	@ 0xd4
10016fe4:	e50f      	b.n	10016a06 <_vfprintf_r+0xa96>
10016fe6:	f404 6b80 	and.w	fp, r4, #1024	@ 0x400
10016fea:	2100      	movs	r1, #0
10016fec:	f8cd 8030 	str.w	r8, [sp, #48]	@ 0x30
10016ff0:	f8df 91d8 	ldr.w	r9, [pc, #472]	@ 100171cc <_vfprintf_r+0x125c>
10016ff4:	f8dd 806c 	ldr.w	r8, [sp, #108]	@ 0x6c
10016ff8:	9406      	str	r4, [sp, #24]
10016ffa:	ad5e      	add	r5, sp, #376	@ 0x178
10016ffc:	f04f 3acc 	mov.w	sl, #3435973836	@ 0xcccccccc
10017000:	2705      	movs	r7, #5
10017002:	468c      	mov	ip, r1
10017004:	465e      	mov	r6, fp
10017006:	e005      	b.n	10017014 <_vfprintf_r+0x10a4>
10017008:	2b0a      	cmp	r3, #10
1001700a:	f172 0200 	sbcs.w	r2, r2, #0
1001700e:	d333      	bcc.n	10017078 <_vfprintf_r+0x1108>
10017010:	465b      	mov	r3, fp
10017012:	4622      	mov	r2, r4
10017014:	1899      	adds	r1, r3, r2
10017016:	f141 0100 	adc.w	r1, r1, #0
1001701a:	fba9 0401 	umull	r0, r4, r9, r1
1001701e:	f024 0003 	bic.w	r0, r4, #3
10017022:	eb00 0094 	add.w	r0, r0, r4, lsr #2
10017026:	1a09      	subs	r1, r1, r0
10017028:	1a58      	subs	r0, r3, r1
1001702a:	f162 0e00 	sbc.w	lr, r2, #0
1001702e:	fb0a f400 	mul.w	r4, sl, r0
10017032:	fba0 b009 	umull	fp, r0, r0, r9
10017036:	fb09 440e 	mla	r4, r9, lr, r4
1001703a:	f00b 0e01 	and.w	lr, fp, #1
1001703e:	4404      	add	r4, r0
10017040:	fbae 0e07 	umull	r0, lr, lr, r7
10017044:	1840      	adds	r0, r0, r1
10017046:	ea4f 0b5b 	mov.w	fp, fp, lsr #1
1001704a:	3030      	adds	r0, #48	@ 0x30
1001704c:	f805 0c01 	strb.w	r0, [r5, #-1]
10017050:	ea4b 7bc4 	orr.w	fp, fp, r4, lsl #31
10017054:	f10c 0c01 	add.w	ip, ip, #1
10017058:	3d01      	subs	r5, #1
1001705a:	0864      	lsrs	r4, r4, #1
1001705c:	2e00      	cmp	r6, #0
1001705e:	d0d3      	beq.n	10017008 <_vfprintf_r+0x1098>
10017060:	f898 1000 	ldrb.w	r1, [r8]
10017064:	458c      	cmp	ip, r1
10017066:	d1cf      	bne.n	10017008 <_vfprintf_r+0x1098>
10017068:	f1bc 0fff 	cmp.w	ip, #255	@ 0xff
1001706c:	d0cc      	beq.n	10017008 <_vfprintf_r+0x1098>
1001706e:	2b0a      	cmp	r3, #10
10017070:	f172 0200 	sbcs.w	r2, r2, #0
10017074:	f080 82c3 	bcs.w	100175fe <_vfprintf_r+0x168e>
10017078:	f8cd 806c 	str.w	r8, [sp, #108]	@ 0x6c
1001707c:	9c06      	ldr	r4, [sp, #24]
1001707e:	f8dd 8030 	ldr.w	r8, [sp, #48]	@ 0x30
10017082:	f8cd c04c 	str.w	ip, [sp, #76]	@ 0x4c
10017086:	f7ff bbc5 	b.w	10016814 <_vfprintf_r+0x8a4>
1001708a:	e9dd 1007 	ldrd	r1, r0, [sp, #28]
1001708e:	aa32      	add	r2, sp, #200	@ 0xc8
10017090:	9315      	str	r3, [sp, #84]	@ 0x54
10017092:	f000 fe11 	bl	10017cb8 <__sprint_r>
10017096:	2800      	cmp	r0, #0
10017098:	f47f ac6e 	bne.w	10016978 <_vfprintf_r+0xa08>
1001709c:	f89d 209f 	ldrb.w	r2, [sp, #159]	@ 0x9f
100170a0:	9c34      	ldr	r4, [sp, #208]	@ 0xd0
100170a2:	9b15      	ldr	r3, [sp, #84]	@ 0x54
100170a4:	f10d 08d4 	add.w	r8, sp, #212	@ 0xd4
100170a8:	f7ff b8fa 	b.w	100162a0 <_vfprintf_r+0x330>
100170ac:	46a3      	mov	fp, r4
100170ae:	f7ff b8b7 	b.w	10016220 <_vfprintf_r+0x2b0>
100170b2:	46d3      	mov	fp, sl
100170b4:	f7ff b8b4 	b.w	10016220 <_vfprintf_r+0x2b0>
100170b8:	4658      	mov	r0, fp
100170ba:	f7fe f967 	bl	1001538c <__sinit>
100170be:	f7fe bf74 	b.w	10015faa <_vfprintf_r+0x3a>
100170c2:	2901      	cmp	r1, #1
100170c4:	464c      	mov	r4, r9
100170c6:	f47f ab95 	bne.w	100167f4 <_vfprintf_r+0x884>
100170ca:	e4d3      	b.n	10016a74 <_vfprintf_r+0xb04>
100170cc:	e9dd 1007 	ldrd	r1, r0, [sp, #28]
100170d0:	aa32      	add	r2, sp, #200	@ 0xc8
100170d2:	f000 fdf1 	bl	10017cb8 <__sprint_r>
100170d6:	2800      	cmp	r0, #0
100170d8:	f47f ac4e 	bne.w	10016978 <_vfprintf_r+0xa08>
100170dc:	9c34      	ldr	r4, [sp, #208]	@ 0xd0
100170de:	f10d 08d4 	add.w	r8, sp, #212	@ 0xd4
100170e2:	f7ff bb46 	b.w	10016772 <_vfprintf_r+0x802>
100170e6:	46cb      	mov	fp, r9
100170e8:	f7ff b89a 	b.w	10016220 <_vfprintf_r+0x2b0>
100170ec:	af30      	add	r7, sp, #192	@ 0xc0
100170ee:	2208      	movs	r2, #8
100170f0:	2100      	movs	r1, #0
100170f2:	4638      	mov	r0, r7
100170f4:	952b      	str	r5, [sp, #172]	@ 0xac
100170f6:	f7fc ff93 	bl	10014020 <memset>
100170fa:	9b09      	ldr	r3, [sp, #36]	@ 0x24
100170fc:	1c58      	adds	r0, r3, #1
100170fe:	f000 8270 	beq.w	100175e2 <_vfprintf_r+0x1672>
10017102:	2400      	movs	r4, #0
10017104:	f8cd 9018 	str.w	r9, [sp, #24]
10017108:	46a3      	mov	fp, r4
1001710a:	f8dd 9020 	ldr.w	r9, [sp, #32]
1001710e:	469a      	mov	sl, r3
10017110:	e00c      	b.n	1001712c <_vfprintf_r+0x11bc>
10017112:	a945      	add	r1, sp, #276	@ 0x114
10017114:	4648      	mov	r0, r9
10017116:	f7fc ffd5 	bl	100140c4 <_wcrtomb_r>
1001711a:	1c41      	adds	r1, r0, #1
1001711c:	4458      	add	r0, fp
1001711e:	f000 8475 	beq.w	10017a0c <_vfprintf_r+0x1a9c>
10017122:	4550      	cmp	r0, sl
10017124:	dc08      	bgt.n	10017138 <_vfprintf_r+0x11c8>
10017126:	f000 84c2 	beq.w	10017aae <_vfprintf_r+0x1b3e>
1001712a:	4683      	mov	fp, r0
1001712c:	9a2b      	ldr	r2, [sp, #172]	@ 0xac
1001712e:	5912      	ldr	r2, [r2, r4]
10017130:	463b      	mov	r3, r7
10017132:	3404      	adds	r4, #4
10017134:	2a00      	cmp	r2, #0
10017136:	d1ec      	bne.n	10017112 <_vfprintf_r+0x11a2>
10017138:	f8dd 9018 	ldr.w	r9, [sp, #24]
1001713c:	f1bb 0f00 	cmp.w	fp, #0
10017140:	f000 8342 	beq.w	100177c8 <_vfprintf_r+0x1858>
10017144:	f1bb 0f63 	cmp.w	fp, #99	@ 0x63
10017148:	f340 83f9 	ble.w	1001793e <_vfprintf_r+0x19ce>
1001714c:	9808      	ldr	r0, [sp, #32]
1001714e:	f10b 0101 	add.w	r1, fp, #1
10017152:	f7fc fca1 	bl	10013a98 <_malloc_r>
10017156:	4605      	mov	r5, r0
10017158:	2800      	cmp	r0, #0
1001715a:	f000 8457 	beq.w	10017a0c <_vfprintf_r+0x1a9c>
1001715e:	900c      	str	r0, [sp, #48]	@ 0x30
10017160:	2208      	movs	r2, #8
10017162:	2100      	movs	r1, #0
10017164:	4638      	mov	r0, r7
10017166:	f7fc ff5b 	bl	10014020 <memset>
1001716a:	9808      	ldr	r0, [sp, #32]
1001716c:	9700      	str	r7, [sp, #0]
1001716e:	465b      	mov	r3, fp
10017170:	aa2b      	add	r2, sp, #172	@ 0xac
10017172:	4629      	mov	r1, r5
10017174:	f7fd f8a2 	bl	100142bc <_wcsrtombs_r>
10017178:	4583      	cmp	fp, r0
1001717a:	f040 8517 	bne.w	10017bac <_vfprintf_r+0x1c3c>
1001717e:	2300      	movs	r3, #0
10017180:	f805 300b 	strb.w	r3, [r5, fp]
10017184:	ea2b 71eb 	bic.w	r1, fp, fp, asr #31
10017188:	f89d 209f 	ldrb.w	r2, [sp, #159]	@ 0x9f
1001718c:	960d      	str	r6, [sp, #52]	@ 0x34
1001718e:	9309      	str	r3, [sp, #36]	@ 0x24
10017190:	9106      	str	r1, [sp, #24]
10017192:	9314      	str	r3, [sp, #80]	@ 0x50
10017194:	9310      	str	r3, [sp, #64]	@ 0x40
10017196:	9312      	str	r3, [sp, #72]	@ 0x48
10017198:	f7ff b925 	b.w	100163e6 <_vfprintf_r+0x476>
1001719c:	4a0a      	ldr	r2, [pc, #40]	@ (100171c8 <_vfprintf_r+0x1258>)
1001719e:	9215      	str	r2, [sp, #84]	@ 0x54
100171a0:	3301      	adds	r3, #1
100171a2:	9a15      	ldr	r2, [sp, #84]	@ 0x54
100171a4:	f8c8 2000 	str.w	r2, [r8]
100171a8:	442c      	add	r4, r5
100171aa:	2b07      	cmp	r3, #7
100171ac:	f8c8 5004 	str.w	r5, [r8, #4]
100171b0:	e9cd 3433 	strd	r3, r4, [sp, #204]	@ 0xcc
100171b4:	f77f a8b1 	ble.w	1001631a <_vfprintf_r+0x3aa>
100171b8:	f7ff bbfe 	b.w	100169b8 <_vfprintf_r+0xa48>
100171bc:	1001b114 	.word	0x1001b114
100171c0:	1001b100 	.word	0x1001b100
100171c4:	1001b128 	.word	0x1001b128
100171c8:	1001b320 	.word	0x1001b320
100171cc:	cccccccd 	.word	0xcccccccd
100171d0:	9b0d      	ldr	r3, [sp, #52]	@ 0x34
100171d2:	9a0a      	ldr	r2, [sp, #40]	@ 0x28
100171d4:	681b      	ldr	r3, [r3, #0]
100171d6:	601a      	str	r2, [r3, #0]
100171d8:	f7ff baaa 	b.w	10016730 <_vfprintf_r+0x7c0>
100171dc:	f8dd 9024 	ldr.w	r9, [sp, #36]	@ 0x24
100171e0:	9b15      	ldr	r3, [sp, #84]	@ 0x54
100171e2:	603b      	str	r3, [r7, #0]
100171e4:	3601      	adds	r6, #1
100171e6:	4444      	add	r4, r8
100171e8:	2e07      	cmp	r6, #7
100171ea:	e9cd 6433 	strd	r6, r4, [sp, #204]	@ 0xcc
100171ee:	f8c7 8004 	str.w	r8, [r7, #4]
100171f2:	f77f ac2b 	ble.w	10016a4c <_vfprintf_r+0xadc>
100171f6:	e527      	b.n	10016c48 <_vfprintf_r+0xcd8>
100171f8:	2e10      	cmp	r6, #16
100171fa:	9b33      	ldr	r3, [sp, #204]	@ 0xcc
100171fc:	f340 84ad 	ble.w	10017b5a <_vfprintf_r+0x1bea>
10017200:	4898      	ldr	r0, [pc, #608]	@ (10017464 <_vfprintf_r+0x14f4>)
10017202:	9015      	str	r0, [sp, #84]	@ 0x54
10017204:	4642      	mov	r2, r8
10017206:	4621      	mov	r1, r4
10017208:	46a8      	mov	r8, r5
1001720a:	e9dd 4a07 	ldrd	r4, sl, [sp, #28]
1001720e:	2710      	movs	r7, #16
10017210:	4605      	mov	r5, r0
10017212:	e004      	b.n	1001721e <_vfprintf_r+0x12ae>
10017214:	3208      	adds	r2, #8
10017216:	3e10      	subs	r6, #16
10017218:	2e10      	cmp	r6, #16
1001721a:	f340 81ca 	ble.w	100175b2 <_vfprintf_r+0x1642>
1001721e:	3301      	adds	r3, #1
10017220:	3110      	adds	r1, #16
10017222:	2b07      	cmp	r3, #7
10017224:	e9c2 5700 	strd	r5, r7, [r2]
10017228:	e9cd 3133 	strd	r3, r1, [sp, #204]	@ 0xcc
1001722c:	ddf2      	ble.n	10017214 <_vfprintf_r+0x12a4>
1001722e:	aa32      	add	r2, sp, #200	@ 0xc8
10017230:	4621      	mov	r1, r4
10017232:	4650      	mov	r0, sl
10017234:	f000 fd40 	bl	10017cb8 <__sprint_r>
10017238:	2800      	cmp	r0, #0
1001723a:	f47f af3a 	bne.w	100170b2 <_vfprintf_r+0x1142>
1001723e:	e9dd 3133 	ldrd	r3, r1, [sp, #204]	@ 0xcc
10017242:	aa35      	add	r2, sp, #212	@ 0xd4
10017244:	e7e7      	b.n	10017216 <_vfprintf_r+0x12a6>
10017246:	f419 7200 	ands.w	r2, r9, #512	@ 0x200
1001724a:	bf1c      	itt	ne
1001724c:	b2db      	uxtbne	r3, r3
1001724e:	4602      	movne	r2, r0
10017250:	e63d      	b.n	10016ece <_vfprintf_r+0xf5e>
10017252:	f419 7200 	ands.w	r2, r9, #512	@ 0x200
10017256:	bf1c      	itt	ne
10017258:	b2db      	uxtbne	r3, r3
1001725a:	4602      	movne	r2, r0
1001725c:	f7ff b9fb 	b.w	10016656 <_vfprintf_r+0x6e6>
10017260:	9e09      	ldr	r6, [sp, #36]	@ 0x24
10017262:	2302      	movs	r3, #2
10017264:	e9cd 3600 	strd	r3, r6, [sp]
10017268:	ab30      	add	r3, sp, #192	@ 0xc0
1001726a:	9304      	str	r3, [sp, #16]
1001726c:	ab2b      	add	r3, sp, #172	@ 0xac
1001726e:	9303      	str	r3, [sp, #12]
10017270:	ab29      	add	r3, sp, #164	@ 0xa4
10017272:	9302      	str	r3, [sp, #8]
10017274:	9808      	ldr	r0, [sp, #32]
10017276:	e9dd 2324 	ldrd	r2, r3, [sp, #144]	@ 0x90
1001727a:	f7fd f8c1 	bl	10014400 <_dtoa_r>
1001727e:	9b0e      	ldr	r3, [sp, #56]	@ 0x38
10017280:	2b67      	cmp	r3, #103	@ 0x67
10017282:	4605      	mov	r5, r0
10017284:	f000 8177 	beq.w	10017576 <_vfprintf_r+0x1606>
10017288:	9b0e      	ldr	r3, [sp, #56]	@ 0x38
1001728a:	2b47      	cmp	r3, #71	@ 0x47
1001728c:	f000 8173 	beq.w	10017576 <_vfprintf_r+0x1606>
10017290:	9b0e      	ldr	r3, [sp, #56]	@ 0x38
10017292:	f023 0720 	bic.w	r7, r3, #32
10017296:	2f46      	cmp	r7, #70	@ 0x46
10017298:	eb00 0406 	add.w	r4, r0, r6
1001729c:	d105      	bne.n	100172aa <_vfprintf_r+0x133a>
1001729e:	7803      	ldrb	r3, [r0, #0]
100172a0:	2b30      	cmp	r3, #48	@ 0x30
100172a2:	f000 83db 	beq.w	10017a5c <_vfprintf_r+0x1aec>
100172a6:	9e29      	ldr	r6, [sp, #164]	@ 0xa4
100172a8:	4434      	add	r4, r6
100172aa:	e9dd 0124 	ldrd	r0, r1, [sp, #144]	@ 0x90
100172ae:	2200      	movs	r2, #0
100172b0:	2300      	movs	r3, #0
100172b2:	f003 fbed 	bl	1001aa90 <__aeabi_dcmpeq>
100172b6:	2800      	cmp	r0, #0
100172b8:	f000 81cc 	beq.w	10017654 <_vfprintf_r+0x16e4>
100172bc:	4623      	mov	r3, r4
100172be:	1b5b      	subs	r3, r3, r5
100172c0:	9313      	str	r3, [sp, #76]	@ 0x4c
100172c2:	9a29      	ldr	r2, [sp, #164]	@ 0xa4
100172c4:	9212      	str	r2, [sp, #72]	@ 0x48
100172c6:	2f47      	cmp	r7, #71	@ 0x47
100172c8:	f000 815d 	beq.w	10017586 <_vfprintf_r+0x1616>
100172cc:	2f46      	cmp	r7, #70	@ 0x46
100172ce:	f000 82e3 	beq.w	10017898 <_vfprintf_r+0x1928>
100172d2:	990e      	ldr	r1, [sp, #56]	@ 0x38
100172d4:	1e53      	subs	r3, r2, #1
100172d6:	2961      	cmp	r1, #97	@ 0x61
100172d8:	9329      	str	r3, [sp, #164]	@ 0xa4
100172da:	f000 8441 	beq.w	10017b60 <_vfprintf_r+0x1bf0>
100172de:	2941      	cmp	r1, #65	@ 0x41
100172e0:	f040 815c 	bne.w	1001759c <_vfprintf_r+0x162c>
100172e4:	2150      	movs	r1, #80	@ 0x50
100172e6:	2001      	movs	r0, #1
100172e8:	2b00      	cmp	r3, #0
100172ea:	bfb6      	itet	lt
100172ec:	f1c2 0301 	rsblt	r3, r2, #1
100172f0:	222b      	movge	r2, #43	@ 0x2b
100172f2:	222d      	movlt	r2, #45	@ 0x2d
100172f4:	2b09      	cmp	r3, #9
100172f6:	f88d 10b0 	strb.w	r1, [sp, #176]	@ 0xb0
100172fa:	f88d 20b1 	strb.w	r2, [sp, #177]	@ 0xb1
100172fe:	f340 8377 	ble.w	100179f0 <_vfprintf_r+0x1a80>
10017302:	f10d 04c7 	add.w	r4, sp, #199	@ 0xc7
10017306:	4e58      	ldr	r6, [pc, #352]	@ (10017468 <_vfprintf_r+0x14f8>)
10017308:	4622      	mov	r2, r4
1001730a:	4610      	mov	r0, r2
1001730c:	fba6 1203 	umull	r1, r2, r6, r3
10017310:	08d2      	lsrs	r2, r2, #3
10017312:	eb02 0182 	add.w	r1, r2, r2, lsl #2
10017316:	eba3 0141 	sub.w	r1, r3, r1, lsl #1
1001731a:	3130      	adds	r1, #48	@ 0x30
1001731c:	f800 1c01 	strb.w	r1, [r0, #-1]
10017320:	4619      	mov	r1, r3
10017322:	2963      	cmp	r1, #99	@ 0x63
10017324:	4613      	mov	r3, r2
10017326:	f100 32ff 	add.w	r2, r0, #4294967295	@ 0xffffffff
1001732a:	dcee      	bgt.n	1001730a <_vfprintf_r+0x139a>
1001732c:	3330      	adds	r3, #48	@ 0x30
1001732e:	f802 3c01 	strb.w	r3, [r2, #-1]
10017332:	1e83      	subs	r3, r0, #2
10017334:	42a3      	cmp	r3, r4
10017336:	f080 840c 	bcs.w	10017b52 <_vfprintf_r+0x1be2>
1001733a:	f10d 02b1 	add.w	r2, sp, #177	@ 0xb1
1001733e:	f813 1b01 	ldrb.w	r1, [r3], #1
10017342:	f802 1f01 	strb.w	r1, [r2, #1]!
10017346:	42a3      	cmp	r3, r4
10017348:	d1f9      	bne.n	1001733e <_vfprintf_r+0x13ce>
1001734a:	ab5e      	add	r3, sp, #376	@ 0x178
1001734c:	1a18      	subs	r0, r3, r0
1001734e:	f1a0 03ad 	sub.w	r3, r0, #173	@ 0xad
10017352:	931c      	str	r3, [sp, #112]	@ 0x70
10017354:	9b13      	ldr	r3, [sp, #76]	@ 0x4c
10017356:	9a1c      	ldr	r2, [sp, #112]	@ 0x70
10017358:	2b01      	cmp	r3, #1
1001735a:	eb03 0b02 	add.w	fp, r3, r2
1001735e:	f340 8378 	ble.w	10017a52 <_vfprintf_r+0x1ae2>
10017362:	9b18      	ldr	r3, [sp, #96]	@ 0x60
10017364:	449b      	add	fp, r3
10017366:	9b06      	ldr	r3, [sp, #24]
10017368:	f423 6380 	bic.w	r3, r3, #1024	@ 0x400
1001736c:	f443 7980 	orr.w	r9, r3, #256	@ 0x100
10017370:	ea2b 72eb 	bic.w	r2, fp, fp, asr #31
10017374:	2300      	movs	r3, #0
10017376:	9314      	str	r3, [sp, #80]	@ 0x50
10017378:	9206      	str	r2, [sp, #24]
1001737a:	9310      	str	r3, [sp, #64]	@ 0x40
1001737c:	9312      	str	r3, [sp, #72]	@ 0x48
1001737e:	9b1f      	ldr	r3, [sp, #124]	@ 0x7c
10017380:	2b00      	cmp	r3, #0
10017382:	f040 810f 	bne.w	100175a4 <_vfprintf_r+0x1634>
10017386:	f89d 209f 	ldrb.w	r2, [sp, #159]	@ 0x9f
1001738a:	9309      	str	r3, [sp, #36]	@ 0x24
1001738c:	f7ff b82b 	b.w	100163e6 <_vfprintf_r+0x476>
10017390:	9b13      	ldr	r3, [sp, #76]	@ 0x4c
10017392:	ebab 060a 	sub.w	r6, fp, sl
10017396:	1b5d      	subs	r5, r3, r5
10017398:	42ae      	cmp	r6, r5
1001739a:	bfa8      	it	ge
1001739c:	462e      	movge	r6, r5
1001739e:	e41a      	b.n	10016bd6 <_vfprintf_r+0xc66>
100173a0:	f343 12c0 	sbfx	r2, r3, #7, #1
100173a4:	4611      	mov	r1, r2
100173a6:	b25b      	sxtb	r3, r3
100173a8:	f7ff b8d3 	b.w	10016552 <_vfprintf_r+0x5e2>
100173ac:	9b0d      	ldr	r3, [sp, #52]	@ 0x34
100173ae:	9a0a      	ldr	r2, [sp, #40]	@ 0x28
100173b0:	681b      	ldr	r3, [r3, #0]
100173b2:	801a      	strh	r2, [r3, #0]
100173b4:	f7ff b9bc 	b.w	10016730 <_vfprintf_r+0x7c0>
100173b8:	9907      	ldr	r1, [sp, #28]
100173ba:	aa32      	add	r2, sp, #200	@ 0xc8
100173bc:	4658      	mov	r0, fp
100173be:	f000 fc7b 	bl	10017cb8 <__sprint_r>
100173c2:	2800      	cmp	r0, #0
100173c4:	f43e af1c 	beq.w	10016200 <_vfprintf_r+0x290>
100173c8:	f7fe bf30 	b.w	1001622c <_vfprintf_r+0x2bc>
100173cc:	4628      	mov	r0, r5
100173ce:	960d      	str	r6, [sp, #52]	@ 0x34
100173d0:	f7fe f8f6 	bl	100155c0 <strlen>
100173d4:	4683      	mov	fp, r0
100173d6:	f7ff b89f 	b.w	10016518 <_vfprintf_r+0x5a8>
100173da:	2358      	movs	r3, #88	@ 0x58
100173dc:	f88d 30a1 	strb.w	r3, [sp, #161]	@ 0xa1
100173e0:	2330      	movs	r3, #48	@ 0x30
100173e2:	f88d 30a0 	strb.w	r3, [sp, #160]	@ 0xa0
100173e6:	f049 0302 	orr.w	r3, r9, #2
100173ea:	9306      	str	r3, [sp, #24]
100173ec:	9b09      	ldr	r3, [sp, #36]	@ 0x24
100173ee:	2b63      	cmp	r3, #99	@ 0x63
100173f0:	f300 82f6 	bgt.w	100179e0 <_vfprintf_r+0x1a70>
100173f4:	2300      	movs	r3, #0
100173f6:	930c      	str	r3, [sp, #48]	@ 0x30
100173f8:	ad45      	add	r5, sp, #276	@ 0x114
100173fa:	f449 7381 	orr.w	r3, r9, #258	@ 0x102
100173fe:	9315      	str	r3, [sp, #84]	@ 0x54
10017400:	9b17      	ldr	r3, [sp, #92]	@ 0x5c
10017402:	2b00      	cmp	r3, #0
10017404:	f2c0 8200 	blt.w	10017808 <_vfprintf_r+0x1898>
10017408:	ed9d 7b16 	vldr	d7, [sp, #88]	@ 0x58
1001740c:	ed8d 7b24 	vstr	d7, [sp, #144]	@ 0x90
10017410:	2300      	movs	r3, #0
10017412:	931f      	str	r3, [sp, #124]	@ 0x7c
10017414:	9b0e      	ldr	r3, [sp, #56]	@ 0x38
10017416:	2b61      	cmp	r3, #97	@ 0x61
10017418:	f47f ad1c 	bne.w	10016e54 <_vfprintf_r+0xee4>
1001741c:	aa29      	add	r2, sp, #164	@ 0xa4
1001741e:	e9dd 0124 	ldrd	r0, r1, [sp, #144]	@ 0x90
10017422:	f7fe f939 	bl	10015698 <frexp>
10017426:	2200      	movs	r2, #0
10017428:	f04f 537f 	mov.w	r3, #1069547520	@ 0x3fc00000
1001742c:	f003 f8c8 	bl	1001a5c0 <__aeabi_dmul>
10017430:	4602      	mov	r2, r0
10017432:	460b      	mov	r3, r1
10017434:	e9cd 2310 	strd	r2, r3, [sp, #64]	@ 0x40
10017438:	2200      	movs	r2, #0
1001743a:	2300      	movs	r3, #0
1001743c:	f003 fb28 	bl	1001aa90 <__aeabi_dcmpeq>
10017440:	2800      	cmp	r0, #0
10017442:	f040 82f8 	bne.w	10017a36 <_vfprintf_r+0x1ac6>
10017446:	4b09      	ldr	r3, [pc, #36]	@ (1001746c <_vfprintf_r+0x14fc>)
10017448:	9312      	str	r3, [sp, #72]	@ 0x48
1001744a:	9b09      	ldr	r3, [sp, #36]	@ 0x24
1001744c:	f8cd 804c 	str.w	r8, [sp, #76]	@ 0x4c
10017450:	f103 39ff 	add.w	r9, r3, #4294967295	@ 0xffffffff
10017454:	462e      	mov	r6, r5
10017456:	9514      	str	r5, [sp, #80]	@ 0x50
10017458:	f8dd b048 	ldr.w	fp, [sp, #72]	@ 0x48
1001745c:	464d      	mov	r5, r9
1001745e:	e9dd 8910 	ldrd	r8, r9, [sp, #64]	@ 0x40
10017462:	e00b      	b.n	1001747c <_vfprintf_r+0x150c>
10017464:	1001b320 	.word	0x1001b320
10017468:	cccccccd 	.word	0xcccccccd
1001746c:	1001b100 	.word	0x1001b100
10017470:	2200      	movs	r2, #0
10017472:	2300      	movs	r3, #0
10017474:	f003 fb0c 	bl	1001aa90 <__aeabi_dcmpeq>
10017478:	b9f0      	cbnz	r0, 100174b8 <_vfprintf_r+0x1548>
1001747a:	463d      	mov	r5, r7
1001747c:	4ba9      	ldr	r3, [pc, #676]	@ (10017724 <_vfprintf_r+0x17b4>)
1001747e:	2200      	movs	r2, #0
10017480:	4640      	mov	r0, r8
10017482:	4649      	mov	r1, r9
10017484:	f003 f89c 	bl	1001a5c0 <__aeabi_dmul>
10017488:	4689      	mov	r9, r1
1001748a:	4680      	mov	r8, r0
1001748c:	f003 fb48 	bl	1001ab20 <__aeabi_d2iz>
10017490:	4604      	mov	r4, r0
10017492:	f003 f82b 	bl	1001a4ec <__aeabi_i2d>
10017496:	460b      	mov	r3, r1
10017498:	4602      	mov	r2, r0
1001749a:	4649      	mov	r1, r9
1001749c:	4640      	mov	r0, r8
1001749e:	f002 fed7 	bl	1001a250 <__aeabi_dsub>
100174a2:	f81b 3004 	ldrb.w	r3, [fp, r4]
100174a6:	46b2      	mov	sl, r6
100174a8:	f806 3b01 	strb.w	r3, [r6], #1
100174ac:	1c6b      	adds	r3, r5, #1
100174ae:	f105 37ff 	add.w	r7, r5, #4294967295	@ 0xffffffff
100174b2:	4680      	mov	r8, r0
100174b4:	4689      	mov	r9, r1
100174b6:	d1db      	bne.n	10017470 <_vfprintf_r+0x1500>
100174b8:	46cb      	mov	fp, r9
100174ba:	4657      	mov	r7, sl
100174bc:	46c2      	mov	sl, r8
100174be:	4b9a      	ldr	r3, [pc, #616]	@ (10017728 <_vfprintf_r+0x17b8>)
100174c0:	f8dd 804c 	ldr.w	r8, [sp, #76]	@ 0x4c
100174c4:	2200      	movs	r2, #0
100174c6:	4650      	mov	r0, sl
100174c8:	4659      	mov	r1, fp
100174ca:	46a9      	mov	r9, r5
100174cc:	9d14      	ldr	r5, [sp, #80]	@ 0x50
100174ce:	f003 fb07 	bl	1001aae0 <__aeabi_dcmpgt>
100174d2:	2800      	cmp	r0, #0
100174d4:	f040 8264 	bne.w	100179a0 <_vfprintf_r+0x1a30>
100174d8:	4b93      	ldr	r3, [pc, #588]	@ (10017728 <_vfprintf_r+0x17b8>)
100174da:	4650      	mov	r0, sl
100174dc:	4659      	mov	r1, fp
100174de:	2200      	movs	r2, #0
100174e0:	f003 fad6 	bl	1001aa90 <__aeabi_dcmpeq>
100174e4:	b110      	cbz	r0, 100174ec <_vfprintf_r+0x157c>
100174e6:	07e2      	lsls	r2, r4, #31
100174e8:	f100 825a 	bmi.w	100179a0 <_vfprintf_r+0x1a30>
100174ec:	f1b9 0f00 	cmp.w	r9, #0
100174f0:	f2c0 8270 	blt.w	100179d4 <_vfprintf_r+0x1a64>
100174f4:	f109 0301 	add.w	r3, r9, #1
100174f8:	4433      	add	r3, r6
100174fa:	2230      	movs	r2, #48	@ 0x30
100174fc:	f806 2b01 	strb.w	r2, [r6], #1
10017500:	42b3      	cmp	r3, r6
10017502:	d1fb      	bne.n	100174fc <_vfprintf_r+0x158c>
10017504:	1b5b      	subs	r3, r3, r5
10017506:	9313      	str	r3, [sp, #76]	@ 0x4c
10017508:	9b0e      	ldr	r3, [sp, #56]	@ 0x38
1001750a:	f023 0720 	bic.w	r7, r3, #32
1001750e:	e6d8      	b.n	100172c2 <_vfprintf_r+0x1352>
10017510:	e9dd 1007 	ldrd	r1, r0, [sp, #28]
10017514:	aa32      	add	r2, sp, #200	@ 0xc8
10017516:	f000 fbcf 	bl	10017cb8 <__sprint_r>
1001751a:	2800      	cmp	r0, #0
1001751c:	f47f aa2c 	bne.w	10016978 <_vfprintf_r+0xa08>
10017520:	e9dd 3433 	ldrd	r3, r4, [sp, #204]	@ 0xcc
10017524:	9a29      	ldr	r2, [sp, #164]	@ 0xa4
10017526:	f10d 08d4 	add.w	r8, sp, #212	@ 0xd4
1001752a:	f7ff ba36 	b.w	1001699a <_vfprintf_r+0xa2a>
1001752e:	6d88      	ldr	r0, [r1, #88]	@ 0x58
10017530:	f7fc fe30 	bl	10014194 <__retarget_lock_release_recursive>
10017534:	f7fe be36 	b.w	100161a4 <_vfprintf_r+0x234>
10017538:	9b09      	ldr	r3, [sp, #36]	@ 0x24
1001753a:	1c5e      	adds	r6, r3, #1
1001753c:	2302      	movs	r3, #2
1001753e:	e691      	b.n	10017264 <_vfprintf_r+0x12f4>
10017540:	9e09      	ldr	r6, [sp, #36]	@ 0x24
10017542:	2303      	movs	r3, #3
10017544:	e68e      	b.n	10017264 <_vfprintf_r+0x12f4>
10017546:	aa29      	add	r2, sp, #164	@ 0xa4
10017548:	e9dd 0124 	ldrd	r0, r1, [sp, #144]	@ 0x90
1001754c:	f7fe f8a4 	bl	10015698 <frexp>
10017550:	2200      	movs	r2, #0
10017552:	f04f 537f 	mov.w	r3, #1069547520	@ 0x3fc00000
10017556:	f003 f833 	bl	1001a5c0 <__aeabi_dmul>
1001755a:	4602      	mov	r2, r0
1001755c:	460b      	mov	r3, r1
1001755e:	e9cd 2310 	strd	r2, r3, [sp, #64]	@ 0x40
10017562:	2200      	movs	r2, #0
10017564:	2300      	movs	r3, #0
10017566:	f003 fa93 	bl	1001aa90 <__aeabi_dcmpeq>
1001756a:	2800      	cmp	r0, #0
1001756c:	f040 8263 	bne.w	10017a36 <_vfprintf_r+0x1ac6>
10017570:	4b6e      	ldr	r3, [pc, #440]	@ (1001772c <_vfprintf_r+0x17bc>)
10017572:	9312      	str	r3, [sp, #72]	@ 0x48
10017574:	e769      	b.n	1001744a <_vfprintf_r+0x14da>
10017576:	9b06      	ldr	r3, [sp, #24]
10017578:	07db      	lsls	r3, r3, #31
1001757a:	f100 81e4 	bmi.w	10017946 <_vfprintf_r+0x19d6>
1001757e:	9b30      	ldr	r3, [sp, #192]	@ 0xc0
10017580:	9a29      	ldr	r2, [sp, #164]	@ 0xa4
10017582:	1b5b      	subs	r3, r3, r5
10017584:	9313      	str	r3, [sp, #76]	@ 0x4c
10017586:	1cd3      	adds	r3, r2, #3
10017588:	9212      	str	r2, [sp, #72]	@ 0x48
1001758a:	db02      	blt.n	10017592 <_vfprintf_r+0x1622>
1001758c:	9b09      	ldr	r3, [sp, #36]	@ 0x24
1001758e:	4293      	cmp	r3, r2
10017590:	da44      	bge.n	1001761c <_vfprintf_r+0x16ac>
10017592:	9b0e      	ldr	r3, [sp, #56]	@ 0x38
10017594:	3b02      	subs	r3, #2
10017596:	930e      	str	r3, [sp, #56]	@ 0x38
10017598:	1e53      	subs	r3, r2, #1
1001759a:	9329      	str	r3, [sp, #164]	@ 0xa4
1001759c:	f89d 1038 	ldrb.w	r1, [sp, #56]	@ 0x38
100175a0:	2000      	movs	r0, #0
100175a2:	e6a1      	b.n	100172e8 <_vfprintf_r+0x1378>
100175a4:	222d      	movs	r2, #45	@ 0x2d
100175a6:	2300      	movs	r3, #0
100175a8:	f88d 209f 	strb.w	r2, [sp, #159]	@ 0x9f
100175ac:	9309      	str	r3, [sp, #36]	@ 0x24
100175ae:	f7fe bf1d 	b.w	100163ec <_vfprintf_r+0x47c>
100175b2:	4645      	mov	r5, r8
100175b4:	460c      	mov	r4, r1
100175b6:	4690      	mov	r8, r2
100175b8:	3301      	adds	r3, #1
100175ba:	9a15      	ldr	r2, [sp, #84]	@ 0x54
100175bc:	f8c8 2000 	str.w	r2, [r8]
100175c0:	4434      	add	r4, r6
100175c2:	2b07      	cmp	r3, #7
100175c4:	e9cd 3433 	strd	r3, r4, [sp, #204]	@ 0xcc
100175c8:	f8c8 6004 	str.w	r6, [r8, #4]
100175cc:	f300 8226 	bgt.w	10017a1c <_vfprintf_r+0x1aac>
100175d0:	f108 0808 	add.w	r8, r8, #8
100175d4:	f7ff bacb 	b.w	10016b6e <_vfprintf_r+0xbfe>
100175d8:	222d      	movs	r2, #45	@ 0x2d
100175da:	f88d 209f 	strb.w	r2, [sp, #159]	@ 0x9f
100175de:	f7fe bef1 	b.w	100163c4 <_vfprintf_r+0x454>
100175e2:	2300      	movs	r3, #0
100175e4:	9808      	ldr	r0, [sp, #32]
100175e6:	9700      	str	r7, [sp, #0]
100175e8:	aa2b      	add	r2, sp, #172	@ 0xac
100175ea:	4619      	mov	r1, r3
100175ec:	f7fc fe66 	bl	100142bc <_wcsrtombs_r>
100175f0:	f1b0 3fff 	cmp.w	r0, #4294967295	@ 0xffffffff
100175f4:	4683      	mov	fp, r0
100175f6:	f000 8209 	beq.w	10017a0c <_vfprintf_r+0x1a9c>
100175fa:	952b      	str	r5, [sp, #172]	@ 0xac
100175fc:	e59e      	b.n	1001713c <_vfprintf_r+0x11cc>
100175fe:	9b1e      	ldr	r3, [sp, #120]	@ 0x78
10017600:	991d      	ldr	r1, [sp, #116]	@ 0x74
10017602:	1aed      	subs	r5, r5, r3
10017604:	461a      	mov	r2, r3
10017606:	4628      	mov	r0, r5
10017608:	f7fe f9d8 	bl	100159bc <strncpy>
1001760c:	f898 3001 	ldrb.w	r3, [r8, #1]
10017610:	b10b      	cbz	r3, 10017616 <_vfprintf_r+0x16a6>
10017612:	f108 0801 	add.w	r8, r8, #1
10017616:	f04f 0c00 	mov.w	ip, #0
1001761a:	e4f9      	b.n	10017010 <_vfprintf_r+0x10a0>
1001761c:	9b13      	ldr	r3, [sp, #76]	@ 0x4c
1001761e:	4293      	cmp	r3, r2
10017620:	f300 8194 	bgt.w	1001794c <_vfprintf_r+0x19dc>
10017624:	9b06      	ldr	r3, [sp, #24]
10017626:	07de      	lsls	r6, r3, #31
10017628:	f140 824a 	bpl.w	10017ac0 <_vfprintf_r+0x1b50>
1001762c:	9b18      	ldr	r3, [sp, #96]	@ 0x60
1001762e:	eb02 0b03 	add.w	fp, r2, r3
10017632:	9b06      	ldr	r3, [sp, #24]
10017634:	055c      	lsls	r4, r3, #21
10017636:	d502      	bpl.n	1001763e <_vfprintf_r+0x16ce>
10017638:	2a00      	cmp	r2, #0
1001763a:	f300 824a 	bgt.w	10017ad2 <_vfprintf_r+0x1b62>
1001763e:	ea2b 73eb 	bic.w	r3, fp, fp, asr #31
10017642:	9306      	str	r3, [sp, #24]
10017644:	f8dd 9054 	ldr.w	r9, [sp, #84]	@ 0x54
10017648:	2367      	movs	r3, #103	@ 0x67
1001764a:	930e      	str	r3, [sp, #56]	@ 0x38
1001764c:	2300      	movs	r3, #0
1001764e:	9314      	str	r3, [sp, #80]	@ 0x50
10017650:	9310      	str	r3, [sp, #64]	@ 0x40
10017652:	e694      	b.n	1001737e <_vfprintf_r+0x140e>
10017654:	9b30      	ldr	r3, [sp, #192]	@ 0xc0
10017656:	42a3      	cmp	r3, r4
10017658:	f4bf ae31 	bcs.w	100172be <_vfprintf_r+0x134e>
1001765c:	2130      	movs	r1, #48	@ 0x30
1001765e:	1c5a      	adds	r2, r3, #1
10017660:	9230      	str	r2, [sp, #192]	@ 0xc0
10017662:	7019      	strb	r1, [r3, #0]
10017664:	9b30      	ldr	r3, [sp, #192]	@ 0xc0
10017666:	429c      	cmp	r4, r3
10017668:	d8f9      	bhi.n	1001765e <_vfprintf_r+0x16ee>
1001766a:	e628      	b.n	100172be <_vfprintf_r+0x134e>
1001766c:	4621      	mov	r1, r4
1001766e:	461c      	mov	r4, r3
10017670:	9b10      	ldr	r3, [sp, #64]	@ 0x40
10017672:	f8cd b024 	str.w	fp, [sp, #36]	@ 0x24
10017676:	f8cd 9038 	str.w	r9, [sp, #56]	@ 0x38
1001767a:	4642      	mov	r2, r8
1001767c:	4f2c      	ldr	r7, [pc, #176]	@ (10017730 <_vfprintf_r+0x17c0>)
1001767e:	f8dd 9050 	ldr.w	r9, [sp, #80]	@ 0x50
10017682:	f8dd 8078 	ldr.w	r8, [sp, #120]	@ 0x78
10017686:	f8dd a06c 	ldr.w	sl, [sp, #108]	@ 0x6c
1001768a:	f8dd b020 	ldr.w	fp, [sp, #32]
1001768e:	b37b      	cbz	r3, 100176f0 <_vfprintf_r+0x1780>
10017690:	f1b9 0f00 	cmp.w	r9, #0
10017694:	f000 8085 	beq.w	100177a2 <_vfprintf_r+0x1832>
10017698:	f109 39ff 	add.w	r9, r9, #4294967295	@ 0xffffffff
1001769c:	9833      	ldr	r0, [sp, #204]	@ 0xcc
1001769e:	9b1d      	ldr	r3, [sp, #116]	@ 0x74
100176a0:	3001      	adds	r0, #1
100176a2:	4441      	add	r1, r8
100176a4:	2807      	cmp	r0, #7
100176a6:	e9c2 3800 	strd	r3, r8, [r2]
100176aa:	9134      	str	r1, [sp, #208]	@ 0xd0
100176ac:	9033      	str	r0, [sp, #204]	@ 0xcc
100176ae:	dc6d      	bgt.n	1001778c <_vfprintf_r+0x181c>
100176b0:	3208      	adds	r2, #8
100176b2:	9b09      	ldr	r3, [sp, #36]	@ 0x24
100176b4:	f89a 0000 	ldrb.w	r0, [sl]
100176b8:	1b1e      	subs	r6, r3, r4
100176ba:	4286      	cmp	r6, r0
100176bc:	bfa8      	it	ge
100176be:	4606      	movge	r6, r0
100176c0:	2e00      	cmp	r6, #0
100176c2:	dd0b      	ble.n	100176dc <_vfprintf_r+0x176c>
100176c4:	9833      	ldr	r0, [sp, #204]	@ 0xcc
100176c6:	3001      	adds	r0, #1
100176c8:	4431      	add	r1, r6
100176ca:	2807      	cmp	r0, #7
100176cc:	e9c2 4600 	strd	r4, r6, [r2]
100176d0:	9134      	str	r1, [sp, #208]	@ 0xd0
100176d2:	9033      	str	r0, [sp, #204]	@ 0xcc
100176d4:	dc6b      	bgt.n	100177ae <_vfprintf_r+0x183e>
100176d6:	f89a 0000 	ldrb.w	r0, [sl]
100176da:	3208      	adds	r2, #8
100176dc:	2e00      	cmp	r6, #0
100176de:	bfac      	ite	ge
100176e0:	1b85      	subge	r5, r0, r6
100176e2:	4605      	movlt	r5, r0
100176e4:	2d00      	cmp	r5, #0
100176e6:	dc14      	bgt.n	10017712 <_vfprintf_r+0x17a2>
100176e8:	4404      	add	r4, r0
100176ea:	9b10      	ldr	r3, [sp, #64]	@ 0x40
100176ec:	2b00      	cmp	r3, #0
100176ee:	d1cf      	bne.n	10017690 <_vfprintf_r+0x1720>
100176f0:	f1b9 0f00 	cmp.w	r9, #0
100176f4:	d1d0      	bne.n	10017698 <_vfprintf_r+0x1728>
100176f6:	f8dd b024 	ldr.w	fp, [sp, #36]	@ 0x24
100176fa:	f8cd a06c 	str.w	sl, [sp, #108]	@ 0x6c
100176fe:	46a2      	mov	sl, r4
10017700:	45da      	cmp	sl, fp
10017702:	f8dd 9038 	ldr.w	r9, [sp, #56]	@ 0x38
10017706:	4690      	mov	r8, r2
10017708:	460c      	mov	r4, r1
1001770a:	bf28      	it	cs
1001770c:	46da      	movcs	sl, fp
1001770e:	f7ff ba35 	b.w	10016b7c <_vfprintf_r+0xc0c>
10017712:	2d10      	cmp	r5, #16
10017714:	9833      	ldr	r0, [sp, #204]	@ 0xcc
10017716:	f340 821a 	ble.w	10017b4e <_vfprintf_r+0x1bde>
1001771a:	4623      	mov	r3, r4
1001771c:	463e      	mov	r6, r7
1001771e:	462c      	mov	r4, r5
10017720:	461d      	mov	r5, r3
10017722:	e00c      	b.n	1001773e <_vfprintf_r+0x17ce>
10017724:	40300000 	.word	0x40300000
10017728:	3fe00000 	.word	0x3fe00000
1001772c:	1001b114 	.word	0x1001b114
10017730:	1001b320 	.word	0x1001b320
10017734:	3c10      	subs	r4, #16
10017736:	2c10      	cmp	r4, #16
10017738:	f102 0208 	add.w	r2, r2, #8
1001773c:	dd16      	ble.n	1001776c <_vfprintf_r+0x17fc>
1001773e:	3001      	adds	r0, #1
10017740:	3110      	adds	r1, #16
10017742:	2310      	movs	r3, #16
10017744:	2807      	cmp	r0, #7
10017746:	e9cd 0133 	strd	r0, r1, [sp, #204]	@ 0xcc
1001774a:	6017      	str	r7, [r2, #0]
1001774c:	6053      	str	r3, [r2, #4]
1001774e:	ddf1      	ble.n	10017734 <_vfprintf_r+0x17c4>
10017750:	9907      	ldr	r1, [sp, #28]
10017752:	aa32      	add	r2, sp, #200	@ 0xc8
10017754:	4658      	mov	r0, fp
10017756:	f000 faaf 	bl	10017cb8 <__sprint_r>
1001775a:	2800      	cmp	r0, #0
1001775c:	f47e ad60 	bne.w	10016220 <_vfprintf_r+0x2b0>
10017760:	3c10      	subs	r4, #16
10017762:	2c10      	cmp	r4, #16
10017764:	e9dd 0133 	ldrd	r0, r1, [sp, #204]	@ 0xcc
10017768:	aa35      	add	r2, sp, #212	@ 0xd4
1001776a:	dce8      	bgt.n	1001773e <_vfprintf_r+0x17ce>
1001776c:	462b      	mov	r3, r5
1001776e:	4625      	mov	r5, r4
10017770:	461c      	mov	r4, r3
10017772:	3001      	adds	r0, #1
10017774:	4429      	add	r1, r5
10017776:	2807      	cmp	r0, #7
10017778:	e9cd 0133 	strd	r0, r1, [sp, #204]	@ 0xcc
1001777c:	6016      	str	r6, [r2, #0]
1001777e:	6055      	str	r5, [r2, #4]
10017780:	dc4b      	bgt.n	1001781a <_vfprintf_r+0x18aa>
10017782:	f89a 0000 	ldrb.w	r0, [sl]
10017786:	3208      	adds	r2, #8
10017788:	4404      	add	r4, r0
1001778a:	e7ae      	b.n	100176ea <_vfprintf_r+0x177a>
1001778c:	9907      	ldr	r1, [sp, #28]
1001778e:	aa32      	add	r2, sp, #200	@ 0xc8
10017790:	4658      	mov	r0, fp
10017792:	f000 fa91 	bl	10017cb8 <__sprint_r>
10017796:	2800      	cmp	r0, #0
10017798:	f47e ad42 	bne.w	10016220 <_vfprintf_r+0x2b0>
1001779c:	9934      	ldr	r1, [sp, #208]	@ 0xd0
1001779e:	aa35      	add	r2, sp, #212	@ 0xd4
100177a0:	e787      	b.n	100176b2 <_vfprintf_r+0x1742>
100177a2:	9b10      	ldr	r3, [sp, #64]	@ 0x40
100177a4:	3b01      	subs	r3, #1
100177a6:	f10a 3aff 	add.w	sl, sl, #4294967295	@ 0xffffffff
100177aa:	9310      	str	r3, [sp, #64]	@ 0x40
100177ac:	e776      	b.n	1001769c <_vfprintf_r+0x172c>
100177ae:	9907      	ldr	r1, [sp, #28]
100177b0:	aa32      	add	r2, sp, #200	@ 0xc8
100177b2:	4658      	mov	r0, fp
100177b4:	f000 fa80 	bl	10017cb8 <__sprint_r>
100177b8:	2800      	cmp	r0, #0
100177ba:	f47e ad31 	bne.w	10016220 <_vfprintf_r+0x2b0>
100177be:	f89a 0000 	ldrb.w	r0, [sl]
100177c2:	9934      	ldr	r1, [sp, #208]	@ 0xd0
100177c4:	aa35      	add	r2, sp, #212	@ 0xd4
100177c6:	e789      	b.n	100176dc <_vfprintf_r+0x176c>
100177c8:	f89d 209f 	ldrb.w	r2, [sp, #159]	@ 0x9f
100177cc:	960d      	str	r6, [sp, #52]	@ 0x34
100177ce:	f8cd b018 	str.w	fp, [sp, #24]
100177d2:	f8cd b024 	str.w	fp, [sp, #36]	@ 0x24
100177d6:	f8cd b050 	str.w	fp, [sp, #80]	@ 0x50
100177da:	f8cd b040 	str.w	fp, [sp, #64]	@ 0x40
100177de:	f8cd b048 	str.w	fp, [sp, #72]	@ 0x48
100177e2:	f8cd b030 	str.w	fp, [sp, #48]	@ 0x30
100177e6:	f7fe bdfe 	b.w	100163e6 <_vfprintf_r+0x476>
100177ea:	e9dd 1007 	ldrd	r1, r0, [sp, #28]
100177ee:	aa32      	add	r2, sp, #200	@ 0xc8
100177f0:	f000 fa62 	bl	10017cb8 <__sprint_r>
100177f4:	2800      	cmp	r0, #0
100177f6:	f47f a8bf 	bne.w	10016978 <_vfprintf_r+0xa08>
100177fa:	9a29      	ldr	r2, [sp, #164]	@ 0xa4
100177fc:	9c34      	ldr	r4, [sp, #208]	@ 0xd0
100177fe:	f10d 08d4 	add.w	r8, sp, #212	@ 0xd4
10017802:	f7ff baa5 	b.w	10016d50 <_vfprintf_r+0xde0>
10017806:	930c      	str	r3, [sp, #48]	@ 0x30
10017808:	e9dd 1216 	ldrd	r1, r2, [sp, #88]	@ 0x58
1001780c:	f102 4300 	add.w	r3, r2, #2147483648	@ 0x80000000
10017810:	9325      	str	r3, [sp, #148]	@ 0x94
10017812:	232d      	movs	r3, #45	@ 0x2d
10017814:	9124      	str	r1, [sp, #144]	@ 0x90
10017816:	931f      	str	r3, [sp, #124]	@ 0x7c
10017818:	e5fc      	b.n	10017414 <_vfprintf_r+0x14a4>
1001781a:	9907      	ldr	r1, [sp, #28]
1001781c:	aa32      	add	r2, sp, #200	@ 0xc8
1001781e:	4658      	mov	r0, fp
10017820:	f000 fa4a 	bl	10017cb8 <__sprint_r>
10017824:	2800      	cmp	r0, #0
10017826:	f47e acfb 	bne.w	10016220 <_vfprintf_r+0x2b0>
1001782a:	f89a 0000 	ldrb.w	r0, [sl]
1001782e:	9934      	ldr	r1, [sp, #208]	@ 0xd0
10017830:	aa35      	add	r2, sp, #212	@ 0xd4
10017832:	4404      	add	r4, r0
10017834:	e759      	b.n	100176ea <_vfprintf_r+0x177a>
10017836:	e9dd 1007 	ldrd	r1, r0, [sp, #28]
1001783a:	aa32      	add	r2, sp, #200	@ 0xc8
1001783c:	f000 fa3c 	bl	10017cb8 <__sprint_r>
10017840:	2800      	cmp	r0, #0
10017842:	f47f a899 	bne.w	10016978 <_vfprintf_r+0xa08>
10017846:	9c34      	ldr	r4, [sp, #208]	@ 0xd0
10017848:	f10d 08d4 	add.w	r8, sp, #212	@ 0xd4
1001784c:	f7ff b988 	b.w	10016b60 <_vfprintf_r+0xbf0>
10017850:	2378      	movs	r3, #120	@ 0x78
10017852:	e5c3      	b.n	100173dc <_vfprintf_r+0x146c>
10017854:	e9dd 1007 	ldrd	r1, r0, [sp, #28]
10017858:	aa32      	add	r2, sp, #200	@ 0xc8
1001785a:	f000 fa2d 	bl	10017cb8 <__sprint_r>
1001785e:	2800      	cmp	r0, #0
10017860:	f47f a88a 	bne.w	10016978 <_vfprintf_r+0xa08>
10017864:	9d29      	ldr	r5, [sp, #164]	@ 0xa4
10017866:	9c34      	ldr	r4, [sp, #208]	@ 0xd0
10017868:	f10d 08d4 	add.w	r8, sp, #212	@ 0xd4
1001786c:	f7ff b99c 	b.w	10016ba8 <_vfprintf_r+0xc38>
10017870:	49ab      	ldr	r1, [pc, #684]	@ (10017b20 <_vfprintf_r+0x1bb0>)
10017872:	9115      	str	r1, [sp, #84]	@ 0x54
10017874:	f7fe bdee 	b.w	10016454 <_vfprintf_r+0x4e4>
10017878:	e9dd 1007 	ldrd	r1, r0, [sp, #28]
1001787c:	aa32      	add	r2, sp, #200	@ 0xc8
1001787e:	f000 fa1b 	bl	10017cb8 <__sprint_r>
10017882:	2800      	cmp	r0, #0
10017884:	f47f a878 	bne.w	10016978 <_vfprintf_r+0xa08>
10017888:	9d29      	ldr	r5, [sp, #164]	@ 0xa4
1001788a:	9b13      	ldr	r3, [sp, #76]	@ 0x4c
1001788c:	9c34      	ldr	r4, [sp, #208]	@ 0xd0
1001788e:	1b5d      	subs	r5, r3, r5
10017890:	f10d 08d4 	add.w	r8, sp, #212	@ 0xd4
10017894:	f7ff b99f 	b.w	10016bd6 <_vfprintf_r+0xc66>
10017898:	9b06      	ldr	r3, [sp, #24]
1001789a:	9912      	ldr	r1, [sp, #72]	@ 0x48
1001789c:	9a09      	ldr	r2, [sp, #36]	@ 0x24
1001789e:	f003 0301 	and.w	r3, r3, #1
100178a2:	2900      	cmp	r1, #0
100178a4:	ea43 0302 	orr.w	r3, r3, r2
100178a8:	f340 815d 	ble.w	10017b66 <_vfprintf_r+0x1bf6>
100178ac:	2b00      	cmp	r3, #0
100178ae:	f040 8109 	bne.w	10017ac4 <_vfprintf_r+0x1b54>
100178b2:	2366      	movs	r3, #102	@ 0x66
100178b4:	f8dd b048 	ldr.w	fp, [sp, #72]	@ 0x48
100178b8:	930e      	str	r3, [sp, #56]	@ 0x38
100178ba:	9b06      	ldr	r3, [sp, #24]
100178bc:	055a      	lsls	r2, r3, #21
100178be:	f100 810a 	bmi.w	10017ad6 <_vfprintf_r+0x1b66>
100178c2:	ea2b 73eb 	bic.w	r3, fp, fp, asr #31
100178c6:	f8dd 9054 	ldr.w	r9, [sp, #84]	@ 0x54
100178ca:	9306      	str	r3, [sp, #24]
100178cc:	e6be      	b.n	1001764c <_vfprintf_r+0x16dc>
100178ce:	2200      	movs	r2, #0
100178d0:	9209      	str	r2, [sp, #36]	@ 0x24
100178d2:	f7fe bbc6 	b.w	10016062 <_vfprintf_r+0xf2>
100178d6:	9b07      	ldr	r3, [sp, #28]
100178d8:	6e5b      	ldr	r3, [r3, #100]	@ 0x64
100178da:	07dd      	lsls	r5, r3, #31
100178dc:	d407      	bmi.n	100178ee <_vfprintf_r+0x197e>
100178de:	9b07      	ldr	r3, [sp, #28]
100178e0:	899b      	ldrh	r3, [r3, #12]
100178e2:	059c      	lsls	r4, r3, #22
100178e4:	d403      	bmi.n	100178ee <_vfprintf_r+0x197e>
100178e6:	9b07      	ldr	r3, [sp, #28]
100178e8:	6d98      	ldr	r0, [r3, #88]	@ 0x58
100178ea:	f7fc fc53 	bl	10014194 <__retarget_lock_release_recursive>
100178ee:	f04f 33ff 	mov.w	r3, #4294967295	@ 0xffffffff
100178f2:	930a      	str	r3, [sp, #40]	@ 0x28
100178f4:	f7fe bca5 	b.w	10016242 <_vfprintf_r+0x2d2>
100178f8:	4256      	negs	r6, r2
100178fa:	3210      	adds	r2, #16
100178fc:	4a89      	ldr	r2, [pc, #548]	@ (10017b24 <_vfprintf_r+0x1bb4>)
100178fe:	9215      	str	r2, [sp, #84]	@ 0x54
10017900:	da34      	bge.n	1001796c <_vfprintf_r+0x19fc>
10017902:	46aa      	mov	sl, r5
10017904:	2710      	movs	r7, #16
10017906:	4615      	mov	r5, r2
10017908:	e004      	b.n	10017914 <_vfprintf_r+0x19a4>
1001790a:	f108 0808 	add.w	r8, r8, #8
1001790e:	3e10      	subs	r6, #16
10017910:	2e10      	cmp	r6, #16
10017912:	dd2a      	ble.n	1001796a <_vfprintf_r+0x19fa>
10017914:	3301      	adds	r3, #1
10017916:	3410      	adds	r4, #16
10017918:	2b07      	cmp	r3, #7
1001791a:	e9c8 5700 	strd	r5, r7, [r8]
1001791e:	e9cd 3433 	strd	r3, r4, [sp, #204]	@ 0xcc
10017922:	ddf2      	ble.n	1001790a <_vfprintf_r+0x199a>
10017924:	e9dd 1007 	ldrd	r1, r0, [sp, #28]
10017928:	aa32      	add	r2, sp, #200	@ 0xc8
1001792a:	f000 f9c5 	bl	10017cb8 <__sprint_r>
1001792e:	2800      	cmp	r0, #0
10017930:	f47f a822 	bne.w	10016978 <_vfprintf_r+0xa08>
10017934:	e9dd 3433 	ldrd	r3, r4, [sp, #204]	@ 0xcc
10017938:	f10d 08d4 	add.w	r8, sp, #212	@ 0xd4
1001793c:	e7e7      	b.n	1001790e <_vfprintf_r+0x199e>
1001793e:	2300      	movs	r3, #0
10017940:	930c      	str	r3, [sp, #48]	@ 0x30
10017942:	ad45      	add	r5, sp, #276	@ 0x114
10017944:	e40c      	b.n	10017160 <_vfprintf_r+0x11f0>
10017946:	19ac      	adds	r4, r5, r6
10017948:	2747      	movs	r7, #71	@ 0x47
1001794a:	e4ae      	b.n	100172aa <_vfprintf_r+0x133a>
1001794c:	9b13      	ldr	r3, [sp, #76]	@ 0x4c
1001794e:	9a18      	ldr	r2, [sp, #96]	@ 0x60
10017950:	eb03 0b02 	add.w	fp, r3, r2
10017954:	9b12      	ldr	r3, [sp, #72]	@ 0x48
10017956:	2b00      	cmp	r3, #0
10017958:	f340 80ee 	ble.w	10017b38 <_vfprintf_r+0x1bc8>
1001795c:	2367      	movs	r3, #103	@ 0x67
1001795e:	930e      	str	r3, [sp, #56]	@ 0x38
10017960:	e7ab      	b.n	100178ba <_vfprintf_r+0x194a>
10017962:	4a6f      	ldr	r2, [pc, #444]	@ (10017b20 <_vfprintf_r+0x1bb0>)
10017964:	9215      	str	r2, [sp, #84]	@ 0x54
10017966:	f7ff b8ce 	b.w	10016b06 <_vfprintf_r+0xb96>
1001796a:	4655      	mov	r5, sl
1001796c:	3301      	adds	r3, #1
1001796e:	9a15      	ldr	r2, [sp, #84]	@ 0x54
10017970:	f8c8 2000 	str.w	r2, [r8]
10017974:	4434      	add	r4, r6
10017976:	2b07      	cmp	r3, #7
10017978:	e9cd 3433 	strd	r3, r4, [sp, #204]	@ 0xcc
1001797c:	f8c8 6004 	str.w	r6, [r8, #4]
10017980:	f77f a9fb 	ble.w	10016d7a <_vfprintf_r+0xe0a>
10017984:	e9dd 1007 	ldrd	r1, r0, [sp, #28]
10017988:	aa32      	add	r2, sp, #200	@ 0xc8
1001798a:	f000 f995 	bl	10017cb8 <__sprint_r>
1001798e:	2800      	cmp	r0, #0
10017990:	f47e aff2 	bne.w	10016978 <_vfprintf_r+0xa08>
10017994:	e9dd 3433 	ldrd	r3, r4, [sp, #204]	@ 0xcc
10017998:	f10d 08d4 	add.w	r8, sp, #212	@ 0xd4
1001799c:	f7ff b800 	b.w	100169a0 <_vfprintf_r+0xa30>
100179a0:	9b12      	ldr	r3, [sp, #72]	@ 0x48
100179a2:	9730      	str	r7, [sp, #192]	@ 0xc0
100179a4:	7bd9      	ldrb	r1, [r3, #15]
100179a6:	f816 2c01 	ldrb.w	r2, [r6, #-1]
100179aa:	428a      	cmp	r2, r1
100179ac:	4633      	mov	r3, r6
100179ae:	d109      	bne.n	100179c4 <_vfprintf_r+0x1a54>
100179b0:	2030      	movs	r0, #48	@ 0x30
100179b2:	f803 0c01 	strb.w	r0, [r3, #-1]
100179b6:	9b30      	ldr	r3, [sp, #192]	@ 0xc0
100179b8:	1e5a      	subs	r2, r3, #1
100179ba:	9230      	str	r2, [sp, #192]	@ 0xc0
100179bc:	f813 2c01 	ldrb.w	r2, [r3, #-1]
100179c0:	4291      	cmp	r1, r2
100179c2:	d0f6      	beq.n	100179b2 <_vfprintf_r+0x1a42>
100179c4:	2a39      	cmp	r2, #57	@ 0x39
100179c6:	bf0b      	itete	eq
100179c8:	9a12      	ldreq	r2, [sp, #72]	@ 0x48
100179ca:	3201      	addne	r2, #1
100179cc:	7a92      	ldrbeq	r2, [r2, #10]
100179ce:	b2d2      	uxtbne	r2, r2
100179d0:	f803 2c01 	strb.w	r2, [r3, #-1]
100179d4:	4633      	mov	r3, r6
100179d6:	e595      	b.n	10017504 <_vfprintf_r+0x1594>
100179d8:	4a52      	ldr	r2, [pc, #328]	@ (10017b24 <_vfprintf_r+0x1bb4>)
100179da:	9215      	str	r2, [sp, #84]	@ 0x54
100179dc:	f7fe bf78 	b.w	100168d0 <_vfprintf_r+0x960>
100179e0:	9808      	ldr	r0, [sp, #32]
100179e2:	1c59      	adds	r1, r3, #1
100179e4:	f7fc f858 	bl	10013a98 <_malloc_r>
100179e8:	4605      	mov	r5, r0
100179ea:	b178      	cbz	r0, 10017a0c <_vfprintf_r+0x1a9c>
100179ec:	900c      	str	r0, [sp, #48]	@ 0x30
100179ee:	e504      	b.n	100173fa <_vfprintf_r+0x148a>
100179f0:	2800      	cmp	r0, #0
100179f2:	d162      	bne.n	10017aba <_vfprintf_r+0x1b4a>
100179f4:	2230      	movs	r2, #48	@ 0x30
100179f6:	f88d 20b2 	strb.w	r2, [sp, #178]	@ 0xb2
100179fa:	f10d 02b3 	add.w	r2, sp, #179	@ 0xb3
100179fe:	3330      	adds	r3, #48	@ 0x30
10017a00:	f802 3b01 	strb.w	r3, [r2], #1
10017a04:	ab2c      	add	r3, sp, #176	@ 0xb0
10017a06:	1ad3      	subs	r3, r2, r3
10017a08:	931c      	str	r3, [sp, #112]	@ 0x70
10017a0a:	e4a3      	b.n	10017354 <_vfprintf_r+0x13e4>
10017a0c:	9a07      	ldr	r2, [sp, #28]
10017a0e:	f9b2 300c 	ldrsh.w	r3, [r2, #12]
10017a12:	f043 0340 	orr.w	r3, r3, #64	@ 0x40
10017a16:	8193      	strh	r3, [r2, #12]
10017a18:	f7fe bc0b 	b.w	10016232 <_vfprintf_r+0x2c2>
10017a1c:	e9dd 1007 	ldrd	r1, r0, [sp, #28]
10017a20:	aa32      	add	r2, sp, #200	@ 0xc8
10017a22:	f000 f949 	bl	10017cb8 <__sprint_r>
10017a26:	2800      	cmp	r0, #0
10017a28:	f47e afa6 	bne.w	10016978 <_vfprintf_r+0xa08>
10017a2c:	9c34      	ldr	r4, [sp, #208]	@ 0xd0
10017a2e:	f10d 08d4 	add.w	r8, sp, #212	@ 0xd4
10017a32:	f7ff b89c 	b.w	10016b6e <_vfprintf_r+0xbfe>
10017a36:	4b3c      	ldr	r3, [pc, #240]	@ (10017b28 <_vfprintf_r+0x1bb8>)
10017a38:	4a3c      	ldr	r2, [pc, #240]	@ (10017b2c <_vfprintf_r+0x1bbc>)
10017a3a:	990e      	ldr	r1, [sp, #56]	@ 0x38
10017a3c:	2961      	cmp	r1, #97	@ 0x61
10017a3e:	bf18      	it	ne
10017a40:	461a      	movne	r2, r3
10017a42:	2301      	movs	r3, #1
10017a44:	9212      	str	r2, [sp, #72]	@ 0x48
10017a46:	9329      	str	r3, [sp, #164]	@ 0xa4
10017a48:	e4ff      	b.n	1001744a <_vfprintf_r+0x14da>
10017a4a:	2306      	movs	r3, #6
10017a4c:	9309      	str	r3, [sp, #36]	@ 0x24
10017a4e:	f7ff b9f1 	b.w	10016e34 <_vfprintf_r+0xec4>
10017a52:	9b06      	ldr	r3, [sp, #24]
10017a54:	07df      	lsls	r7, r3, #31
10017a56:	f57f ac86 	bpl.w	10017366 <_vfprintf_r+0x13f6>
10017a5a:	e482      	b.n	10017362 <_vfprintf_r+0x13f2>
10017a5c:	e9dd 0124 	ldrd	r0, r1, [sp, #144]	@ 0x90
10017a60:	2200      	movs	r2, #0
10017a62:	2300      	movs	r3, #0
10017a64:	f003 f814 	bl	1001aa90 <__aeabi_dcmpeq>
10017a68:	2800      	cmp	r0, #0
10017a6a:	f47f ac1c 	bne.w	100172a6 <_vfprintf_r+0x1336>
10017a6e:	f1c6 0601 	rsb	r6, r6, #1
10017a72:	9629      	str	r6, [sp, #164]	@ 0xa4
10017a74:	e418      	b.n	100172a8 <_vfprintf_r+0x1338>
10017a76:	9b17      	ldr	r3, [sp, #92]	@ 0x5c
10017a78:	4d2d      	ldr	r5, [pc, #180]	@ (10017b30 <_vfprintf_r+0x1bc0>)
10017a7a:	2b00      	cmp	r3, #0
10017a7c:	bfb4      	ite	lt
10017a7e:	222d      	movlt	r2, #45	@ 0x2d
10017a80:	f89d 209f 	ldrbge.w	r2, [sp, #159]	@ 0x9f
10017a84:	4b2b      	ldr	r3, [pc, #172]	@ (10017b34 <_vfprintf_r+0x1bc4>)
10017a86:	bfb8      	it	lt
10017a88:	f88d 209f 	strblt.w	r2, [sp, #159]	@ 0x9f
10017a8c:	f029 0980 	bic.w	r9, r9, #128	@ 0x80
10017a90:	f7fe bc9c 	b.w	100163cc <_vfprintf_r+0x45c>
10017a94:	9b09      	ldr	r3, [sp, #36]	@ 0x24
10017a96:	9306      	str	r3, [sp, #24]
10017a98:	469b      	mov	fp, r3
10017a9a:	2373      	movs	r3, #115	@ 0x73
10017a9c:	f89d 209f 	ldrb.w	r2, [sp, #159]	@ 0x9f
10017aa0:	960d      	str	r6, [sp, #52]	@ 0x34
10017aa2:	9009      	str	r0, [sp, #36]	@ 0x24
10017aa4:	9014      	str	r0, [sp, #80]	@ 0x50
10017aa6:	9010      	str	r0, [sp, #64]	@ 0x40
10017aa8:	930e      	str	r3, [sp, #56]	@ 0x38
10017aaa:	f7fe bc9c 	b.w	100163e6 <_vfprintf_r+0x476>
10017aae:	f8dd 9018 	ldr.w	r9, [sp, #24]
10017ab2:	f8dd b024 	ldr.w	fp, [sp, #36]	@ 0x24
10017ab6:	f7ff bb41 	b.w	1001713c <_vfprintf_r+0x11cc>
10017aba:	f10d 02b2 	add.w	r2, sp, #178	@ 0xb2
10017abe:	e79e      	b.n	100179fe <_vfprintf_r+0x1a8e>
10017ac0:	4693      	mov	fp, r2
10017ac2:	e5b6      	b.n	10017632 <_vfprintf_r+0x16c2>
10017ac4:	9b18      	ldr	r3, [sp, #96]	@ 0x60
10017ac6:	18cf      	adds	r7, r1, r3
10017ac8:	443a      	add	r2, r7
10017aca:	2366      	movs	r3, #102	@ 0x66
10017acc:	4693      	mov	fp, r2
10017ace:	930e      	str	r3, [sp, #56]	@ 0x38
10017ad0:	e6f3      	b.n	100178ba <_vfprintf_r+0x194a>
10017ad2:	2367      	movs	r3, #103	@ 0x67
10017ad4:	930e      	str	r3, [sp, #56]	@ 0x38
10017ad6:	991b      	ldr	r1, [sp, #108]	@ 0x6c
10017ad8:	780b      	ldrb	r3, [r1, #0]
10017ada:	2bff      	cmp	r3, #255	@ 0xff
10017adc:	d062      	beq.n	10017ba4 <_vfprintf_r+0x1c34>
10017ade:	2400      	movs	r4, #0
10017ae0:	9a12      	ldr	r2, [sp, #72]	@ 0x48
10017ae2:	4620      	mov	r0, r4
10017ae4:	e003      	b.n	10017aee <_vfprintf_r+0x1b7e>
10017ae6:	3001      	adds	r0, #1
10017ae8:	3101      	adds	r1, #1
10017aea:	2bff      	cmp	r3, #255	@ 0xff
10017aec:	d008      	beq.n	10017b00 <_vfprintf_r+0x1b90>
10017aee:	4293      	cmp	r3, r2
10017af0:	da06      	bge.n	10017b00 <_vfprintf_r+0x1b90>
10017af2:	1ad2      	subs	r2, r2, r3
10017af4:	784b      	ldrb	r3, [r1, #1]
10017af6:	2b00      	cmp	r3, #0
10017af8:	d1f5      	bne.n	10017ae6 <_vfprintf_r+0x1b76>
10017afa:	780b      	ldrb	r3, [r1, #0]
10017afc:	3401      	adds	r4, #1
10017afe:	e7f4      	b.n	10017aea <_vfprintf_r+0x1b7a>
10017b00:	911b      	str	r1, [sp, #108]	@ 0x6c
10017b02:	9212      	str	r2, [sp, #72]	@ 0x48
10017b04:	9010      	str	r0, [sp, #64]	@ 0x40
10017b06:	9414      	str	r4, [sp, #80]	@ 0x50
10017b08:	e9dd 3914 	ldrd	r3, r9, [sp, #80]	@ 0x50
10017b0c:	9a10      	ldr	r2, [sp, #64]	@ 0x40
10017b0e:	4413      	add	r3, r2
10017b10:	9a1e      	ldr	r2, [sp, #120]	@ 0x78
10017b12:	fb02 bb03 	mla	fp, r2, r3, fp
10017b16:	ea2b 73eb 	bic.w	r3, fp, fp, asr #31
10017b1a:	9306      	str	r3, [sp, #24]
10017b1c:	e42f      	b.n	1001737e <_vfprintf_r+0x140e>
10017b1e:	bf00      	nop
10017b20:	1001b330 	.word	0x1001b330
10017b24:	1001b320 	.word	0x1001b320
10017b28:	1001b114 	.word	0x1001b114
10017b2c:	1001b100 	.word	0x1001b100
10017b30:	1001b0f8 	.word	0x1001b0f8
10017b34:	1001b0fc 	.word	0x1001b0fc
10017b38:	f1c3 0301 	rsb	r3, r3, #1
10017b3c:	449b      	add	fp, r3
10017b3e:	ea2b 73eb 	bic.w	r3, fp, fp, asr #31
10017b42:	9306      	str	r3, [sp, #24]
10017b44:	2367      	movs	r3, #103	@ 0x67
10017b46:	f8dd 9054 	ldr.w	r9, [sp, #84]	@ 0x54
10017b4a:	930e      	str	r3, [sp, #56]	@ 0x38
10017b4c:	e57e      	b.n	1001764c <_vfprintf_r+0x16dc>
10017b4e:	4e1b      	ldr	r6, [pc, #108]	@ (10017bbc <_vfprintf_r+0x1c4c>)
10017b50:	e60f      	b.n	10017772 <_vfprintf_r+0x1802>
10017b52:	2302      	movs	r3, #2
10017b54:	931c      	str	r3, [sp, #112]	@ 0x70
10017b56:	f7ff bbfd 	b.w	10017354 <_vfprintf_r+0x13e4>
10017b5a:	4a18      	ldr	r2, [pc, #96]	@ (10017bbc <_vfprintf_r+0x1c4c>)
10017b5c:	9215      	str	r2, [sp, #84]	@ 0x54
10017b5e:	e52b      	b.n	100175b8 <_vfprintf_r+0x1648>
10017b60:	2170      	movs	r1, #112	@ 0x70
10017b62:	f7ff bbc0 	b.w	100172e6 <_vfprintf_r+0x1376>
10017b66:	f8dd 9054 	ldr.w	r9, [sp, #84]	@ 0x54
10017b6a:	b92b      	cbnz	r3, 10017b78 <_vfprintf_r+0x1c08>
10017b6c:	2301      	movs	r3, #1
10017b6e:	2266      	movs	r2, #102	@ 0x66
10017b70:	9306      	str	r3, [sp, #24]
10017b72:	920e      	str	r2, [sp, #56]	@ 0x38
10017b74:	469b      	mov	fp, r3
10017b76:	e569      	b.n	1001764c <_vfprintf_r+0x16dc>
10017b78:	9b18      	ldr	r3, [sp, #96]	@ 0x60
10017b7a:	1c5f      	adds	r7, r3, #1
10017b7c:	9b09      	ldr	r3, [sp, #36]	@ 0x24
10017b7e:	443b      	add	r3, r7
10017b80:	469b      	mov	fp, r3
10017b82:	ea23 73e3 	bic.w	r3, r3, r3, asr #31
10017b86:	9306      	str	r3, [sp, #24]
10017b88:	2366      	movs	r3, #102	@ 0x66
10017b8a:	930e      	str	r3, [sp, #56]	@ 0x38
10017b8c:	e55e      	b.n	1001764c <_vfprintf_r+0x16dc>
10017b8e:	9a0d      	ldr	r2, [sp, #52]	@ 0x34
10017b90:	7863      	ldrb	r3, [r4, #1]
10017b92:	460c      	mov	r4, r1
10017b94:	f852 1b04 	ldr.w	r1, [r2], #4
10017b98:	920d      	str	r2, [sp, #52]	@ 0x34
10017b9a:	ea41 71e1 	orr.w	r1, r1, r1, asr #31
10017b9e:	9109      	str	r1, [sp, #36]	@ 0x24
10017ba0:	f7fe ba5e 	b.w	10016060 <_vfprintf_r+0xf0>
10017ba4:	2300      	movs	r3, #0
10017ba6:	9314      	str	r3, [sp, #80]	@ 0x50
10017ba8:	9310      	str	r3, [sp, #64]	@ 0x40
10017baa:	e7ad      	b.n	10017b08 <_vfprintf_r+0x1b98>
10017bac:	e9dd 2b07 	ldrd	r2, fp, [sp, #28]
10017bb0:	8993      	ldrh	r3, [r2, #12]
10017bb2:	f043 0340 	orr.w	r3, r3, #64	@ 0x40
10017bb6:	8193      	strh	r3, [r2, #12]
10017bb8:	f7fe bb32 	b.w	10016220 <_vfprintf_r+0x2b0>
10017bbc:	1001b320 	.word	0x1001b320

10017bc0 <__sbprintf>:
10017bc0:	b5f0      	push	{r4, r5, r6, r7, lr}
10017bc2:	461f      	mov	r7, r3
10017bc4:	898b      	ldrh	r3, [r1, #12]
10017bc6:	f2ad 4d6c 	subw	sp, sp, #1132	@ 0x46c
10017bca:	f023 0302 	bic.w	r3, r3, #2
10017bce:	f8ad 300c 	strh.w	r3, [sp, #12]
10017bd2:	6e4b      	ldr	r3, [r1, #100]	@ 0x64
10017bd4:	9319      	str	r3, [sp, #100]	@ 0x64
10017bd6:	89cb      	ldrh	r3, [r1, #14]
10017bd8:	f8ad 300e 	strh.w	r3, [sp, #14]
10017bdc:	69cb      	ldr	r3, [r1, #28]
10017bde:	9307      	str	r3, [sp, #28]
10017be0:	6a4b      	ldr	r3, [r1, #36]	@ 0x24
10017be2:	9309      	str	r3, [sp, #36]	@ 0x24
10017be4:	ab1a      	add	r3, sp, #104	@ 0x68
10017be6:	9300      	str	r3, [sp, #0]
10017be8:	9304      	str	r3, [sp, #16]
10017bea:	f44f 6380 	mov.w	r3, #1024	@ 0x400
10017bee:	4615      	mov	r5, r2
10017bf0:	4606      	mov	r6, r0
10017bf2:	9302      	str	r3, [sp, #8]
10017bf4:	9305      	str	r3, [sp, #20]
10017bf6:	a816      	add	r0, sp, #88	@ 0x58
10017bf8:	2300      	movs	r3, #0
10017bfa:	460c      	mov	r4, r1
10017bfc:	9306      	str	r3, [sp, #24]
10017bfe:	f7fc fac3 	bl	10014188 <__retarget_lock_init_recursive>
10017c02:	462a      	mov	r2, r5
10017c04:	463b      	mov	r3, r7
10017c06:	4669      	mov	r1, sp
10017c08:	4630      	mov	r0, r6
10017c0a:	f7fe f9b1 	bl	10015f70 <_vfprintf_r>
10017c0e:	1e05      	subs	r5, r0, #0
10017c10:	db07      	blt.n	10017c22 <__sbprintf+0x62>
10017c12:	4669      	mov	r1, sp
10017c14:	4630      	mov	r0, r6
10017c16:	f001 ffc1 	bl	10019b9c <_fflush_r>
10017c1a:	2800      	cmp	r0, #0
10017c1c:	bf18      	it	ne
10017c1e:	f04f 35ff 	movne.w	r5, #4294967295	@ 0xffffffff
10017c22:	f8bd 300c 	ldrh.w	r3, [sp, #12]
10017c26:	065b      	lsls	r3, r3, #25
10017c28:	d503      	bpl.n	10017c32 <__sbprintf+0x72>
10017c2a:	89a3      	ldrh	r3, [r4, #12]
10017c2c:	f043 0340 	orr.w	r3, r3, #64	@ 0x40
10017c30:	81a3      	strh	r3, [r4, #12]
10017c32:	9816      	ldr	r0, [sp, #88]	@ 0x58
10017c34:	f7fc faaa 	bl	1001418c <__retarget_lock_close_recursive>
10017c38:	4628      	mov	r0, r5
10017c3a:	f20d 4d6c 	addw	sp, sp, #1132	@ 0x46c
10017c3e:	bdf0      	pop	{r4, r5, r6, r7, pc}

10017c40 <__sprint_r.part.0>:
10017c40:	e92d 4ff8 	stmdb	sp!, {r3, r4, r5, r6, r7, r8, r9, sl, fp, lr}
10017c44:	6e4b      	ldr	r3, [r1, #100]	@ 0x64
10017c46:	049c      	lsls	r4, r3, #18
10017c48:	4690      	mov	r8, r2
10017c4a:	d52e      	bpl.n	10017caa <__sprint_r.part.0+0x6a>
10017c4c:	6893      	ldr	r3, [r2, #8]
10017c4e:	6812      	ldr	r2, [r2, #0]
10017c50:	b34b      	cbz	r3, 10017ca6 <__sprint_r.part.0+0x66>
10017c52:	460d      	mov	r5, r1
10017c54:	4606      	mov	r6, r0
10017c56:	f102 0908 	add.w	r9, r2, #8
10017c5a:	e959 2a02 	ldrd	r2, sl, [r9, #-8]
10017c5e:	ea5f 079a 	movs.w	r7, sl, lsr #2
10017c62:	d016      	beq.n	10017c92 <__sprint_r.part.0+0x52>
10017c64:	f1a2 0b04 	sub.w	fp, r2, #4
10017c68:	2400      	movs	r4, #0
10017c6a:	e001      	b.n	10017c70 <__sprint_r.part.0+0x30>
10017c6c:	42a7      	cmp	r7, r4
10017c6e:	d00e      	beq.n	10017c8e <__sprint_r.part.0+0x4e>
10017c70:	f85b 1f04 	ldr.w	r1, [fp, #4]!
10017c74:	462a      	mov	r2, r5
10017c76:	4630      	mov	r0, r6
10017c78:	f002 fa02 	bl	1001a080 <_fputwc_r>
10017c7c:	1c43      	adds	r3, r0, #1
10017c7e:	f104 0401 	add.w	r4, r4, #1
10017c82:	d1f3      	bne.n	10017c6c <__sprint_r.part.0+0x2c>
10017c84:	2300      	movs	r3, #0
10017c86:	e9c8 3301 	strd	r3, r3, [r8, #4]
10017c8a:	e8bd 8ff8 	ldmia.w	sp!, {r3, r4, r5, r6, r7, r8, r9, sl, fp, pc}
10017c8e:	f8d8 3008 	ldr.w	r3, [r8, #8]
10017c92:	f02a 0a03 	bic.w	sl, sl, #3
10017c96:	eba3 030a 	sub.w	r3, r3, sl
10017c9a:	f8c8 3008 	str.w	r3, [r8, #8]
10017c9e:	f109 0908 	add.w	r9, r9, #8
10017ca2:	2b00      	cmp	r3, #0
10017ca4:	d1d9      	bne.n	10017c5a <__sprint_r.part.0+0x1a>
10017ca6:	2000      	movs	r0, #0
10017ca8:	e7ec      	b.n	10017c84 <__sprint_r.part.0+0x44>
10017caa:	f7fd ff23 	bl	10015af4 <__sfvwrite_r>
10017cae:	2300      	movs	r3, #0
10017cb0:	e9c8 3301 	strd	r3, r3, [r8, #4]
10017cb4:	e8bd 8ff8 	ldmia.w	sp!, {r3, r4, r5, r6, r7, r8, r9, sl, fp, pc}

10017cb8 <__sprint_r>:
10017cb8:	b410      	push	{r4}
10017cba:	6894      	ldr	r4, [r2, #8]
10017cbc:	b11c      	cbz	r4, 10017cc6 <__sprint_r+0xe>
10017cbe:	f85d 4b04 	ldr.w	r4, [sp], #4
10017cc2:	f7ff bfbd 	b.w	10017c40 <__sprint_r.part.0>
10017cc6:	4620      	mov	r0, r4
10017cc8:	6054      	str	r4, [r2, #4]
10017cca:	f85d 4b04 	ldr.w	r4, [sp], #4
10017cce:	4770      	bx	lr

10017cd0 <_vfiprintf_r>:
10017cd0:	e92d 4ff0 	stmdb	sp!, {r4, r5, r6, r7, r8, r9, sl, fp, lr}
10017cd4:	b0c7      	sub	sp, #284	@ 0x11c
10017cd6:	af16      	add	r7, sp, #88	@ 0x58
10017cd8:	4683      	mov	fp, r0
10017cda:	9103      	str	r1, [sp, #12]
10017cdc:	9206      	str	r2, [sp, #24]
10017cde:	2100      	movs	r1, #0
10017ce0:	2208      	movs	r2, #8
10017ce2:	4638      	mov	r0, r7
10017ce4:	461c      	mov	r4, r3
10017ce6:	930a      	str	r3, [sp, #40]	@ 0x28
10017ce8:	f7fc f99a 	bl	10014020 <memset>
10017cec:	f1bb 0f00 	cmp.w	fp, #0
10017cf0:	d004      	beq.n	10017cfc <_vfiprintf_r+0x2c>
10017cf2:	f8db 3034 	ldr.w	r3, [fp, #52]	@ 0x34
10017cf6:	2b00      	cmp	r3, #0
10017cf8:	f000 86b8 	beq.w	10018a6c <_vfiprintf_r+0xd9c>
10017cfc:	9a03      	ldr	r2, [sp, #12]
10017cfe:	6e53      	ldr	r3, [r2, #100]	@ 0x64
10017d00:	f9b2 200c 	ldrsh.w	r2, [r2, #12]
10017d04:	07db      	lsls	r3, r3, #31
10017d06:	d402      	bmi.n	10017d0e <_vfiprintf_r+0x3e>
10017d08:	0596      	lsls	r6, r2, #22
10017d0a:	f140 859d 	bpl.w	10018848 <_vfiprintf_r+0xb78>
10017d0e:	0495      	lsls	r5, r2, #18
10017d10:	d407      	bmi.n	10017d22 <_vfiprintf_r+0x52>
10017d12:	9903      	ldr	r1, [sp, #12]
10017d14:	6e4b      	ldr	r3, [r1, #100]	@ 0x64
10017d16:	f442 5200 	orr.w	r2, r2, #8192	@ 0x2000
10017d1a:	f423 5300 	bic.w	r3, r3, #8192	@ 0x2000
10017d1e:	818a      	strh	r2, [r1, #12]
10017d20:	664b      	str	r3, [r1, #100]	@ 0x64
10017d22:	0710      	lsls	r0, r2, #28
10017d24:	f140 80c9 	bpl.w	10017eba <_vfiprintf_r+0x1ea>
10017d28:	9b03      	ldr	r3, [sp, #12]
10017d2a:	691b      	ldr	r3, [r3, #16]
10017d2c:	2b00      	cmp	r3, #0
10017d2e:	f000 80c4 	beq.w	10017eba <_vfiprintf_r+0x1ea>
10017d32:	f002 031a 	and.w	r3, r2, #26
10017d36:	2b0a      	cmp	r3, #10
10017d38:	f000 80ce 	beq.w	10017ed8 <_vfiprintf_r+0x208>
10017d3c:	2300      	movs	r3, #0
10017d3e:	e9cd 331b 	strd	r3, r3, [sp, #108]	@ 0x6c
10017d42:	e9cd 330e 	strd	r3, r3, [sp, #56]	@ 0x38
10017d46:	aa1d      	add	r2, sp, #116	@ 0x74
10017d48:	f8df a904 	ldr.w	sl, [pc, #2308]	@ 10018650 <_vfiprintf_r+0x980>
10017d4c:	930d      	str	r3, [sp, #52]	@ 0x34
10017d4e:	921a      	str	r2, [sp, #104]	@ 0x68
10017d50:	4691      	mov	r9, r2
10017d52:	9310      	str	r3, [sp, #64]	@ 0x40
10017d54:	9307      	str	r3, [sp, #28]
10017d56:	9d06      	ldr	r5, [sp, #24]
10017d58:	f8da 40e4 	ldr.w	r4, [sl, #228]	@ 0xe4
10017d5c:	f7fc fa1c 	bl	10014198 <__locale_mb_cur_max>
10017d60:	462a      	mov	r2, r5
10017d62:	4603      	mov	r3, r0
10017d64:	a914      	add	r1, sp, #80	@ 0x50
10017d66:	9700      	str	r7, [sp, #0]
10017d68:	4658      	mov	r0, fp
10017d6a:	47a0      	blx	r4
10017d6c:	2800      	cmp	r0, #0
10017d6e:	f000 80d2 	beq.w	10017f16 <_vfiprintf_r+0x246>
10017d72:	f2c0 80c8 	blt.w	10017f06 <_vfiprintf_r+0x236>
10017d76:	9a14      	ldr	r2, [sp, #80]	@ 0x50
10017d78:	2a25      	cmp	r2, #37	@ 0x25
10017d7a:	4603      	mov	r3, r0
10017d7c:	d001      	beq.n	10017d82 <_vfiprintf_r+0xb2>
10017d7e:	441d      	add	r5, r3
10017d80:	e7ea      	b.n	10017d58 <_vfiprintf_r+0x88>
10017d82:	9b06      	ldr	r3, [sp, #24]
10017d84:	1aee      	subs	r6, r5, r3
10017d86:	4604      	mov	r4, r0
10017d88:	f040 80c9 	bne.w	10017f1e <_vfiprintf_r+0x24e>
10017d8c:	2300      	movs	r3, #0
10017d8e:	f04f 31ff 	mov.w	r1, #4294967295	@ 0xffffffff
10017d92:	786a      	ldrb	r2, [r5, #1]
10017d94:	f88d 304b 	strb.w	r3, [sp, #75]	@ 0x4b
10017d98:	9308      	str	r3, [sp, #32]
10017d9a:	1c6c      	adds	r4, r5, #1
10017d9c:	9105      	str	r1, [sp, #20]
10017d9e:	9302      	str	r3, [sp, #8]
10017da0:	3401      	adds	r4, #1
10017da2:	f1a2 0320 	sub.w	r3, r2, #32
10017da6:	2b5a      	cmp	r3, #90	@ 0x5a
10017da8:	f200 80ff 	bhi.w	10017faa <_vfiprintf_r+0x2da>
10017dac:	e8df f013 	tbh	[pc, r3, lsl #1]
10017db0:	00fd0300 	.word	0x00fd0300
10017db4:	02fa00fd 	.word	0x02fa00fd
10017db8:	00fd00fd 	.word	0x00fd00fd
10017dbc:	006b00fd 	.word	0x006b00fd
10017dc0:	00fd00fd 	.word	0x00fd00fd
10017dc4:	032a0215 	.word	0x032a0215
10017dc8:	022000fd 	.word	0x022000fd
10017dcc:	00fd0310 	.word	0x00fd0310
10017dd0:	005b030a 	.word	0x005b030a
10017dd4:	005b005b 	.word	0x005b005b
10017dd8:	005b005b 	.word	0x005b005b
10017ddc:	005b005b 	.word	0x005b005b
10017de0:	005b005b 	.word	0x005b005b
10017de4:	00fd00fd 	.word	0x00fd00fd
10017de8:	00fd00fd 	.word	0x00fd00fd
10017dec:	00fd00fd 	.word	0x00fd00fd
10017df0:	00fd00fd 	.word	0x00fd00fd
10017df4:	01cb00fd 	.word	0x01cb00fd
10017df8:	00fd025a 	.word	0x00fd025a
10017dfc:	00fd00fd 	.word	0x00fd00fd
10017e00:	00fd00fd 	.word	0x00fd00fd
10017e04:	00fd00fd 	.word	0x00fd00fd
10017e08:	00fd00fd 	.word	0x00fd00fd
10017e0c:	022600fd 	.word	0x022600fd
10017e10:	00fd00fd 	.word	0x00fd00fd
10017e14:	01a300fd 	.word	0x01a300fd
10017e18:	027300fd 	.word	0x027300fd
10017e1c:	00fd00fd 	.word	0x00fd00fd
10017e20:	00fd058c 	.word	0x00fd058c
10017e24:	00fd00fd 	.word	0x00fd00fd
10017e28:	00fd00fd 	.word	0x00fd00fd
10017e2c:	00fd00fd 	.word	0x00fd00fd
10017e30:	00fd00fd 	.word	0x00fd00fd
10017e34:	01cb00fd 	.word	0x01cb00fd
10017e38:	00fd01f0 	.word	0x00fd01f0
10017e3c:	00fd00fd 	.word	0x00fd00fd
10017e40:	01f002c1 	.word	0x01f002c1
10017e44:	00fd007f 	.word	0x00fd007f
10017e48:	00fd032f 	.word	0x00fd032f
10017e4c:	058902eb 	.word	0x058902eb
10017e50:	007f02ca 	.word	0x007f02ca
10017e54:	01a300fd 	.word	0x01a300fd
10017e58:	0586007d 	.word	0x0586007d
10017e5c:	00fd00fd 	.word	0x00fd00fd
10017e60:	00fd05af 	.word	0x00fd05af
10017e64:	007d      	.short	0x007d
10017e66:	f1a2 0330 	sub.w	r3, r2, #48	@ 0x30
10017e6a:	2200      	movs	r2, #0
10017e6c:	4611      	mov	r1, r2
10017e6e:	f814 2b01 	ldrb.w	r2, [r4], #1
10017e72:	eb01 0181 	add.w	r1, r1, r1, lsl #2
10017e76:	eb03 0141 	add.w	r1, r3, r1, lsl #1
10017e7a:	f1a2 0330 	sub.w	r3, r2, #48	@ 0x30
10017e7e:	2b09      	cmp	r3, #9
10017e80:	d9f5      	bls.n	10017e6e <_vfiprintf_r+0x19e>
10017e82:	9108      	str	r1, [sp, #32]
10017e84:	e78d      	b.n	10017da2 <_vfiprintf_r+0xd2>
10017e86:	4658      	mov	r0, fp
10017e88:	f7fc f98c 	bl	100141a4 <_localeconv_r>
10017e8c:	6843      	ldr	r3, [r0, #4]
10017e8e:	9310      	str	r3, [sp, #64]	@ 0x40
10017e90:	4618      	mov	r0, r3
10017e92:	f7fd fb95 	bl	100155c0 <strlen>
10017e96:	900f      	str	r0, [sp, #60]	@ 0x3c
10017e98:	4605      	mov	r5, r0
10017e9a:	4658      	mov	r0, fp
10017e9c:	f7fc f982 	bl	100141a4 <_localeconv_r>
10017ea0:	6883      	ldr	r3, [r0, #8]
10017ea2:	930e      	str	r3, [sp, #56]	@ 0x38
10017ea4:	2d00      	cmp	r5, #0
10017ea6:	f040 84e3 	bne.w	10018870 <_vfiprintf_r+0xba0>
10017eaa:	7822      	ldrb	r2, [r4, #0]
10017eac:	e778      	b.n	10017da0 <_vfiprintf_r+0xd0>
10017eae:	9b02      	ldr	r3, [sp, #8]
10017eb0:	7822      	ldrb	r2, [r4, #0]
10017eb2:	f043 0320 	orr.w	r3, r3, #32
10017eb6:	9302      	str	r3, [sp, #8]
10017eb8:	e772      	b.n	10017da0 <_vfiprintf_r+0xd0>
10017eba:	9d03      	ldr	r5, [sp, #12]
10017ebc:	4658      	mov	r0, fp
10017ebe:	4629      	mov	r1, r5
10017ec0:	f001 f870 	bl	10018fa4 <__swsetup_r>
10017ec4:	2800      	cmp	r0, #0
10017ec6:	f040 86a3 	bne.w	10018c10 <_vfiprintf_r+0xf40>
10017eca:	f9b5 200c 	ldrsh.w	r2, [r5, #12]
10017ece:	f002 031a 	and.w	r3, r2, #26
10017ed2:	2b0a      	cmp	r3, #10
10017ed4:	f47f af32 	bne.w	10017d3c <_vfiprintf_r+0x6c>
10017ed8:	9903      	ldr	r1, [sp, #12]
10017eda:	f9b1 300e 	ldrsh.w	r3, [r1, #14]
10017ede:	2b00      	cmp	r3, #0
10017ee0:	f6ff af2c 	blt.w	10017d3c <_vfiprintf_r+0x6c>
10017ee4:	6e4b      	ldr	r3, [r1, #100]	@ 0x64
10017ee6:	07db      	lsls	r3, r3, #31
10017ee8:	d402      	bmi.n	10017ef0 <_vfiprintf_r+0x220>
10017eea:	0597      	lsls	r7, r2, #22
10017eec:	f140 865b 	bpl.w	10018ba6 <_vfiprintf_r+0xed6>
10017ef0:	9a06      	ldr	r2, [sp, #24]
10017ef2:	9903      	ldr	r1, [sp, #12]
10017ef4:	4623      	mov	r3, r4
10017ef6:	4658      	mov	r0, fp
10017ef8:	f000 febe 	bl	10018c78 <__sbprintf>
10017efc:	9007      	str	r0, [sp, #28]
10017efe:	9807      	ldr	r0, [sp, #28]
10017f00:	b047      	add	sp, #284	@ 0x11c
10017f02:	e8bd 8ff0 	ldmia.w	sp!, {r4, r5, r6, r7, r8, r9, sl, fp, pc}
10017f06:	2208      	movs	r2, #8
10017f08:	2100      	movs	r1, #0
10017f0a:	4638      	mov	r0, r7
10017f0c:	f7fc f888 	bl	10014020 <memset>
10017f10:	2301      	movs	r3, #1
10017f12:	441d      	add	r5, r3
10017f14:	e720      	b.n	10017d58 <_vfiprintf_r+0x88>
10017f16:	9b06      	ldr	r3, [sp, #24]
10017f18:	1aee      	subs	r6, r5, r3
10017f1a:	4604      	mov	r4, r0
10017f1c:	d012      	beq.n	10017f44 <_vfiprintf_r+0x274>
10017f1e:	9b06      	ldr	r3, [sp, #24]
10017f20:	9a1c      	ldr	r2, [sp, #112]	@ 0x70
10017f22:	e9c9 3600 	strd	r3, r6, [r9]
10017f26:	9b1b      	ldr	r3, [sp, #108]	@ 0x6c
10017f28:	3301      	adds	r3, #1
10017f2a:	4432      	add	r2, r6
10017f2c:	2b07      	cmp	r3, #7
10017f2e:	921c      	str	r2, [sp, #112]	@ 0x70
10017f30:	931b      	str	r3, [sp, #108]	@ 0x6c
10017f32:	dc11      	bgt.n	10017f58 <_vfiprintf_r+0x288>
10017f34:	f109 0908 	add.w	r9, r9, #8
10017f38:	9b07      	ldr	r3, [sp, #28]
10017f3a:	4433      	add	r3, r6
10017f3c:	9307      	str	r3, [sp, #28]
10017f3e:	2c00      	cmp	r4, #0
10017f40:	f47f af24 	bne.w	10017d8c <_vfiprintf_r+0xbc>
10017f44:	9b1c      	ldr	r3, [sp, #112]	@ 0x70
10017f46:	2b00      	cmp	r3, #0
10017f48:	f040 864d 	bne.w	10018be6 <_vfiprintf_r+0xf16>
10017f4c:	9b03      	ldr	r3, [sp, #12]
10017f4e:	2200      	movs	r2, #0
10017f50:	f9b3 300c 	ldrsh.w	r3, [r3, #12]
10017f54:	921b      	str	r2, [sp, #108]	@ 0x6c
10017f56:	e01c      	b.n	10017f92 <_vfiprintf_r+0x2c2>
10017f58:	2a00      	cmp	r2, #0
10017f5a:	f000 842d 	beq.w	100187b8 <_vfiprintf_r+0xae8>
10017f5e:	9903      	ldr	r1, [sp, #12]
10017f60:	aa1a      	add	r2, sp, #104	@ 0x68
10017f62:	4658      	mov	r0, fp
10017f64:	f7ff fe6c 	bl	10017c40 <__sprint_r.part.0>
10017f68:	b980      	cbnz	r0, 10017f8c <_vfiprintf_r+0x2bc>
10017f6a:	f10d 0974 	add.w	r9, sp, #116	@ 0x74
10017f6e:	e7e3      	b.n	10017f38 <_vfiprintf_r+0x268>
10017f70:	9903      	ldr	r1, [sp, #12]
10017f72:	aa1a      	add	r2, sp, #104	@ 0x68
10017f74:	4658      	mov	r0, fp
10017f76:	f7ff fe63 	bl	10017c40 <__sprint_r.part.0>
10017f7a:	2800      	cmp	r0, #0
10017f7c:	f000 80a6 	beq.w	100180cc <_vfiprintf_r+0x3fc>
10017f80:	9b0b      	ldr	r3, [sp, #44]	@ 0x2c
10017f82:	b11b      	cbz	r3, 10017f8c <_vfiprintf_r+0x2bc>
10017f84:	990b      	ldr	r1, [sp, #44]	@ 0x2c
10017f86:	4658      	mov	r0, fp
10017f88:	f7fd fc1a 	bl	100157c0 <_free_r>
10017f8c:	9b03      	ldr	r3, [sp, #12]
10017f8e:	f9b3 300c 	ldrsh.w	r3, [r3, #12]
10017f92:	9a03      	ldr	r2, [sp, #12]
10017f94:	6e52      	ldr	r2, [r2, #100]	@ 0x64
10017f96:	07d1      	lsls	r1, r2, #31
10017f98:	f140 80a3 	bpl.w	100180e2 <_vfiprintf_r+0x412>
10017f9c:	065b      	lsls	r3, r3, #25
10017f9e:	f100 8643 	bmi.w	10018c28 <_vfiprintf_r+0xf58>
10017fa2:	9807      	ldr	r0, [sp, #28]
10017fa4:	b047      	add	sp, #284	@ 0x11c
10017fa6:	e8bd 8ff0 	ldmia.w	sp!, {r4, r5, r6, r7, r8, r9, sl, fp, pc}
10017faa:	9406      	str	r4, [sp, #24]
10017fac:	2a00      	cmp	r2, #0
10017fae:	d0c9      	beq.n	10017f44 <_vfiprintf_r+0x274>
10017fb0:	2300      	movs	r3, #0
10017fb2:	f88d 304b 	strb.w	r3, [sp, #75]	@ 0x4b
10017fb6:	2301      	movs	r3, #1
10017fb8:	f88d 20b4 	strb.w	r2, [sp, #180]	@ 0xb4
10017fbc:	9304      	str	r3, [sp, #16]
10017fbe:	9309      	str	r3, [sp, #36]	@ 0x24
10017fc0:	ac2d      	add	r4, sp, #180	@ 0xb4
10017fc2:	2300      	movs	r3, #0
10017fc4:	930b      	str	r3, [sp, #44]	@ 0x2c
10017fc6:	9305      	str	r3, [sp, #20]
10017fc8:	9b02      	ldr	r3, [sp, #8]
10017fca:	f013 0302 	ands.w	r3, r3, #2
10017fce:	d002      	beq.n	10017fd6 <_vfiprintf_r+0x306>
10017fd0:	9a04      	ldr	r2, [sp, #16]
10017fd2:	3202      	adds	r2, #2
10017fd4:	9204      	str	r2, [sp, #16]
10017fd6:	e9dd 2c1b 	ldrd	r2, ip, [sp, #108]	@ 0x6c
10017fda:	9d02      	ldr	r5, [sp, #8]
10017fdc:	1c50      	adds	r0, r2, #1
10017fde:	f015 0584 	ands.w	r5, r5, #132	@ 0x84
10017fe2:	4601      	mov	r1, r0
10017fe4:	950c      	str	r5, [sp, #48]	@ 0x30
10017fe6:	d105      	bne.n	10017ff4 <_vfiprintf_r+0x324>
10017fe8:	9d08      	ldr	r5, [sp, #32]
10017fea:	9e04      	ldr	r6, [sp, #16]
10017fec:	1bad      	subs	r5, r5, r6
10017fee:	2d00      	cmp	r5, #0
10017ff0:	f300 8332 	bgt.w	10018658 <_vfiprintf_r+0x988>
10017ff4:	f89d 004b 	ldrb.w	r0, [sp, #75]	@ 0x4b
10017ff8:	b188      	cbz	r0, 1001801e <_vfiprintf_r+0x34e>
10017ffa:	2201      	movs	r2, #1
10017ffc:	f10c 0c01 	add.w	ip, ip, #1
10018000:	f8c9 2004 	str.w	r2, [r9, #4]
10018004:	2907      	cmp	r1, #7
10018006:	f10d 024b 	add.w	r2, sp, #75	@ 0x4b
1001800a:	e9cd 1c1b 	strd	r1, ip, [sp, #108]	@ 0x6c
1001800e:	f8c9 2000 	str.w	r2, [r9]
10018012:	f300 82e1 	bgt.w	100185d8 <_vfiprintf_r+0x908>
10018016:	460a      	mov	r2, r1
10018018:	f109 0908 	add.w	r9, r9, #8
1001801c:	3101      	adds	r1, #1
1001801e:	b1eb      	cbz	r3, 1001805c <_vfiprintf_r+0x38c>
10018020:	ab13      	add	r3, sp, #76	@ 0x4c
10018022:	f10c 0c02 	add.w	ip, ip, #2
10018026:	f8c9 3000 	str.w	r3, [r9]
1001802a:	2907      	cmp	r1, #7
1001802c:	f04f 0302 	mov.w	r3, #2
10018030:	e9cd 1c1b 	strd	r1, ip, [sp, #108]	@ 0x6c
10018034:	f8c9 3004 	str.w	r3, [r9, #4]
10018038:	f340 82ec 	ble.w	10018614 <_vfiprintf_r+0x944>
1001803c:	f1bc 0f00 	cmp.w	ip, #0
10018040:	f000 83db 	beq.w	100187fa <_vfiprintf_r+0xb2a>
10018044:	9903      	ldr	r1, [sp, #12]
10018046:	aa1a      	add	r2, sp, #104	@ 0x68
10018048:	4658      	mov	r0, fp
1001804a:	f7ff fdf9 	bl	10017c40 <__sprint_r.part.0>
1001804e:	2800      	cmp	r0, #0
10018050:	d196      	bne.n	10017f80 <_vfiprintf_r+0x2b0>
10018052:	e9dd 2c1b 	ldrd	r2, ip, [sp, #108]	@ 0x6c
10018056:	f10d 0974 	add.w	r9, sp, #116	@ 0x74
1001805a:	1c51      	adds	r1, r2, #1
1001805c:	9b0c      	ldr	r3, [sp, #48]	@ 0x30
1001805e:	2b80      	cmp	r3, #128	@ 0x80
10018060:	f000 8213 	beq.w	1001848a <_vfiprintf_r+0x7ba>
10018064:	9b05      	ldr	r3, [sp, #20]
10018066:	9809      	ldr	r0, [sp, #36]	@ 0x24
10018068:	1a1d      	subs	r5, r3, r0
1001806a:	2d00      	cmp	r5, #0
1001806c:	f300 8268 	bgt.w	10018540 <_vfiprintf_r+0x870>
10018070:	9a09      	ldr	r2, [sp, #36]	@ 0x24
10018072:	f8c9 4000 	str.w	r4, [r9]
10018076:	eb02 030c 	add.w	r3, r2, ip
1001807a:	2907      	cmp	r1, #7
1001807c:	e9cd 131b 	strd	r1, r3, [sp, #108]	@ 0x6c
10018080:	f8c9 2004 	str.w	r2, [r9, #4]
10018084:	f340 81fe 	ble.w	10018484 <_vfiprintf_r+0x7b4>
10018088:	2b00      	cmp	r3, #0
1001808a:	f000 832c 	beq.w	100186e6 <_vfiprintf_r+0xa16>
1001808e:	9903      	ldr	r1, [sp, #12]
10018090:	aa1a      	add	r2, sp, #104	@ 0x68
10018092:	4658      	mov	r0, fp
10018094:	f7ff fdd4 	bl	10017c40 <__sprint_r.part.0>
10018098:	2800      	cmp	r0, #0
1001809a:	f47f af71 	bne.w	10017f80 <_vfiprintf_r+0x2b0>
1001809e:	9b1c      	ldr	r3, [sp, #112]	@ 0x70
100180a0:	f10d 0974 	add.w	r9, sp, #116	@ 0x74
100180a4:	9a02      	ldr	r2, [sp, #8]
100180a6:	0750      	lsls	r0, r2, #29
100180a8:	d505      	bpl.n	100180b6 <_vfiprintf_r+0x3e6>
100180aa:	9a08      	ldr	r2, [sp, #32]
100180ac:	9904      	ldr	r1, [sp, #16]
100180ae:	1a54      	subs	r4, r2, r1
100180b0:	2c00      	cmp	r4, #0
100180b2:	f300 8323 	bgt.w	100186fc <_vfiprintf_r+0xa2c>
100180b6:	e9dd 2107 	ldrd	r2, r1, [sp, #28]
100180ba:	9804      	ldr	r0, [sp, #16]
100180bc:	4281      	cmp	r1, r0
100180be:	bfac      	ite	ge
100180c0:	1852      	addge	r2, r2, r1
100180c2:	1812      	addlt	r2, r2, r0
100180c4:	9207      	str	r2, [sp, #28]
100180c6:	2b00      	cmp	r3, #0
100180c8:	f47f af52 	bne.w	10017f70 <_vfiprintf_r+0x2a0>
100180cc:	2300      	movs	r3, #0
100180ce:	931b      	str	r3, [sp, #108]	@ 0x6c
100180d0:	9b0b      	ldr	r3, [sp, #44]	@ 0x2c
100180d2:	b11b      	cbz	r3, 100180dc <_vfiprintf_r+0x40c>
100180d4:	4619      	mov	r1, r3
100180d6:	4658      	mov	r0, fp
100180d8:	f7fd fb72 	bl	100157c0 <_free_r>
100180dc:	f10d 0974 	add.w	r9, sp, #116	@ 0x74
100180e0:	e639      	b.n	10017d56 <_vfiprintf_r+0x86>
100180e2:	059a      	lsls	r2, r3, #22
100180e4:	f53f af5a 	bmi.w	10017f9c <_vfiprintf_r+0x2cc>
100180e8:	9c03      	ldr	r4, [sp, #12]
100180ea:	6da0      	ldr	r0, [r4, #88]	@ 0x58
100180ec:	f7fc f852 	bl	10014194 <__retarget_lock_release_recursive>
100180f0:	f9b4 300c 	ldrsh.w	r3, [r4, #12]
100180f4:	e752      	b.n	10017f9c <_vfiprintf_r+0x2cc>
100180f6:	9e0a      	ldr	r6, [sp, #40]	@ 0x28
100180f8:	9406      	str	r4, [sp, #24]
100180fa:	f856 4b04 	ldr.w	r4, [r6], #4
100180fe:	2300      	movs	r3, #0
10018100:	f88d 304b 	strb.w	r3, [sp, #75]	@ 0x4b
10018104:	2c00      	cmp	r4, #0
10018106:	f000 84c9 	beq.w	10018a9c <_vfiprintf_r+0xdcc>
1001810a:	2a53      	cmp	r2, #83	@ 0x53
1001810c:	f000 8422 	beq.w	10018954 <_vfiprintf_r+0xc84>
10018110:	9b02      	ldr	r3, [sp, #8]
10018112:	f013 0510 	ands.w	r5, r3, #16
10018116:	f040 841d 	bne.w	10018954 <_vfiprintf_r+0xc84>
1001811a:	9b05      	ldr	r3, [sp, #20]
1001811c:	1c5a      	adds	r2, r3, #1
1001811e:	f000 854e 	beq.w	10018bbe <_vfiprintf_r+0xeee>
10018122:	461a      	mov	r2, r3
10018124:	4629      	mov	r1, r5
10018126:	4620      	mov	r0, r4
10018128:	f7fd f95a 	bl	100153e0 <memchr>
1001812c:	900b      	str	r0, [sp, #44]	@ 0x2c
1001812e:	2800      	cmp	r0, #0
10018130:	f000 853e 	beq.w	10018bb0 <_vfiprintf_r+0xee0>
10018134:	1b03      	subs	r3, r0, r4
10018136:	9309      	str	r3, [sp, #36]	@ 0x24
10018138:	ea23 73e3 	bic.w	r3, r3, r3, asr #31
1001813c:	9505      	str	r5, [sp, #20]
1001813e:	960a      	str	r6, [sp, #40]	@ 0x28
10018140:	9304      	str	r3, [sp, #16]
10018142:	950b      	str	r5, [sp, #44]	@ 0x2c
10018144:	e18d      	b.n	10018462 <_vfiprintf_r+0x792>
10018146:	9b0a      	ldr	r3, [sp, #40]	@ 0x28
10018148:	9406      	str	r4, [sp, #24]
1001814a:	2a43      	cmp	r2, #67	@ 0x43
1001814c:	f103 0504 	add.w	r5, r3, #4
10018150:	d003      	beq.n	1001815a <_vfiprintf_r+0x48a>
10018152:	9b02      	ldr	r3, [sp, #8]
10018154:	06de      	lsls	r6, r3, #27
10018156:	f140 83e5 	bpl.w	10018924 <_vfiprintf_r+0xc54>
1001815a:	2208      	movs	r2, #8
1001815c:	2100      	movs	r1, #0
1001815e:	a818      	add	r0, sp, #96	@ 0x60
10018160:	f7fb ff5e 	bl	10014020 <memset>
10018164:	9b0a      	ldr	r3, [sp, #40]	@ 0x28
10018166:	ac2d      	add	r4, sp, #180	@ 0xb4
10018168:	681a      	ldr	r2, [r3, #0]
1001816a:	4621      	mov	r1, r4
1001816c:	ab18      	add	r3, sp, #96	@ 0x60
1001816e:	4658      	mov	r0, fp
10018170:	f7fb ffa8 	bl	100140c4 <_wcrtomb_r>
10018174:	4603      	mov	r3, r0
10018176:	3301      	adds	r3, #1
10018178:	9009      	str	r0, [sp, #36]	@ 0x24
1001817a:	f000 8541 	beq.w	10018c00 <_vfiprintf_r+0xf30>
1001817e:	9b09      	ldr	r3, [sp, #36]	@ 0x24
10018180:	ea23 73e3 	bic.w	r3, r3, r3, asr #31
10018184:	9304      	str	r3, [sp, #16]
10018186:	2300      	movs	r3, #0
10018188:	950a      	str	r5, [sp, #40]	@ 0x28
1001818a:	f88d 304b 	strb.w	r3, [sp, #75]	@ 0x4b
1001818e:	e718      	b.n	10017fc2 <_vfiprintf_r+0x2f2>
10018190:	9b02      	ldr	r3, [sp, #8]
10018192:	9406      	str	r4, [sp, #24]
10018194:	069c      	lsls	r4, r3, #26
10018196:	d56d      	bpl.n	10018274 <_vfiprintf_r+0x5a4>
10018198:	9b0a      	ldr	r3, [sp, #40]	@ 0x28
1001819a:	3307      	adds	r3, #7
1001819c:	f023 0307 	bic.w	r3, r3, #7
100181a0:	4619      	mov	r1, r3
100181a2:	685a      	ldr	r2, [r3, #4]
100181a4:	f851 3b08 	ldr.w	r3, [r1], #8
100181a8:	910a      	str	r1, [sp, #40]	@ 0x28
100181aa:	4611      	mov	r1, r2
100181ac:	2a00      	cmp	r2, #0
100181ae:	f2c0 8137 	blt.w	10018420 <_vfiprintf_r+0x750>
100181b2:	9a05      	ldr	r2, [sp, #20]
100181b4:	3201      	adds	r2, #1
100181b6:	f000 8140 	beq.w	1001843a <_vfiprintf_r+0x76a>
100181ba:	9a02      	ldr	r2, [sp, #8]
100181bc:	f022 0280 	bic.w	r2, r2, #128	@ 0x80
100181c0:	9202      	str	r2, [sp, #8]
100181c2:	ea53 0201 	orrs.w	r2, r3, r1
100181c6:	f040 8138 	bne.w	1001843a <_vfiprintf_r+0x76a>
100181ca:	9b05      	ldr	r3, [sp, #20]
100181cc:	2b00      	cmp	r3, #0
100181ce:	f040 8508 	bne.w	10018be2 <_vfiprintf_r+0xf12>
100181d2:	9304      	str	r3, [sp, #16]
100181d4:	9309      	str	r3, [sp, #36]	@ 0x24
100181d6:	ac46      	add	r4, sp, #280	@ 0x118
100181d8:	e141      	b.n	1001845e <_vfiprintf_r+0x78e>
100181da:	9b0a      	ldr	r3, [sp, #40]	@ 0x28
100181dc:	f853 2b04 	ldr.w	r2, [r3], #4
100181e0:	9208      	str	r2, [sp, #32]
100181e2:	2a00      	cmp	r2, #0
100181e4:	f280 8328 	bge.w	10018838 <_vfiprintf_r+0xb68>
100181e8:	9a08      	ldr	r2, [sp, #32]
100181ea:	930a      	str	r3, [sp, #40]	@ 0x28
100181ec:	4252      	negs	r2, r2
100181ee:	9208      	str	r2, [sp, #32]
100181f0:	9b02      	ldr	r3, [sp, #8]
100181f2:	7822      	ldrb	r2, [r4, #0]
100181f4:	f043 0304 	orr.w	r3, r3, #4
100181f8:	9302      	str	r3, [sp, #8]
100181fa:	e5d1      	b.n	10017da0 <_vfiprintf_r+0xd0>
100181fc:	9b02      	ldr	r3, [sp, #8]
100181fe:	9406      	str	r4, [sp, #24]
10018200:	f043 0210 	orr.w	r2, r3, #16
10018204:	f012 0120 	ands.w	r1, r2, #32
10018208:	f000 82e8 	beq.w	100187dc <_vfiprintf_r+0xb0c>
1001820c:	9b0a      	ldr	r3, [sp, #40]	@ 0x28
1001820e:	3307      	adds	r3, #7
10018210:	f023 0307 	bic.w	r3, r3, #7
10018214:	4618      	mov	r0, r3
10018216:	6859      	ldr	r1, [r3, #4]
10018218:	f850 3b08 	ldr.w	r3, [r0], #8
1001821c:	900a      	str	r0, [sp, #40]	@ 0x28
1001821e:	f422 6480 	bic.w	r4, r2, #1024	@ 0x400
10018222:	9402      	str	r4, [sp, #8]
10018224:	9c05      	ldr	r4, [sp, #20]
10018226:	2000      	movs	r0, #0
10018228:	3401      	adds	r4, #1
1001822a:	f88d 004b 	strb.w	r0, [sp, #75]	@ 0x4b
1001822e:	d05d      	beq.n	100182ec <_vfiprintf_r+0x61c>
10018230:	ea53 0401 	orrs.w	r4, r3, r1
10018234:	f422 6290 	bic.w	r2, r2, #1152	@ 0x480
10018238:	f040 8414 	bne.w	10018a64 <_vfiprintf_r+0xd94>
1001823c:	9c02      	ldr	r4, [sp, #8]
1001823e:	9202      	str	r2, [sp, #8]
10018240:	9b05      	ldr	r3, [sp, #20]
10018242:	2b00      	cmp	r3, #0
10018244:	d14a      	bne.n	100182dc <_vfiprintf_r+0x60c>
10018246:	2800      	cmp	r0, #0
10018248:	f040 82f1 	bne.w	1001882e <_vfiprintf_r+0xb5e>
1001824c:	f014 0201 	ands.w	r2, r4, #1
10018250:	9209      	str	r2, [sp, #36]	@ 0x24
10018252:	f000 82f5 	beq.w	10018840 <_vfiprintf_r+0xb70>
10018256:	2330      	movs	r3, #48	@ 0x30
10018258:	f88d 3117 	strb.w	r3, [sp, #279]	@ 0x117
1001825c:	9204      	str	r2, [sp, #16]
1001825e:	f20d 1417 	addw	r4, sp, #279	@ 0x117
10018262:	e0fc      	b.n	1001845e <_vfiprintf_r+0x78e>
10018264:	9b02      	ldr	r3, [sp, #8]
10018266:	9406      	str	r4, [sp, #24]
10018268:	f043 0310 	orr.w	r3, r3, #16
1001826c:	9302      	str	r3, [sp, #8]
1001826e:	9b02      	ldr	r3, [sp, #8]
10018270:	069c      	lsls	r4, r3, #26
10018272:	d491      	bmi.n	10018198 <_vfiprintf_r+0x4c8>
10018274:	9a0a      	ldr	r2, [sp, #40]	@ 0x28
10018276:	f852 3b04 	ldr.w	r3, [r2], #4
1001827a:	920a      	str	r2, [sp, #40]	@ 0x28
1001827c:	9a02      	ldr	r2, [sp, #8]
1001827e:	06d0      	lsls	r0, r2, #27
10018280:	f100 82f3 	bmi.w	1001886a <_vfiprintf_r+0xb9a>
10018284:	9a02      	ldr	r2, [sp, #8]
10018286:	0651      	lsls	r1, r2, #25
10018288:	f140 82eb 	bpl.w	10018862 <_vfiprintf_r+0xb92>
1001828c:	f343 31c0 	sbfx	r1, r3, #15, #1
10018290:	460a      	mov	r2, r1
10018292:	b21b      	sxth	r3, r3
10018294:	e78a      	b.n	100181ac <_vfiprintf_r+0x4dc>
10018296:	9b02      	ldr	r3, [sp, #8]
10018298:	9406      	str	r4, [sp, #24]
1001829a:	f043 0410 	orr.w	r4, r3, #16
1001829e:	f014 0120 	ands.w	r1, r4, #32
100182a2:	f000 828c 	beq.w	100187be <_vfiprintf_r+0xaee>
100182a6:	9b0a      	ldr	r3, [sp, #40]	@ 0x28
100182a8:	3307      	adds	r3, #7
100182aa:	f023 0307 	bic.w	r3, r3, #7
100182ae:	461a      	mov	r2, r3
100182b0:	6859      	ldr	r1, [r3, #4]
100182b2:	f852 3b08 	ldr.w	r3, [r2], #8
100182b6:	920a      	str	r2, [sp, #40]	@ 0x28
100182b8:	2200      	movs	r2, #0
100182ba:	f88d 204b 	strb.w	r2, [sp, #75]	@ 0x4b
100182be:	9a05      	ldr	r2, [sp, #20]
100182c0:	3201      	adds	r2, #1
100182c2:	f000 83d1 	beq.w	10018a68 <_vfiprintf_r+0xd98>
100182c6:	f024 0280 	bic.w	r2, r4, #128	@ 0x80
100182ca:	9202      	str	r2, [sp, #8]
100182cc:	ea53 0201 	orrs.w	r2, r3, r1
100182d0:	f040 80b3 	bne.w	1001843a <_vfiprintf_r+0x76a>
100182d4:	9b05      	ldr	r3, [sp, #20]
100182d6:	2001      	movs	r0, #1
100182d8:	2b00      	cmp	r3, #0
100182da:	d0b4      	beq.n	10018246 <_vfiprintf_r+0x576>
100182dc:	2801      	cmp	r0, #1
100182de:	f000 8480 	beq.w	10018be2 <_vfiprintf_r+0xf12>
100182e2:	2300      	movs	r3, #0
100182e4:	2802      	cmp	r0, #2
100182e6:	4619      	mov	r1, r3
100182e8:	f000 8199 	beq.w	1001861e <_vfiprintf_r+0x94e>
100182ec:	ac46      	add	r4, sp, #280	@ 0x118
100182ee:	f003 0207 	and.w	r2, r3, #7
100182f2:	08db      	lsrs	r3, r3, #3
100182f4:	ea43 7341 	orr.w	r3, r3, r1, lsl #29
100182f8:	08c9      	lsrs	r1, r1, #3
100182fa:	3230      	adds	r2, #48	@ 0x30
100182fc:	ea53 0501 	orrs.w	r5, r3, r1
10018300:	4620      	mov	r0, r4
10018302:	f804 2d01 	strb.w	r2, [r4, #-1]!
10018306:	d1f2      	bne.n	100182ee <_vfiprintf_r+0x61e>
10018308:	9b02      	ldr	r3, [sp, #8]
1001830a:	07dd      	lsls	r5, r3, #31
1001830c:	f140 8195 	bpl.w	1001863a <_vfiprintf_r+0x96a>
10018310:	2a30      	cmp	r2, #48	@ 0x30
10018312:	f000 8192 	beq.w	1001863a <_vfiprintf_r+0x96a>
10018316:	2330      	movs	r3, #48	@ 0x30
10018318:	9a05      	ldr	r2, [sp, #20]
1001831a:	f804 3c01 	strb.w	r3, [r4, #-1]
1001831e:	3802      	subs	r0, #2
10018320:	ab46      	add	r3, sp, #280	@ 0x118
10018322:	1a1b      	subs	r3, r3, r0
10018324:	429a      	cmp	r2, r3
10018326:	bfb8      	it	lt
10018328:	461a      	movlt	r2, r3
1001832a:	9309      	str	r3, [sp, #36]	@ 0x24
1001832c:	4604      	mov	r4, r0
1001832e:	9204      	str	r2, [sp, #16]
10018330:	e095      	b.n	1001845e <_vfiprintf_r+0x78e>
10018332:	7822      	ldrb	r2, [r4, #0]
10018334:	9b02      	ldr	r3, [sp, #8]
10018336:	2a68      	cmp	r2, #104	@ 0x68
10018338:	f000 839d 	beq.w	10018a76 <_vfiprintf_r+0xda6>
1001833c:	f043 0340 	orr.w	r3, r3, #64	@ 0x40
10018340:	9302      	str	r3, [sp, #8]
10018342:	e52d      	b.n	10017da0 <_vfiprintf_r+0xd0>
10018344:	9b02      	ldr	r3, [sp, #8]
10018346:	9a0a      	ldr	r2, [sp, #40]	@ 0x28
10018348:	9406      	str	r4, [sp, #24]
1001834a:	f043 0302 	orr.w	r3, r3, #2
1001834e:	9302      	str	r3, [sp, #8]
10018350:	f852 3b04 	ldr.w	r3, [r2], #4
10018354:	920a      	str	r2, [sp, #40]	@ 0x28
10018356:	f647 0230 	movw	r2, #30768	@ 0x7830
1001835a:	f8ad 204c 	strh.w	r2, [sp, #76]	@ 0x4c
1001835e:	4abb      	ldr	r2, [pc, #748]	@ (1001864c <_vfiprintf_r+0x97c>)
10018360:	920d      	str	r2, [sp, #52]	@ 0x34
10018362:	2100      	movs	r1, #0
10018364:	2200      	movs	r2, #0
10018366:	f88d 204b 	strb.w	r2, [sp, #75]	@ 0x4b
1001836a:	9a05      	ldr	r2, [sp, #20]
1001836c:	3201      	adds	r2, #1
1001836e:	f000 8156 	beq.w	1001861e <_vfiprintf_r+0x94e>
10018372:	9c02      	ldr	r4, [sp, #8]
10018374:	ea53 0001 	orrs.w	r0, r3, r1
10018378:	f024 0280 	bic.w	r2, r4, #128	@ 0x80
1001837c:	9202      	str	r2, [sp, #8]
1001837e:	f040 814e 	bne.w	1001861e <_vfiprintf_r+0x94e>
10018382:	2002      	movs	r0, #2
10018384:	e75c      	b.n	10018240 <_vfiprintf_r+0x570>
10018386:	9b02      	ldr	r3, [sp, #8]
10018388:	9406      	str	r4, [sp, #24]
1001838a:	069b      	lsls	r3, r3, #26
1001838c:	f140 827f 	bpl.w	1001888e <_vfiprintf_r+0xbbe>
10018390:	9b0a      	ldr	r3, [sp, #40]	@ 0x28
10018392:	9a07      	ldr	r2, [sp, #28]
10018394:	681b      	ldr	r3, [r3, #0]
10018396:	601a      	str	r2, [r3, #0]
10018398:	17d2      	asrs	r2, r2, #31
1001839a:	605a      	str	r2, [r3, #4]
1001839c:	9b0a      	ldr	r3, [sp, #40]	@ 0x28
1001839e:	3304      	adds	r3, #4
100183a0:	930a      	str	r3, [sp, #40]	@ 0x28
100183a2:	e4d8      	b.n	10017d56 <_vfiprintf_r+0x86>
100183a4:	9b02      	ldr	r3, [sp, #8]
100183a6:	7822      	ldrb	r2, [r4, #0]
100183a8:	f043 0301 	orr.w	r3, r3, #1
100183ac:	9302      	str	r3, [sp, #8]
100183ae:	e4f7      	b.n	10017da0 <_vfiprintf_r+0xd0>
100183b0:	f89d 304b 	ldrb.w	r3, [sp, #75]	@ 0x4b
100183b4:	7822      	ldrb	r2, [r4, #0]
100183b6:	2b00      	cmp	r3, #0
100183b8:	f47f acf2 	bne.w	10017da0 <_vfiprintf_r+0xd0>
100183bc:	2320      	movs	r3, #32
100183be:	f88d 304b 	strb.w	r3, [sp, #75]	@ 0x4b
100183c2:	e4ed      	b.n	10017da0 <_vfiprintf_r+0xd0>
100183c4:	9b02      	ldr	r3, [sp, #8]
100183c6:	7822      	ldrb	r2, [r4, #0]
100183c8:	f043 0380 	orr.w	r3, r3, #128	@ 0x80
100183cc:	9302      	str	r3, [sp, #8]
100183ce:	e4e7      	b.n	10017da0 <_vfiprintf_r+0xd0>
100183d0:	4621      	mov	r1, r4
100183d2:	f811 2b01 	ldrb.w	r2, [r1], #1
100183d6:	2a2a      	cmp	r2, #42	@ 0x2a
100183d8:	f000 8433 	beq.w	10018c42 <_vfiprintf_r+0xf72>
100183dc:	f1a2 0330 	sub.w	r3, r2, #48	@ 0x30
100183e0:	2b09      	cmp	r3, #9
100183e2:	460c      	mov	r4, r1
100183e4:	f200 83f6 	bhi.w	10018bd4 <_vfiprintf_r+0xf04>
100183e8:	2200      	movs	r2, #0
100183ea:	4611      	mov	r1, r2
100183ec:	f814 2b01 	ldrb.w	r2, [r4], #1
100183f0:	eb01 0181 	add.w	r1, r1, r1, lsl #2
100183f4:	eb03 0141 	add.w	r1, r3, r1, lsl #1
100183f8:	f1a2 0330 	sub.w	r3, r2, #48	@ 0x30
100183fc:	2b09      	cmp	r3, #9
100183fe:	d9f5      	bls.n	100183ec <_vfiprintf_r+0x71c>
10018400:	9105      	str	r1, [sp, #20]
10018402:	e4ce      	b.n	10017da2 <_vfiprintf_r+0xd2>
10018404:	232b      	movs	r3, #43	@ 0x2b
10018406:	7822      	ldrb	r2, [r4, #0]
10018408:	f88d 304b 	strb.w	r3, [sp, #75]	@ 0x4b
1001840c:	e4c8      	b.n	10017da0 <_vfiprintf_r+0xd0>
1001840e:	7822      	ldrb	r2, [r4, #0]
10018410:	9b02      	ldr	r3, [sp, #8]
10018412:	2a6c      	cmp	r2, #108	@ 0x6c
10018414:	f000 8336 	beq.w	10018a84 <_vfiprintf_r+0xdb4>
10018418:	f043 0310 	orr.w	r3, r3, #16
1001841c:	9302      	str	r3, [sp, #8]
1001841e:	e4bf      	b.n	10017da0 <_vfiprintf_r+0xd0>
10018420:	222d      	movs	r2, #45	@ 0x2d
10018422:	f88d 204b 	strb.w	r2, [sp, #75]	@ 0x4b
10018426:	9a05      	ldr	r2, [sp, #20]
10018428:	425b      	negs	r3, r3
1001842a:	eb61 0141 	sbc.w	r1, r1, r1, lsl #1
1001842e:	3201      	adds	r2, #1
10018430:	d003      	beq.n	1001843a <_vfiprintf_r+0x76a>
10018432:	9a02      	ldr	r2, [sp, #8]
10018434:	f022 0280 	bic.w	r2, r2, #128	@ 0x80
10018438:	9202      	str	r2, [sp, #8]
1001843a:	2b0a      	cmp	r3, #10
1001843c:	f171 0200 	sbcs.w	r2, r1, #0
10018440:	f080 82bd 	bcs.w	100189be <_vfiprintf_r+0xcee>
10018444:	3330      	adds	r3, #48	@ 0x30
10018446:	b2db      	uxtb	r3, r3
10018448:	f88d 3117 	strb.w	r3, [sp, #279]	@ 0x117
1001844c:	9b05      	ldr	r3, [sp, #20]
1001844e:	2b01      	cmp	r3, #1
10018450:	bfb8      	it	lt
10018452:	2301      	movlt	r3, #1
10018454:	9304      	str	r3, [sp, #16]
10018456:	2301      	movs	r3, #1
10018458:	9309      	str	r3, [sp, #36]	@ 0x24
1001845a:	f20d 1417 	addw	r4, sp, #279	@ 0x117
1001845e:	2300      	movs	r3, #0
10018460:	930b      	str	r3, [sp, #44]	@ 0x2c
10018462:	f89d 304b 	ldrb.w	r3, [sp, #75]	@ 0x4b
10018466:	2b00      	cmp	r3, #0
10018468:	f43f adae 	beq.w	10017fc8 <_vfiprintf_r+0x2f8>
1001846c:	9b04      	ldr	r3, [sp, #16]
1001846e:	3301      	adds	r3, #1
10018470:	9304      	str	r3, [sp, #16]
10018472:	e5a9      	b.n	10017fc8 <_vfiprintf_r+0x2f8>
10018474:	9b09      	ldr	r3, [sp, #36]	@ 0x24
10018476:	941d      	str	r4, [sp, #116]	@ 0x74
10018478:	2201      	movs	r2, #1
1001847a:	931e      	str	r3, [sp, #120]	@ 0x78
1001847c:	931c      	str	r3, [sp, #112]	@ 0x70
1001847e:	921b      	str	r2, [sp, #108]	@ 0x6c
10018480:	f10d 0974 	add.w	r9, sp, #116	@ 0x74
10018484:	f109 0908 	add.w	r9, r9, #8
10018488:	e60c      	b.n	100180a4 <_vfiprintf_r+0x3d4>
1001848a:	9b08      	ldr	r3, [sp, #32]
1001848c:	9804      	ldr	r0, [sp, #16]
1001848e:	1a1d      	subs	r5, r3, r0
10018490:	2d00      	cmp	r5, #0
10018492:	f77f ade7 	ble.w	10018064 <_vfiprintf_r+0x394>
10018496:	2d10      	cmp	r5, #16
10018498:	f340 83cb 	ble.w	10018c32 <_vfiprintf_r+0xf62>
1001849c:	f8df 81b4 	ldr.w	r8, [pc, #436]	@ 10018654 <_vfiprintf_r+0x984>
100184a0:	4643      	mov	r3, r8
100184a2:	2610      	movs	r6, #16
100184a4:	46a0      	mov	r8, r4
100184a6:	4661      	mov	r1, ip
100184a8:	461c      	mov	r4, r3
100184aa:	e007      	b.n	100184bc <_vfiprintf_r+0x7ec>
100184ac:	f102 0c02 	add.w	ip, r2, #2
100184b0:	f109 0908 	add.w	r9, r9, #8
100184b4:	4602      	mov	r2, r0
100184b6:	3d10      	subs	r5, #16
100184b8:	2d10      	cmp	r5, #16
100184ba:	dd1a      	ble.n	100184f2 <_vfiprintf_r+0x822>
100184bc:	1c50      	adds	r0, r2, #1
100184be:	3110      	adds	r1, #16
100184c0:	2807      	cmp	r0, #7
100184c2:	e9c9 4600 	strd	r4, r6, [r9]
100184c6:	e9cd 011b 	strd	r0, r1, [sp, #108]	@ 0x6c
100184ca:	ddef      	ble.n	100184ac <_vfiprintf_r+0x7dc>
100184cc:	aa1a      	add	r2, sp, #104	@ 0x68
100184ce:	2900      	cmp	r1, #0
100184d0:	d07c      	beq.n	100185cc <_vfiprintf_r+0x8fc>
100184d2:	9903      	ldr	r1, [sp, #12]
100184d4:	4658      	mov	r0, fp
100184d6:	f10d 0974 	add.w	r9, sp, #116	@ 0x74
100184da:	f7ff fbb1 	bl	10017c40 <__sprint_r.part.0>
100184de:	2800      	cmp	r0, #0
100184e0:	f47f ad4e 	bne.w	10017f80 <_vfiprintf_r+0x2b0>
100184e4:	e9dd 211b 	ldrd	r2, r1, [sp, #108]	@ 0x6c
100184e8:	3d10      	subs	r5, #16
100184ea:	2d10      	cmp	r5, #16
100184ec:	f102 0c01 	add.w	ip, r2, #1
100184f0:	dce4      	bgt.n	100184bc <_vfiprintf_r+0x7ec>
100184f2:	4623      	mov	r3, r4
100184f4:	4660      	mov	r0, ip
100184f6:	4644      	mov	r4, r8
100184f8:	468c      	mov	ip, r1
100184fa:	4698      	mov	r8, r3
100184fc:	44ac      	add	ip, r5
100184fe:	2807      	cmp	r0, #7
10018500:	e9cd 0c1b 	strd	r0, ip, [sp, #108]	@ 0x6c
10018504:	f8c9 8000 	str.w	r8, [r9]
10018508:	f8c9 5004 	str.w	r5, [r9, #4]
1001850c:	f340 81a4 	ble.w	10018858 <_vfiprintf_r+0xb88>
10018510:	f1bc 0f00 	cmp.w	ip, #0
10018514:	f000 8327 	beq.w	10018b66 <_vfiprintf_r+0xe96>
10018518:	9903      	ldr	r1, [sp, #12]
1001851a:	aa1a      	add	r2, sp, #104	@ 0x68
1001851c:	4658      	mov	r0, fp
1001851e:	f7ff fb8f 	bl	10017c40 <__sprint_r.part.0>
10018522:	2800      	cmp	r0, #0
10018524:	f47f ad2c 	bne.w	10017f80 <_vfiprintf_r+0x2b0>
10018528:	9b05      	ldr	r3, [sp, #20]
1001852a:	9809      	ldr	r0, [sp, #36]	@ 0x24
1001852c:	e9dd 2c1b 	ldrd	r2, ip, [sp, #108]	@ 0x6c
10018530:	1a1d      	subs	r5, r3, r0
10018532:	2d00      	cmp	r5, #0
10018534:	f102 0101 	add.w	r1, r2, #1
10018538:	f10d 0974 	add.w	r9, sp, #116	@ 0x74
1001853c:	f77f ad98 	ble.w	10018070 <_vfiprintf_r+0x3a0>
10018540:	2d10      	cmp	r5, #16
10018542:	f8df 8110 	ldr.w	r8, [pc, #272]	@ 10018654 <_vfiprintf_r+0x984>
10018546:	dd2d      	ble.n	100185a4 <_vfiprintf_r+0x8d4>
10018548:	462b      	mov	r3, r5
1001854a:	2610      	movs	r6, #16
1001854c:	4625      	mov	r5, r4
1001854e:	4660      	mov	r0, ip
10018550:	461c      	mov	r4, r3
10018552:	e007      	b.n	10018564 <_vfiprintf_r+0x894>
10018554:	f102 0c02 	add.w	ip, r2, #2
10018558:	f109 0908 	add.w	r9, r9, #8
1001855c:	460a      	mov	r2, r1
1001855e:	3c10      	subs	r4, #16
10018560:	2c10      	cmp	r4, #16
10018562:	dd1a      	ble.n	1001859a <_vfiprintf_r+0x8ca>
10018564:	1c51      	adds	r1, r2, #1
10018566:	4b3b      	ldr	r3, [pc, #236]	@ (10018654 <_vfiprintf_r+0x984>)
10018568:	3010      	adds	r0, #16
1001856a:	2907      	cmp	r1, #7
1001856c:	e9c9 3600 	strd	r3, r6, [r9]
10018570:	e9cd 101b 	strd	r1, r0, [sp, #108]	@ 0x6c
10018574:	ddee      	ble.n	10018554 <_vfiprintf_r+0x884>
10018576:	aa1a      	add	r2, sp, #104	@ 0x68
10018578:	b310      	cbz	r0, 100185c0 <_vfiprintf_r+0x8f0>
1001857a:	9903      	ldr	r1, [sp, #12]
1001857c:	4658      	mov	r0, fp
1001857e:	f10d 0974 	add.w	r9, sp, #116	@ 0x74
10018582:	f7ff fb5d 	bl	10017c40 <__sprint_r.part.0>
10018586:	2800      	cmp	r0, #0
10018588:	f47f acfa 	bne.w	10017f80 <_vfiprintf_r+0x2b0>
1001858c:	e9dd 201b 	ldrd	r2, r0, [sp, #108]	@ 0x6c
10018590:	3c10      	subs	r4, #16
10018592:	2c10      	cmp	r4, #16
10018594:	f102 0c01 	add.w	ip, r2, #1
10018598:	dce4      	bgt.n	10018564 <_vfiprintf_r+0x894>
1001859a:	4623      	mov	r3, r4
1001859c:	4661      	mov	r1, ip
1001859e:	462c      	mov	r4, r5
100185a0:	4684      	mov	ip, r0
100185a2:	461d      	mov	r5, r3
100185a4:	44ac      	add	ip, r5
100185a6:	2907      	cmp	r1, #7
100185a8:	e9cd 1c1b 	strd	r1, ip, [sp, #108]	@ 0x6c
100185ac:	f8c9 8000 	str.w	r8, [r9]
100185b0:	f8c9 5004 	str.w	r5, [r9, #4]
100185b4:	f300 80ed 	bgt.w	10018792 <_vfiprintf_r+0xac2>
100185b8:	f109 0908 	add.w	r9, r9, #8
100185bc:	3101      	adds	r1, #1
100185be:	e557      	b.n	10018070 <_vfiprintf_r+0x3a0>
100185c0:	f04f 0c01 	mov.w	ip, #1
100185c4:	4602      	mov	r2, r0
100185c6:	f10d 0974 	add.w	r9, sp, #116	@ 0x74
100185ca:	e7c8      	b.n	1001855e <_vfiprintf_r+0x88e>
100185cc:	f04f 0c01 	mov.w	ip, #1
100185d0:	460a      	mov	r2, r1
100185d2:	f10d 0974 	add.w	r9, sp, #116	@ 0x74
100185d6:	e76e      	b.n	100184b6 <_vfiprintf_r+0x7e6>
100185d8:	f1bc 0f00 	cmp.w	ip, #0
100185dc:	d00f      	beq.n	100185fe <_vfiprintf_r+0x92e>
100185de:	9903      	ldr	r1, [sp, #12]
100185e0:	9311      	str	r3, [sp, #68]	@ 0x44
100185e2:	aa1a      	add	r2, sp, #104	@ 0x68
100185e4:	4658      	mov	r0, fp
100185e6:	f7ff fb2b 	bl	10017c40 <__sprint_r.part.0>
100185ea:	2800      	cmp	r0, #0
100185ec:	f47f acc8 	bne.w	10017f80 <_vfiprintf_r+0x2b0>
100185f0:	e9dd 2c1b 	ldrd	r2, ip, [sp, #108]	@ 0x6c
100185f4:	9b11      	ldr	r3, [sp, #68]	@ 0x44
100185f6:	1c51      	adds	r1, r2, #1
100185f8:	f10d 0974 	add.w	r9, sp, #116	@ 0x74
100185fc:	e50f      	b.n	1001801e <_vfiprintf_r+0x34e>
100185fe:	2b00      	cmp	r3, #0
10018600:	f000 8156 	beq.w	100188b0 <_vfiprintf_r+0xbe0>
10018604:	2302      	movs	r3, #2
10018606:	931e      	str	r3, [sp, #120]	@ 0x78
10018608:	469c      	mov	ip, r3
1001860a:	ab13      	add	r3, sp, #76	@ 0x4c
1001860c:	931d      	str	r3, [sp, #116]	@ 0x74
1001860e:	2101      	movs	r1, #1
10018610:	f10d 0974 	add.w	r9, sp, #116	@ 0x74
10018614:	460a      	mov	r2, r1
10018616:	f109 0908 	add.w	r9, r9, #8
1001861a:	3101      	adds	r1, #1
1001861c:	e51e      	b.n	1001805c <_vfiprintf_r+0x38c>
1001861e:	980d      	ldr	r0, [sp, #52]	@ 0x34
10018620:	ac46      	add	r4, sp, #280	@ 0x118
10018622:	f003 020f 	and.w	r2, r3, #15
10018626:	091b      	lsrs	r3, r3, #4
10018628:	5c82      	ldrb	r2, [r0, r2]
1001862a:	f804 2d01 	strb.w	r2, [r4, #-1]!
1001862e:	ea43 7301 	orr.w	r3, r3, r1, lsl #28
10018632:	0909      	lsrs	r1, r1, #4
10018634:	ea53 0201 	orrs.w	r2, r3, r1
10018638:	d1f3      	bne.n	10018622 <_vfiprintf_r+0x952>
1001863a:	9a05      	ldr	r2, [sp, #20]
1001863c:	ab46      	add	r3, sp, #280	@ 0x118
1001863e:	1b1b      	subs	r3, r3, r4
10018640:	429a      	cmp	r2, r3
10018642:	bfb8      	it	lt
10018644:	461a      	movlt	r2, r3
10018646:	9309      	str	r3, [sp, #36]	@ 0x24
10018648:	9204      	str	r2, [sp, #16]
1001864a:	e708      	b.n	1001845e <_vfiprintf_r+0x78e>
1001864c:	1001b100 	.word	0x1001b100
10018650:	2000044c 	.word	0x2000044c
10018654:	1001b340 	.word	0x1001b340
10018658:	2d10      	cmp	r5, #16
1001865a:	f340 82bf 	ble.w	10018bdc <_vfiprintf_r+0xf0c>
1001865e:	4eae      	ldr	r6, [pc, #696]	@ (10018918 <_vfiprintf_r+0xc48>)
10018660:	9311      	str	r3, [sp, #68]	@ 0x44
10018662:	4649      	mov	r1, r9
10018664:	f04f 0810 	mov.w	r8, #16
10018668:	46a1      	mov	r9, r4
1001866a:	4634      	mov	r4, r6
1001866c:	4666      	mov	r6, ip
1001866e:	e007      	b.n	10018680 <_vfiprintf_r+0x9b0>
10018670:	f102 0e02 	add.w	lr, r2, #2
10018674:	3108      	adds	r1, #8
10018676:	4602      	mov	r2, r0
10018678:	3d10      	subs	r5, #16
1001867a:	2d10      	cmp	r5, #16
1001867c:	dd18      	ble.n	100186b0 <_vfiprintf_r+0x9e0>
1001867e:	1c50      	adds	r0, r2, #1
10018680:	3610      	adds	r6, #16
10018682:	2807      	cmp	r0, #7
10018684:	e9c1 4800 	strd	r4, r8, [r1]
10018688:	e9cd 061b 	strd	r0, r6, [sp, #108]	@ 0x6c
1001868c:	ddf0      	ble.n	10018670 <_vfiprintf_r+0x9a0>
1001868e:	9903      	ldr	r1, [sp, #12]
10018690:	aa1a      	add	r2, sp, #104	@ 0x68
10018692:	4658      	mov	r0, fp
10018694:	b316      	cbz	r6, 100186dc <_vfiprintf_r+0xa0c>
10018696:	f7ff fad3 	bl	10017c40 <__sprint_r.part.0>
1001869a:	2800      	cmp	r0, #0
1001869c:	f47f ac70 	bne.w	10017f80 <_vfiprintf_r+0x2b0>
100186a0:	e9dd 261b 	ldrd	r2, r6, [sp, #108]	@ 0x6c
100186a4:	3d10      	subs	r5, #16
100186a6:	2d10      	cmp	r5, #16
100186a8:	f102 0e01 	add.w	lr, r2, #1
100186ac:	a91d      	add	r1, sp, #116	@ 0x74
100186ae:	dce6      	bgt.n	1001867e <_vfiprintf_r+0x9ae>
100186b0:	9b11      	ldr	r3, [sp, #68]	@ 0x44
100186b2:	46b4      	mov	ip, r6
100186b4:	4626      	mov	r6, r4
100186b6:	464c      	mov	r4, r9
100186b8:	4689      	mov	r9, r1
100186ba:	44ac      	add	ip, r5
100186bc:	f1be 0f07 	cmp.w	lr, #7
100186c0:	e9cd ec1b 	strd	lr, ip, [sp, #108]	@ 0x6c
100186c4:	f8c9 6000 	str.w	r6, [r9]
100186c8:	f8c9 5004 	str.w	r5, [r9, #4]
100186cc:	f300 809a 	bgt.w	10018804 <_vfiprintf_r+0xb34>
100186d0:	f109 0908 	add.w	r9, r9, #8
100186d4:	f10e 0101 	add.w	r1, lr, #1
100186d8:	4672      	mov	r2, lr
100186da:	e48b      	b.n	10017ff4 <_vfiprintf_r+0x324>
100186dc:	4632      	mov	r2, r6
100186de:	f04f 0e01 	mov.w	lr, #1
100186e2:	a91d      	add	r1, sp, #116	@ 0x74
100186e4:	e7c8      	b.n	10018678 <_vfiprintf_r+0x9a8>
100186e6:	9a02      	ldr	r2, [sp, #8]
100186e8:	931b      	str	r3, [sp, #108]	@ 0x6c
100186ea:	0754      	lsls	r4, r2, #29
100186ec:	d548      	bpl.n	10018780 <_vfiprintf_r+0xab0>
100186ee:	9a08      	ldr	r2, [sp, #32]
100186f0:	9904      	ldr	r1, [sp, #16]
100186f2:	1a54      	subs	r4, r2, r1
100186f4:	2c00      	cmp	r4, #0
100186f6:	dd43      	ble.n	10018780 <_vfiprintf_r+0xab0>
100186f8:	f10d 0974 	add.w	r9, sp, #116	@ 0x74
100186fc:	2c10      	cmp	r4, #16
100186fe:	991b      	ldr	r1, [sp, #108]	@ 0x6c
10018700:	f340 827b 	ble.w	10018bfa <_vfiprintf_r+0xf2a>
10018704:	4e84      	ldr	r6, [pc, #528]	@ (10018918 <_vfiprintf_r+0xc48>)
10018706:	f8dd 800c 	ldr.w	r8, [sp, #12]
1001870a:	2510      	movs	r5, #16
1001870c:	e006      	b.n	1001871c <_vfiprintf_r+0xa4c>
1001870e:	1c88      	adds	r0, r1, #2
10018710:	f109 0908 	add.w	r9, r9, #8
10018714:	4611      	mov	r1, r2
10018716:	3c10      	subs	r4, #16
10018718:	2c10      	cmp	r4, #16
1001871a:	dd19      	ble.n	10018750 <_vfiprintf_r+0xa80>
1001871c:	1c4a      	adds	r2, r1, #1
1001871e:	3310      	adds	r3, #16
10018720:	2a07      	cmp	r2, #7
10018722:	e9c9 6500 	strd	r6, r5, [r9]
10018726:	e9cd 231b 	strd	r2, r3, [sp, #108]	@ 0x6c
1001872a:	ddf0      	ble.n	1001870e <_vfiprintf_r+0xa3e>
1001872c:	aa1a      	add	r2, sp, #104	@ 0x68
1001872e:	b313      	cbz	r3, 10018776 <_vfiprintf_r+0xaa6>
10018730:	4641      	mov	r1, r8
10018732:	4658      	mov	r0, fp
10018734:	f7ff fa84 	bl	10017c40 <__sprint_r.part.0>
10018738:	2800      	cmp	r0, #0
1001873a:	f47f ac21 	bne.w	10017f80 <_vfiprintf_r+0x2b0>
1001873e:	e9dd 131b 	ldrd	r1, r3, [sp, #108]	@ 0x6c
10018742:	3c10      	subs	r4, #16
10018744:	2c10      	cmp	r4, #16
10018746:	f101 0001 	add.w	r0, r1, #1
1001874a:	f10d 0974 	add.w	r9, sp, #116	@ 0x74
1001874e:	dce5      	bgt.n	1001871c <_vfiprintf_r+0xa4c>
10018750:	4423      	add	r3, r4
10018752:	2807      	cmp	r0, #7
10018754:	e9c9 6400 	strd	r6, r4, [r9]
10018758:	e9cd 031b 	strd	r0, r3, [sp, #108]	@ 0x6c
1001875c:	f77f acab 	ble.w	100180b6 <_vfiprintf_r+0x3e6>
10018760:	b173      	cbz	r3, 10018780 <_vfiprintf_r+0xab0>
10018762:	9903      	ldr	r1, [sp, #12]
10018764:	aa1a      	add	r2, sp, #104	@ 0x68
10018766:	4658      	mov	r0, fp
10018768:	f7ff fa6a 	bl	10017c40 <__sprint_r.part.0>
1001876c:	2800      	cmp	r0, #0
1001876e:	f47f ac07 	bne.w	10017f80 <_vfiprintf_r+0x2b0>
10018772:	9b1c      	ldr	r3, [sp, #112]	@ 0x70
10018774:	e49f      	b.n	100180b6 <_vfiprintf_r+0x3e6>
10018776:	2001      	movs	r0, #1
10018778:	4619      	mov	r1, r3
1001877a:	f10d 0974 	add.w	r9, sp, #116	@ 0x74
1001877e:	e7ca      	b.n	10018716 <_vfiprintf_r+0xa46>
10018780:	e9dd 3207 	ldrd	r3, r2, [sp, #28]
10018784:	9904      	ldr	r1, [sp, #16]
10018786:	428a      	cmp	r2, r1
10018788:	bfac      	ite	ge
1001878a:	189b      	addge	r3, r3, r2
1001878c:	185b      	addlt	r3, r3, r1
1001878e:	9307      	str	r3, [sp, #28]
10018790:	e49c      	b.n	100180cc <_vfiprintf_r+0x3fc>
10018792:	f1bc 0f00 	cmp.w	ip, #0
10018796:	f43f ae6d 	beq.w	10018474 <_vfiprintf_r+0x7a4>
1001879a:	9903      	ldr	r1, [sp, #12]
1001879c:	aa1a      	add	r2, sp, #104	@ 0x68
1001879e:	4658      	mov	r0, fp
100187a0:	f7ff fa4e 	bl	10017c40 <__sprint_r.part.0>
100187a4:	2800      	cmp	r0, #0
100187a6:	f47f abeb 	bne.w	10017f80 <_vfiprintf_r+0x2b0>
100187aa:	991b      	ldr	r1, [sp, #108]	@ 0x6c
100187ac:	f8dd c070 	ldr.w	ip, [sp, #112]	@ 0x70
100187b0:	3101      	adds	r1, #1
100187b2:	f10d 0974 	add.w	r9, sp, #116	@ 0x74
100187b6:	e45b      	b.n	10018070 <_vfiprintf_r+0x3a0>
100187b8:	921b      	str	r2, [sp, #108]	@ 0x6c
100187ba:	f7ff bbd6 	b.w	10017f6a <_vfiprintf_r+0x29a>
100187be:	9a0a      	ldr	r2, [sp, #40]	@ 0x28
100187c0:	f852 3b04 	ldr.w	r3, [r2], #4
100187c4:	920a      	str	r2, [sp, #40]	@ 0x28
100187c6:	f014 0210 	ands.w	r2, r4, #16
100187ca:	f47f ad75 	bne.w	100182b8 <_vfiprintf_r+0x5e8>
100187ce:	f014 0040 	ands.w	r0, r4, #64	@ 0x40
100187d2:	f000 816d 	beq.w	10018ab0 <_vfiprintf_r+0xde0>
100187d6:	b29b      	uxth	r3, r3
100187d8:	4611      	mov	r1, r2
100187da:	e56d      	b.n	100182b8 <_vfiprintf_r+0x5e8>
100187dc:	980a      	ldr	r0, [sp, #40]	@ 0x28
100187de:	f850 3b04 	ldr.w	r3, [r0], #4
100187e2:	900a      	str	r0, [sp, #40]	@ 0x28
100187e4:	f012 0010 	ands.w	r0, r2, #16
100187e8:	f47f ad19 	bne.w	1001821e <_vfiprintf_r+0x54e>
100187ec:	f012 0440 	ands.w	r4, r2, #64	@ 0x40
100187f0:	f000 8166 	beq.w	10018ac0 <_vfiprintf_r+0xdf0>
100187f4:	b29b      	uxth	r3, r3
100187f6:	4601      	mov	r1, r0
100187f8:	e511      	b.n	1001821e <_vfiprintf_r+0x54e>
100187fa:	2101      	movs	r1, #1
100187fc:	4662      	mov	r2, ip
100187fe:	f10d 0974 	add.w	r9, sp, #116	@ 0x74
10018802:	e42b      	b.n	1001805c <_vfiprintf_r+0x38c>
10018804:	f1bc 0f00 	cmp.w	ip, #0
10018808:	f000 8095 	beq.w	10018936 <_vfiprintf_r+0xc66>
1001880c:	9903      	ldr	r1, [sp, #12]
1001880e:	9311      	str	r3, [sp, #68]	@ 0x44
10018810:	aa1a      	add	r2, sp, #104	@ 0x68
10018812:	4658      	mov	r0, fp
10018814:	f7ff fa14 	bl	10017c40 <__sprint_r.part.0>
10018818:	2800      	cmp	r0, #0
1001881a:	f47f abb1 	bne.w	10017f80 <_vfiprintf_r+0x2b0>
1001881e:	e9dd 2c1b 	ldrd	r2, ip, [sp, #108]	@ 0x6c
10018822:	9b11      	ldr	r3, [sp, #68]	@ 0x44
10018824:	1c51      	adds	r1, r2, #1
10018826:	f10d 0974 	add.w	r9, sp, #116	@ 0x74
1001882a:	f7ff bbe3 	b.w	10017ff4 <_vfiprintf_r+0x324>
1001882e:	9b05      	ldr	r3, [sp, #20]
10018830:	9304      	str	r3, [sp, #16]
10018832:	9309      	str	r3, [sp, #36]	@ 0x24
10018834:	ac46      	add	r4, sp, #280	@ 0x118
10018836:	e612      	b.n	1001845e <_vfiprintf_r+0x78e>
10018838:	7822      	ldrb	r2, [r4, #0]
1001883a:	930a      	str	r3, [sp, #40]	@ 0x28
1001883c:	f7ff bab0 	b.w	10017da0 <_vfiprintf_r+0xd0>
10018840:	9b05      	ldr	r3, [sp, #20]
10018842:	9304      	str	r3, [sp, #16]
10018844:	ac46      	add	r4, sp, #280	@ 0x118
10018846:	e60a      	b.n	1001845e <_vfiprintf_r+0x78e>
10018848:	9d03      	ldr	r5, [sp, #12]
1001884a:	6da8      	ldr	r0, [r5, #88]	@ 0x58
1001884c:	f7fb fca0 	bl	10014190 <__retarget_lock_acquire_recursive>
10018850:	f9b5 200c 	ldrsh.w	r2, [r5, #12]
10018854:	f7ff ba5b 	b.w	10017d0e <_vfiprintf_r+0x3e>
10018858:	f109 0908 	add.w	r9, r9, #8
1001885c:	1c41      	adds	r1, r0, #1
1001885e:	4602      	mov	r2, r0
10018860:	e400      	b.n	10018064 <_vfiprintf_r+0x394>
10018862:	9a02      	ldr	r2, [sp, #8]
10018864:	0592      	lsls	r2, r2, #22
10018866:	f100 8184 	bmi.w	10018b72 <_vfiprintf_r+0xea2>
1001886a:	17d9      	asrs	r1, r3, #31
1001886c:	460a      	mov	r2, r1
1001886e:	e49d      	b.n	100181ac <_vfiprintf_r+0x4dc>
10018870:	9b0e      	ldr	r3, [sp, #56]	@ 0x38
10018872:	7822      	ldrb	r2, [r4, #0]
10018874:	2b00      	cmp	r3, #0
10018876:	f43f aa93 	beq.w	10017da0 <_vfiprintf_r+0xd0>
1001887a:	781b      	ldrb	r3, [r3, #0]
1001887c:	2b00      	cmp	r3, #0
1001887e:	f43f aa8f 	beq.w	10017da0 <_vfiprintf_r+0xd0>
10018882:	9b02      	ldr	r3, [sp, #8]
10018884:	f443 6380 	orr.w	r3, r3, #1024	@ 0x400
10018888:	9302      	str	r3, [sp, #8]
1001888a:	f7ff ba89 	b.w	10017da0 <_vfiprintf_r+0xd0>
1001888e:	9b02      	ldr	r3, [sp, #8]
10018890:	06de      	lsls	r6, r3, #27
10018892:	f100 80fe 	bmi.w	10018a92 <_vfiprintf_r+0xdc2>
10018896:	9b02      	ldr	r3, [sp, #8]
10018898:	065d      	lsls	r5, r3, #25
1001889a:	f100 8176 	bmi.w	10018b8a <_vfiprintf_r+0xeba>
1001889e:	9b02      	ldr	r3, [sp, #8]
100188a0:	059c      	lsls	r4, r3, #22
100188a2:	f140 80f6 	bpl.w	10018a92 <_vfiprintf_r+0xdc2>
100188a6:	9b0a      	ldr	r3, [sp, #40]	@ 0x28
100188a8:	9a07      	ldr	r2, [sp, #28]
100188aa:	681b      	ldr	r3, [r3, #0]
100188ac:	701a      	strb	r2, [r3, #0]
100188ae:	e575      	b.n	1001839c <_vfiprintf_r+0x6cc>
100188b0:	4662      	mov	r2, ip
100188b2:	2101      	movs	r1, #1
100188b4:	f10d 0974 	add.w	r9, sp, #116	@ 0x74
100188b8:	f7ff bbd0 	b.w	1001805c <_vfiprintf_r+0x38c>
100188bc:	9406      	str	r4, [sp, #24]
100188be:	9c02      	ldr	r4, [sp, #8]
100188c0:	e4ed      	b.n	1001829e <_vfiprintf_r+0x5ce>
100188c2:	9a02      	ldr	r2, [sp, #8]
100188c4:	9406      	str	r4, [sp, #24]
100188c6:	e49d      	b.n	10018204 <_vfiprintf_r+0x534>
100188c8:	4b14      	ldr	r3, [pc, #80]	@ (1001891c <_vfiprintf_r+0xc4c>)
100188ca:	9406      	str	r4, [sp, #24]
100188cc:	930d      	str	r3, [sp, #52]	@ 0x34
100188ce:	9b02      	ldr	r3, [sp, #8]
100188d0:	f013 0120 	ands.w	r1, r3, #32
100188d4:	d063      	beq.n	1001899e <_vfiprintf_r+0xcce>
100188d6:	9b0a      	ldr	r3, [sp, #40]	@ 0x28
100188d8:	3307      	adds	r3, #7
100188da:	f023 0307 	bic.w	r3, r3, #7
100188de:	4618      	mov	r0, r3
100188e0:	6859      	ldr	r1, [r3, #4]
100188e2:	f850 3b08 	ldr.w	r3, [r0], #8
100188e6:	900a      	str	r0, [sp, #40]	@ 0x28
100188e8:	9c02      	ldr	r4, [sp, #8]
100188ea:	07e6      	lsls	r6, r4, #31
100188ec:	d50a      	bpl.n	10018904 <_vfiprintf_r+0xc34>
100188ee:	ea53 0001 	orrs.w	r0, r3, r1
100188f2:	d007      	beq.n	10018904 <_vfiprintf_r+0xc34>
100188f4:	f88d 204d 	strb.w	r2, [sp, #77]	@ 0x4d
100188f8:	f044 0202 	orr.w	r2, r4, #2
100188fc:	9202      	str	r2, [sp, #8]
100188fe:	2230      	movs	r2, #48	@ 0x30
10018900:	f88d 204c 	strb.w	r2, [sp, #76]	@ 0x4c
10018904:	9a02      	ldr	r2, [sp, #8]
10018906:	f422 6280 	bic.w	r2, r2, #1024	@ 0x400
1001890a:	9202      	str	r2, [sp, #8]
1001890c:	e52a      	b.n	10018364 <_vfiprintf_r+0x694>
1001890e:	4b04      	ldr	r3, [pc, #16]	@ (10018920 <_vfiprintf_r+0xc50>)
10018910:	9406      	str	r4, [sp, #24]
10018912:	930d      	str	r3, [sp, #52]	@ 0x34
10018914:	e7db      	b.n	100188ce <_vfiprintf_r+0xbfe>
10018916:	bf00      	nop
10018918:	1001b350 	.word	0x1001b350
1001891c:	1001b114 	.word	0x1001b114
10018920:	1001b100 	.word	0x1001b100
10018924:	9b0a      	ldr	r3, [sp, #40]	@ 0x28
10018926:	681b      	ldr	r3, [r3, #0]
10018928:	f88d 30b4 	strb.w	r3, [sp, #180]	@ 0xb4
1001892c:	2301      	movs	r3, #1
1001892e:	9304      	str	r3, [sp, #16]
10018930:	9309      	str	r3, [sp, #36]	@ 0x24
10018932:	ac2d      	add	r4, sp, #180	@ 0xb4
10018934:	e427      	b.n	10018186 <_vfiprintf_r+0x4b6>
10018936:	f89d 204b 	ldrb.w	r2, [sp, #75]	@ 0x4b
1001893a:	2a00      	cmp	r2, #0
1001893c:	f000 811f 	beq.w	10018b7e <_vfiprintf_r+0xeae>
10018940:	2101      	movs	r1, #1
10018942:	f10d 024b 	add.w	r2, sp, #75	@ 0x4b
10018946:	911e      	str	r1, [sp, #120]	@ 0x78
10018948:	921d      	str	r2, [sp, #116]	@ 0x74
1001894a:	f10d 0974 	add.w	r9, sp, #116	@ 0x74
1001894e:	468c      	mov	ip, r1
10018950:	f7ff bb61 	b.w	10018016 <_vfiprintf_r+0x346>
10018954:	2208      	movs	r2, #8
10018956:	2100      	movs	r1, #0
10018958:	a818      	add	r0, sp, #96	@ 0x60
1001895a:	9415      	str	r4, [sp, #84]	@ 0x54
1001895c:	f7fb fb60 	bl	10014020 <memset>
10018960:	9b05      	ldr	r3, [sp, #20]
10018962:	1c58      	adds	r0, r3, #1
10018964:	f000 80ba 	beq.w	10018adc <_vfiprintf_r+0xe0c>
10018968:	2500      	movs	r5, #0
1001896a:	9404      	str	r4, [sp, #16]
1001896c:	4698      	mov	r8, r3
1001896e:	462c      	mov	r4, r5
10018970:	e00c      	b.n	1001898c <_vfiprintf_r+0xcbc>
10018972:	a92d      	add	r1, sp, #180	@ 0xb4
10018974:	4658      	mov	r0, fp
10018976:	f7fb fba5 	bl	100140c4 <_wcrtomb_r>
1001897a:	1c41      	adds	r1, r0, #1
1001897c:	4420      	add	r0, r4
1001897e:	f000 813f 	beq.w	10018c00 <_vfiprintf_r+0xf30>
10018982:	4540      	cmp	r0, r8
10018984:	dc08      	bgt.n	10018998 <_vfiprintf_r+0xcc8>
10018986:	f000 8158 	beq.w	10018c3a <_vfiprintf_r+0xf6a>
1001898a:	4604      	mov	r4, r0
1001898c:	9a15      	ldr	r2, [sp, #84]	@ 0x54
1001898e:	5952      	ldr	r2, [r2, r5]
10018990:	ab18      	add	r3, sp, #96	@ 0x60
10018992:	3504      	adds	r5, #4
10018994:	2a00      	cmp	r2, #0
10018996:	d1ec      	bne.n	10018972 <_vfiprintf_r+0xca2>
10018998:	9409      	str	r4, [sp, #36]	@ 0x24
1001899a:	9c04      	ldr	r4, [sp, #16]
1001899c:	e0ac      	b.n	10018af8 <_vfiprintf_r+0xe28>
1001899e:	980a      	ldr	r0, [sp, #40]	@ 0x28
100189a0:	f850 3b04 	ldr.w	r3, [r0], #4
100189a4:	900a      	str	r0, [sp, #40]	@ 0x28
100189a6:	9802      	ldr	r0, [sp, #8]
100189a8:	f010 0010 	ands.w	r0, r0, #16
100189ac:	d19c      	bne.n	100188e8 <_vfiprintf_r+0xc18>
100189ae:	9902      	ldr	r1, [sp, #8]
100189b0:	f011 0440 	ands.w	r4, r1, #64	@ 0x40
100189b4:	f000 808b 	beq.w	10018ace <_vfiprintf_r+0xdfe>
100189b8:	b29b      	uxth	r3, r3
100189ba:	4601      	mov	r1, r0
100189bc:	e794      	b.n	100188e8 <_vfiprintf_r+0xc18>
100189be:	9a02      	ldr	r2, [sp, #8]
100189c0:	f8cd 9010 	str.w	r9, [sp, #16]
100189c4:	ac46      	add	r4, sp, #280	@ 0x118
100189c6:	f402 6280 	and.w	r2, r2, #1024	@ 0x400
100189ca:	46a1      	mov	r9, r4
100189cc:	f8cd b024 	str.w	fp, [sp, #36]	@ 0x24
100189d0:	4ea5      	ldr	r6, [pc, #660]	@ (10018c68 <_vfiprintf_r+0xf98>)
100189d2:	f8dd b038 	ldr.w	fp, [sp, #56]	@ 0x38
100189d6:	f04f 0c00 	mov.w	ip, #0
100189da:	4614      	mov	r4, r2
100189dc:	e005      	b.n	100189ea <_vfiprintf_r+0xd1a>
100189de:	2b0a      	cmp	r3, #10
100189e0:	f171 0100 	sbcs.w	r1, r1, #0
100189e4:	d336      	bcc.n	10018a54 <_vfiprintf_r+0xd84>
100189e6:	4643      	mov	r3, r8
100189e8:	4629      	mov	r1, r5
100189ea:	185a      	adds	r2, r3, r1
100189ec:	f142 0200 	adc.w	r2, r2, #0
100189f0:	fba6 0502 	umull	r0, r5, r6, r2
100189f4:	f025 0003 	bic.w	r0, r5, #3
100189f8:	eb00 0095 	add.w	r0, r0, r5, lsr #2
100189fc:	1a12      	subs	r2, r2, r0
100189fe:	1a98      	subs	r0, r3, r2
10018a00:	f04f 35cc 	mov.w	r5, #3435973836	@ 0xcccccccc
10018a04:	f161 0e00 	sbc.w	lr, r1, #0
10018a08:	fb05 f500 	mul.w	r5, r5, r0
10018a0c:	fb06 550e 	mla	r5, r6, lr, r5
10018a10:	fba0 8006 	umull	r8, r0, r0, r6
10018a14:	4405      	add	r5, r0
10018a16:	f008 0e01 	and.w	lr, r8, #1
10018a1a:	2005      	movs	r0, #5
10018a1c:	fbae 0e00 	umull	r0, lr, lr, r0
10018a20:	1880      	adds	r0, r0, r2
10018a22:	ea4f 0858 	mov.w	r8, r8, lsr #1
10018a26:	3030      	adds	r0, #48	@ 0x30
10018a28:	f809 0c01 	strb.w	r0, [r9, #-1]
10018a2c:	ea48 78c5 	orr.w	r8, r8, r5, lsl #31
10018a30:	f10c 0c01 	add.w	ip, ip, #1
10018a34:	f109 39ff 	add.w	r9, r9, #4294967295	@ 0xffffffff
10018a38:	086d      	lsrs	r5, r5, #1
10018a3a:	2c00      	cmp	r4, #0
10018a3c:	d0cf      	beq.n	100189de <_vfiprintf_r+0xd0e>
10018a3e:	f89b 2000 	ldrb.w	r2, [fp]
10018a42:	4562      	cmp	r2, ip
10018a44:	d1cb      	bne.n	100189de <_vfiprintf_r+0xd0e>
10018a46:	f1bc 0fff 	cmp.w	ip, #255	@ 0xff
10018a4a:	d0c8      	beq.n	100189de <_vfiprintf_r+0xd0e>
10018a4c:	2b0a      	cmp	r3, #10
10018a4e:	f171 0100 	sbcs.w	r1, r1, #0
10018a52:	d272      	bcs.n	10018b3a <_vfiprintf_r+0xe6a>
10018a54:	f8cd b038 	str.w	fp, [sp, #56]	@ 0x38
10018a58:	464c      	mov	r4, r9
10018a5a:	f8dd b024 	ldr.w	fp, [sp, #36]	@ 0x24
10018a5e:	f8dd 9010 	ldr.w	r9, [sp, #16]
10018a62:	e5ea      	b.n	1001863a <_vfiprintf_r+0x96a>
10018a64:	9202      	str	r2, [sp, #8]
10018a66:	e441      	b.n	100182ec <_vfiprintf_r+0x61c>
10018a68:	9402      	str	r4, [sp, #8]
10018a6a:	e4e6      	b.n	1001843a <_vfiprintf_r+0x76a>
10018a6c:	4658      	mov	r0, fp
10018a6e:	f7fc fc8d 	bl	1001538c <__sinit>
10018a72:	f7ff b943 	b.w	10017cfc <_vfiprintf_r+0x2c>
10018a76:	f443 7300 	orr.w	r3, r3, #512	@ 0x200
10018a7a:	7862      	ldrb	r2, [r4, #1]
10018a7c:	9302      	str	r3, [sp, #8]
10018a7e:	3401      	adds	r4, #1
10018a80:	f7ff b98e 	b.w	10017da0 <_vfiprintf_r+0xd0>
10018a84:	f043 0320 	orr.w	r3, r3, #32
10018a88:	7862      	ldrb	r2, [r4, #1]
10018a8a:	9302      	str	r3, [sp, #8]
10018a8c:	3401      	adds	r4, #1
10018a8e:	f7ff b987 	b.w	10017da0 <_vfiprintf_r+0xd0>
10018a92:	9b0a      	ldr	r3, [sp, #40]	@ 0x28
10018a94:	9a07      	ldr	r2, [sp, #28]
10018a96:	681b      	ldr	r3, [r3, #0]
10018a98:	601a      	str	r2, [r3, #0]
10018a9a:	e47f      	b.n	1001839c <_vfiprintf_r+0x6cc>
10018a9c:	9b05      	ldr	r3, [sp, #20]
10018a9e:	4c73      	ldr	r4, [pc, #460]	@ (10018c6c <_vfiprintf_r+0xf9c>)
10018aa0:	2b06      	cmp	r3, #6
10018aa2:	bf28      	it	cs
10018aa4:	2306      	movcs	r3, #6
10018aa6:	e9cd 3609 	strd	r3, r6, [sp, #36]	@ 0x24
10018aaa:	9304      	str	r3, [sp, #16]
10018aac:	f7ff ba89 	b.w	10017fc2 <_vfiprintf_r+0x2f2>
10018ab0:	f414 7100 	ands.w	r1, r4, #512	@ 0x200
10018ab4:	f43f ac00 	beq.w	100182b8 <_vfiprintf_r+0x5e8>
10018ab8:	b2db      	uxtb	r3, r3
10018aba:	4601      	mov	r1, r0
10018abc:	f7ff bbfc 	b.w	100182b8 <_vfiprintf_r+0x5e8>
10018ac0:	f412 7100 	ands.w	r1, r2, #512	@ 0x200
10018ac4:	bf1c      	itt	ne
10018ac6:	b2db      	uxtbne	r3, r3
10018ac8:	4621      	movne	r1, r4
10018aca:	f7ff bba8 	b.w	1001821e <_vfiprintf_r+0x54e>
10018ace:	9902      	ldr	r1, [sp, #8]
10018ad0:	f411 7100 	ands.w	r1, r1, #512	@ 0x200
10018ad4:	bf1c      	itt	ne
10018ad6:	b2db      	uxtbne	r3, r3
10018ad8:	4621      	movne	r1, r4
10018ada:	e705      	b.n	100188e8 <_vfiprintf_r+0xc18>
10018adc:	ab18      	add	r3, sp, #96	@ 0x60
10018ade:	9300      	str	r3, [sp, #0]
10018ae0:	2300      	movs	r3, #0
10018ae2:	4619      	mov	r1, r3
10018ae4:	aa15      	add	r2, sp, #84	@ 0x54
10018ae6:	4658      	mov	r0, fp
10018ae8:	f7fb fbe8 	bl	100142bc <_wcsrtombs_r>
10018aec:	4603      	mov	r3, r0
10018aee:	3301      	adds	r3, #1
10018af0:	9009      	str	r0, [sp, #36]	@ 0x24
10018af2:	f000 8085 	beq.w	10018c00 <_vfiprintf_r+0xf30>
10018af6:	9415      	str	r4, [sp, #84]	@ 0x54
10018af8:	9b09      	ldr	r3, [sp, #36]	@ 0x24
10018afa:	b373      	cbz	r3, 10018b5a <_vfiprintf_r+0xe8a>
10018afc:	2b63      	cmp	r3, #99	@ 0x63
10018afe:	dc49      	bgt.n	10018b94 <_vfiprintf_r+0xec4>
10018b00:	2300      	movs	r3, #0
10018b02:	930b      	str	r3, [sp, #44]	@ 0x2c
10018b04:	ac2d      	add	r4, sp, #180	@ 0xb4
10018b06:	2208      	movs	r2, #8
10018b08:	2100      	movs	r1, #0
10018b0a:	a818      	add	r0, sp, #96	@ 0x60
10018b0c:	f7fb fa88 	bl	10014020 <memset>
10018b10:	9d09      	ldr	r5, [sp, #36]	@ 0x24
10018b12:	ab18      	add	r3, sp, #96	@ 0x60
10018b14:	9300      	str	r3, [sp, #0]
10018b16:	aa15      	add	r2, sp, #84	@ 0x54
10018b18:	462b      	mov	r3, r5
10018b1a:	4621      	mov	r1, r4
10018b1c:	4658      	mov	r0, fp
10018b1e:	f7fb fbcd 	bl	100142bc <_wcsrtombs_r>
10018b22:	4285      	cmp	r5, r0
10018b24:	f040 8098 	bne.w	10018c58 <_vfiprintf_r+0xf88>
10018b28:	9a09      	ldr	r2, [sp, #36]	@ 0x24
10018b2a:	960a      	str	r6, [sp, #40]	@ 0x28
10018b2c:	2300      	movs	r3, #0
10018b2e:	54a3      	strb	r3, [r4, r2]
10018b30:	9305      	str	r3, [sp, #20]
10018b32:	ea22 73e2 	bic.w	r3, r2, r2, asr #31
10018b36:	9304      	str	r3, [sp, #16]
10018b38:	e493      	b.n	10018462 <_vfiprintf_r+0x792>
10018b3a:	9b0f      	ldr	r3, [sp, #60]	@ 0x3c
10018b3c:	9910      	ldr	r1, [sp, #64]	@ 0x40
10018b3e:	eba9 0903 	sub.w	r9, r9, r3
10018b42:	461a      	mov	r2, r3
10018b44:	4648      	mov	r0, r9
10018b46:	f7fc ff39 	bl	100159bc <strncpy>
10018b4a:	f89b 3001 	ldrb.w	r3, [fp, #1]
10018b4e:	b10b      	cbz	r3, 10018b54 <_vfiprintf_r+0xe84>
10018b50:	f10b 0b01 	add.w	fp, fp, #1
10018b54:	f04f 0c00 	mov.w	ip, #0
10018b58:	e745      	b.n	100189e6 <_vfiprintf_r+0xd16>
10018b5a:	9b09      	ldr	r3, [sp, #36]	@ 0x24
10018b5c:	960a      	str	r6, [sp, #40]	@ 0x28
10018b5e:	e9cd 3304 	strd	r3, r3, [sp, #16]
10018b62:	930b      	str	r3, [sp, #44]	@ 0x2c
10018b64:	e47d      	b.n	10018462 <_vfiprintf_r+0x792>
10018b66:	2101      	movs	r1, #1
10018b68:	4662      	mov	r2, ip
10018b6a:	f10d 0974 	add.w	r9, sp, #116	@ 0x74
10018b6e:	f7ff ba79 	b.w	10018064 <_vfiprintf_r+0x394>
10018b72:	f343 11c0 	sbfx	r1, r3, #7, #1
10018b76:	460a      	mov	r2, r1
10018b78:	b25b      	sxtb	r3, r3
10018b7a:	f7ff bb17 	b.w	100181ac <_vfiprintf_r+0x4dc>
10018b7e:	4662      	mov	r2, ip
10018b80:	2101      	movs	r1, #1
10018b82:	f10d 0974 	add.w	r9, sp, #116	@ 0x74
10018b86:	f7ff ba4a 	b.w	1001801e <_vfiprintf_r+0x34e>
10018b8a:	9b0a      	ldr	r3, [sp, #40]	@ 0x28
10018b8c:	9a07      	ldr	r2, [sp, #28]
10018b8e:	681b      	ldr	r3, [r3, #0]
10018b90:	801a      	strh	r2, [r3, #0]
10018b92:	e403      	b.n	1001839c <_vfiprintf_r+0x6cc>
10018b94:	1c59      	adds	r1, r3, #1
10018b96:	4658      	mov	r0, fp
10018b98:	f7fa ff7e 	bl	10013a98 <_malloc_r>
10018b9c:	4604      	mov	r4, r0
10018b9e:	2800      	cmp	r0, #0
10018ba0:	d02e      	beq.n	10018c00 <_vfiprintf_r+0xf30>
10018ba2:	900b      	str	r0, [sp, #44]	@ 0x2c
10018ba4:	e7af      	b.n	10018b06 <_vfiprintf_r+0xe36>
10018ba6:	6d88      	ldr	r0, [r1, #88]	@ 0x58
10018ba8:	f7fb faf4 	bl	10014194 <__retarget_lock_release_recursive>
10018bac:	f7ff b9a0 	b.w	10017ef0 <_vfiprintf_r+0x220>
10018bb0:	9b05      	ldr	r3, [sp, #20]
10018bb2:	9304      	str	r3, [sp, #16]
10018bb4:	9309      	str	r3, [sp, #36]	@ 0x24
10018bb6:	9b0b      	ldr	r3, [sp, #44]	@ 0x2c
10018bb8:	960a      	str	r6, [sp, #40]	@ 0x28
10018bba:	9305      	str	r3, [sp, #20]
10018bbc:	e451      	b.n	10018462 <_vfiprintf_r+0x792>
10018bbe:	4620      	mov	r0, r4
10018bc0:	9505      	str	r5, [sp, #20]
10018bc2:	960a      	str	r6, [sp, #40]	@ 0x28
10018bc4:	f7fc fcfc 	bl	100155c0 <strlen>
10018bc8:	ea20 73e0 	bic.w	r3, r0, r0, asr #31
10018bcc:	9009      	str	r0, [sp, #36]	@ 0x24
10018bce:	9304      	str	r3, [sp, #16]
10018bd0:	950b      	str	r5, [sp, #44]	@ 0x2c
10018bd2:	e446      	b.n	10018462 <_vfiprintf_r+0x792>
10018bd4:	2300      	movs	r3, #0
10018bd6:	9305      	str	r3, [sp, #20]
10018bd8:	f7ff b8e3 	b.w	10017da2 <_vfiprintf_r+0xd2>
10018bdc:	4e24      	ldr	r6, [pc, #144]	@ (10018c70 <_vfiprintf_r+0xfa0>)
10018bde:	4686      	mov	lr, r0
10018be0:	e56b      	b.n	100186ba <_vfiprintf_r+0x9ea>
10018be2:	2330      	movs	r3, #48	@ 0x30
10018be4:	e430      	b.n	10018448 <_vfiprintf_r+0x778>
10018be6:	9903      	ldr	r1, [sp, #12]
10018be8:	aa1a      	add	r2, sp, #104	@ 0x68
10018bea:	4658      	mov	r0, fp
10018bec:	f7ff f828 	bl	10017c40 <__sprint_r.part.0>
10018bf0:	2800      	cmp	r0, #0
10018bf2:	f43f a9ab 	beq.w	10017f4c <_vfiprintf_r+0x27c>
10018bf6:	f7ff b9c9 	b.w	10017f8c <_vfiprintf_r+0x2bc>
10018bfa:	4e1d      	ldr	r6, [pc, #116]	@ (10018c70 <_vfiprintf_r+0xfa0>)
10018bfc:	1c48      	adds	r0, r1, #1
10018bfe:	e5a7      	b.n	10018750 <_vfiprintf_r+0xa80>
10018c00:	9a03      	ldr	r2, [sp, #12]
10018c02:	f9b2 300c 	ldrsh.w	r3, [r2, #12]
10018c06:	f043 0340 	orr.w	r3, r3, #64	@ 0x40
10018c0a:	8193      	strh	r3, [r2, #12]
10018c0c:	f7ff b9c1 	b.w	10017f92 <_vfiprintf_r+0x2c2>
10018c10:	9b03      	ldr	r3, [sp, #12]
10018c12:	6e5b      	ldr	r3, [r3, #100]	@ 0x64
10018c14:	07d9      	lsls	r1, r3, #31
10018c16:	d407      	bmi.n	10018c28 <_vfiprintf_r+0xf58>
10018c18:	9b03      	ldr	r3, [sp, #12]
10018c1a:	899b      	ldrh	r3, [r3, #12]
10018c1c:	059a      	lsls	r2, r3, #22
10018c1e:	d403      	bmi.n	10018c28 <_vfiprintf_r+0xf58>
10018c20:	9b03      	ldr	r3, [sp, #12]
10018c22:	6d98      	ldr	r0, [r3, #88]	@ 0x58
10018c24:	f7fb fab6 	bl	10014194 <__retarget_lock_release_recursive>
10018c28:	f04f 33ff 	mov.w	r3, #4294967295	@ 0xffffffff
10018c2c:	9307      	str	r3, [sp, #28]
10018c2e:	f7ff b9b8 	b.w	10017fa2 <_vfiprintf_r+0x2d2>
10018c32:	f8df 8040 	ldr.w	r8, [pc, #64]	@ 10018c74 <_vfiprintf_r+0xfa4>
10018c36:	4608      	mov	r0, r1
10018c38:	e460      	b.n	100184fc <_vfiprintf_r+0x82c>
10018c3a:	e9dd 4304 	ldrd	r4, r3, [sp, #16]
10018c3e:	9309      	str	r3, [sp, #36]	@ 0x24
10018c40:	e75a      	b.n	10018af8 <_vfiprintf_r+0xe28>
10018c42:	9b0a      	ldr	r3, [sp, #40]	@ 0x28
10018c44:	7862      	ldrb	r2, [r4, #1]
10018c46:	460c      	mov	r4, r1
10018c48:	f853 1b04 	ldr.w	r1, [r3], #4
10018c4c:	930a      	str	r3, [sp, #40]	@ 0x28
10018c4e:	ea41 71e1 	orr.w	r1, r1, r1, asr #31
10018c52:	9105      	str	r1, [sp, #20]
10018c54:	f7ff b8a4 	b.w	10017da0 <_vfiprintf_r+0xd0>
10018c58:	9a03      	ldr	r2, [sp, #12]
10018c5a:	8993      	ldrh	r3, [r2, #12]
10018c5c:	f043 0340 	orr.w	r3, r3, #64	@ 0x40
10018c60:	8193      	strh	r3, [r2, #12]
10018c62:	f7ff b98d 	b.w	10017f80 <_vfiprintf_r+0x2b0>
10018c66:	bf00      	nop
10018c68:	cccccccd 	.word	0xcccccccd
10018c6c:	1001b128 	.word	0x1001b128
10018c70:	1001b350 	.word	0x1001b350
10018c74:	1001b340 	.word	0x1001b340

10018c78 <__sbprintf>:
10018c78:	b5f0      	push	{r4, r5, r6, r7, lr}
10018c7a:	461f      	mov	r7, r3
10018c7c:	898b      	ldrh	r3, [r1, #12]
10018c7e:	f2ad 4d6c 	subw	sp, sp, #1132	@ 0x46c
10018c82:	f023 0302 	bic.w	r3, r3, #2
10018c86:	f8ad 300c 	strh.w	r3, [sp, #12]
10018c8a:	6e4b      	ldr	r3, [r1, #100]	@ 0x64
10018c8c:	9319      	str	r3, [sp, #100]	@ 0x64
10018c8e:	89cb      	ldrh	r3, [r1, #14]
10018c90:	f8ad 300e 	strh.w	r3, [sp, #14]
10018c94:	69cb      	ldr	r3, [r1, #28]
10018c96:	9307      	str	r3, [sp, #28]
10018c98:	6a4b      	ldr	r3, [r1, #36]	@ 0x24
10018c9a:	9309      	str	r3, [sp, #36]	@ 0x24
10018c9c:	ab1a      	add	r3, sp, #104	@ 0x68
10018c9e:	9300      	str	r3, [sp, #0]
10018ca0:	9304      	str	r3, [sp, #16]
10018ca2:	f44f 6380 	mov.w	r3, #1024	@ 0x400
10018ca6:	4615      	mov	r5, r2
10018ca8:	4606      	mov	r6, r0
10018caa:	9302      	str	r3, [sp, #8]
10018cac:	9305      	str	r3, [sp, #20]
10018cae:	a816      	add	r0, sp, #88	@ 0x58
10018cb0:	2300      	movs	r3, #0
10018cb2:	460c      	mov	r4, r1
10018cb4:	9306      	str	r3, [sp, #24]
10018cb6:	f7fb fa67 	bl	10014188 <__retarget_lock_init_recursive>
10018cba:	462a      	mov	r2, r5
10018cbc:	463b      	mov	r3, r7
10018cbe:	4669      	mov	r1, sp
10018cc0:	4630      	mov	r0, r6
10018cc2:	f7ff f805 	bl	10017cd0 <_vfiprintf_r>
10018cc6:	1e05      	subs	r5, r0, #0
10018cc8:	db07      	blt.n	10018cda <__sbprintf+0x62>
10018cca:	4669      	mov	r1, sp
10018ccc:	4630      	mov	r0, r6
10018cce:	f000 ff65 	bl	10019b9c <_fflush_r>
10018cd2:	2800      	cmp	r0, #0
10018cd4:	bf18      	it	ne
10018cd6:	f04f 35ff 	movne.w	r5, #4294967295	@ 0xffffffff
10018cda:	f8bd 300c 	ldrh.w	r3, [sp, #12]
10018cde:	065b      	lsls	r3, r3, #25
10018ce0:	d503      	bpl.n	10018cea <__sbprintf+0x72>
10018ce2:	89a3      	ldrh	r3, [r4, #12]
10018ce4:	f043 0340 	orr.w	r3, r3, #64	@ 0x40
10018ce8:	81a3      	strh	r3, [r4, #12]
10018cea:	9816      	ldr	r0, [sp, #88]	@ 0x58
10018cec:	f7fb fa4e 	bl	1001418c <__retarget_lock_close_recursive>
10018cf0:	4628      	mov	r0, r5
10018cf2:	f20d 4d6c 	addw	sp, sp, #1132	@ 0x46c
10018cf6:	bdf0      	pop	{r4, r5, r6, r7, pc}

10018cf8 <__register_exitproc>:
10018cf8:	e92d 43f8 	stmdb	sp!, {r3, r4, r5, r6, r7, r8, r9, lr}
10018cfc:	4d1b      	ldr	r5, [pc, #108]	@ (10018d6c <__register_exitproc+0x74>)
10018cfe:	4606      	mov	r6, r0
10018d00:	6828      	ldr	r0, [r5, #0]
10018d02:	4698      	mov	r8, r3
10018d04:	460f      	mov	r7, r1
10018d06:	4691      	mov	r9, r2
10018d08:	f7fb fa42 	bl	10014190 <__retarget_lock_acquire_recursive>
10018d0c:	4b18      	ldr	r3, [pc, #96]	@ (10018d70 <__register_exitproc+0x78>)
10018d0e:	681c      	ldr	r4, [r3, #0]
10018d10:	b31c      	cbz	r4, 10018d5a <__register_exitproc+0x62>
10018d12:	6828      	ldr	r0, [r5, #0]
10018d14:	6865      	ldr	r5, [r4, #4]
10018d16:	2d1f      	cmp	r5, #31
10018d18:	dc22      	bgt.n	10018d60 <__register_exitproc+0x68>
10018d1a:	b94e      	cbnz	r6, 10018d30 <__register_exitproc+0x38>
10018d1c:	1c6b      	adds	r3, r5, #1
10018d1e:	3502      	adds	r5, #2
10018d20:	6063      	str	r3, [r4, #4]
10018d22:	f844 7025 	str.w	r7, [r4, r5, lsl #2]
10018d26:	f7fb fa35 	bl	10014194 <__retarget_lock_release_recursive>
10018d2a:	2000      	movs	r0, #0
10018d2c:	e8bd 83f8 	ldmia.w	sp!, {r3, r4, r5, r6, r7, r8, r9, pc}
10018d30:	eb04 0185 	add.w	r1, r4, r5, lsl #2
10018d34:	2301      	movs	r3, #1
10018d36:	f8c1 9088 	str.w	r9, [r1, #136]	@ 0x88
10018d3a:	f8d4 2188 	ldr.w	r2, [r4, #392]	@ 0x188
10018d3e:	40ab      	lsls	r3, r5
10018d40:	431a      	orrs	r2, r3
10018d42:	2e02      	cmp	r6, #2
10018d44:	f8c4 2188 	str.w	r2, [r4, #392]	@ 0x188
10018d48:	f8c1 8108 	str.w	r8, [r1, #264]	@ 0x108
10018d4c:	d1e6      	bne.n	10018d1c <__register_exitproc+0x24>
10018d4e:	f8d4 218c 	ldr.w	r2, [r4, #396]	@ 0x18c
10018d52:	431a      	orrs	r2, r3
10018d54:	f8c4 218c 	str.w	r2, [r4, #396]	@ 0x18c
10018d58:	e7e0      	b.n	10018d1c <__register_exitproc+0x24>
10018d5a:	4c06      	ldr	r4, [pc, #24]	@ (10018d74 <__register_exitproc+0x7c>)
10018d5c:	601c      	str	r4, [r3, #0]
10018d5e:	e7d8      	b.n	10018d12 <__register_exitproc+0x1a>
10018d60:	f7fb fa18 	bl	10014194 <__retarget_lock_release_recursive>
10018d64:	f04f 30ff 	mov.w	r0, #4294967295	@ 0xffffffff
10018d68:	e7e0      	b.n	10018d2c <__register_exitproc+0x34>
10018d6a:	bf00      	nop
10018d6c:	20000448 	.word	0x20000448
10018d70:	20001460 	.word	0x20001460
10018d74:	200015ac 	.word	0x200015ac

10018d78 <__ascii_mbtowc>:
10018d78:	b082      	sub	sp, #8
10018d7a:	b149      	cbz	r1, 10018d90 <__ascii_mbtowc+0x18>
10018d7c:	b15a      	cbz	r2, 10018d96 <__ascii_mbtowc+0x1e>
10018d7e:	b16b      	cbz	r3, 10018d9c <__ascii_mbtowc+0x24>
10018d80:	7813      	ldrb	r3, [r2, #0]
10018d82:	600b      	str	r3, [r1, #0]
10018d84:	7812      	ldrb	r2, [r2, #0]
10018d86:	1e10      	subs	r0, r2, #0
10018d88:	bf18      	it	ne
10018d8a:	2001      	movne	r0, #1
10018d8c:	b002      	add	sp, #8
10018d8e:	4770      	bx	lr
10018d90:	a901      	add	r1, sp, #4
10018d92:	2a00      	cmp	r2, #0
10018d94:	d1f3      	bne.n	10018d7e <__ascii_mbtowc+0x6>
10018d96:	4610      	mov	r0, r2
10018d98:	b002      	add	sp, #8
10018d9a:	4770      	bx	lr
10018d9c:	f06f 0001 	mvn.w	r0, #1
10018da0:	e7f4      	b.n	10018d8c <__ascii_mbtowc+0x14>
10018da2:	bf00      	nop

10018da4 <memmove>:
10018da4:	4288      	cmp	r0, r1
10018da6:	d90e      	bls.n	10018dc6 <memmove+0x22>
10018da8:	188b      	adds	r3, r1, r2
10018daa:	4283      	cmp	r3, r0
10018dac:	d90b      	bls.n	10018dc6 <memmove+0x22>
10018dae:	eb00 0c02 	add.w	ip, r0, r2
10018db2:	2a00      	cmp	r2, #0
10018db4:	d06e      	beq.n	10018e94 <memmove+0xf0>
10018db6:	4662      	mov	r2, ip
10018db8:	f813 cd01 	ldrb.w	ip, [r3, #-1]!
10018dbc:	f802 cd01 	strb.w	ip, [r2, #-1]!
10018dc0:	4299      	cmp	r1, r3
10018dc2:	d1f9      	bne.n	10018db8 <memmove+0x14>
10018dc4:	4770      	bx	lr
10018dc6:	2a0f      	cmp	r2, #15
10018dc8:	d80f      	bhi.n	10018dea <memmove+0x46>
10018dca:	4603      	mov	r3, r0
10018dcc:	f102 3cff 	add.w	ip, r2, #4294967295	@ 0xffffffff
10018dd0:	2a00      	cmp	r2, #0
10018dd2:	d05f      	beq.n	10018e94 <memmove+0xf0>
10018dd4:	f10c 0c01 	add.w	ip, ip, #1
10018dd8:	3b01      	subs	r3, #1
10018dda:	448c      	add	ip, r1
10018ddc:	f811 2b01 	ldrb.w	r2, [r1], #1
10018de0:	f803 2f01 	strb.w	r2, [r3, #1]!
10018de4:	4561      	cmp	r1, ip
10018de6:	d1f9      	bne.n	10018ddc <memmove+0x38>
10018de8:	4770      	bx	lr
10018dea:	ea40 0301 	orr.w	r3, r0, r1
10018dee:	079b      	lsls	r3, r3, #30
10018df0:	d151      	bne.n	10018e96 <memmove+0xf2>
10018df2:	f1a2 0310 	sub.w	r3, r2, #16
10018df6:	b570      	push	{r4, r5, r6, lr}
10018df8:	f101 0c20 	add.w	ip, r1, #32
10018dfc:	f023 050f 	bic.w	r5, r3, #15
10018e00:	f101 0e10 	add.w	lr, r1, #16
10018e04:	f100 0410 	add.w	r4, r0, #16
10018e08:	44ac      	add	ip, r5
10018e0a:	091b      	lsrs	r3, r3, #4
10018e0c:	f85e 5c10 	ldr.w	r5, [lr, #-16]
10018e10:	f844 5c10 	str.w	r5, [r4, #-16]
10018e14:	f85e 5c0c 	ldr.w	r5, [lr, #-12]
10018e18:	f844 5c0c 	str.w	r5, [r4, #-12]
10018e1c:	f85e 5c08 	ldr.w	r5, [lr, #-8]
10018e20:	f844 5c08 	str.w	r5, [r4, #-8]
10018e24:	f85e 5c04 	ldr.w	r5, [lr, #-4]
10018e28:	f844 5c04 	str.w	r5, [r4, #-4]
10018e2c:	f10e 0e10 	add.w	lr, lr, #16
10018e30:	45e6      	cmp	lr, ip
10018e32:	f104 0410 	add.w	r4, r4, #16
10018e36:	d1e9      	bne.n	10018e0c <memmove+0x68>
10018e38:	3301      	adds	r3, #1
10018e3a:	f012 0f0c 	tst.w	r2, #12
10018e3e:	eb01 1103 	add.w	r1, r1, r3, lsl #4
10018e42:	f002 040f 	and.w	r4, r2, #15
10018e46:	eb00 1303 	add.w	r3, r0, r3, lsl #4
10018e4a:	d028      	beq.n	10018e9e <memmove+0xfa>
10018e4c:	3c04      	subs	r4, #4
10018e4e:	f024 0603 	bic.w	r6, r4, #3
10018e52:	ea4f 0c94 	mov.w	ip, r4, lsr #2
10018e56:	441e      	add	r6, r3
10018e58:	1f1c      	subs	r4, r3, #4
10018e5a:	468e      	mov	lr, r1
10018e5c:	f85e 5b04 	ldr.w	r5, [lr], #4
10018e60:	f844 5f04 	str.w	r5, [r4, #4]!
10018e64:	42b4      	cmp	r4, r6
10018e66:	d1f9      	bne.n	10018e5c <memmove+0xb8>
10018e68:	f10c 0401 	add.w	r4, ip, #1
10018e6c:	f002 0203 	and.w	r2, r2, #3
10018e70:	eb03 0384 	add.w	r3, r3, r4, lsl #2
10018e74:	eb01 0184 	add.w	r1, r1, r4, lsl #2
10018e78:	f102 3cff 	add.w	ip, r2, #4294967295	@ 0xffffffff
10018e7c:	b14a      	cbz	r2, 10018e92 <memmove+0xee>
10018e7e:	f10c 0c01 	add.w	ip, ip, #1
10018e82:	3b01      	subs	r3, #1
10018e84:	448c      	add	ip, r1
10018e86:	f811 2b01 	ldrb.w	r2, [r1], #1
10018e8a:	f803 2f01 	strb.w	r2, [r3, #1]!
10018e8e:	4561      	cmp	r1, ip
10018e90:	d1f9      	bne.n	10018e86 <memmove+0xe2>
10018e92:	bd70      	pop	{r4, r5, r6, pc}
10018e94:	4770      	bx	lr
10018e96:	f102 3cff 	add.w	ip, r2, #4294967295	@ 0xffffffff
10018e9a:	4603      	mov	r3, r0
10018e9c:	e79a      	b.n	10018dd4 <memmove+0x30>
10018e9e:	4622      	mov	r2, r4
10018ea0:	e7ea      	b.n	10018e78 <memmove+0xd4>
10018ea2:	bf00      	nop

10018ea4 <__assert_func>:
10018ea4:	b500      	push	{lr}
10018ea6:	4c0b      	ldr	r4, [pc, #44]	@ (10018ed4 <__assert_func+0x30>)
10018ea8:	6825      	ldr	r5, [r4, #0]
10018eaa:	4614      	mov	r4, r2
10018eac:	68ee      	ldr	r6, [r5, #12]
10018eae:	461a      	mov	r2, r3
10018eb0:	b085      	sub	sp, #20
10018eb2:	4603      	mov	r3, r0
10018eb4:	460d      	mov	r5, r1
10018eb6:	b14c      	cbz	r4, 10018ecc <__assert_func+0x28>
10018eb8:	4907      	ldr	r1, [pc, #28]	@ (10018ed8 <__assert_func+0x34>)
10018eba:	9500      	str	r5, [sp, #0]
10018ebc:	e9cd 1401 	strd	r1, r4, [sp, #4]
10018ec0:	4630      	mov	r0, r6
10018ec2:	4906      	ldr	r1, [pc, #24]	@ (10018edc <__assert_func+0x38>)
10018ec4:	f001 f88a 	bl	10019fdc <fiprintf>
10018ec8:	f001 f960 	bl	1001a18c <abort>
10018ecc:	4904      	ldr	r1, [pc, #16]	@ (10018ee0 <__assert_func+0x3c>)
10018ece:	460c      	mov	r4, r1
10018ed0:	e7f3      	b.n	10018eba <__assert_func+0x16>
10018ed2:	bf00      	nop
10018ed4:	200005b8 	.word	0x200005b8
10018ed8:	1001b360 	.word	0x1001b360
10018edc:	1001b370 	.word	0x1001b370
10018ee0:	1001af24 	.word	0x1001af24

10018ee4 <_fclose_r>:
10018ee4:	b570      	push	{r4, r5, r6, lr}
10018ee6:	2900      	cmp	r1, #0
10018ee8:	d03f      	beq.n	10018f6a <_fclose_r+0x86>
10018eea:	4605      	mov	r5, r0
10018eec:	460c      	mov	r4, r1
10018eee:	b110      	cbz	r0, 10018ef6 <_fclose_r+0x12>
10018ef0:	6b43      	ldr	r3, [r0, #52]	@ 0x34
10018ef2:	2b00      	cmp	r3, #0
10018ef4:	d03c      	beq.n	10018f70 <_fclose_r+0x8c>
10018ef6:	6e63      	ldr	r3, [r4, #100]	@ 0x64
10018ef8:	f9b4 200c 	ldrsh.w	r2, [r4, #12]
10018efc:	07de      	lsls	r6, r3, #31
10018efe:	d432      	bmi.n	10018f66 <_fclose_r+0x82>
10018f00:	0590      	lsls	r0, r2, #22
10018f02:	d538      	bpl.n	10018f76 <_fclose_r+0x92>
10018f04:	4621      	mov	r1, r4
10018f06:	4628      	mov	r0, r5
10018f08:	f000 fdac 	bl	10019a64 <__sflush_r>
10018f0c:	6ae3      	ldr	r3, [r4, #44]	@ 0x2c
10018f0e:	4606      	mov	r6, r0
10018f10:	b133      	cbz	r3, 10018f20 <_fclose_r+0x3c>
10018f12:	69e1      	ldr	r1, [r4, #28]
10018f14:	4628      	mov	r0, r5
10018f16:	4798      	blx	r3
10018f18:	2800      	cmp	r0, #0
10018f1a:	bfb8      	it	lt
10018f1c:	f04f 36ff 	movlt.w	r6, #4294967295	@ 0xffffffff
10018f20:	89a3      	ldrh	r3, [r4, #12]
10018f22:	061a      	lsls	r2, r3, #24
10018f24:	d439      	bmi.n	10018f9a <_fclose_r+0xb6>
10018f26:	6b21      	ldr	r1, [r4, #48]	@ 0x30
10018f28:	b141      	cbz	r1, 10018f3c <_fclose_r+0x58>
10018f2a:	f104 0340 	add.w	r3, r4, #64	@ 0x40
10018f2e:	4299      	cmp	r1, r3
10018f30:	d002      	beq.n	10018f38 <_fclose_r+0x54>
10018f32:	4628      	mov	r0, r5
10018f34:	f7fc fc44 	bl	100157c0 <_free_r>
10018f38:	2300      	movs	r3, #0
10018f3a:	6323      	str	r3, [r4, #48]	@ 0x30
10018f3c:	6c61      	ldr	r1, [r4, #68]	@ 0x44
10018f3e:	b121      	cbz	r1, 10018f4a <_fclose_r+0x66>
10018f40:	4628      	mov	r0, r5
10018f42:	f7fc fc3d 	bl	100157c0 <_free_r>
10018f46:	2300      	movs	r3, #0
10018f48:	6463      	str	r3, [r4, #68]	@ 0x44
10018f4a:	f7fc fa3d 	bl	100153c8 <__sfp_lock_acquire>
10018f4e:	6e63      	ldr	r3, [r4, #100]	@ 0x64
10018f50:	2200      	movs	r2, #0
10018f52:	07db      	lsls	r3, r3, #31
10018f54:	81a2      	strh	r2, [r4, #12]
10018f56:	d51c      	bpl.n	10018f92 <_fclose_r+0xae>
10018f58:	6da0      	ldr	r0, [r4, #88]	@ 0x58
10018f5a:	f7fb f917 	bl	1001418c <__retarget_lock_close_recursive>
10018f5e:	f7fc fa39 	bl	100153d4 <__sfp_lock_release>
10018f62:	4630      	mov	r0, r6
10018f64:	bd70      	pop	{r4, r5, r6, pc}
10018f66:	2a00      	cmp	r2, #0
10018f68:	d1cc      	bne.n	10018f04 <_fclose_r+0x20>
10018f6a:	2600      	movs	r6, #0
10018f6c:	4630      	mov	r0, r6
10018f6e:	bd70      	pop	{r4, r5, r6, pc}
10018f70:	f7fc fa0c 	bl	1001538c <__sinit>
10018f74:	e7bf      	b.n	10018ef6 <_fclose_r+0x12>
10018f76:	6da0      	ldr	r0, [r4, #88]	@ 0x58
10018f78:	f7fb f90a 	bl	10014190 <__retarget_lock_acquire_recursive>
10018f7c:	f9b4 300c 	ldrsh.w	r3, [r4, #12]
10018f80:	2b00      	cmp	r3, #0
10018f82:	d1bf      	bne.n	10018f04 <_fclose_r+0x20>
10018f84:	6e63      	ldr	r3, [r4, #100]	@ 0x64
10018f86:	07d9      	lsls	r1, r3, #31
10018f88:	d4ef      	bmi.n	10018f6a <_fclose_r+0x86>
10018f8a:	6da0      	ldr	r0, [r4, #88]	@ 0x58
10018f8c:	f7fb f902 	bl	10014194 <__retarget_lock_release_recursive>
10018f90:	e7eb      	b.n	10018f6a <_fclose_r+0x86>
10018f92:	6da0      	ldr	r0, [r4, #88]	@ 0x58
10018f94:	f7fb f8fe 	bl	10014194 <__retarget_lock_release_recursive>
10018f98:	e7de      	b.n	10018f58 <_fclose_r+0x74>
10018f9a:	6921      	ldr	r1, [r4, #16]
10018f9c:	4628      	mov	r0, r5
10018f9e:	f7fc fc0f 	bl	100157c0 <_free_r>
10018fa2:	e7c0      	b.n	10018f26 <_fclose_r+0x42>

10018fa4 <__swsetup_r>:
10018fa4:	b538      	push	{r3, r4, r5, lr}
10018fa6:	4b2e      	ldr	r3, [pc, #184]	@ (10019060 <__swsetup_r+0xbc>)
10018fa8:	681b      	ldr	r3, [r3, #0]
10018faa:	4605      	mov	r5, r0
10018fac:	460c      	mov	r4, r1
10018fae:	b113      	cbz	r3, 10018fb6 <__swsetup_r+0x12>
10018fb0:	6b5a      	ldr	r2, [r3, #52]	@ 0x34
10018fb2:	2a00      	cmp	r2, #0
10018fb4:	d04b      	beq.n	1001904e <__swsetup_r+0xaa>
10018fb6:	f9b4 300c 	ldrsh.w	r3, [r4, #12]
10018fba:	0718      	lsls	r0, r3, #28
10018fbc:	d51c      	bpl.n	10018ff8 <__swsetup_r+0x54>
10018fbe:	6922      	ldr	r2, [r4, #16]
10018fc0:	b322      	cbz	r2, 1001900c <__swsetup_r+0x68>
10018fc2:	f013 0101 	ands.w	r1, r3, #1
10018fc6:	d007      	beq.n	10018fd8 <__swsetup_r+0x34>
10018fc8:	6961      	ldr	r1, [r4, #20]
10018fca:	2000      	movs	r0, #0
10018fcc:	4249      	negs	r1, r1
10018fce:	60a0      	str	r0, [r4, #8]
10018fd0:	61a1      	str	r1, [r4, #24]
10018fd2:	b13a      	cbz	r2, 10018fe4 <__swsetup_r+0x40>
10018fd4:	2000      	movs	r0, #0
10018fd6:	bd38      	pop	{r3, r4, r5, pc}
10018fd8:	0798      	lsls	r0, r3, #30
10018fda:	bf58      	it	pl
10018fdc:	6961      	ldrpl	r1, [r4, #20]
10018fde:	60a1      	str	r1, [r4, #8]
10018fe0:	2a00      	cmp	r2, #0
10018fe2:	d1f7      	bne.n	10018fd4 <__swsetup_r+0x30>
10018fe4:	0619      	lsls	r1, r3, #24
10018fe6:	bf58      	it	pl
10018fe8:	4610      	movpl	r0, r2
10018fea:	d5f4      	bpl.n	10018fd6 <__swsetup_r+0x32>
10018fec:	f043 0340 	orr.w	r3, r3, #64	@ 0x40
10018ff0:	81a3      	strh	r3, [r4, #12]
10018ff2:	f04f 30ff 	mov.w	r0, #4294967295	@ 0xffffffff
10018ff6:	bd38      	pop	{r3, r4, r5, pc}
10018ff8:	06d9      	lsls	r1, r3, #27
10018ffa:	d52c      	bpl.n	10019056 <__swsetup_r+0xb2>
10018ffc:	075a      	lsls	r2, r3, #29
10018ffe:	d412      	bmi.n	10019026 <__swsetup_r+0x82>
10019000:	6922      	ldr	r2, [r4, #16]
10019002:	f043 0308 	orr.w	r3, r3, #8
10019006:	81a3      	strh	r3, [r4, #12]
10019008:	2a00      	cmp	r2, #0
1001900a:	d1da      	bne.n	10018fc2 <__swsetup_r+0x1e>
1001900c:	f403 7120 	and.w	r1, r3, #640	@ 0x280
10019010:	f5b1 7f00 	cmp.w	r1, #512	@ 0x200
10019014:	d0d5      	beq.n	10018fc2 <__swsetup_r+0x1e>
10019016:	4621      	mov	r1, r4
10019018:	4628      	mov	r0, r5
1001901a:	f000 f823 	bl	10019064 <__smakebuf_r>
1001901e:	f9b4 300c 	ldrsh.w	r3, [r4, #12]
10019022:	6922      	ldr	r2, [r4, #16]
10019024:	e7cd      	b.n	10018fc2 <__swsetup_r+0x1e>
10019026:	6b21      	ldr	r1, [r4, #48]	@ 0x30
10019028:	b151      	cbz	r1, 10019040 <__swsetup_r+0x9c>
1001902a:	f104 0240 	add.w	r2, r4, #64	@ 0x40
1001902e:	4291      	cmp	r1, r2
10019030:	d004      	beq.n	1001903c <__swsetup_r+0x98>
10019032:	4628      	mov	r0, r5
10019034:	f7fc fbc4 	bl	100157c0 <_free_r>
10019038:	f9b4 300c 	ldrsh.w	r3, [r4, #12]
1001903c:	2200      	movs	r2, #0
1001903e:	6322      	str	r2, [r4, #48]	@ 0x30
10019040:	6922      	ldr	r2, [r4, #16]
10019042:	2100      	movs	r1, #0
10019044:	e9c4 2100 	strd	r2, r1, [r4]
10019048:	f023 0324 	bic.w	r3, r3, #36	@ 0x24
1001904c:	e7d9      	b.n	10019002 <__swsetup_r+0x5e>
1001904e:	4618      	mov	r0, r3
10019050:	f7fc f99c 	bl	1001538c <__sinit>
10019054:	e7af      	b.n	10018fb6 <__swsetup_r+0x12>
10019056:	2209      	movs	r2, #9
10019058:	602a      	str	r2, [r5, #0]
1001905a:	f043 0340 	orr.w	r3, r3, #64	@ 0x40
1001905e:	e7c7      	b.n	10018ff0 <__swsetup_r+0x4c>
10019060:	200005b8 	.word	0x200005b8

10019064 <__smakebuf_r>:
10019064:	e92d 41f0 	stmdb	sp!, {r4, r5, r6, r7, r8, lr}
10019068:	f9b1 300c 	ldrsh.w	r3, [r1, #12]
1001906c:	460c      	mov	r4, r1
1001906e:	0799      	lsls	r1, r3, #30
10019070:	b096      	sub	sp, #88	@ 0x58
10019072:	d508      	bpl.n	10019086 <__smakebuf_r+0x22>
10019074:	f104 0343 	add.w	r3, r4, #67	@ 0x43
10019078:	2201      	movs	r2, #1
1001907a:	e9c4 3204 	strd	r3, r2, [r4, #16]
1001907e:	6023      	str	r3, [r4, #0]
10019080:	b016      	add	sp, #88	@ 0x58
10019082:	e8bd 81f0 	ldmia.w	sp!, {r4, r5, r6, r7, r8, pc}
10019086:	f9b4 100e 	ldrsh.w	r1, [r4, #14]
1001908a:	2900      	cmp	r1, #0
1001908c:	4606      	mov	r6, r0
1001908e:	db26      	blt.n	100190de <__smakebuf_r+0x7a>
10019090:	466a      	mov	r2, sp
10019092:	f000 ff4f 	bl	10019f34 <_fstat_r>
10019096:	2800      	cmp	r0, #0
10019098:	db1f      	blt.n	100190da <__smakebuf_r+0x76>
1001909a:	9d01      	ldr	r5, [sp, #4]
1001909c:	f405 4570 	and.w	r5, r5, #61440	@ 0xf000
100190a0:	f5a5 5500 	sub.w	r5, r5, #8192	@ 0x2000
100190a4:	fab5 f585 	clz	r5, r5
100190a8:	f44f 6880 	mov.w	r8, #1024	@ 0x400
100190ac:	096d      	lsrs	r5, r5, #5
100190ae:	f44f 6700 	mov.w	r7, #2048	@ 0x800
100190b2:	4641      	mov	r1, r8
100190b4:	4630      	mov	r0, r6
100190b6:	f7fa fcef 	bl	10013a98 <_malloc_r>
100190ba:	b1e8      	cbz	r0, 100190f8 <__smakebuf_r+0x94>
100190bc:	f9b4 300c 	ldrsh.w	r3, [r4, #12]
100190c0:	f8c4 8014 	str.w	r8, [r4, #20]
100190c4:	f043 0380 	orr.w	r3, r3, #128	@ 0x80
100190c8:	6020      	str	r0, [r4, #0]
100190ca:	6120      	str	r0, [r4, #16]
100190cc:	81a3      	strh	r3, [r4, #12]
100190ce:	bb3d      	cbnz	r5, 10019120 <__smakebuf_r+0xbc>
100190d0:	433b      	orrs	r3, r7
100190d2:	81a3      	strh	r3, [r4, #12]
100190d4:	b016      	add	sp, #88	@ 0x58
100190d6:	e8bd 81f0 	ldmia.w	sp!, {r4, r5, r6, r7, r8, pc}
100190da:	f9b4 300c 	ldrsh.w	r3, [r4, #12]
100190de:	f013 0580 	ands.w	r5, r3, #128	@ 0x80
100190e2:	d019      	beq.n	10019118 <__smakebuf_r+0xb4>
100190e4:	f04f 0840 	mov.w	r8, #64	@ 0x40
100190e8:	2500      	movs	r5, #0
100190ea:	4641      	mov	r1, r8
100190ec:	4630      	mov	r0, r6
100190ee:	462f      	mov	r7, r5
100190f0:	f7fa fcd2 	bl	10013a98 <_malloc_r>
100190f4:	2800      	cmp	r0, #0
100190f6:	d1e1      	bne.n	100190bc <__smakebuf_r+0x58>
100190f8:	f9b4 300c 	ldrsh.w	r3, [r4, #12]
100190fc:	059a      	lsls	r2, r3, #22
100190fe:	d4bf      	bmi.n	10019080 <__smakebuf_r+0x1c>
10019100:	f023 0303 	bic.w	r3, r3, #3
10019104:	f104 0243 	add.w	r2, r4, #67	@ 0x43
10019108:	f043 0302 	orr.w	r3, r3, #2
1001910c:	2101      	movs	r1, #1
1001910e:	e9c4 2104 	strd	r2, r1, [r4, #16]
10019112:	81a3      	strh	r3, [r4, #12]
10019114:	6022      	str	r2, [r4, #0]
10019116:	e7b3      	b.n	10019080 <__smakebuf_r+0x1c>
10019118:	f44f 6880 	mov.w	r8, #1024	@ 0x400
1001911c:	462f      	mov	r7, r5
1001911e:	e7c8      	b.n	100190b2 <__smakebuf_r+0x4e>
10019120:	f9b4 100e 	ldrsh.w	r1, [r4, #14]
10019124:	4630      	mov	r0, r6
10019126:	f000 ff1b 	bl	10019f60 <_isatty_r>
1001912a:	b910      	cbnz	r0, 10019132 <__smakebuf_r+0xce>
1001912c:	f9b4 300c 	ldrsh.w	r3, [r4, #12]
10019130:	e7ce      	b.n	100190d0 <__smakebuf_r+0x6c>
10019132:	89a3      	ldrh	r3, [r4, #12]
10019134:	f023 0303 	bic.w	r3, r3, #3
10019138:	f043 0301 	orr.w	r3, r3, #1
1001913c:	b21b      	sxth	r3, r3
1001913e:	e7c7      	b.n	100190d0 <__smakebuf_r+0x6c>

10019140 <_Balloc>:
10019140:	6c43      	ldr	r3, [r0, #68]	@ 0x44
10019142:	b570      	push	{r4, r5, r6, lr}
10019144:	4605      	mov	r5, r0
10019146:	460c      	mov	r4, r1
10019148:	b14b      	cbz	r3, 1001915e <_Balloc+0x1e>
1001914a:	f853 0024 	ldr.w	r0, [r3, r4, lsl #2]
1001914e:	b180      	cbz	r0, 10019172 <_Balloc+0x32>
10019150:	6802      	ldr	r2, [r0, #0]
10019152:	f843 2024 	str.w	r2, [r3, r4, lsl #2]
10019156:	2300      	movs	r3, #0
10019158:	60c3      	str	r3, [r0, #12]
1001915a:	6103      	str	r3, [r0, #16]
1001915c:	bd70      	pop	{r4, r5, r6, pc}
1001915e:	2221      	movs	r2, #33	@ 0x21
10019160:	2104      	movs	r1, #4
10019162:	f000 fba7 	bl	100198b4 <_calloc_r>
10019166:	4603      	mov	r3, r0
10019168:	6468      	str	r0, [r5, #68]	@ 0x44
1001916a:	2800      	cmp	r0, #0
1001916c:	d1ed      	bne.n	1001914a <_Balloc+0xa>
1001916e:	2000      	movs	r0, #0
10019170:	bd70      	pop	{r4, r5, r6, pc}
10019172:	2101      	movs	r1, #1
10019174:	fa01 f604 	lsl.w	r6, r1, r4
10019178:	1d72      	adds	r2, r6, #5
1001917a:	0092      	lsls	r2, r2, #2
1001917c:	4628      	mov	r0, r5
1001917e:	f000 fb99 	bl	100198b4 <_calloc_r>
10019182:	2800      	cmp	r0, #0
10019184:	d0f3      	beq.n	1001916e <_Balloc+0x2e>
10019186:	e9c0 4601 	strd	r4, r6, [r0, #4]
1001918a:	e7e4      	b.n	10019156 <_Balloc+0x16>

1001918c <_Bfree>:
1001918c:	b131      	cbz	r1, 1001919c <_Bfree+0x10>
1001918e:	6c43      	ldr	r3, [r0, #68]	@ 0x44
10019190:	684a      	ldr	r2, [r1, #4]
10019192:	f853 0022 	ldr.w	r0, [r3, r2, lsl #2]
10019196:	6008      	str	r0, [r1, #0]
10019198:	f843 1022 	str.w	r1, [r3, r2, lsl #2]
1001919c:	4770      	bx	lr
1001919e:	bf00      	nop

100191a0 <__multadd>:
100191a0:	e92d 41f0 	stmdb	sp!, {r4, r5, r6, r7, r8, lr}
100191a4:	690d      	ldr	r5, [r1, #16]
100191a6:	4607      	mov	r7, r0
100191a8:	460e      	mov	r6, r1
100191aa:	461c      	mov	r4, r3
100191ac:	f101 0e14 	add.w	lr, r1, #20
100191b0:	2000      	movs	r0, #0
100191b2:	f8de 1000 	ldr.w	r1, [lr]
100191b6:	b28b      	uxth	r3, r1
100191b8:	fb02 4303 	mla	r3, r2, r3, r4
100191bc:	ea4f 4c13 	mov.w	ip, r3, lsr #16
100191c0:	0c09      	lsrs	r1, r1, #16
100191c2:	fb02 cc01 	mla	ip, r2, r1, ip
100191c6:	3001      	adds	r0, #1
100191c8:	b29b      	uxth	r3, r3
100191ca:	eb03 430c 	add.w	r3, r3, ip, lsl #16
100191ce:	4285      	cmp	r5, r0
100191d0:	f84e 3b04 	str.w	r3, [lr], #4
100191d4:	ea4f 441c 	mov.w	r4, ip, lsr #16
100191d8:	dceb      	bgt.n	100191b2 <__multadd+0x12>
100191da:	b13c      	cbz	r4, 100191ec <__multadd+0x4c>
100191dc:	68b3      	ldr	r3, [r6, #8]
100191de:	42ab      	cmp	r3, r5
100191e0:	dd07      	ble.n	100191f2 <__multadd+0x52>
100191e2:	eb06 0385 	add.w	r3, r6, r5, lsl #2
100191e6:	3501      	adds	r5, #1
100191e8:	615c      	str	r4, [r3, #20]
100191ea:	6135      	str	r5, [r6, #16]
100191ec:	4630      	mov	r0, r6
100191ee:	e8bd 81f0 	ldmia.w	sp!, {r4, r5, r6, r7, r8, pc}
100191f2:	6871      	ldr	r1, [r6, #4]
100191f4:	4638      	mov	r0, r7
100191f6:	3101      	adds	r1, #1
100191f8:	f7ff ffa2 	bl	10019140 <_Balloc>
100191fc:	4680      	mov	r8, r0
100191fe:	b1a8      	cbz	r0, 1001922c <__multadd+0x8c>
10019200:	6932      	ldr	r2, [r6, #16]
10019202:	3202      	adds	r2, #2
10019204:	f106 010c 	add.w	r1, r6, #12
10019208:	0092      	lsls	r2, r2, #2
1001920a:	300c      	adds	r0, #12
1001920c:	f7fc f938 	bl	10015480 <memcpy>
10019210:	6c7b      	ldr	r3, [r7, #68]	@ 0x44
10019212:	6872      	ldr	r2, [r6, #4]
10019214:	f853 1022 	ldr.w	r1, [r3, r2, lsl #2]
10019218:	6031      	str	r1, [r6, #0]
1001921a:	f843 6022 	str.w	r6, [r3, r2, lsl #2]
1001921e:	4646      	mov	r6, r8
10019220:	eb06 0385 	add.w	r3, r6, r5, lsl #2
10019224:	3501      	adds	r5, #1
10019226:	615c      	str	r4, [r3, #20]
10019228:	6135      	str	r5, [r6, #16]
1001922a:	e7df      	b.n	100191ec <__multadd+0x4c>
1001922c:	4b02      	ldr	r3, [pc, #8]	@ (10019238 <__multadd+0x98>)
1001922e:	4803      	ldr	r0, [pc, #12]	@ (1001923c <__multadd+0x9c>)
10019230:	4642      	mov	r2, r8
10019232:	21ba      	movs	r1, #186	@ 0xba
10019234:	f7ff fe36 	bl	10018ea4 <__assert_func>
10019238:	1001b1ac 	.word	0x1001b1ac
1001923c:	1001b3a0 	.word	0x1001b3a0

10019240 <__hi0bits>:
10019240:	f5b0 3f80 	cmp.w	r0, #65536	@ 0x10000
10019244:	4603      	mov	r3, r0
10019246:	bf36      	itet	cc
10019248:	0403      	lslcc	r3, r0, #16
1001924a:	2000      	movcs	r0, #0
1001924c:	2010      	movcc	r0, #16
1001924e:	f1b3 7f80 	cmp.w	r3, #16777216	@ 0x1000000
10019252:	bf3c      	itt	cc
10019254:	021b      	lslcc	r3, r3, #8
10019256:	3008      	addcc	r0, #8
10019258:	f1b3 5f80 	cmp.w	r3, #268435456	@ 0x10000000
1001925c:	bf3c      	itt	cc
1001925e:	011b      	lslcc	r3, r3, #4
10019260:	3004      	addcc	r0, #4
10019262:	f1b3 4f80 	cmp.w	r3, #1073741824	@ 0x40000000
10019266:	d303      	bcc.n	10019270 <__hi0bits+0x30>
10019268:	2b00      	cmp	r3, #0
1001926a:	db06      	blt.n	1001927a <__hi0bits+0x3a>
1001926c:	3001      	adds	r0, #1
1001926e:	4770      	bx	lr
10019270:	009b      	lsls	r3, r3, #2
10019272:	d403      	bmi.n	1001927c <__hi0bits+0x3c>
10019274:	005b      	lsls	r3, r3, #1
10019276:	d403      	bmi.n	10019280 <__hi0bits+0x40>
10019278:	2020      	movs	r0, #32
1001927a:	4770      	bx	lr
1001927c:	3002      	adds	r0, #2
1001927e:	4770      	bx	lr
10019280:	3003      	adds	r0, #3
10019282:	4770      	bx	lr

10019284 <__lo0bits>:
10019284:	6803      	ldr	r3, [r0, #0]
10019286:	f013 0207 	ands.w	r2, r3, #7
1001928a:	4601      	mov	r1, r0
1001928c:	d007      	beq.n	1001929e <__lo0bits+0x1a>
1001928e:	07da      	lsls	r2, r3, #31
10019290:	d41f      	bmi.n	100192d2 <__lo0bits+0x4e>
10019292:	0798      	lsls	r0, r3, #30
10019294:	d521      	bpl.n	100192da <__lo0bits+0x56>
10019296:	085b      	lsrs	r3, r3, #1
10019298:	600b      	str	r3, [r1, #0]
1001929a:	2001      	movs	r0, #1
1001929c:	4770      	bx	lr
1001929e:	b298      	uxth	r0, r3
100192a0:	b1a0      	cbz	r0, 100192cc <__lo0bits+0x48>
100192a2:	4610      	mov	r0, r2
100192a4:	b2da      	uxtb	r2, r3
100192a6:	b90a      	cbnz	r2, 100192ac <__lo0bits+0x28>
100192a8:	3008      	adds	r0, #8
100192aa:	0a1b      	lsrs	r3, r3, #8
100192ac:	071a      	lsls	r2, r3, #28
100192ae:	bf04      	itt	eq
100192b0:	091b      	lsreq	r3, r3, #4
100192b2:	3004      	addeq	r0, #4
100192b4:	079a      	lsls	r2, r3, #30
100192b6:	bf04      	itt	eq
100192b8:	089b      	lsreq	r3, r3, #2
100192ba:	3002      	addeq	r0, #2
100192bc:	07da      	lsls	r2, r3, #31
100192be:	d403      	bmi.n	100192c8 <__lo0bits+0x44>
100192c0:	085b      	lsrs	r3, r3, #1
100192c2:	f100 0001 	add.w	r0, r0, #1
100192c6:	d006      	beq.n	100192d6 <__lo0bits+0x52>
100192c8:	600b      	str	r3, [r1, #0]
100192ca:	4770      	bx	lr
100192cc:	0c1b      	lsrs	r3, r3, #16
100192ce:	2010      	movs	r0, #16
100192d0:	e7e8      	b.n	100192a4 <__lo0bits+0x20>
100192d2:	2000      	movs	r0, #0
100192d4:	4770      	bx	lr
100192d6:	2020      	movs	r0, #32
100192d8:	4770      	bx	lr
100192da:	089b      	lsrs	r3, r3, #2
100192dc:	600b      	str	r3, [r1, #0]
100192de:	2002      	movs	r0, #2
100192e0:	4770      	bx	lr
100192e2:	bf00      	nop

100192e4 <__i2b>:
100192e4:	b538      	push	{r3, r4, r5, lr}
100192e6:	6c43      	ldr	r3, [r0, #68]	@ 0x44
100192e8:	4604      	mov	r4, r0
100192ea:	460d      	mov	r5, r1
100192ec:	b14b      	cbz	r3, 10019302 <__i2b+0x1e>
100192ee:	6858      	ldr	r0, [r3, #4]
100192f0:	b1b0      	cbz	r0, 10019320 <__i2b+0x3c>
100192f2:	6802      	ldr	r2, [r0, #0]
100192f4:	605a      	str	r2, [r3, #4]
100192f6:	2200      	movs	r2, #0
100192f8:	2301      	movs	r3, #1
100192fa:	6145      	str	r5, [r0, #20]
100192fc:	60c2      	str	r2, [r0, #12]
100192fe:	6103      	str	r3, [r0, #16]
10019300:	bd38      	pop	{r3, r4, r5, pc}
10019302:	2221      	movs	r2, #33	@ 0x21
10019304:	2104      	movs	r1, #4
10019306:	f000 fad5 	bl	100198b4 <_calloc_r>
1001930a:	4603      	mov	r3, r0
1001930c:	6460      	str	r0, [r4, #68]	@ 0x44
1001930e:	2800      	cmp	r0, #0
10019310:	d1ed      	bne.n	100192ee <__i2b+0xa>
10019312:	4b09      	ldr	r3, [pc, #36]	@ (10019338 <__i2b+0x54>)
10019314:	4809      	ldr	r0, [pc, #36]	@ (1001933c <__i2b+0x58>)
10019316:	2200      	movs	r2, #0
10019318:	f240 1145 	movw	r1, #325	@ 0x145
1001931c:	f7ff fdc2 	bl	10018ea4 <__assert_func>
10019320:	221c      	movs	r2, #28
10019322:	2101      	movs	r1, #1
10019324:	4620      	mov	r0, r4
10019326:	f000 fac5 	bl	100198b4 <_calloc_r>
1001932a:	2800      	cmp	r0, #0
1001932c:	d0f1      	beq.n	10019312 <__i2b+0x2e>
1001932e:	2201      	movs	r2, #1
10019330:	2302      	movs	r3, #2
10019332:	6042      	str	r2, [r0, #4]
10019334:	6083      	str	r3, [r0, #8]
10019336:	e7de      	b.n	100192f6 <__i2b+0x12>
10019338:	1001b1ac 	.word	0x1001b1ac
1001933c:	1001b3a0 	.word	0x1001b3a0

10019340 <__multiply>:
10019340:	e92d 4ff0 	stmdb	sp!, {r4, r5, r6, r7, r8, r9, sl, fp, lr}
10019344:	f8d1 8010 	ldr.w	r8, [r1, #16]
10019348:	6915      	ldr	r5, [r2, #16]
1001934a:	45a8      	cmp	r8, r5
1001934c:	b085      	sub	sp, #20
1001934e:	460e      	mov	r6, r1
10019350:	4692      	mov	sl, r2
10019352:	db05      	blt.n	10019360 <__multiply+0x20>
10019354:	462a      	mov	r2, r5
10019356:	4653      	mov	r3, sl
10019358:	4645      	mov	r5, r8
1001935a:	468a      	mov	sl, r1
1001935c:	4690      	mov	r8, r2
1001935e:	461e      	mov	r6, r3
10019360:	f8da 3008 	ldr.w	r3, [sl, #8]
10019364:	f8da 1004 	ldr.w	r1, [sl, #4]
10019368:	eb05 0408 	add.w	r4, r5, r8
1001936c:	42a3      	cmp	r3, r4
1001936e:	bfb8      	it	lt
10019370:	3101      	addlt	r1, #1
10019372:	f7ff fee5 	bl	10019140 <_Balloc>
10019376:	4684      	mov	ip, r0
10019378:	2800      	cmp	r0, #0
1001937a:	f000 808b 	beq.w	10019494 <__multiply+0x154>
1001937e:	f100 0714 	add.w	r7, r0, #20
10019382:	eb07 0e84 	add.w	lr, r7, r4, lsl #2
10019386:	4577      	cmp	r7, lr
10019388:	d205      	bcs.n	10019396 <__multiply+0x56>
1001938a:	463b      	mov	r3, r7
1001938c:	2200      	movs	r2, #0
1001938e:	f843 2b04 	str.w	r2, [r3], #4
10019392:	459e      	cmp	lr, r3
10019394:	d8fb      	bhi.n	1001938e <__multiply+0x4e>
10019396:	3614      	adds	r6, #20
10019398:	eb06 0888 	add.w	r8, r6, r8, lsl #2
1001939c:	f10a 0914 	add.w	r9, sl, #20
100193a0:	4546      	cmp	r6, r8
100193a2:	eb09 0585 	add.w	r5, r9, r5, lsl #2
100193a6:	d266      	bcs.n	10019476 <__multiply+0x136>
100193a8:	eba5 030a 	sub.w	r3, r5, sl
100193ac:	3b15      	subs	r3, #21
100193ae:	f023 0303 	bic.w	r3, r3, #3
100193b2:	f10a 0a15 	add.w	sl, sl, #21
100193b6:	3304      	adds	r3, #4
100193b8:	4555      	cmp	r5, sl
100193ba:	bf2c      	ite	cs
100193bc:	469b      	movcs	fp, r3
100193be:	f04f 0b04 	movcc.w	fp, #4
100193c2:	f8cd e008 	str.w	lr, [sp, #8]
100193c6:	9403      	str	r4, [sp, #12]
100193c8:	46ae      	mov	lr, r5
100193ca:	46e2      	mov	sl, ip
100193cc:	e005      	b.n	100193da <__multiply+0x9a>
100193ce:	0c09      	lsrs	r1, r1, #16
100193d0:	d12a      	bne.n	10019428 <__multiply+0xe8>
100193d2:	45b0      	cmp	r8, r6
100193d4:	f107 0704 	add.w	r7, r7, #4
100193d8:	d94a      	bls.n	10019470 <__multiply+0x130>
100193da:	f856 1b04 	ldr.w	r1, [r6], #4
100193de:	b28d      	uxth	r5, r1
100193e0:	2d00      	cmp	r5, #0
100193e2:	d0f4      	beq.n	100193ce <__multiply+0x8e>
100193e4:	46cc      	mov	ip, r9
100193e6:	463c      	mov	r4, r7
100193e8:	2300      	movs	r3, #0
100193ea:	9601      	str	r6, [sp, #4]
100193ec:	f85c 0b04 	ldr.w	r0, [ip], #4
100193f0:	6821      	ldr	r1, [r4, #0]
100193f2:	b286      	uxth	r6, r0
100193f4:	b28a      	uxth	r2, r1
100193f6:	0c00      	lsrs	r0, r0, #16
100193f8:	fb05 2206 	mla	r2, r5, r6, r2
100193fc:	0c09      	lsrs	r1, r1, #16
100193fe:	441a      	add	r2, r3
10019400:	fb05 1100 	mla	r1, r5, r0, r1
10019404:	eb01 4112 	add.w	r1, r1, r2, lsr #16
10019408:	b292      	uxth	r2, r2
1001940a:	ea42 4201 	orr.w	r2, r2, r1, lsl #16
1001940e:	45e6      	cmp	lr, ip
10019410:	f844 2b04 	str.w	r2, [r4], #4
10019414:	ea4f 4311 	mov.w	r3, r1, lsr #16
10019418:	d8e8      	bhi.n	100193ec <__multiply+0xac>
1001941a:	9e01      	ldr	r6, [sp, #4]
1001941c:	f847 300b 	str.w	r3, [r7, fp]
10019420:	f856 1c04 	ldr.w	r1, [r6, #-4]
10019424:	0c09      	lsrs	r1, r1, #16
10019426:	d0d4      	beq.n	100193d2 <__multiply+0x92>
10019428:	683b      	ldr	r3, [r7, #0]
1001942a:	2200      	movs	r2, #0
1001942c:	4648      	mov	r0, r9
1001942e:	461d      	mov	r5, r3
10019430:	463c      	mov	r4, r7
10019432:	4694      	mov	ip, r2
10019434:	8802      	ldrh	r2, [r0, #0]
10019436:	fb01 c202 	mla	r2, r1, r2, ip
1001943a:	eb02 4215 	add.w	r2, r2, r5, lsr #16
1001943e:	b29b      	uxth	r3, r3
10019440:	ea43 4302 	orr.w	r3, r3, r2, lsl #16
10019444:	f844 3b04 	str.w	r3, [r4], #4
10019448:	f850 3b04 	ldr.w	r3, [r0], #4
1001944c:	6825      	ldr	r5, [r4, #0]
1001944e:	ea4f 4c13 	mov.w	ip, r3, lsr #16
10019452:	b2ab      	uxth	r3, r5
10019454:	fb01 330c 	mla	r3, r1, ip, r3
10019458:	eb03 4312 	add.w	r3, r3, r2, lsr #16
1001945c:	4586      	cmp	lr, r0
1001945e:	ea4f 4c13 	mov.w	ip, r3, lsr #16
10019462:	d8e7      	bhi.n	10019434 <__multiply+0xf4>
10019464:	45b0      	cmp	r8, r6
10019466:	f847 300b 	str.w	r3, [r7, fp]
1001946a:	f107 0704 	add.w	r7, r7, #4
1001946e:	d8b4      	bhi.n	100193da <__multiply+0x9a>
10019470:	e9dd e402 	ldrd	lr, r4, [sp, #8]
10019474:	46d4      	mov	ip, sl
10019476:	2c00      	cmp	r4, #0
10019478:	dc02      	bgt.n	10019480 <__multiply+0x140>
1001947a:	e005      	b.n	10019488 <__multiply+0x148>
1001947c:	3c01      	subs	r4, #1
1001947e:	d003      	beq.n	10019488 <__multiply+0x148>
10019480:	f85e 3d04 	ldr.w	r3, [lr, #-4]!
10019484:	2b00      	cmp	r3, #0
10019486:	d0f9      	beq.n	1001947c <__multiply+0x13c>
10019488:	4660      	mov	r0, ip
1001948a:	f8cc 4010 	str.w	r4, [ip, #16]
1001948e:	b005      	add	sp, #20
10019490:	e8bd 8ff0 	ldmia.w	sp!, {r4, r5, r6, r7, r8, r9, sl, fp, pc}
10019494:	4b03      	ldr	r3, [pc, #12]	@ (100194a4 <__multiply+0x164>)
10019496:	4804      	ldr	r0, [pc, #16]	@ (100194a8 <__multiply+0x168>)
10019498:	4662      	mov	r2, ip
1001949a:	f44f 71b1 	mov.w	r1, #354	@ 0x162
1001949e:	f7ff fd01 	bl	10018ea4 <__assert_func>
100194a2:	bf00      	nop
100194a4:	1001b1ac 	.word	0x1001b1ac
100194a8:	1001b3a0 	.word	0x1001b3a0

100194ac <__pow5mult>:
100194ac:	f012 0303 	ands.w	r3, r2, #3
100194b0:	e92d 41f0 	stmdb	sp!, {r4, r5, r6, r7, r8, lr}
100194b4:	4614      	mov	r4, r2
100194b6:	4607      	mov	r7, r0
100194b8:	d12c      	bne.n	10019514 <__pow5mult+0x68>
100194ba:	460d      	mov	r5, r1
100194bc:	10a4      	asrs	r4, r4, #2
100194be:	d01c      	beq.n	100194fa <__pow5mult+0x4e>
100194c0:	6c3e      	ldr	r6, [r7, #64]	@ 0x40
100194c2:	b386      	cbz	r6, 10019526 <__pow5mult+0x7a>
100194c4:	07e3      	lsls	r3, r4, #31
100194c6:	f04f 0800 	mov.w	r8, #0
100194ca:	d406      	bmi.n	100194da <__pow5mult+0x2e>
100194cc:	1064      	asrs	r4, r4, #1
100194ce:	d014      	beq.n	100194fa <__pow5mult+0x4e>
100194d0:	6830      	ldr	r0, [r6, #0]
100194d2:	b1a8      	cbz	r0, 10019500 <__pow5mult+0x54>
100194d4:	4606      	mov	r6, r0
100194d6:	07e3      	lsls	r3, r4, #31
100194d8:	d5f8      	bpl.n	100194cc <__pow5mult+0x20>
100194da:	4632      	mov	r2, r6
100194dc:	4629      	mov	r1, r5
100194de:	4638      	mov	r0, r7
100194e0:	f7ff ff2e 	bl	10019340 <__multiply>
100194e4:	b135      	cbz	r5, 100194f4 <__pow5mult+0x48>
100194e6:	6c7b      	ldr	r3, [r7, #68]	@ 0x44
100194e8:	6869      	ldr	r1, [r5, #4]
100194ea:	f853 2021 	ldr.w	r2, [r3, r1, lsl #2]
100194ee:	602a      	str	r2, [r5, #0]
100194f0:	f843 5021 	str.w	r5, [r3, r1, lsl #2]
100194f4:	1064      	asrs	r4, r4, #1
100194f6:	4605      	mov	r5, r0
100194f8:	d1ea      	bne.n	100194d0 <__pow5mult+0x24>
100194fa:	4628      	mov	r0, r5
100194fc:	e8bd 81f0 	ldmia.w	sp!, {r4, r5, r6, r7, r8, pc}
10019500:	4632      	mov	r2, r6
10019502:	4631      	mov	r1, r6
10019504:	4638      	mov	r0, r7
10019506:	f7ff ff1b 	bl	10019340 <__multiply>
1001950a:	6030      	str	r0, [r6, #0]
1001950c:	f8c0 8000 	str.w	r8, [r0]
10019510:	4606      	mov	r6, r0
10019512:	e7e0      	b.n	100194d6 <__pow5mult+0x2a>
10019514:	3b01      	subs	r3, #1
10019516:	4a0f      	ldr	r2, [pc, #60]	@ (10019554 <__pow5mult+0xa8>)
10019518:	f852 2023 	ldr.w	r2, [r2, r3, lsl #2]
1001951c:	2300      	movs	r3, #0
1001951e:	f7ff fe3f 	bl	100191a0 <__multadd>
10019522:	4605      	mov	r5, r0
10019524:	e7ca      	b.n	100194bc <__pow5mult+0x10>
10019526:	2101      	movs	r1, #1
10019528:	4638      	mov	r0, r7
1001952a:	f7ff fe09 	bl	10019140 <_Balloc>
1001952e:	4606      	mov	r6, r0
10019530:	b140      	cbz	r0, 10019544 <__pow5mult+0x98>
10019532:	2301      	movs	r3, #1
10019534:	f240 2271 	movw	r2, #625	@ 0x271
10019538:	e9c0 3204 	strd	r3, r2, [r0, #16]
1001953c:	2300      	movs	r3, #0
1001953e:	6438      	str	r0, [r7, #64]	@ 0x40
10019540:	6003      	str	r3, [r0, #0]
10019542:	e7bf      	b.n	100194c4 <__pow5mult+0x18>
10019544:	4b04      	ldr	r3, [pc, #16]	@ (10019558 <__pow5mult+0xac>)
10019546:	4805      	ldr	r0, [pc, #20]	@ (1001955c <__pow5mult+0xb0>)
10019548:	4632      	mov	r2, r6
1001954a:	f240 1145 	movw	r1, #325	@ 0x145
1001954e:	f7ff fca9 	bl	10018ea4 <__assert_func>
10019552:	bf00      	nop
10019554:	1001b3fc 	.word	0x1001b3fc
10019558:	1001b1ac 	.word	0x1001b1ac
1001955c:	1001b3a0 	.word	0x1001b3a0

10019560 <__lshift>:
10019560:	e92d 47f0 	stmdb	sp!, {r4, r5, r6, r7, r8, r9, sl, lr}
10019564:	460c      	mov	r4, r1
10019566:	4690      	mov	r8, r2
10019568:	6927      	ldr	r7, [r4, #16]
1001956a:	68a3      	ldr	r3, [r4, #8]
1001956c:	6849      	ldr	r1, [r1, #4]
1001956e:	eb07 1762 	add.w	r7, r7, r2, asr #5
10019572:	1c7d      	adds	r5, r7, #1
10019574:	429d      	cmp	r5, r3
10019576:	4606      	mov	r6, r0
10019578:	ea4f 1962 	mov.w	r9, r2, asr #5
1001957c:	dd04      	ble.n	10019588 <__lshift+0x28>
1001957e:	005b      	lsls	r3, r3, #1
10019580:	429d      	cmp	r5, r3
10019582:	f101 0101 	add.w	r1, r1, #1
10019586:	dcfa      	bgt.n	1001957e <__lshift+0x1e>
10019588:	4630      	mov	r0, r6
1001958a:	f7ff fdd9 	bl	10019140 <_Balloc>
1001958e:	4684      	mov	ip, r0
10019590:	2800      	cmp	r0, #0
10019592:	d051      	beq.n	10019638 <__lshift+0xd8>
10019594:	f1b9 0f00 	cmp.w	r9, #0
10019598:	f100 0014 	add.w	r0, r0, #20
1001959c:	dd0e      	ble.n	100195bc <__lshift+0x5c>
1001959e:	f109 0205 	add.w	r2, r9, #5
100195a2:	ea4f 0e82 	mov.w	lr, r2, lsl #2
100195a6:	4603      	mov	r3, r0
100195a8:	eb0c 0282 	add.w	r2, ip, r2, lsl #2
100195ac:	2100      	movs	r1, #0
100195ae:	f843 1b04 	str.w	r1, [r3], #4
100195b2:	4293      	cmp	r3, r2
100195b4:	d1fb      	bne.n	100195ae <__lshift+0x4e>
100195b6:	f1ae 0314 	sub.w	r3, lr, #20
100195ba:	4418      	add	r0, r3
100195bc:	6921      	ldr	r1, [r4, #16]
100195be:	f104 0314 	add.w	r3, r4, #20
100195c2:	f018 081f 	ands.w	r8, r8, #31
100195c6:	eb03 0181 	add.w	r1, r3, r1, lsl #2
100195ca:	d02d      	beq.n	10019628 <__lshift+0xc8>
100195cc:	f1c8 0920 	rsb	r9, r8, #32
100195d0:	4686      	mov	lr, r0
100195d2:	f04f 0a00 	mov.w	sl, #0
100195d6:	681a      	ldr	r2, [r3, #0]
100195d8:	fa02 f208 	lsl.w	r2, r2, r8
100195dc:	ea42 020a 	orr.w	r2, r2, sl
100195e0:	f84e 2b04 	str.w	r2, [lr], #4
100195e4:	f853 2b04 	ldr.w	r2, [r3], #4
100195e8:	4299      	cmp	r1, r3
100195ea:	fa22 fa09 	lsr.w	sl, r2, r9
100195ee:	d8f2      	bhi.n	100195d6 <__lshift+0x76>
100195f0:	1b0b      	subs	r3, r1, r4
100195f2:	3b15      	subs	r3, #21
100195f4:	f023 0303 	bic.w	r3, r3, #3
100195f8:	3304      	adds	r3, #4
100195fa:	f104 0215 	add.w	r2, r4, #21
100195fe:	4291      	cmp	r1, r2
10019600:	bf38      	it	cc
10019602:	2304      	movcc	r3, #4
10019604:	f840 a003 	str.w	sl, [r0, r3]
10019608:	f1ba 0f00 	cmp.w	sl, #0
1001960c:	d100      	bne.n	10019610 <__lshift+0xb0>
1001960e:	463d      	mov	r5, r7
10019610:	6c73      	ldr	r3, [r6, #68]	@ 0x44
10019612:	6862      	ldr	r2, [r4, #4]
10019614:	f8cc 5010 	str.w	r5, [ip, #16]
10019618:	f853 1022 	ldr.w	r1, [r3, r2, lsl #2]
1001961c:	6021      	str	r1, [r4, #0]
1001961e:	4660      	mov	r0, ip
10019620:	f843 4022 	str.w	r4, [r3, r2, lsl #2]
10019624:	e8bd 87f0 	ldmia.w	sp!, {r4, r5, r6, r7, r8, r9, sl, pc}
10019628:	3804      	subs	r0, #4
1001962a:	f853 2b04 	ldr.w	r2, [r3], #4
1001962e:	f840 2f04 	str.w	r2, [r0, #4]!
10019632:	4299      	cmp	r1, r3
10019634:	d8f9      	bhi.n	1001962a <__lshift+0xca>
10019636:	e7ea      	b.n	1001960e <__lshift+0xae>
10019638:	4b03      	ldr	r3, [pc, #12]	@ (10019648 <__lshift+0xe8>)
1001963a:	4804      	ldr	r0, [pc, #16]	@ (1001964c <__lshift+0xec>)
1001963c:	4662      	mov	r2, ip
1001963e:	f44f 71ef 	mov.w	r1, #478	@ 0x1de
10019642:	f7ff fc2f 	bl	10018ea4 <__assert_func>
10019646:	bf00      	nop
10019648:	1001b1ac 	.word	0x1001b1ac
1001964c:	1001b3a0 	.word	0x1001b3a0

10019650 <__mcmp>:
10019650:	690b      	ldr	r3, [r1, #16]
10019652:	4684      	mov	ip, r0
10019654:	6900      	ldr	r0, [r0, #16]
10019656:	1ac0      	subs	r0, r0, r3
10019658:	d116      	bne.n	10019688 <__mcmp+0x38>
1001965a:	f10c 0c14 	add.w	ip, ip, #20
1001965e:	3114      	adds	r1, #20
10019660:	eb0c 0283 	add.w	r2, ip, r3, lsl #2
10019664:	b410      	push	{r4}
10019666:	eb01 0383 	add.w	r3, r1, r3, lsl #2
1001966a:	e001      	b.n	10019670 <__mcmp+0x20>
1001966c:	4594      	cmp	ip, r2
1001966e:	d208      	bcs.n	10019682 <__mcmp+0x32>
10019670:	f852 4d04 	ldr.w	r4, [r2, #-4]!
10019674:	f853 1d04 	ldr.w	r1, [r3, #-4]!
10019678:	428c      	cmp	r4, r1
1001967a:	d0f7      	beq.n	1001966c <__mcmp+0x1c>
1001967c:	d205      	bcs.n	1001968a <__mcmp+0x3a>
1001967e:	f04f 30ff 	mov.w	r0, #4294967295	@ 0xffffffff
10019682:	f85d 4b04 	ldr.w	r4, [sp], #4
10019686:	4770      	bx	lr
10019688:	4770      	bx	lr
1001968a:	2001      	movs	r0, #1
1001968c:	f85d 4b04 	ldr.w	r4, [sp], #4
10019690:	4770      	bx	lr
10019692:	bf00      	nop

10019694 <__mdiff>:
10019694:	e92d 4ff0 	stmdb	sp!, {r4, r5, r6, r7, r8, r9, sl, fp, lr}
10019698:	6913      	ldr	r3, [r2, #16]
1001969a:	690f      	ldr	r7, [r1, #16]
1001969c:	1aff      	subs	r7, r7, r3
1001969e:	2f00      	cmp	r7, #0
100196a0:	b083      	sub	sp, #12
100196a2:	460d      	mov	r5, r1
100196a4:	4690      	mov	r8, r2
100196a6:	d115      	bne.n	100196d4 <__mdiff+0x40>
100196a8:	f101 0614 	add.w	r6, r1, #20
100196ac:	3214      	adds	r2, #20
100196ae:	eb02 0283 	add.w	r2, r2, r3, lsl #2
100196b2:	eb06 0383 	add.w	r3, r6, r3, lsl #2
100196b6:	e001      	b.n	100196bc <__mdiff+0x28>
100196b8:	429e      	cmp	r6, r3
100196ba:	d276      	bcs.n	100197aa <__mdiff+0x116>
100196bc:	f853 4d04 	ldr.w	r4, [r3, #-4]!
100196c0:	f852 1d04 	ldr.w	r1, [r2, #-4]!
100196c4:	428c      	cmp	r4, r1
100196c6:	d0f7      	beq.n	100196b8 <__mdiff+0x24>
100196c8:	d206      	bcs.n	100196d8 <__mdiff+0x44>
100196ca:	462b      	mov	r3, r5
100196cc:	2701      	movs	r7, #1
100196ce:	4645      	mov	r5, r8
100196d0:	4698      	mov	r8, r3
100196d2:	e001      	b.n	100196d8 <__mdiff+0x44>
100196d4:	dbf9      	blt.n	100196ca <__mdiff+0x36>
100196d6:	2700      	movs	r7, #0
100196d8:	6869      	ldr	r1, [r5, #4]
100196da:	f7ff fd31 	bl	10019140 <_Balloc>
100196de:	4681      	mov	r9, r0
100196e0:	2800      	cmp	r0, #0
100196e2:	d076      	beq.n	100197d2 <__mdiff+0x13e>
100196e4:	692e      	ldr	r6, [r5, #16]
100196e6:	60c7      	str	r7, [r0, #12]
100196e8:	f8d8 0010 	ldr.w	r0, [r8, #16]
100196ec:	f105 0b14 	add.w	fp, r5, #20
100196f0:	f108 0e14 	add.w	lr, r8, #20
100196f4:	f109 0a14 	add.w	sl, r9, #20
100196f8:	f105 0110 	add.w	r1, r5, #16
100196fc:	eb0e 0080 	add.w	r0, lr, r0, lsl #2
10019700:	eb0b 0286 	add.w	r2, fp, r6, lsl #2
10019704:	4657      	mov	r7, sl
10019706:	f04f 0c00 	mov.w	ip, #0
1001970a:	f8cd b004 	str.w	fp, [sp, #4]
1001970e:	f85e 4b04 	ldr.w	r4, [lr], #4
10019712:	f851 5f04 	ldr.w	r5, [r1, #4]!
10019716:	fa1f fb84 	uxth.w	fp, r4
1001971a:	b2ab      	uxth	r3, r5
1001971c:	eba3 030b 	sub.w	r3, r3, fp
10019720:	0c24      	lsrs	r4, r4, #16
10019722:	4463      	add	r3, ip
10019724:	ebc4 4415 	rsb	r4, r4, r5, lsr #16
10019728:	eb04 4423 	add.w	r4, r4, r3, asr #16
1001972c:	b29b      	uxth	r3, r3
1001972e:	ea43 4304 	orr.w	r3, r3, r4, lsl #16
10019732:	4570      	cmp	r0, lr
10019734:	f847 3b04 	str.w	r3, [r7], #4
10019738:	ea4f 4c24 	mov.w	ip, r4, asr #16
1001973c:	d8e7      	bhi.n	1001970e <__mdiff+0x7a>
1001973e:	eba0 0108 	sub.w	r1, r0, r8
10019742:	3915      	subs	r1, #21
10019744:	0889      	lsrs	r1, r1, #2
10019746:	1c4c      	adds	r4, r1, #1
10019748:	f8dd b004 	ldr.w	fp, [sp, #4]
1001974c:	f108 0815 	add.w	r8, r8, #21
10019750:	00a4      	lsls	r4, r4, #2
10019752:	4540      	cmp	r0, r8
10019754:	bf38      	it	cc
10019756:	2404      	movcc	r4, #4
10019758:	eb0b 0504 	add.w	r5, fp, r4
1001975c:	42aa      	cmp	r2, r5
1001975e:	4454      	add	r4, sl
10019760:	d930      	bls.n	100197c4 <__mdiff+0x130>
10019762:	4627      	mov	r7, r4
10019764:	4628      	mov	r0, r5
10019766:	f850 3b04 	ldr.w	r3, [r0], #4
1001976a:	fa1c fe83 	uxtah	lr, ip, r3
1001976e:	0c19      	lsrs	r1, r3, #16
10019770:	4463      	add	r3, ip
10019772:	eb01 412e 	add.w	r1, r1, lr, asr #16
10019776:	b29b      	uxth	r3, r3
10019778:	ea43 4301 	orr.w	r3, r3, r1, lsl #16
1001977c:	4282      	cmp	r2, r0
1001977e:	f847 3b04 	str.w	r3, [r7], #4
10019782:	ea4f 4c21 	mov.w	ip, r1, asr #16
10019786:	d8ee      	bhi.n	10019766 <__mdiff+0xd2>
10019788:	3a01      	subs	r2, #1
1001978a:	1b52      	subs	r2, r2, r5
1001978c:	f022 0203 	bic.w	r2, r2, #3
10019790:	4414      	add	r4, r2
10019792:	b923      	cbnz	r3, 1001979e <__mdiff+0x10a>
10019794:	f854 3d04 	ldr.w	r3, [r4, #-4]!
10019798:	3e01      	subs	r6, #1
1001979a:	2b00      	cmp	r3, #0
1001979c:	d0fa      	beq.n	10019794 <__mdiff+0x100>
1001979e:	4648      	mov	r0, r9
100197a0:	f8c9 6010 	str.w	r6, [r9, #16]
100197a4:	b003      	add	sp, #12
100197a6:	e8bd 8ff0 	ldmia.w	sp!, {r4, r5, r6, r7, r8, r9, sl, fp, pc}
100197aa:	2100      	movs	r1, #0
100197ac:	f7ff fcc8 	bl	10019140 <_Balloc>
100197b0:	4681      	mov	r9, r0
100197b2:	b1a8      	cbz	r0, 100197e0 <__mdiff+0x14c>
100197b4:	2201      	movs	r2, #1
100197b6:	2300      	movs	r3, #0
100197b8:	e9c0 2304 	strd	r2, r3, [r0, #16]
100197bc:	4648      	mov	r0, r9
100197be:	b003      	add	sp, #12
100197c0:	e8bd 8ff0 	ldmia.w	sp!, {r4, r5, r6, r7, r8, r9, sl, fp, pc}
100197c4:	0089      	lsls	r1, r1, #2
100197c6:	4540      	cmp	r0, r8
100197c8:	bf38      	it	cc
100197ca:	2100      	movcc	r1, #0
100197cc:	eb0a 0401 	add.w	r4, sl, r1
100197d0:	e7df      	b.n	10019792 <__mdiff+0xfe>
100197d2:	4b07      	ldr	r3, [pc, #28]	@ (100197f0 <__mdiff+0x15c>)
100197d4:	4807      	ldr	r0, [pc, #28]	@ (100197f4 <__mdiff+0x160>)
100197d6:	464a      	mov	r2, r9
100197d8:	f240 2145 	movw	r1, #581	@ 0x245
100197dc:	f7ff fb62 	bl	10018ea4 <__assert_func>
100197e0:	4b03      	ldr	r3, [pc, #12]	@ (100197f0 <__mdiff+0x15c>)
100197e2:	4804      	ldr	r0, [pc, #16]	@ (100197f4 <__mdiff+0x160>)
100197e4:	464a      	mov	r2, r9
100197e6:	f240 2137 	movw	r1, #567	@ 0x237
100197ea:	f7ff fb5b 	bl	10018ea4 <__assert_func>
100197ee:	bf00      	nop
100197f0:	1001b1ac 	.word	0x1001b1ac
100197f4:	1001b3a0 	.word	0x1001b3a0

100197f8 <__d2b>:
100197f8:	b5f0      	push	{r4, r5, r6, r7, lr}
100197fa:	2101      	movs	r1, #1
100197fc:	b083      	sub	sp, #12
100197fe:	4616      	mov	r6, r2
10019800:	461f      	mov	r7, r3
10019802:	f7ff fc9d 	bl	10019140 <_Balloc>
10019806:	4605      	mov	r5, r0
10019808:	2800      	cmp	r0, #0
1001980a:	d047      	beq.n	1001989c <__d2b+0xa4>
1001980c:	f3c7 540a 	ubfx	r4, r7, #20, #11
10019810:	f3c7 0313 	ubfx	r3, r7, #0, #20
10019814:	b10c      	cbz	r4, 1001981a <__d2b+0x22>
10019816:	f443 1380 	orr.w	r3, r3, #1048576	@ 0x100000
1001981a:	2e00      	cmp	r6, #0
1001981c:	9301      	str	r3, [sp, #4]
1001981e:	d114      	bne.n	1001984a <__d2b+0x52>
10019820:	a801      	add	r0, sp, #4
10019822:	f7ff fd2f 	bl	10019284 <__lo0bits>
10019826:	9b01      	ldr	r3, [sp, #4]
10019828:	616b      	str	r3, [r5, #20]
1001982a:	2201      	movs	r2, #1
1001982c:	3020      	adds	r0, #32
1001982e:	612a      	str	r2, [r5, #16]
10019830:	b314      	cbz	r4, 10019878 <__d2b+0x80>
10019832:	9b08      	ldr	r3, [sp, #32]
10019834:	f2a4 4433 	subw	r4, r4, #1075	@ 0x433
10019838:	4404      	add	r4, r0
1001983a:	601c      	str	r4, [r3, #0]
1001983c:	9b09      	ldr	r3, [sp, #36]	@ 0x24
1001983e:	f1c0 0035 	rsb	r0, r0, #53	@ 0x35
10019842:	6018      	str	r0, [r3, #0]
10019844:	4628      	mov	r0, r5
10019846:	b003      	add	sp, #12
10019848:	bdf0      	pop	{r4, r5, r6, r7, pc}
1001984a:	4668      	mov	r0, sp
1001984c:	9600      	str	r6, [sp, #0]
1001984e:	f7ff fd19 	bl	10019284 <__lo0bits>
10019852:	9b01      	ldr	r3, [sp, #4]
10019854:	b300      	cbz	r0, 10019898 <__d2b+0xa0>
10019856:	9900      	ldr	r1, [sp, #0]
10019858:	f1c0 0220 	rsb	r2, r0, #32
1001985c:	fa03 f202 	lsl.w	r2, r3, r2
10019860:	40c3      	lsrs	r3, r0
10019862:	9301      	str	r3, [sp, #4]
10019864:	430a      	orrs	r2, r1
10019866:	2b00      	cmp	r3, #0
10019868:	e9c5 2305 	strd	r2, r3, [r5, #20]
1001986c:	bf0c      	ite	eq
1001986e:	2201      	moveq	r2, #1
10019870:	2202      	movne	r2, #2
10019872:	612a      	str	r2, [r5, #16]
10019874:	2c00      	cmp	r4, #0
10019876:	d1dc      	bne.n	10019832 <__d2b+0x3a>
10019878:	eb05 0182 	add.w	r1, r5, r2, lsl #2
1001987c:	f2a0 4332 	subw	r3, r0, #1074	@ 0x432
10019880:	6908      	ldr	r0, [r1, #16]
10019882:	9908      	ldr	r1, [sp, #32]
10019884:	600b      	str	r3, [r1, #0]
10019886:	f7ff fcdb 	bl	10019240 <__hi0bits>
1001988a:	9b09      	ldr	r3, [sp, #36]	@ 0x24
1001988c:	ebc0 1042 	rsb	r0, r0, r2, lsl #5
10019890:	6018      	str	r0, [r3, #0]
10019892:	4628      	mov	r0, r5
10019894:	b003      	add	sp, #12
10019896:	bdf0      	pop	{r4, r5, r6, r7, pc}
10019898:	9a00      	ldr	r2, [sp, #0]
1001989a:	e7e4      	b.n	10019866 <__d2b+0x6e>
1001989c:	4b03      	ldr	r3, [pc, #12]	@ (100198ac <__d2b+0xb4>)
1001989e:	4804      	ldr	r0, [pc, #16]	@ (100198b0 <__d2b+0xb8>)
100198a0:	462a      	mov	r2, r5
100198a2:	f240 310f 	movw	r1, #783	@ 0x30f
100198a6:	f7ff fafd 	bl	10018ea4 <__assert_func>
100198aa:	bf00      	nop
100198ac:	1001b1ac 	.word	0x1001b1ac
100198b0:	1001b3a0 	.word	0x1001b3a0

100198b4 <_calloc_r>:
100198b4:	b538      	push	{r3, r4, r5, lr}
100198b6:	fba1 1402 	umull	r1, r4, r1, r2
100198ba:	bb54      	cbnz	r4, 10019912 <_calloc_r+0x5e>
100198bc:	f7fa f8ec 	bl	10013a98 <_malloc_r>
100198c0:	4605      	mov	r5, r0
100198c2:	b350      	cbz	r0, 1001991a <_calloc_r+0x66>
100198c4:	f850 2c04 	ldr.w	r2, [r0, #-4]
100198c8:	f022 0203 	bic.w	r2, r2, #3
100198cc:	3a04      	subs	r2, #4
100198ce:	2a24      	cmp	r2, #36	@ 0x24
100198d0:	d810      	bhi.n	100198f4 <_calloc_r+0x40>
100198d2:	2a13      	cmp	r2, #19
100198d4:	d913      	bls.n	100198fe <_calloc_r+0x4a>
100198d6:	2a1b      	cmp	r2, #27
100198d8:	6004      	str	r4, [r0, #0]
100198da:	6044      	str	r4, [r0, #4]
100198dc:	d916      	bls.n	1001990c <_calloc_r+0x58>
100198de:	2a24      	cmp	r2, #36	@ 0x24
100198e0:	6084      	str	r4, [r0, #8]
100198e2:	60c4      	str	r4, [r0, #12]
100198e4:	bf11      	iteee	ne
100198e6:	f100 0210 	addne.w	r2, r0, #16
100198ea:	f100 0218 	addeq.w	r2, r0, #24
100198ee:	6104      	streq	r4, [r0, #16]
100198f0:	6144      	streq	r4, [r0, #20]
100198f2:	e005      	b.n	10019900 <_calloc_r+0x4c>
100198f4:	4621      	mov	r1, r4
100198f6:	f7fa fb93 	bl	10014020 <memset>
100198fa:	4628      	mov	r0, r5
100198fc:	bd38      	pop	{r3, r4, r5, pc}
100198fe:	4602      	mov	r2, r0
10019900:	2300      	movs	r3, #0
10019902:	6013      	str	r3, [r2, #0]
10019904:	6053      	str	r3, [r2, #4]
10019906:	6093      	str	r3, [r2, #8]
10019908:	4628      	mov	r0, r5
1001990a:	bd38      	pop	{r3, r4, r5, pc}
1001990c:	f100 0208 	add.w	r2, r0, #8
10019910:	e7f6      	b.n	10019900 <_calloc_r+0x4c>
10019912:	f7f8 fae9 	bl	10011ee8 <__errno>
10019916:	230c      	movs	r3, #12
10019918:	6003      	str	r3, [r0, #0]
1001991a:	2500      	movs	r5, #0
1001991c:	4628      	mov	r0, r5
1001991e:	bd38      	pop	{r3, r4, r5, pc}

10019920 <_wcsnrtombs_l>:
10019920:	e92d 4ff0 	stmdb	sp!, {r4, r5, r6, r7, r8, r9, sl, fp, lr}
10019924:	b08b      	sub	sp, #44	@ 0x2c
10019926:	e9dd 7a15 	ldrd	r7, sl, [sp, #84]	@ 0x54
1001992a:	4686      	mov	lr, r0
1001992c:	461e      	mov	r6, r3
1001992e:	2f00      	cmp	r7, #0
10019930:	d05a      	beq.n	100199e8 <_wcsnrtombs_l+0xc8>
10019932:	6815      	ldr	r5, [r2, #0]
10019934:	2900      	cmp	r1, #0
10019936:	d05c      	beq.n	100199f2 <_wcsnrtombs_l+0xd2>
10019938:	9b14      	ldr	r3, [sp, #80]	@ 0x50
1001993a:	2b00      	cmp	r3, #0
1001993c:	d069      	beq.n	10019a12 <_wcsnrtombs_l+0xf2>
1001993e:	1e74      	subs	r4, r6, #1
10019940:	b34e      	cbz	r6, 10019996 <_wcsnrtombs_l+0x76>
10019942:	3d04      	subs	r5, #4
10019944:	e9cd 5e01 	strd	r5, lr, [sp, #4]
10019948:	f8dd b050 	ldr.w	fp, [sp, #80]	@ 0x50
1001994c:	9104      	str	r1, [sp, #16]
1001994e:	2600      	movs	r6, #0
10019950:	9103      	str	r1, [sp, #12]
10019952:	9205      	str	r2, [sp, #20]
10019954:	e00b      	b.n	1001996e <_wcsnrtombs_l+0x4e>
10019956:	9b03      	ldr	r3, [sp, #12]
10019958:	bb0b      	cbnz	r3, 1001999e <_wcsnrtombs_l+0x7e>
1001995a:	9b01      	ldr	r3, [sp, #4]
1001995c:	6818      	ldr	r0, [r3, #0]
1001995e:	2800      	cmp	r0, #0
10019960:	d036      	beq.n	100199d0 <_wcsnrtombs_l+0xb0>
10019962:	45dc      	cmp	ip, fp
10019964:	d257      	bcs.n	10019a16 <_wcsnrtombs_l+0xf6>
10019966:	3c01      	subs	r4, #1
10019968:	1c63      	adds	r3, r4, #1
1001996a:	4666      	mov	r6, ip
1001996c:	d013      	beq.n	10019996 <_wcsnrtombs_l+0x76>
1001996e:	9b01      	ldr	r3, [sp, #4]
10019970:	9802      	ldr	r0, [sp, #8]
10019972:	f853 2f04 	ldr.w	r2, [r3, #4]!
10019976:	9301      	str	r3, [sp, #4]
10019978:	f8da 50e0 	ldr.w	r5, [sl, #224]	@ 0xe0
1001997c:	463b      	mov	r3, r7
1001997e:	a907      	add	r1, sp, #28
10019980:	e9d7 9800 	ldrd	r9, r8, [r7]
10019984:	47a8      	blx	r5
10019986:	1c42      	adds	r2, r0, #1
10019988:	d037      	beq.n	100199fa <_wcsnrtombs_l+0xda>
1001998a:	eb00 0c06 	add.w	ip, r0, r6
1001998e:	45dc      	cmp	ip, fp
10019990:	d9e1      	bls.n	10019956 <_wcsnrtombs_l+0x36>
10019992:	e9c7 9800 	strd	r9, r8, [r7]
10019996:	4630      	mov	r0, r6
10019998:	b00b      	add	sp, #44	@ 0x2c
1001999a:	e8bd 8ff0 	ldmia.w	sp!, {r4, r5, r6, r7, r8, r9, sl, fp, pc}
1001999e:	2800      	cmp	r0, #0
100199a0:	dd0e      	ble.n	100199c0 <_wcsnrtombs_l+0xa0>
100199a2:	9b04      	ldr	r3, [sp, #16]
100199a4:	9d01      	ldr	r5, [sp, #4]
100199a6:	4418      	add	r0, r3
100199a8:	1e5a      	subs	r2, r3, #1
100199aa:	a907      	add	r1, sp, #28
100199ac:	f100 3eff 	add.w	lr, r0, #4294967295	@ 0xffffffff
100199b0:	f811 3b01 	ldrb.w	r3, [r1], #1
100199b4:	f802 3f01 	strb.w	r3, [r2, #1]!
100199b8:	4596      	cmp	lr, r2
100199ba:	d1f9      	bne.n	100199b0 <_wcsnrtombs_l+0x90>
100199bc:	9501      	str	r5, [sp, #4]
100199be:	9004      	str	r0, [sp, #16]
100199c0:	9b05      	ldr	r3, [sp, #20]
100199c2:	681a      	ldr	r2, [r3, #0]
100199c4:	3204      	adds	r2, #4
100199c6:	601a      	str	r2, [r3, #0]
100199c8:	9b01      	ldr	r3, [sp, #4]
100199ca:	6818      	ldr	r0, [r3, #0]
100199cc:	2800      	cmp	r0, #0
100199ce:	d1c8      	bne.n	10019962 <_wcsnrtombs_l+0x42>
100199d0:	9903      	ldr	r1, [sp, #12]
100199d2:	9a05      	ldr	r2, [sp, #20]
100199d4:	b101      	cbz	r1, 100199d8 <_wcsnrtombs_l+0xb8>
100199d6:	6010      	str	r0, [r2, #0]
100199d8:	f10c 36ff 	add.w	r6, ip, #4294967295	@ 0xffffffff
100199dc:	2200      	movs	r2, #0
100199de:	4630      	mov	r0, r6
100199e0:	603a      	str	r2, [r7, #0]
100199e2:	b00b      	add	sp, #44	@ 0x2c
100199e4:	e8bd 8ff0 	ldmia.w	sp!, {r4, r5, r6, r7, r8, r9, sl, fp, pc}
100199e8:	6815      	ldr	r5, [r2, #0]
100199ea:	f500 7786 	add.w	r7, r0, #268	@ 0x10c
100199ee:	2900      	cmp	r1, #0
100199f0:	d1a2      	bne.n	10019938 <_wcsnrtombs_l+0x18>
100199f2:	f04f 33ff 	mov.w	r3, #4294967295	@ 0xffffffff
100199f6:	9314      	str	r3, [sp, #80]	@ 0x50
100199f8:	e7a1      	b.n	1001993e <_wcsnrtombs_l+0x1e>
100199fa:	f8dd e008 	ldr.w	lr, [sp, #8]
100199fe:	4606      	mov	r6, r0
10019a00:	218a      	movs	r1, #138	@ 0x8a
10019a02:	2200      	movs	r2, #0
10019a04:	4630      	mov	r0, r6
10019a06:	f8ce 1000 	str.w	r1, [lr]
10019a0a:	603a      	str	r2, [r7, #0]
10019a0c:	b00b      	add	sp, #44	@ 0x2c
10019a0e:	e8bd 8ff0 	ldmia.w	sp!, {r4, r5, r6, r7, r8, r9, sl, fp, pc}
10019a12:	9e14      	ldr	r6, [sp, #80]	@ 0x50
10019a14:	e7bf      	b.n	10019996 <_wcsnrtombs_l+0x76>
10019a16:	4666      	mov	r6, ip
10019a18:	e7bd      	b.n	10019996 <_wcsnrtombs_l+0x76>
10019a1a:	bf00      	nop

10019a1c <_wcsnrtombs_r>:
10019a1c:	b510      	push	{r4, lr}
10019a1e:	b084      	sub	sp, #16
10019a20:	4c05      	ldr	r4, [pc, #20]	@ (10019a38 <_wcsnrtombs_r+0x1c>)
10019a22:	9806      	ldr	r0, [sp, #24]
10019a24:	9000      	str	r0, [sp, #0]
10019a26:	9807      	ldr	r0, [sp, #28]
10019a28:	9001      	str	r0, [sp, #4]
10019a2a:	4804      	ldr	r0, [pc, #16]	@ (10019a3c <_wcsnrtombs_r+0x20>)
10019a2c:	6800      	ldr	r0, [r0, #0]
10019a2e:	9402      	str	r4, [sp, #8]
10019a30:	f7ff ff76 	bl	10019920 <_wcsnrtombs_l>
10019a34:	b004      	add	sp, #16
10019a36:	bd10      	pop	{r4, pc}
10019a38:	2000044c 	.word	0x2000044c
10019a3c:	200005b8 	.word	0x200005b8

10019a40 <_close_r>:
10019a40:	b538      	push	{r3, r4, r5, lr}
10019a42:	4d07      	ldr	r5, [pc, #28]	@ (10019a60 <_close_r+0x20>)
10019a44:	2200      	movs	r2, #0
10019a46:	4604      	mov	r4, r0
10019a48:	4608      	mov	r0, r1
10019a4a:	602a      	str	r2, [r5, #0]
10019a4c:	f7f6 fea8 	bl	100107a0 <_close>
10019a50:	1c43      	adds	r3, r0, #1
10019a52:	d000      	beq.n	10019a56 <_close_r+0x16>
10019a54:	bd38      	pop	{r3, r4, r5, pc}
10019a56:	682b      	ldr	r3, [r5, #0]
10019a58:	2b00      	cmp	r3, #0
10019a5a:	d0fb      	beq.n	10019a54 <_close_r+0x14>
10019a5c:	6023      	str	r3, [r4, #0]
10019a5e:	bd38      	pop	{r3, r4, r5, pc}
10019a60:	2000173c 	.word	0x2000173c

10019a64 <__sflush_r>:
10019a64:	f9b1 200c 	ldrsh.w	r2, [r1, #12]
10019a68:	e92d 41f0 	stmdb	sp!, {r4, r5, r6, r7, r8, lr}
10019a6c:	460c      	mov	r4, r1
10019a6e:	0711      	lsls	r1, r2, #28
10019a70:	4680      	mov	r8, r0
10019a72:	d44b      	bmi.n	10019b0c <__sflush_r+0xa8>
10019a74:	6861      	ldr	r1, [r4, #4]
10019a76:	f442 6300 	orr.w	r3, r2, #2048	@ 0x800
10019a7a:	2900      	cmp	r1, #0
10019a7c:	81a3      	strh	r3, [r4, #12]
10019a7e:	dd60      	ble.n	10019b42 <__sflush_r+0xde>
10019a80:	6aa5      	ldr	r5, [r4, #40]	@ 0x28
10019a82:	2d00      	cmp	r5, #0
10019a84:	d03f      	beq.n	10019b06 <__sflush_r+0xa2>
10019a86:	2100      	movs	r1, #0
10019a88:	f412 5280 	ands.w	r2, r2, #4096	@ 0x1000
10019a8c:	f8d8 6000 	ldr.w	r6, [r8]
10019a90:	f8c8 1000 	str.w	r1, [r8]
10019a94:	69e1      	ldr	r1, [r4, #28]
10019a96:	d161      	bne.n	10019b5c <__sflush_r+0xf8>
10019a98:	2301      	movs	r3, #1
10019a9a:	4640      	mov	r0, r8
10019a9c:	47a8      	blx	r5
10019a9e:	1c43      	adds	r3, r0, #1
10019aa0:	4602      	mov	r2, r0
10019aa2:	d06b      	beq.n	10019b7c <__sflush_r+0x118>
10019aa4:	f9b4 300c 	ldrsh.w	r3, [r4, #12]
10019aa8:	6aa5      	ldr	r5, [r4, #40]	@ 0x28
10019aaa:	69e1      	ldr	r1, [r4, #28]
10019aac:	075f      	lsls	r7, r3, #29
10019aae:	d505      	bpl.n	10019abc <__sflush_r+0x58>
10019ab0:	6863      	ldr	r3, [r4, #4]
10019ab2:	1ad2      	subs	r2, r2, r3
10019ab4:	6b23      	ldr	r3, [r4, #48]	@ 0x30
10019ab6:	b10b      	cbz	r3, 10019abc <__sflush_r+0x58>
10019ab8:	6be3      	ldr	r3, [r4, #60]	@ 0x3c
10019aba:	1ad2      	subs	r2, r2, r3
10019abc:	2300      	movs	r3, #0
10019abe:	4640      	mov	r0, r8
10019ac0:	47a8      	blx	r5
10019ac2:	1c45      	adds	r5, r0, #1
10019ac4:	d14c      	bne.n	10019b60 <__sflush_r+0xfc>
10019ac6:	f8d8 1000 	ldr.w	r1, [r8]
10019aca:	291d      	cmp	r1, #29
10019acc:	d83d      	bhi.n	10019b4a <__sflush_r+0xe6>
10019ace:	4a32      	ldr	r2, [pc, #200]	@ (10019b98 <__sflush_r+0x134>)
10019ad0:	f9b4 300c 	ldrsh.w	r3, [r4, #12]
10019ad4:	410a      	asrs	r2, r1
10019ad6:	f012 0201 	ands.w	r2, r2, #1
10019ada:	d138      	bne.n	10019b4e <__sflush_r+0xea>
10019adc:	6062      	str	r2, [r4, #4]
10019ade:	6922      	ldr	r2, [r4, #16]
10019ae0:	6022      	str	r2, [r4, #0]
10019ae2:	f423 6200 	bic.w	r2, r3, #2048	@ 0x800
10019ae6:	81a2      	strh	r2, [r4, #12]
10019ae8:	04da      	lsls	r2, r3, #19
10019aea:	d452      	bmi.n	10019b92 <__sflush_r+0x12e>
10019aec:	6b21      	ldr	r1, [r4, #48]	@ 0x30
10019aee:	f8c8 6000 	str.w	r6, [r8]
10019af2:	b141      	cbz	r1, 10019b06 <__sflush_r+0xa2>
10019af4:	f104 0340 	add.w	r3, r4, #64	@ 0x40
10019af8:	4299      	cmp	r1, r3
10019afa:	d002      	beq.n	10019b02 <__sflush_r+0x9e>
10019afc:	4640      	mov	r0, r8
10019afe:	f7fb fe5f 	bl	100157c0 <_free_r>
10019b02:	2300      	movs	r3, #0
10019b04:	6323      	str	r3, [r4, #48]	@ 0x30
10019b06:	2000      	movs	r0, #0
10019b08:	e8bd 81f0 	ldmia.w	sp!, {r4, r5, r6, r7, r8, pc}
10019b0c:	6926      	ldr	r6, [r4, #16]
10019b0e:	2e00      	cmp	r6, #0
10019b10:	d0f9      	beq.n	10019b06 <__sflush_r+0xa2>
10019b12:	6825      	ldr	r5, [r4, #0]
10019b14:	6026      	str	r6, [r4, #0]
10019b16:	0791      	lsls	r1, r2, #30
10019b18:	bf0c      	ite	eq
10019b1a:	6963      	ldreq	r3, [r4, #20]
10019b1c:	2300      	movne	r3, #0
10019b1e:	1bad      	subs	r5, r5, r6
10019b20:	60a3      	str	r3, [r4, #8]
10019b22:	e00b      	b.n	10019b3c <__sflush_r+0xd8>
10019b24:	462b      	mov	r3, r5
10019b26:	4632      	mov	r2, r6
10019b28:	69e1      	ldr	r1, [r4, #28]
10019b2a:	6a67      	ldr	r7, [r4, #36]	@ 0x24
10019b2c:	4640      	mov	r0, r8
10019b2e:	47b8      	blx	r7
10019b30:	f1b0 0c00 	subs.w	ip, r0, #0
10019b34:	eba5 050c 	sub.w	r5, r5, ip
10019b38:	4466      	add	r6, ip
10019b3a:	dd06      	ble.n	10019b4a <__sflush_r+0xe6>
10019b3c:	2d00      	cmp	r5, #0
10019b3e:	dcf1      	bgt.n	10019b24 <__sflush_r+0xc0>
10019b40:	e7e1      	b.n	10019b06 <__sflush_r+0xa2>
10019b42:	6be1      	ldr	r1, [r4, #60]	@ 0x3c
10019b44:	2900      	cmp	r1, #0
10019b46:	dc9b      	bgt.n	10019a80 <__sflush_r+0x1c>
10019b48:	e7dd      	b.n	10019b06 <__sflush_r+0xa2>
10019b4a:	f9b4 300c 	ldrsh.w	r3, [r4, #12]
10019b4e:	f043 0340 	orr.w	r3, r3, #64	@ 0x40
10019b52:	81a3      	strh	r3, [r4, #12]
10019b54:	f04f 30ff 	mov.w	r0, #4294967295	@ 0xffffffff
10019b58:	e8bd 81f0 	ldmia.w	sp!, {r4, r5, r6, r7, r8, pc}
10019b5c:	6d22      	ldr	r2, [r4, #80]	@ 0x50
10019b5e:	e7a5      	b.n	10019aac <__sflush_r+0x48>
10019b60:	f9b4 300c 	ldrsh.w	r3, [r4, #12]
10019b64:	6922      	ldr	r2, [r4, #16]
10019b66:	6022      	str	r2, [r4, #0]
10019b68:	f423 6200 	bic.w	r2, r3, #2048	@ 0x800
10019b6c:	81a2      	strh	r2, [r4, #12]
10019b6e:	04db      	lsls	r3, r3, #19
10019b70:	f04f 0200 	mov.w	r2, #0
10019b74:	6062      	str	r2, [r4, #4]
10019b76:	d5b9      	bpl.n	10019aec <__sflush_r+0x88>
10019b78:	6520      	str	r0, [r4, #80]	@ 0x50
10019b7a:	e7b7      	b.n	10019aec <__sflush_r+0x88>
10019b7c:	f8d8 3000 	ldr.w	r3, [r8]
10019b80:	2b00      	cmp	r3, #0
10019b82:	d08f      	beq.n	10019aa4 <__sflush_r+0x40>
10019b84:	2b1d      	cmp	r3, #29
10019b86:	d001      	beq.n	10019b8c <__sflush_r+0x128>
10019b88:	2b16      	cmp	r3, #22
10019b8a:	d1de      	bne.n	10019b4a <__sflush_r+0xe6>
10019b8c:	f8c8 6000 	str.w	r6, [r8]
10019b90:	e7b9      	b.n	10019b06 <__sflush_r+0xa2>
10019b92:	2900      	cmp	r1, #0
10019b94:	d1aa      	bne.n	10019aec <__sflush_r+0x88>
10019b96:	e7ef      	b.n	10019b78 <__sflush_r+0x114>
10019b98:	dfbffffe 	.word	0xdfbffffe

10019b9c <_fflush_r>:
10019b9c:	b538      	push	{r3, r4, r5, lr}
10019b9e:	460c      	mov	r4, r1
10019ba0:	4605      	mov	r5, r0
10019ba2:	b108      	cbz	r0, 10019ba8 <_fflush_r+0xc>
10019ba4:	6b43      	ldr	r3, [r0, #52]	@ 0x34
10019ba6:	b303      	cbz	r3, 10019bea <_fflush_r+0x4e>
10019ba8:	f9b4 000c 	ldrsh.w	r0, [r4, #12]
10019bac:	b188      	cbz	r0, 10019bd2 <_fflush_r+0x36>
10019bae:	6e63      	ldr	r3, [r4, #100]	@ 0x64
10019bb0:	07db      	lsls	r3, r3, #31
10019bb2:	d401      	bmi.n	10019bb8 <_fflush_r+0x1c>
10019bb4:	0581      	lsls	r1, r0, #22
10019bb6:	d50f      	bpl.n	10019bd8 <_fflush_r+0x3c>
10019bb8:	4628      	mov	r0, r5
10019bba:	4621      	mov	r1, r4
10019bbc:	f7ff ff52 	bl	10019a64 <__sflush_r>
10019bc0:	6e63      	ldr	r3, [r4, #100]	@ 0x64
10019bc2:	07da      	lsls	r2, r3, #31
10019bc4:	4605      	mov	r5, r0
10019bc6:	d402      	bmi.n	10019bce <_fflush_r+0x32>
10019bc8:	89a3      	ldrh	r3, [r4, #12]
10019bca:	059b      	lsls	r3, r3, #22
10019bcc:	d508      	bpl.n	10019be0 <_fflush_r+0x44>
10019bce:	4628      	mov	r0, r5
10019bd0:	bd38      	pop	{r3, r4, r5, pc}
10019bd2:	4605      	mov	r5, r0
10019bd4:	4628      	mov	r0, r5
10019bd6:	bd38      	pop	{r3, r4, r5, pc}
10019bd8:	6da0      	ldr	r0, [r4, #88]	@ 0x58
10019bda:	f7fa fad9 	bl	10014190 <__retarget_lock_acquire_recursive>
10019bde:	e7eb      	b.n	10019bb8 <_fflush_r+0x1c>
10019be0:	6da0      	ldr	r0, [r4, #88]	@ 0x58
10019be2:	f7fa fad7 	bl	10014194 <__retarget_lock_release_recursive>
10019be6:	4628      	mov	r0, r5
10019be8:	bd38      	pop	{r3, r4, r5, pc}
10019bea:	f7fb fbcf 	bl	1001538c <__sinit>
10019bee:	e7db      	b.n	10019ba8 <_fflush_r+0xc>

10019bf0 <_realloc_r>:
10019bf0:	e92d 4ff8 	stmdb	sp!, {r3, r4, r5, r6, r7, r8, r9, sl, fp, lr}
10019bf4:	4616      	mov	r6, r2
10019bf6:	2900      	cmp	r1, #0
10019bf8:	f000 8096 	beq.w	10019d28 <_realloc_r+0x138>
10019bfc:	460c      	mov	r4, r1
10019bfe:	4680      	mov	r8, r0
10019c00:	f106 050b 	add.w	r5, r6, #11
10019c04:	f7fa fb48 	bl	10014298 <__malloc_lock>
10019c08:	f854 1c04 	ldr.w	r1, [r4, #-4]
10019c0c:	2d16      	cmp	r5, #22
10019c0e:	f1a4 0908 	sub.w	r9, r4, #8
10019c12:	f021 0703 	bic.w	r7, r1, #3
10019c16:	d858      	bhi.n	10019cca <_realloc_r+0xda>
10019c18:	2510      	movs	r5, #16
10019c1a:	42ae      	cmp	r6, r5
10019c1c:	d858      	bhi.n	10019cd0 <_realloc_r+0xe0>
10019c1e:	42af      	cmp	r7, r5
10019c20:	da60      	bge.n	10019ce4 <_realloc_r+0xf4>
10019c22:	4bbe      	ldr	r3, [pc, #760]	@ (10019f1c <_realloc_r+0x32c>)
10019c24:	689a      	ldr	r2, [r3, #8]
10019c26:	eb09 0c07 	add.w	ip, r9, r7
10019c2a:	4562      	cmp	r2, ip
10019c2c:	f8dc 0004 	ldr.w	r0, [ip, #4]
10019c30:	f000 8090 	beq.w	10019d54 <_realloc_r+0x164>
10019c34:	f020 0301 	bic.w	r3, r0, #1
10019c38:	4463      	add	r3, ip
10019c3a:	685b      	ldr	r3, [r3, #4]
10019c3c:	07da      	lsls	r2, r3, #31
10019c3e:	d468      	bmi.n	10019d12 <_realloc_r+0x122>
10019c40:	f020 0003 	bic.w	r0, r0, #3
10019c44:	183b      	adds	r3, r7, r0
10019c46:	429d      	cmp	r5, r3
10019c48:	dd47      	ble.n	10019cda <_realloc_r+0xea>
10019c4a:	07cb      	lsls	r3, r1, #31
10019c4c:	d412      	bmi.n	10019c74 <_realloc_r+0x84>
10019c4e:	f854 3c08 	ldr.w	r3, [r4, #-8]
10019c52:	eba9 0b03 	sub.w	fp, r9, r3
10019c56:	f8db 3004 	ldr.w	r3, [fp, #4]
10019c5a:	f023 0203 	bic.w	r2, r3, #3
10019c5e:	4410      	add	r0, r2
10019c60:	eb00 0a07 	add.w	sl, r0, r7
10019c64:	4555      	cmp	r5, sl
10019c66:	f340 80f6 	ble.w	10019e56 <_realloc_r+0x266>
10019c6a:	eb07 0a02 	add.w	sl, r7, r2
10019c6e:	4555      	cmp	r5, sl
10019c70:	f340 80cc 	ble.w	10019e0c <_realloc_r+0x21c>
10019c74:	4631      	mov	r1, r6
10019c76:	4640      	mov	r0, r8
10019c78:	f7f9 ff0e 	bl	10013a98 <_malloc_r>
10019c7c:	4606      	mov	r6, r0
10019c7e:	2800      	cmp	r0, #0
10019c80:	f000 8120 	beq.w	10019ec4 <_realloc_r+0x2d4>
10019c84:	f854 3c04 	ldr.w	r3, [r4, #-4]
10019c88:	f023 0301 	bic.w	r3, r3, #1
10019c8c:	444b      	add	r3, r9
10019c8e:	f1a0 0208 	sub.w	r2, r0, #8
10019c92:	4293      	cmp	r3, r2
10019c94:	f000 80b4 	beq.w	10019e00 <_realloc_r+0x210>
10019c98:	1f3a      	subs	r2, r7, #4
10019c9a:	2a24      	cmp	r2, #36	@ 0x24
10019c9c:	f200 80d7 	bhi.w	10019e4e <_realloc_r+0x25e>
10019ca0:	2a13      	cmp	r2, #19
10019ca2:	f200 80a2 	bhi.w	10019dea <_realloc_r+0x1fa>
10019ca6:	4603      	mov	r3, r0
10019ca8:	4622      	mov	r2, r4
10019caa:	6811      	ldr	r1, [r2, #0]
10019cac:	6019      	str	r1, [r3, #0]
10019cae:	6851      	ldr	r1, [r2, #4]
10019cb0:	6059      	str	r1, [r3, #4]
10019cb2:	6892      	ldr	r2, [r2, #8]
10019cb4:	609a      	str	r2, [r3, #8]
10019cb6:	4621      	mov	r1, r4
10019cb8:	4640      	mov	r0, r8
10019cba:	f7fb fd81 	bl	100157c0 <_free_r>
10019cbe:	4640      	mov	r0, r8
10019cc0:	f7fa faf0 	bl	100142a4 <__malloc_unlock>
10019cc4:	4630      	mov	r0, r6
10019cc6:	e8bd 8ff8 	ldmia.w	sp!, {r3, r4, r5, r6, r7, r8, r9, sl, fp, pc}
10019cca:	f035 0507 	bics.w	r5, r5, #7
10019cce:	d5a4      	bpl.n	10019c1a <_realloc_r+0x2a>
10019cd0:	230c      	movs	r3, #12
10019cd2:	f8c8 3000 	str.w	r3, [r8]
10019cd6:	2600      	movs	r6, #0
10019cd8:	e018      	b.n	10019d0c <_realloc_r+0x11c>
10019cda:	461f      	mov	r7, r3
10019cdc:	e9dc 2302 	ldrd	r2, r3, [ip, #8]
10019ce0:	60d3      	str	r3, [r2, #12]
10019ce2:	609a      	str	r2, [r3, #8]
10019ce4:	f8d9 3004 	ldr.w	r3, [r9, #4]
10019ce8:	1b7a      	subs	r2, r7, r5
10019cea:	2a0f      	cmp	r2, #15
10019cec:	f003 0301 	and.w	r3, r3, #1
10019cf0:	eb09 0007 	add.w	r0, r9, r7
10019cf4:	d81d      	bhi.n	10019d32 <_realloc_r+0x142>
10019cf6:	433b      	orrs	r3, r7
10019cf8:	f8c9 3004 	str.w	r3, [r9, #4]
10019cfc:	6843      	ldr	r3, [r0, #4]
10019cfe:	f043 0301 	orr.w	r3, r3, #1
10019d02:	6043      	str	r3, [r0, #4]
10019d04:	4640      	mov	r0, r8
10019d06:	f7fa facd 	bl	100142a4 <__malloc_unlock>
10019d0a:	4626      	mov	r6, r4
10019d0c:	4630      	mov	r0, r6
10019d0e:	e8bd 8ff8 	ldmia.w	sp!, {r3, r4, r5, r6, r7, r8, r9, sl, fp, pc}
10019d12:	07c9      	lsls	r1, r1, #31
10019d14:	d4ae      	bmi.n	10019c74 <_realloc_r+0x84>
10019d16:	f854 3c08 	ldr.w	r3, [r4, #-8]
10019d1a:	eba9 0b03 	sub.w	fp, r9, r3
10019d1e:	f8db 3004 	ldr.w	r3, [fp, #4]
10019d22:	f023 0203 	bic.w	r2, r3, #3
10019d26:	e7a0      	b.n	10019c6a <_realloc_r+0x7a>
10019d28:	e8bd 4ff8 	ldmia.w	sp!, {r3, r4, r5, r6, r7, r8, r9, sl, fp, lr}
10019d2c:	4611      	mov	r1, r2
10019d2e:	f7f9 beb3 	b.w	10013a98 <_malloc_r>
10019d32:	eb09 0105 	add.w	r1, r9, r5
10019d36:	432b      	orrs	r3, r5
10019d38:	f042 0201 	orr.w	r2, r2, #1
10019d3c:	f8c9 3004 	str.w	r3, [r9, #4]
10019d40:	604a      	str	r2, [r1, #4]
10019d42:	6843      	ldr	r3, [r0, #4]
10019d44:	f043 0301 	orr.w	r3, r3, #1
10019d48:	6043      	str	r3, [r0, #4]
10019d4a:	3108      	adds	r1, #8
10019d4c:	4640      	mov	r0, r8
10019d4e:	f7fb fd37 	bl	100157c0 <_free_r>
10019d52:	e7d7      	b.n	10019d04 <_realloc_r+0x114>
10019d54:	f020 0003 	bic.w	r0, r0, #3
10019d58:	19c2      	adds	r2, r0, r7
10019d5a:	f105 0c10 	add.w	ip, r5, #16
10019d5e:	4562      	cmp	r2, ip
10019d60:	f280 8091 	bge.w	10019e86 <_realloc_r+0x296>
10019d64:	07ca      	lsls	r2, r1, #31
10019d66:	d485      	bmi.n	10019c74 <_realloc_r+0x84>
10019d68:	f854 2c08 	ldr.w	r2, [r4, #-8]
10019d6c:	eba9 0b02 	sub.w	fp, r9, r2
10019d70:	f8db 2004 	ldr.w	r2, [fp, #4]
10019d74:	f022 0203 	bic.w	r2, r2, #3
10019d78:	4410      	add	r0, r2
10019d7a:	eb00 0a07 	add.w	sl, r0, r7
10019d7e:	45d4      	cmp	ip, sl
10019d80:	f73f af73 	bgt.w	10019c6a <_realloc_r+0x7a>
10019d84:	465e      	mov	r6, fp
10019d86:	f8db 100c 	ldr.w	r1, [fp, #12]
10019d8a:	f856 0f08 	ldr.w	r0, [r6, #8]!
10019d8e:	1f3a      	subs	r2, r7, #4
10019d90:	2a24      	cmp	r2, #36	@ 0x24
10019d92:	60c1      	str	r1, [r0, #12]
10019d94:	6088      	str	r0, [r1, #8]
10019d96:	f200 80ae 	bhi.w	10019ef6 <_realloc_r+0x306>
10019d9a:	2a13      	cmp	r2, #19
10019d9c:	f240 80a9 	bls.w	10019ef2 <_realloc_r+0x302>
10019da0:	6821      	ldr	r1, [r4, #0]
10019da2:	f8cb 1008 	str.w	r1, [fp, #8]
10019da6:	6861      	ldr	r1, [r4, #4]
10019da8:	f8cb 100c 	str.w	r1, [fp, #12]
10019dac:	2a1b      	cmp	r2, #27
10019dae:	f200 80a8 	bhi.w	10019f02 <_realloc_r+0x312>
10019db2:	3408      	adds	r4, #8
10019db4:	f10b 0210 	add.w	r2, fp, #16
10019db8:	6821      	ldr	r1, [r4, #0]
10019dba:	6011      	str	r1, [r2, #0]
10019dbc:	6861      	ldr	r1, [r4, #4]
10019dbe:	6051      	str	r1, [r2, #4]
10019dc0:	68a1      	ldr	r1, [r4, #8]
10019dc2:	6091      	str	r1, [r2, #8]
10019dc4:	eb0b 0105 	add.w	r1, fp, r5
10019dc8:	ebaa 0205 	sub.w	r2, sl, r5
10019dcc:	f042 0201 	orr.w	r2, r2, #1
10019dd0:	6099      	str	r1, [r3, #8]
10019dd2:	604a      	str	r2, [r1, #4]
10019dd4:	f8db 3004 	ldr.w	r3, [fp, #4]
10019dd8:	f003 0301 	and.w	r3, r3, #1
10019ddc:	432b      	orrs	r3, r5
10019dde:	4640      	mov	r0, r8
10019de0:	f8cb 3004 	str.w	r3, [fp, #4]
10019de4:	f7fa fa5e 	bl	100142a4 <__malloc_unlock>
10019de8:	e790      	b.n	10019d0c <_realloc_r+0x11c>
10019dea:	6823      	ldr	r3, [r4, #0]
10019dec:	6003      	str	r3, [r0, #0]
10019dee:	6863      	ldr	r3, [r4, #4]
10019df0:	6043      	str	r3, [r0, #4]
10019df2:	2a1b      	cmp	r2, #27
10019df4:	d83c      	bhi.n	10019e70 <_realloc_r+0x280>
10019df6:	f104 0208 	add.w	r2, r4, #8
10019dfa:	f100 0308 	add.w	r3, r0, #8
10019dfe:	e754      	b.n	10019caa <_realloc_r+0xba>
10019e00:	f850 3c04 	ldr.w	r3, [r0, #-4]
10019e04:	f023 0303 	bic.w	r3, r3, #3
10019e08:	441f      	add	r7, r3
10019e0a:	e76b      	b.n	10019ce4 <_realloc_r+0xf4>
10019e0c:	1f3a      	subs	r2, r7, #4
10019e0e:	465e      	mov	r6, fp
10019e10:	f8db 300c 	ldr.w	r3, [fp, #12]
10019e14:	f856 1f08 	ldr.w	r1, [r6, #8]!
10019e18:	2a24      	cmp	r2, #36	@ 0x24
10019e1a:	60cb      	str	r3, [r1, #12]
10019e1c:	6099      	str	r1, [r3, #8]
10019e1e:	d822      	bhi.n	10019e66 <_realloc_r+0x276>
10019e20:	2a13      	cmp	r2, #19
10019e22:	d91e      	bls.n	10019e62 <_realloc_r+0x272>
10019e24:	6823      	ldr	r3, [r4, #0]
10019e26:	f8cb 3008 	str.w	r3, [fp, #8]
10019e2a:	6863      	ldr	r3, [r4, #4]
10019e2c:	f8cb 300c 	str.w	r3, [fp, #12]
10019e30:	2a1b      	cmp	r2, #27
10019e32:	d83b      	bhi.n	10019eac <_realloc_r+0x2bc>
10019e34:	3408      	adds	r4, #8
10019e36:	f10b 0310 	add.w	r3, fp, #16
10019e3a:	6822      	ldr	r2, [r4, #0]
10019e3c:	601a      	str	r2, [r3, #0]
10019e3e:	6862      	ldr	r2, [r4, #4]
10019e40:	605a      	str	r2, [r3, #4]
10019e42:	68a2      	ldr	r2, [r4, #8]
10019e44:	609a      	str	r2, [r3, #8]
10019e46:	4634      	mov	r4, r6
10019e48:	4657      	mov	r7, sl
10019e4a:	46d9      	mov	r9, fp
10019e4c:	e74a      	b.n	10019ce4 <_realloc_r+0xf4>
10019e4e:	4621      	mov	r1, r4
10019e50:	f7fe ffa8 	bl	10018da4 <memmove>
10019e54:	e72f      	b.n	10019cb6 <_realloc_r+0xc6>
10019e56:	e9dc 1302 	ldrd	r1, r3, [ip, #8]
10019e5a:	1f3a      	subs	r2, r7, #4
10019e5c:	60cb      	str	r3, [r1, #12]
10019e5e:	6099      	str	r1, [r3, #8]
10019e60:	e7d5      	b.n	10019e0e <_realloc_r+0x21e>
10019e62:	4633      	mov	r3, r6
10019e64:	e7e9      	b.n	10019e3a <_realloc_r+0x24a>
10019e66:	4621      	mov	r1, r4
10019e68:	4630      	mov	r0, r6
10019e6a:	f7fe ff9b 	bl	10018da4 <memmove>
10019e6e:	e7ea      	b.n	10019e46 <_realloc_r+0x256>
10019e70:	68a3      	ldr	r3, [r4, #8]
10019e72:	6083      	str	r3, [r0, #8]
10019e74:	68e3      	ldr	r3, [r4, #12]
10019e76:	60c3      	str	r3, [r0, #12]
10019e78:	2a24      	cmp	r2, #36	@ 0x24
10019e7a:	d027      	beq.n	10019ecc <_realloc_r+0x2dc>
10019e7c:	f104 0210 	add.w	r2, r4, #16
10019e80:	f100 0310 	add.w	r3, r0, #16
10019e84:	e711      	b.n	10019caa <_realloc_r+0xba>
10019e86:	eb09 0105 	add.w	r1, r9, r5
10019e8a:	6099      	str	r1, [r3, #8]
10019e8c:	1b53      	subs	r3, r2, r5
10019e8e:	f043 0301 	orr.w	r3, r3, #1
10019e92:	604b      	str	r3, [r1, #4]
10019e94:	f854 3c04 	ldr.w	r3, [r4, #-4]
10019e98:	f003 0301 	and.w	r3, r3, #1
10019e9c:	432b      	orrs	r3, r5
10019e9e:	4640      	mov	r0, r8
10019ea0:	f844 3c04 	str.w	r3, [r4, #-4]
10019ea4:	f7fa f9fe 	bl	100142a4 <__malloc_unlock>
10019ea8:	4626      	mov	r6, r4
10019eaa:	e72f      	b.n	10019d0c <_realloc_r+0x11c>
10019eac:	68a3      	ldr	r3, [r4, #8]
10019eae:	f8cb 3010 	str.w	r3, [fp, #16]
10019eb2:	68e3      	ldr	r3, [r4, #12]
10019eb4:	f8cb 3014 	str.w	r3, [fp, #20]
10019eb8:	2a24      	cmp	r2, #36	@ 0x24
10019eba:	d010      	beq.n	10019ede <_realloc_r+0x2ee>
10019ebc:	3410      	adds	r4, #16
10019ebe:	f10b 0318 	add.w	r3, fp, #24
10019ec2:	e7ba      	b.n	10019e3a <_realloc_r+0x24a>
10019ec4:	4640      	mov	r0, r8
10019ec6:	f7fa f9ed 	bl	100142a4 <__malloc_unlock>
10019eca:	e704      	b.n	10019cd6 <_realloc_r+0xe6>
10019ecc:	6923      	ldr	r3, [r4, #16]
10019ece:	6103      	str	r3, [r0, #16]
10019ed0:	6961      	ldr	r1, [r4, #20]
10019ed2:	6141      	str	r1, [r0, #20]
10019ed4:	f104 0218 	add.w	r2, r4, #24
10019ed8:	f100 0318 	add.w	r3, r0, #24
10019edc:	e6e5      	b.n	10019caa <_realloc_r+0xba>
10019ede:	6923      	ldr	r3, [r4, #16]
10019ee0:	f8cb 3018 	str.w	r3, [fp, #24]
10019ee4:	6963      	ldr	r3, [r4, #20]
10019ee6:	f8cb 301c 	str.w	r3, [fp, #28]
10019eea:	3418      	adds	r4, #24
10019eec:	f10b 0320 	add.w	r3, fp, #32
10019ef0:	e7a3      	b.n	10019e3a <_realloc_r+0x24a>
10019ef2:	4632      	mov	r2, r6
10019ef4:	e760      	b.n	10019db8 <_realloc_r+0x1c8>
10019ef6:	4621      	mov	r1, r4
10019ef8:	4630      	mov	r0, r6
10019efa:	f7fe ff53 	bl	10018da4 <memmove>
10019efe:	4b07      	ldr	r3, [pc, #28]	@ (10019f1c <_realloc_r+0x32c>)
10019f00:	e760      	b.n	10019dc4 <_realloc_r+0x1d4>
10019f02:	68a1      	ldr	r1, [r4, #8]
10019f04:	f8cb 1010 	str.w	r1, [fp, #16]
10019f08:	68e1      	ldr	r1, [r4, #12]
10019f0a:	f8cb 1014 	str.w	r1, [fp, #20]
10019f0e:	2a24      	cmp	r2, #36	@ 0x24
10019f10:	d006      	beq.n	10019f20 <_realloc_r+0x330>
10019f12:	3410      	adds	r4, #16
10019f14:	f10b 0218 	add.w	r2, fp, #24
10019f18:	e74e      	b.n	10019db8 <_realloc_r+0x1c8>
10019f1a:	bf00      	nop
10019f1c:	20000040 	.word	0x20000040
10019f20:	6922      	ldr	r2, [r4, #16]
10019f22:	f8cb 2018 	str.w	r2, [fp, #24]
10019f26:	6962      	ldr	r2, [r4, #20]
10019f28:	f8cb 201c 	str.w	r2, [fp, #28]
10019f2c:	3418      	adds	r4, #24
10019f2e:	f10b 0220 	add.w	r2, fp, #32
10019f32:	e741      	b.n	10019db8 <_realloc_r+0x1c8>

10019f34 <_fstat_r>:
10019f34:	b570      	push	{r4, r5, r6, lr}
10019f36:	460c      	mov	r4, r1
10019f38:	4d08      	ldr	r5, [pc, #32]	@ (10019f5c <_fstat_r+0x28>)
10019f3a:	4603      	mov	r3, r0
10019f3c:	2600      	movs	r6, #0
10019f3e:	4620      	mov	r0, r4
10019f40:	4611      	mov	r1, r2
10019f42:	461c      	mov	r4, r3
10019f44:	602e      	str	r6, [r5, #0]
10019f46:	f7f6 fc37 	bl	100107b8 <_fstat>
10019f4a:	1c43      	adds	r3, r0, #1
10019f4c:	d000      	beq.n	10019f50 <_fstat_r+0x1c>
10019f4e:	bd70      	pop	{r4, r5, r6, pc}
10019f50:	682b      	ldr	r3, [r5, #0]
10019f52:	2b00      	cmp	r3, #0
10019f54:	d0fb      	beq.n	10019f4e <_fstat_r+0x1a>
10019f56:	6023      	str	r3, [r4, #0]
10019f58:	bd70      	pop	{r4, r5, r6, pc}
10019f5a:	bf00      	nop
10019f5c:	2000173c 	.word	0x2000173c

10019f60 <_isatty_r>:
10019f60:	b538      	push	{r3, r4, r5, lr}
10019f62:	4d07      	ldr	r5, [pc, #28]	@ (10019f80 <_isatty_r+0x20>)
10019f64:	2200      	movs	r2, #0
10019f66:	4604      	mov	r4, r0
10019f68:	4608      	mov	r0, r1
10019f6a:	602a      	str	r2, [r5, #0]
10019f6c:	f7f6 fc1c 	bl	100107a8 <_isatty>
10019f70:	1c43      	adds	r3, r0, #1
10019f72:	d000      	beq.n	10019f76 <_isatty_r+0x16>
10019f74:	bd38      	pop	{r3, r4, r5, pc}
10019f76:	682b      	ldr	r3, [r5, #0]
10019f78:	2b00      	cmp	r3, #0
10019f7a:	d0fb      	beq.n	10019f74 <_isatty_r+0x14>
10019f7c:	6023      	str	r3, [r4, #0]
10019f7e:	bd38      	pop	{r3, r4, r5, pc}
10019f80:	2000173c 	.word	0x2000173c

10019f84 <_lseek_r>:
10019f84:	b538      	push	{r3, r4, r5, lr}
10019f86:	460c      	mov	r4, r1
10019f88:	4d08      	ldr	r5, [pc, #32]	@ (10019fac <_lseek_r+0x28>)
10019f8a:	4684      	mov	ip, r0
10019f8c:	4611      	mov	r1, r2
10019f8e:	4620      	mov	r0, r4
10019f90:	461a      	mov	r2, r3
10019f92:	2300      	movs	r3, #0
10019f94:	602b      	str	r3, [r5, #0]
10019f96:	4664      	mov	r4, ip
10019f98:	f7f6 fc0a 	bl	100107b0 <_lseek>
10019f9c:	1c43      	adds	r3, r0, #1
10019f9e:	d000      	beq.n	10019fa2 <_lseek_r+0x1e>
10019fa0:	bd38      	pop	{r3, r4, r5, pc}
10019fa2:	682b      	ldr	r3, [r5, #0]
10019fa4:	2b00      	cmp	r3, #0
10019fa6:	d0fb      	beq.n	10019fa0 <_lseek_r+0x1c>
10019fa8:	6023      	str	r3, [r4, #0]
10019faa:	bd38      	pop	{r3, r4, r5, pc}
10019fac:	2000173c 	.word	0x2000173c

10019fb0 <_read_r>:
10019fb0:	b538      	push	{r3, r4, r5, lr}
10019fb2:	460c      	mov	r4, r1
10019fb4:	4d08      	ldr	r5, [pc, #32]	@ (10019fd8 <_read_r+0x28>)
10019fb6:	4684      	mov	ip, r0
10019fb8:	4611      	mov	r1, r2
10019fba:	4620      	mov	r0, r4
10019fbc:	461a      	mov	r2, r3
10019fbe:	2300      	movs	r3, #0
10019fc0:	602b      	str	r3, [r5, #0]
10019fc2:	4664      	mov	r4, ip
10019fc4:	f7f6 fbfc 	bl	100107c0 <_read>
10019fc8:	1c43      	adds	r3, r0, #1
10019fca:	d000      	beq.n	10019fce <_read_r+0x1e>
10019fcc:	bd38      	pop	{r3, r4, r5, pc}
10019fce:	682b      	ldr	r3, [r5, #0]
10019fd0:	2b00      	cmp	r3, #0
10019fd2:	d0fb      	beq.n	10019fcc <_read_r+0x1c>
10019fd4:	6023      	str	r3, [r4, #0]
10019fd6:	bd38      	pop	{r3, r4, r5, pc}
10019fd8:	2000173c 	.word	0x2000173c

10019fdc <fiprintf>:
10019fdc:	b40e      	push	{r1, r2, r3}
10019fde:	b510      	push	{r4, lr}
10019fe0:	b083      	sub	sp, #12
10019fe2:	ab05      	add	r3, sp, #20
10019fe4:	4c06      	ldr	r4, [pc, #24]	@ (1001a000 <fiprintf+0x24>)
10019fe6:	f853 2b04 	ldr.w	r2, [r3], #4
10019fea:	9301      	str	r3, [sp, #4]
10019fec:	4601      	mov	r1, r0
10019fee:	6820      	ldr	r0, [r4, #0]
10019ff0:	f7fd fe6e 	bl	10017cd0 <_vfiprintf_r>
10019ff4:	b003      	add	sp, #12
10019ff6:	e8bd 4010 	ldmia.w	sp!, {r4, lr}
10019ffa:	b003      	add	sp, #12
10019ffc:	4770      	bx	lr
10019ffe:	bf00      	nop
1001a000:	200005b8 	.word	0x200005b8

1001a004 <__fputwc>:
1001a004:	b570      	push	{r4, r5, r6, lr}
1001a006:	b082      	sub	sp, #8
1001a008:	4606      	mov	r6, r0
1001a00a:	460d      	mov	r5, r1
1001a00c:	4614      	mov	r4, r2
1001a00e:	f7fa f8c3 	bl	10014198 <__locale_mb_cur_max>
1001a012:	2801      	cmp	r0, #1
1001a014:	d102      	bne.n	1001a01c <__fputwc+0x18>
1001a016:	1e6b      	subs	r3, r5, #1
1001a018:	2bfe      	cmp	r3, #254	@ 0xfe
1001a01a:	d926      	bls.n	1001a06a <__fputwc+0x66>
1001a01c:	f104 035c 	add.w	r3, r4, #92	@ 0x5c
1001a020:	462a      	mov	r2, r5
1001a022:	a901      	add	r1, sp, #4
1001a024:	4630      	mov	r0, r6
1001a026:	f7fa f84d 	bl	100140c4 <_wcrtomb_r>
1001a02a:	1c43      	adds	r3, r0, #1
1001a02c:	d020      	beq.n	1001a070 <__fputwc+0x6c>
1001a02e:	b178      	cbz	r0, 1001a050 <__fputwc+0x4c>
1001a030:	68a3      	ldr	r3, [r4, #8]
1001a032:	f89d 1004 	ldrb.w	r1, [sp, #4]
1001a036:	3b01      	subs	r3, #1
1001a038:	2b00      	cmp	r3, #0
1001a03a:	60a3      	str	r3, [r4, #8]
1001a03c:	da04      	bge.n	1001a048 <__fputwc+0x44>
1001a03e:	69a2      	ldr	r2, [r4, #24]
1001a040:	4293      	cmp	r3, r2
1001a042:	db08      	blt.n	1001a056 <__fputwc+0x52>
1001a044:	290a      	cmp	r1, #10
1001a046:	d006      	beq.n	1001a056 <__fputwc+0x52>
1001a048:	6823      	ldr	r3, [r4, #0]
1001a04a:	1c5a      	adds	r2, r3, #1
1001a04c:	6022      	str	r2, [r4, #0]
1001a04e:	7019      	strb	r1, [r3, #0]
1001a050:	4628      	mov	r0, r5
1001a052:	b002      	add	sp, #8
1001a054:	bd70      	pop	{r4, r5, r6, pc}
1001a056:	4622      	mov	r2, r4
1001a058:	4630      	mov	r0, r6
1001a05a:	f000 f841 	bl	1001a0e0 <__swbuf_r>
1001a05e:	3001      	adds	r0, #1
1001a060:	d1f6      	bne.n	1001a050 <__fputwc+0x4c>
1001a062:	f04f 30ff 	mov.w	r0, #4294967295	@ 0xffffffff
1001a066:	b002      	add	sp, #8
1001a068:	bd70      	pop	{r4, r5, r6, pc}
1001a06a:	f88d 5004 	strb.w	r5, [sp, #4]
1001a06e:	e7df      	b.n	1001a030 <__fputwc+0x2c>
1001a070:	89a3      	ldrh	r3, [r4, #12]
1001a072:	f043 0340 	orr.w	r3, r3, #64	@ 0x40
1001a076:	81a3      	strh	r3, [r4, #12]
1001a078:	f04f 30ff 	mov.w	r0, #4294967295	@ 0xffffffff
1001a07c:	e7f3      	b.n	1001a066 <__fputwc+0x62>
1001a07e:	bf00      	nop

1001a080 <_fputwc_r>:
1001a080:	b530      	push	{r4, r5, lr}
1001a082:	4614      	mov	r4, r2
1001a084:	6e52      	ldr	r2, [r2, #100]	@ 0x64
1001a086:	f9b4 300c 	ldrsh.w	r3, [r4, #12]
1001a08a:	4605      	mov	r5, r0
1001a08c:	07d0      	lsls	r0, r2, #31
1001a08e:	b083      	sub	sp, #12
1001a090:	d401      	bmi.n	1001a096 <_fputwc_r+0x16>
1001a092:	059a      	lsls	r2, r3, #22
1001a094:	d51c      	bpl.n	1001a0d0 <_fputwc_r+0x50>
1001a096:	0498      	lsls	r0, r3, #18
1001a098:	d406      	bmi.n	1001a0a8 <_fputwc_r+0x28>
1001a09a:	6e62      	ldr	r2, [r4, #100]	@ 0x64
1001a09c:	f443 5300 	orr.w	r3, r3, #8192	@ 0x2000
1001a0a0:	f442 5200 	orr.w	r2, r2, #8192	@ 0x2000
1001a0a4:	81a3      	strh	r3, [r4, #12]
1001a0a6:	6662      	str	r2, [r4, #100]	@ 0x64
1001a0a8:	4622      	mov	r2, r4
1001a0aa:	4628      	mov	r0, r5
1001a0ac:	f7ff ffaa 	bl	1001a004 <__fputwc>
1001a0b0:	6e63      	ldr	r3, [r4, #100]	@ 0x64
1001a0b2:	07da      	lsls	r2, r3, #31
1001a0b4:	4605      	mov	r5, r0
1001a0b6:	d402      	bmi.n	1001a0be <_fputwc_r+0x3e>
1001a0b8:	89a3      	ldrh	r3, [r4, #12]
1001a0ba:	059b      	lsls	r3, r3, #22
1001a0bc:	d502      	bpl.n	1001a0c4 <_fputwc_r+0x44>
1001a0be:	4628      	mov	r0, r5
1001a0c0:	b003      	add	sp, #12
1001a0c2:	bd30      	pop	{r4, r5, pc}
1001a0c4:	6da0      	ldr	r0, [r4, #88]	@ 0x58
1001a0c6:	f7fa f865 	bl	10014194 <__retarget_lock_release_recursive>
1001a0ca:	4628      	mov	r0, r5
1001a0cc:	b003      	add	sp, #12
1001a0ce:	bd30      	pop	{r4, r5, pc}
1001a0d0:	6da0      	ldr	r0, [r4, #88]	@ 0x58
1001a0d2:	9101      	str	r1, [sp, #4]
1001a0d4:	f7fa f85c 	bl	10014190 <__retarget_lock_acquire_recursive>
1001a0d8:	f9b4 300c 	ldrsh.w	r3, [r4, #12]
1001a0dc:	9901      	ldr	r1, [sp, #4]
1001a0de:	e7da      	b.n	1001a096 <_fputwc_r+0x16>

1001a0e0 <__swbuf_r>:
1001a0e0:	b5f8      	push	{r3, r4, r5, r6, r7, lr}
1001a0e2:	460d      	mov	r5, r1
1001a0e4:	4614      	mov	r4, r2
1001a0e6:	4606      	mov	r6, r0
1001a0e8:	b110      	cbz	r0, 1001a0f0 <__swbuf_r+0x10>
1001a0ea:	6b43      	ldr	r3, [r0, #52]	@ 0x34
1001a0ec:	2b00      	cmp	r3, #0
1001a0ee:	d04a      	beq.n	1001a186 <__swbuf_r+0xa6>
1001a0f0:	f9b4 200c 	ldrsh.w	r2, [r4, #12]
1001a0f4:	69a3      	ldr	r3, [r4, #24]
1001a0f6:	60a3      	str	r3, [r4, #8]
1001a0f8:	0710      	lsls	r0, r2, #28
1001a0fa:	d51b      	bpl.n	1001a134 <__swbuf_r+0x54>
1001a0fc:	6923      	ldr	r3, [r4, #16]
1001a0fe:	b1cb      	cbz	r3, 1001a134 <__swbuf_r+0x54>
1001a100:	b2ed      	uxtb	r5, r5
1001a102:	0491      	lsls	r1, r2, #18
1001a104:	462f      	mov	r7, r5
1001a106:	d521      	bpl.n	1001a14c <__swbuf_r+0x6c>
1001a108:	6822      	ldr	r2, [r4, #0]
1001a10a:	6961      	ldr	r1, [r4, #20]
1001a10c:	1ad3      	subs	r3, r2, r3
1001a10e:	4299      	cmp	r1, r3
1001a110:	dd28      	ble.n	1001a164 <__swbuf_r+0x84>
1001a112:	3301      	adds	r3, #1
1001a114:	68a1      	ldr	r1, [r4, #8]
1001a116:	3901      	subs	r1, #1
1001a118:	60a1      	str	r1, [r4, #8]
1001a11a:	1c51      	adds	r1, r2, #1
1001a11c:	6021      	str	r1, [r4, #0]
1001a11e:	7015      	strb	r5, [r2, #0]
1001a120:	6962      	ldr	r2, [r4, #20]
1001a122:	429a      	cmp	r2, r3
1001a124:	d026      	beq.n	1001a174 <__swbuf_r+0x94>
1001a126:	89a3      	ldrh	r3, [r4, #12]
1001a128:	07db      	lsls	r3, r3, #31
1001a12a:	d501      	bpl.n	1001a130 <__swbuf_r+0x50>
1001a12c:	2d0a      	cmp	r5, #10
1001a12e:	d021      	beq.n	1001a174 <__swbuf_r+0x94>
1001a130:	4638      	mov	r0, r7
1001a132:	bdf8      	pop	{r3, r4, r5, r6, r7, pc}
1001a134:	4621      	mov	r1, r4
1001a136:	4630      	mov	r0, r6
1001a138:	f7fe ff34 	bl	10018fa4 <__swsetup_r>
1001a13c:	bb00      	cbnz	r0, 1001a180 <__swbuf_r+0xa0>
1001a13e:	f9b4 200c 	ldrsh.w	r2, [r4, #12]
1001a142:	6923      	ldr	r3, [r4, #16]
1001a144:	b2ed      	uxtb	r5, r5
1001a146:	0491      	lsls	r1, r2, #18
1001a148:	462f      	mov	r7, r5
1001a14a:	d4dd      	bmi.n	1001a108 <__swbuf_r+0x28>
1001a14c:	f442 5200 	orr.w	r2, r2, #8192	@ 0x2000
1001a150:	81a2      	strh	r2, [r4, #12]
1001a152:	6e62      	ldr	r2, [r4, #100]	@ 0x64
1001a154:	6961      	ldr	r1, [r4, #20]
1001a156:	f422 5200 	bic.w	r2, r2, #8192	@ 0x2000
1001a15a:	6662      	str	r2, [r4, #100]	@ 0x64
1001a15c:	6822      	ldr	r2, [r4, #0]
1001a15e:	1ad3      	subs	r3, r2, r3
1001a160:	4299      	cmp	r1, r3
1001a162:	dcd6      	bgt.n	1001a112 <__swbuf_r+0x32>
1001a164:	4621      	mov	r1, r4
1001a166:	4630      	mov	r0, r6
1001a168:	f7ff fd18 	bl	10019b9c <_fflush_r>
1001a16c:	b940      	cbnz	r0, 1001a180 <__swbuf_r+0xa0>
1001a16e:	6822      	ldr	r2, [r4, #0]
1001a170:	2301      	movs	r3, #1
1001a172:	e7cf      	b.n	1001a114 <__swbuf_r+0x34>
1001a174:	4621      	mov	r1, r4
1001a176:	4630      	mov	r0, r6
1001a178:	f7ff fd10 	bl	10019b9c <_fflush_r>
1001a17c:	2800      	cmp	r0, #0
1001a17e:	d0d7      	beq.n	1001a130 <__swbuf_r+0x50>
1001a180:	f04f 37ff 	mov.w	r7, #4294967295	@ 0xffffffff
1001a184:	e7d4      	b.n	1001a130 <__swbuf_r+0x50>
1001a186:	f7fb f901 	bl	1001538c <__sinit>
1001a18a:	e7b1      	b.n	1001a0f0 <__swbuf_r+0x10>

1001a18c <abort>:
1001a18c:	b508      	push	{r3, lr}
1001a18e:	2006      	movs	r0, #6
1001a190:	f000 f804 	bl	1001a19c <raise>
1001a194:	2001      	movs	r0, #1
1001a196:	f000 f855 	bl	1001a244 <_exit>
1001a19a:	bf00      	nop

1001a19c <raise>:
1001a19c:	b538      	push	{r3, r4, r5, lr}
1001a19e:	4b14      	ldr	r3, [pc, #80]	@ (1001a1f0 <raise+0x54>)
1001a1a0:	281f      	cmp	r0, #31
1001a1a2:	681d      	ldr	r5, [r3, #0]
1001a1a4:	d81e      	bhi.n	1001a1e4 <raise+0x48>
1001a1a6:	f8d5 2118 	ldr.w	r2, [r5, #280]	@ 0x118
1001a1aa:	4604      	mov	r4, r0
1001a1ac:	b162      	cbz	r2, 1001a1c8 <raise+0x2c>
1001a1ae:	f852 3020 	ldr.w	r3, [r2, r0, lsl #2]
1001a1b2:	b14b      	cbz	r3, 1001a1c8 <raise+0x2c>
1001a1b4:	2b01      	cmp	r3, #1
1001a1b6:	d005      	beq.n	1001a1c4 <raise+0x28>
1001a1b8:	1c59      	adds	r1, r3, #1
1001a1ba:	d00f      	beq.n	1001a1dc <raise+0x40>
1001a1bc:	2100      	movs	r1, #0
1001a1be:	f842 1020 	str.w	r1, [r2, r0, lsl #2]
1001a1c2:	4798      	blx	r3
1001a1c4:	2000      	movs	r0, #0
1001a1c6:	bd38      	pop	{r3, r4, r5, pc}
1001a1c8:	4628      	mov	r0, r5
1001a1ca:	f000 f829 	bl	1001a220 <_getpid_r>
1001a1ce:	4622      	mov	r2, r4
1001a1d0:	4601      	mov	r1, r0
1001a1d2:	4628      	mov	r0, r5
1001a1d4:	e8bd 4038 	ldmia.w	sp!, {r3, r4, r5, lr}
1001a1d8:	f000 b80c 	b.w	1001a1f4 <_kill_r>
1001a1dc:	2316      	movs	r3, #22
1001a1de:	602b      	str	r3, [r5, #0]
1001a1e0:	2001      	movs	r0, #1
1001a1e2:	bd38      	pop	{r3, r4, r5, pc}
1001a1e4:	2316      	movs	r3, #22
1001a1e6:	602b      	str	r3, [r5, #0]
1001a1e8:	f04f 30ff 	mov.w	r0, #4294967295	@ 0xffffffff
1001a1ec:	bd38      	pop	{r3, r4, r5, pc}
1001a1ee:	bf00      	nop
1001a1f0:	200005b8 	.word	0x200005b8

1001a1f4 <_kill_r>:
1001a1f4:	b570      	push	{r4, r5, r6, lr}
1001a1f6:	460c      	mov	r4, r1
1001a1f8:	4d08      	ldr	r5, [pc, #32]	@ (1001a21c <_kill_r+0x28>)
1001a1fa:	4603      	mov	r3, r0
1001a1fc:	2600      	movs	r6, #0
1001a1fe:	4620      	mov	r0, r4
1001a200:	4611      	mov	r1, r2
1001a202:	461c      	mov	r4, r3
1001a204:	602e      	str	r6, [r5, #0]
1001a206:	f000 f815 	bl	1001a234 <_kill>
1001a20a:	1c43      	adds	r3, r0, #1
1001a20c:	d000      	beq.n	1001a210 <_kill_r+0x1c>
1001a20e:	bd70      	pop	{r4, r5, r6, pc}
1001a210:	682b      	ldr	r3, [r5, #0]
1001a212:	2b00      	cmp	r3, #0
1001a214:	d0fb      	beq.n	1001a20e <_kill_r+0x1a>
1001a216:	6023      	str	r3, [r4, #0]
1001a218:	bd70      	pop	{r4, r5, r6, pc}
1001a21a:	bf00      	nop
1001a21c:	2000173c 	.word	0x2000173c

1001a220 <_getpid_r>:
1001a220:	f000 b800 	b.w	1001a224 <_getpid>

1001a224 <_getpid>:
1001a224:	4b02      	ldr	r3, [pc, #8]	@ (1001a230 <_getpid+0xc>)
1001a226:	2258      	movs	r2, #88	@ 0x58
1001a228:	601a      	str	r2, [r3, #0]
1001a22a:	f04f 30ff 	mov.w	r0, #4294967295	@ 0xffffffff
1001a22e:	4770      	bx	lr
1001a230:	2000173c 	.word	0x2000173c

1001a234 <_kill>:
1001a234:	4b02      	ldr	r3, [pc, #8]	@ (1001a240 <_kill+0xc>)
1001a236:	2258      	movs	r2, #88	@ 0x58
1001a238:	601a      	str	r2, [r3, #0]
1001a23a:	f04f 30ff 	mov.w	r0, #4294967295	@ 0xffffffff
1001a23e:	4770      	bx	lr
1001a240:	2000173c 	.word	0x2000173c

1001a244 <_exit>:
1001a244:	e7fe      	b.n	1001a244 <_exit>
1001a246:	bf00      	nop

1001a248 <__aeabi_drsub>:
1001a248:	f081 4100 	eor.w	r1, r1, #2147483648	@ 0x80000000
1001a24c:	e002      	b.n	1001a254 <__adddf3>
1001a24e:	bf00      	nop

1001a250 <__aeabi_dsub>:
1001a250:	f083 4300 	eor.w	r3, r3, #2147483648	@ 0x80000000

1001a254 <__adddf3>:
1001a254:	b530      	push	{r4, r5, lr}
1001a256:	ea4f 0441 	mov.w	r4, r1, lsl #1
1001a25a:	ea4f 0543 	mov.w	r5, r3, lsl #1
1001a25e:	ea94 0f05 	teq	r4, r5
1001a262:	bf08      	it	eq
1001a264:	ea90 0f02 	teqeq	r0, r2
1001a268:	bf1f      	itttt	ne
1001a26a:	ea54 0c00 	orrsne.w	ip, r4, r0
1001a26e:	ea55 0c02 	orrsne.w	ip, r5, r2
1001a272:	ea7f 5c64 	mvnsne.w	ip, r4, asr #21
1001a276:	ea7f 5c65 	mvnsne.w	ip, r5, asr #21
1001a27a:	f000 80e2 	beq.w	1001a442 <__adddf3+0x1ee>
1001a27e:	ea4f 5454 	mov.w	r4, r4, lsr #21
1001a282:	ebd4 5555 	rsbs	r5, r4, r5, lsr #21
1001a286:	bfb8      	it	lt
1001a288:	426d      	neglt	r5, r5
1001a28a:	dd0c      	ble.n	1001a2a6 <__adddf3+0x52>
1001a28c:	442c      	add	r4, r5
1001a28e:	ea80 0202 	eor.w	r2, r0, r2
1001a292:	ea81 0303 	eor.w	r3, r1, r3
1001a296:	ea82 0000 	eor.w	r0, r2, r0
1001a29a:	ea83 0101 	eor.w	r1, r3, r1
1001a29e:	ea80 0202 	eor.w	r2, r0, r2
1001a2a2:	ea81 0303 	eor.w	r3, r1, r3
1001a2a6:	2d36      	cmp	r5, #54	@ 0x36
1001a2a8:	bf88      	it	hi
1001a2aa:	bd30      	pophi	{r4, r5, pc}
1001a2ac:	f011 4f00 	tst.w	r1, #2147483648	@ 0x80000000
1001a2b0:	ea4f 3101 	mov.w	r1, r1, lsl #12
1001a2b4:	f44f 1c80 	mov.w	ip, #1048576	@ 0x100000
1001a2b8:	ea4c 3111 	orr.w	r1, ip, r1, lsr #12
1001a2bc:	d002      	beq.n	1001a2c4 <__adddf3+0x70>
1001a2be:	4240      	negs	r0, r0
1001a2c0:	eb61 0141 	sbc.w	r1, r1, r1, lsl #1
1001a2c4:	f013 4f00 	tst.w	r3, #2147483648	@ 0x80000000
1001a2c8:	ea4f 3303 	mov.w	r3, r3, lsl #12
1001a2cc:	ea4c 3313 	orr.w	r3, ip, r3, lsr #12
1001a2d0:	d002      	beq.n	1001a2d8 <__adddf3+0x84>
1001a2d2:	4252      	negs	r2, r2
1001a2d4:	eb63 0343 	sbc.w	r3, r3, r3, lsl #1
1001a2d8:	ea94 0f05 	teq	r4, r5
1001a2dc:	f000 80a7 	beq.w	1001a42e <__adddf3+0x1da>
1001a2e0:	f1a4 0401 	sub.w	r4, r4, #1
1001a2e4:	f1d5 0e20 	rsbs	lr, r5, #32
1001a2e8:	db0d      	blt.n	1001a306 <__adddf3+0xb2>
1001a2ea:	fa02 fc0e 	lsl.w	ip, r2, lr
1001a2ee:	fa22 f205 	lsr.w	r2, r2, r5
1001a2f2:	1880      	adds	r0, r0, r2
1001a2f4:	f141 0100 	adc.w	r1, r1, #0
1001a2f8:	fa03 f20e 	lsl.w	r2, r3, lr
1001a2fc:	1880      	adds	r0, r0, r2
1001a2fe:	fa43 f305 	asr.w	r3, r3, r5
1001a302:	4159      	adcs	r1, r3
1001a304:	e00e      	b.n	1001a324 <__adddf3+0xd0>
1001a306:	f1a5 0520 	sub.w	r5, r5, #32
1001a30a:	f10e 0e20 	add.w	lr, lr, #32
1001a30e:	2a01      	cmp	r2, #1
1001a310:	fa03 fc0e 	lsl.w	ip, r3, lr
1001a314:	bf28      	it	cs
1001a316:	f04c 0c02 	orrcs.w	ip, ip, #2
1001a31a:	fa43 f305 	asr.w	r3, r3, r5
1001a31e:	18c0      	adds	r0, r0, r3
1001a320:	eb51 71e3 	adcs.w	r1, r1, r3, asr #31
1001a324:	f001 4500 	and.w	r5, r1, #2147483648	@ 0x80000000
1001a328:	d507      	bpl.n	1001a33a <__adddf3+0xe6>
1001a32a:	f04f 0e00 	mov.w	lr, #0
1001a32e:	f1dc 0c00 	rsbs	ip, ip, #0
1001a332:	eb7e 0000 	sbcs.w	r0, lr, r0
1001a336:	eb6e 0101 	sbc.w	r1, lr, r1
1001a33a:	f5b1 1f80 	cmp.w	r1, #1048576	@ 0x100000
1001a33e:	d31b      	bcc.n	1001a378 <__adddf3+0x124>
1001a340:	f5b1 1f00 	cmp.w	r1, #2097152	@ 0x200000
1001a344:	d30c      	bcc.n	1001a360 <__adddf3+0x10c>
1001a346:	0849      	lsrs	r1, r1, #1
1001a348:	ea5f 0030 	movs.w	r0, r0, rrx
1001a34c:	ea4f 0c3c 	mov.w	ip, ip, rrx
1001a350:	f104 0401 	add.w	r4, r4, #1
1001a354:	ea4f 5244 	mov.w	r2, r4, lsl #21
1001a358:	f512 0f80 	cmn.w	r2, #4194304	@ 0x400000
1001a35c:	f080 809a 	bcs.w	1001a494 <__adddf3+0x240>
1001a360:	f1bc 4f00 	cmp.w	ip, #2147483648	@ 0x80000000
1001a364:	bf08      	it	eq
1001a366:	ea5f 0c50 	movseq.w	ip, r0, lsr #1
1001a36a:	f150 0000 	adcs.w	r0, r0, #0
1001a36e:	eb41 5104 	adc.w	r1, r1, r4, lsl #20
1001a372:	ea41 0105 	orr.w	r1, r1, r5
1001a376:	bd30      	pop	{r4, r5, pc}
1001a378:	ea5f 0c4c 	movs.w	ip, ip, lsl #1
1001a37c:	4140      	adcs	r0, r0
1001a37e:	eb41 0101 	adc.w	r1, r1, r1
1001a382:	3c01      	subs	r4, #1
1001a384:	bf28      	it	cs
1001a386:	f5b1 1f80 	cmpcs.w	r1, #1048576	@ 0x100000
1001a38a:	d2e9      	bcs.n	1001a360 <__adddf3+0x10c>
1001a38c:	f091 0f00 	teq	r1, #0
1001a390:	bf04      	itt	eq
1001a392:	4601      	moveq	r1, r0
1001a394:	2000      	moveq	r0, #0
1001a396:	fab1 f381 	clz	r3, r1
1001a39a:	bf08      	it	eq
1001a39c:	3320      	addeq	r3, #32
1001a39e:	f1a3 030b 	sub.w	r3, r3, #11
1001a3a2:	f1b3 0220 	subs.w	r2, r3, #32
1001a3a6:	da0c      	bge.n	1001a3c2 <__adddf3+0x16e>
1001a3a8:	320c      	adds	r2, #12
1001a3aa:	dd08      	ble.n	1001a3be <__adddf3+0x16a>
1001a3ac:	f102 0c14 	add.w	ip, r2, #20
1001a3b0:	f1c2 020c 	rsb	r2, r2, #12
1001a3b4:	fa01 f00c 	lsl.w	r0, r1, ip
1001a3b8:	fa21 f102 	lsr.w	r1, r1, r2
1001a3bc:	e00c      	b.n	1001a3d8 <__adddf3+0x184>
1001a3be:	f102 0214 	add.w	r2, r2, #20
1001a3c2:	bfd8      	it	le
1001a3c4:	f1c2 0c20 	rsble	ip, r2, #32
1001a3c8:	fa01 f102 	lsl.w	r1, r1, r2
1001a3cc:	fa20 fc0c 	lsr.w	ip, r0, ip
1001a3d0:	bfdc      	itt	le
1001a3d2:	ea41 010c 	orrle.w	r1, r1, ip
1001a3d6:	4090      	lslle	r0, r2
1001a3d8:	1ae4      	subs	r4, r4, r3
1001a3da:	bfa2      	ittt	ge
1001a3dc:	eb01 5104 	addge.w	r1, r1, r4, lsl #20
1001a3e0:	4329      	orrge	r1, r5
1001a3e2:	bd30      	popge	{r4, r5, pc}
1001a3e4:	ea6f 0404 	mvn.w	r4, r4
1001a3e8:	3c1f      	subs	r4, #31
1001a3ea:	da1c      	bge.n	1001a426 <__adddf3+0x1d2>
1001a3ec:	340c      	adds	r4, #12
1001a3ee:	dc0e      	bgt.n	1001a40e <__adddf3+0x1ba>
1001a3f0:	f104 0414 	add.w	r4, r4, #20
1001a3f4:	f1c4 0220 	rsb	r2, r4, #32
1001a3f8:	fa20 f004 	lsr.w	r0, r0, r4
1001a3fc:	fa01 f302 	lsl.w	r3, r1, r2
1001a400:	ea40 0003 	orr.w	r0, r0, r3
1001a404:	fa21 f304 	lsr.w	r3, r1, r4
1001a408:	ea45 0103 	orr.w	r1, r5, r3
1001a40c:	bd30      	pop	{r4, r5, pc}
1001a40e:	f1c4 040c 	rsb	r4, r4, #12
1001a412:	f1c4 0220 	rsb	r2, r4, #32
1001a416:	fa20 f002 	lsr.w	r0, r0, r2
1001a41a:	fa01 f304 	lsl.w	r3, r1, r4
1001a41e:	ea40 0003 	orr.w	r0, r0, r3
1001a422:	4629      	mov	r1, r5
1001a424:	bd30      	pop	{r4, r5, pc}
1001a426:	fa21 f004 	lsr.w	r0, r1, r4
1001a42a:	4629      	mov	r1, r5
1001a42c:	bd30      	pop	{r4, r5, pc}
1001a42e:	f094 0f00 	teq	r4, #0
1001a432:	f483 1380 	eor.w	r3, r3, #1048576	@ 0x100000
1001a436:	bf06      	itte	eq
1001a438:	f481 1180 	eoreq.w	r1, r1, #1048576	@ 0x100000
1001a43c:	3401      	addeq	r4, #1
1001a43e:	3d01      	subne	r5, #1
1001a440:	e74e      	b.n	1001a2e0 <__adddf3+0x8c>
1001a442:	ea7f 5c64 	mvns.w	ip, r4, asr #21
1001a446:	bf18      	it	ne
1001a448:	ea7f 5c65 	mvnsne.w	ip, r5, asr #21
1001a44c:	d029      	beq.n	1001a4a2 <__adddf3+0x24e>
1001a44e:	ea94 0f05 	teq	r4, r5
1001a452:	bf08      	it	eq
1001a454:	ea90 0f02 	teqeq	r0, r2
1001a458:	d005      	beq.n	1001a466 <__adddf3+0x212>
1001a45a:	ea54 0c00 	orrs.w	ip, r4, r0
1001a45e:	bf04      	itt	eq
1001a460:	4619      	moveq	r1, r3
1001a462:	4610      	moveq	r0, r2
1001a464:	bd30      	pop	{r4, r5, pc}
1001a466:	ea91 0f03 	teq	r1, r3
1001a46a:	bf1e      	ittt	ne
1001a46c:	2100      	movne	r1, #0
1001a46e:	2000      	movne	r0, #0
1001a470:	bd30      	popne	{r4, r5, pc}
1001a472:	ea5f 5c54 	movs.w	ip, r4, lsr #21
1001a476:	d105      	bne.n	1001a484 <__adddf3+0x230>
1001a478:	0040      	lsls	r0, r0, #1
1001a47a:	4149      	adcs	r1, r1
1001a47c:	bf28      	it	cs
1001a47e:	f041 4100 	orrcs.w	r1, r1, #2147483648	@ 0x80000000
1001a482:	bd30      	pop	{r4, r5, pc}
1001a484:	f514 0480 	adds.w	r4, r4, #4194304	@ 0x400000
1001a488:	bf3c      	itt	cc
1001a48a:	f501 1180 	addcc.w	r1, r1, #1048576	@ 0x100000
1001a48e:	bd30      	popcc	{r4, r5, pc}
1001a490:	f001 4500 	and.w	r5, r1, #2147483648	@ 0x80000000
1001a494:	f045 41fe 	orr.w	r1, r5, #2130706432	@ 0x7f000000
1001a498:	f441 0170 	orr.w	r1, r1, #15728640	@ 0xf00000
1001a49c:	f04f 0000 	mov.w	r0, #0
1001a4a0:	bd30      	pop	{r4, r5, pc}
1001a4a2:	ea7f 5c64 	mvns.w	ip, r4, asr #21
1001a4a6:	bf1a      	itte	ne
1001a4a8:	4619      	movne	r1, r3
1001a4aa:	4610      	movne	r0, r2
1001a4ac:	ea7f 5c65 	mvnseq.w	ip, r5, asr #21
1001a4b0:	bf1c      	itt	ne
1001a4b2:	460b      	movne	r3, r1
1001a4b4:	4602      	movne	r2, r0
1001a4b6:	ea50 3401 	orrs.w	r4, r0, r1, lsl #12
1001a4ba:	bf06      	itte	eq
1001a4bc:	ea52 3503 	orrseq.w	r5, r2, r3, lsl #12
1001a4c0:	ea91 0f03 	teqeq	r1, r3
1001a4c4:	f441 2100 	orrne.w	r1, r1, #524288	@ 0x80000
1001a4c8:	bd30      	pop	{r4, r5, pc}
1001a4ca:	bf00      	nop

1001a4cc <__aeabi_ui2d>:
1001a4cc:	f090 0f00 	teq	r0, #0
1001a4d0:	bf04      	itt	eq
1001a4d2:	2100      	moveq	r1, #0
1001a4d4:	4770      	bxeq	lr
1001a4d6:	b530      	push	{r4, r5, lr}
1001a4d8:	f44f 6480 	mov.w	r4, #1024	@ 0x400
1001a4dc:	f104 0432 	add.w	r4, r4, #50	@ 0x32
1001a4e0:	f04f 0500 	mov.w	r5, #0
1001a4e4:	f04f 0100 	mov.w	r1, #0
1001a4e8:	e750      	b.n	1001a38c <__adddf3+0x138>
1001a4ea:	bf00      	nop

1001a4ec <__aeabi_i2d>:
1001a4ec:	f090 0f00 	teq	r0, #0
1001a4f0:	bf04      	itt	eq
1001a4f2:	2100      	moveq	r1, #0
1001a4f4:	4770      	bxeq	lr
1001a4f6:	b530      	push	{r4, r5, lr}
1001a4f8:	f44f 6480 	mov.w	r4, #1024	@ 0x400
1001a4fc:	f104 0432 	add.w	r4, r4, #50	@ 0x32
1001a500:	f010 4500 	ands.w	r5, r0, #2147483648	@ 0x80000000
1001a504:	bf48      	it	mi
1001a506:	4240      	negmi	r0, r0
1001a508:	f04f 0100 	mov.w	r1, #0
1001a50c:	e73e      	b.n	1001a38c <__adddf3+0x138>
1001a50e:	bf00      	nop

1001a510 <__aeabi_f2d>:
1001a510:	0042      	lsls	r2, r0, #1
1001a512:	ea4f 01e2 	mov.w	r1, r2, asr #3
1001a516:	ea4f 0131 	mov.w	r1, r1, rrx
1001a51a:	ea4f 7002 	mov.w	r0, r2, lsl #28
1001a51e:	bf1f      	itttt	ne
1001a520:	f012 437f 	andsne.w	r3, r2, #4278190080	@ 0xff000000
1001a524:	f093 4f7f 	teqne	r3, #4278190080	@ 0xff000000
1001a528:	f081 5160 	eorne.w	r1, r1, #939524096	@ 0x38000000
1001a52c:	4770      	bxne	lr
1001a52e:	f032 427f 	bics.w	r2, r2, #4278190080	@ 0xff000000
1001a532:	bf08      	it	eq
1001a534:	4770      	bxeq	lr
1001a536:	f093 4f7f 	teq	r3, #4278190080	@ 0xff000000
1001a53a:	bf04      	itt	eq
1001a53c:	f441 2100 	orreq.w	r1, r1, #524288	@ 0x80000
1001a540:	4770      	bxeq	lr
1001a542:	b530      	push	{r4, r5, lr}
1001a544:	f44f 7460 	mov.w	r4, #896	@ 0x380
1001a548:	f001 4500 	and.w	r5, r1, #2147483648	@ 0x80000000
1001a54c:	f021 4100 	bic.w	r1, r1, #2147483648	@ 0x80000000
1001a550:	e71c      	b.n	1001a38c <__adddf3+0x138>
1001a552:	bf00      	nop

1001a554 <__aeabi_ul2d>:
1001a554:	ea50 0201 	orrs.w	r2, r0, r1
1001a558:	bf08      	it	eq
1001a55a:	4770      	bxeq	lr
1001a55c:	b530      	push	{r4, r5, lr}
1001a55e:	f04f 0500 	mov.w	r5, #0
1001a562:	e00a      	b.n	1001a57a <__aeabi_l2d+0x16>

1001a564 <__aeabi_l2d>:
1001a564:	ea50 0201 	orrs.w	r2, r0, r1
1001a568:	bf08      	it	eq
1001a56a:	4770      	bxeq	lr
1001a56c:	b530      	push	{r4, r5, lr}
1001a56e:	f011 4500 	ands.w	r5, r1, #2147483648	@ 0x80000000
1001a572:	d502      	bpl.n	1001a57a <__aeabi_l2d+0x16>
1001a574:	4240      	negs	r0, r0
1001a576:	eb61 0141 	sbc.w	r1, r1, r1, lsl #1
1001a57a:	f44f 6480 	mov.w	r4, #1024	@ 0x400
1001a57e:	f104 0432 	add.w	r4, r4, #50	@ 0x32
1001a582:	ea5f 5c91 	movs.w	ip, r1, lsr #22
1001a586:	f43f aed8 	beq.w	1001a33a <__adddf3+0xe6>
1001a58a:	f04f 0203 	mov.w	r2, #3
1001a58e:	ea5f 0cdc 	movs.w	ip, ip, lsr #3
1001a592:	bf18      	it	ne
1001a594:	3203      	addne	r2, #3
1001a596:	ea5f 0cdc 	movs.w	ip, ip, lsr #3
1001a59a:	bf18      	it	ne
1001a59c:	3203      	addne	r2, #3
1001a59e:	eb02 02dc 	add.w	r2, r2, ip, lsr #3
1001a5a2:	f1c2 0320 	rsb	r3, r2, #32
1001a5a6:	fa00 fc03 	lsl.w	ip, r0, r3
1001a5aa:	fa20 f002 	lsr.w	r0, r0, r2
1001a5ae:	fa01 fe03 	lsl.w	lr, r1, r3
1001a5b2:	ea40 000e 	orr.w	r0, r0, lr
1001a5b6:	fa21 f102 	lsr.w	r1, r1, r2
1001a5ba:	4414      	add	r4, r2
1001a5bc:	e6bd      	b.n	1001a33a <__adddf3+0xe6>
1001a5be:	bf00      	nop

1001a5c0 <__aeabi_dmul>:
1001a5c0:	b570      	push	{r4, r5, r6, lr}
1001a5c2:	f04f 0cff 	mov.w	ip, #255	@ 0xff
1001a5c6:	f44c 6ce0 	orr.w	ip, ip, #1792	@ 0x700
1001a5ca:	ea1c 5411 	ands.w	r4, ip, r1, lsr #20
1001a5ce:	bf1d      	ittte	ne
1001a5d0:	ea1c 5513 	andsne.w	r5, ip, r3, lsr #20
1001a5d4:	ea94 0f0c 	teqne	r4, ip
1001a5d8:	ea95 0f0c 	teqne	r5, ip
1001a5dc:	f000 f8de 	bleq	1001a79c <__aeabi_dmul+0x1dc>
1001a5e0:	442c      	add	r4, r5
1001a5e2:	ea81 0603 	eor.w	r6, r1, r3
1001a5e6:	ea21 514c 	bic.w	r1, r1, ip, lsl #21
1001a5ea:	ea23 534c 	bic.w	r3, r3, ip, lsl #21
1001a5ee:	ea50 3501 	orrs.w	r5, r0, r1, lsl #12
1001a5f2:	bf18      	it	ne
1001a5f4:	ea52 3503 	orrsne.w	r5, r2, r3, lsl #12
1001a5f8:	f441 1180 	orr.w	r1, r1, #1048576	@ 0x100000
1001a5fc:	f443 1380 	orr.w	r3, r3, #1048576	@ 0x100000
1001a600:	d038      	beq.n	1001a674 <__aeabi_dmul+0xb4>
1001a602:	fba0 ce02 	umull	ip, lr, r0, r2
1001a606:	f04f 0500 	mov.w	r5, #0
1001a60a:	fbe1 e502 	umlal	lr, r5, r1, r2
1001a60e:	f006 4200 	and.w	r2, r6, #2147483648	@ 0x80000000
1001a612:	fbe0 e503 	umlal	lr, r5, r0, r3
1001a616:	f04f 0600 	mov.w	r6, #0
1001a61a:	fbe1 5603 	umlal	r5, r6, r1, r3
1001a61e:	f09c 0f00 	teq	ip, #0
1001a622:	bf18      	it	ne
1001a624:	f04e 0e01 	orrne.w	lr, lr, #1
1001a628:	f1a4 04ff 	sub.w	r4, r4, #255	@ 0xff
1001a62c:	f5b6 7f00 	cmp.w	r6, #512	@ 0x200
1001a630:	f564 7440 	sbc.w	r4, r4, #768	@ 0x300
1001a634:	d204      	bcs.n	1001a640 <__aeabi_dmul+0x80>
1001a636:	ea5f 0e4e 	movs.w	lr, lr, lsl #1
1001a63a:	416d      	adcs	r5, r5
1001a63c:	eb46 0606 	adc.w	r6, r6, r6
1001a640:	ea42 21c6 	orr.w	r1, r2, r6, lsl #11
1001a644:	ea41 5155 	orr.w	r1, r1, r5, lsr #21
1001a648:	ea4f 20c5 	mov.w	r0, r5, lsl #11
1001a64c:	ea40 505e 	orr.w	r0, r0, lr, lsr #21
1001a650:	ea4f 2ece 	mov.w	lr, lr, lsl #11
1001a654:	f1b4 0cfd 	subs.w	ip, r4, #253	@ 0xfd
1001a658:	bf88      	it	hi
1001a65a:	f5bc 6fe0 	cmphi.w	ip, #1792	@ 0x700
1001a65e:	d81e      	bhi.n	1001a69e <__aeabi_dmul+0xde>
1001a660:	f1be 4f00 	cmp.w	lr, #2147483648	@ 0x80000000
1001a664:	bf08      	it	eq
1001a666:	ea5f 0e50 	movseq.w	lr, r0, lsr #1
1001a66a:	f150 0000 	adcs.w	r0, r0, #0
1001a66e:	eb41 5104 	adc.w	r1, r1, r4, lsl #20
1001a672:	bd70      	pop	{r4, r5, r6, pc}
1001a674:	f006 4600 	and.w	r6, r6, #2147483648	@ 0x80000000
1001a678:	ea46 0101 	orr.w	r1, r6, r1
1001a67c:	ea40 0002 	orr.w	r0, r0, r2
1001a680:	ea81 0103 	eor.w	r1, r1, r3
1001a684:	ebb4 045c 	subs.w	r4, r4, ip, lsr #1
1001a688:	bfc2      	ittt	gt
1001a68a:	ebd4 050c 	rsbsgt	r5, r4, ip
1001a68e:	ea41 5104 	orrgt.w	r1, r1, r4, lsl #20
1001a692:	bd70      	popgt	{r4, r5, r6, pc}
1001a694:	f441 1180 	orr.w	r1, r1, #1048576	@ 0x100000
1001a698:	f04f 0e00 	mov.w	lr, #0
1001a69c:	3c01      	subs	r4, #1
1001a69e:	f300 80ab 	bgt.w	1001a7f8 <__aeabi_dmul+0x238>
1001a6a2:	f114 0f36 	cmn.w	r4, #54	@ 0x36
1001a6a6:	bfde      	ittt	le
1001a6a8:	2000      	movle	r0, #0
1001a6aa:	f001 4100 	andle.w	r1, r1, #2147483648	@ 0x80000000
1001a6ae:	bd70      	pople	{r4, r5, r6, pc}
1001a6b0:	f1c4 0400 	rsb	r4, r4, #0
1001a6b4:	3c20      	subs	r4, #32
1001a6b6:	da35      	bge.n	1001a724 <__aeabi_dmul+0x164>
1001a6b8:	340c      	adds	r4, #12
1001a6ba:	dc1b      	bgt.n	1001a6f4 <__aeabi_dmul+0x134>
1001a6bc:	f104 0414 	add.w	r4, r4, #20
1001a6c0:	f1c4 0520 	rsb	r5, r4, #32
1001a6c4:	fa00 f305 	lsl.w	r3, r0, r5
1001a6c8:	fa20 f004 	lsr.w	r0, r0, r4
1001a6cc:	fa01 f205 	lsl.w	r2, r1, r5
1001a6d0:	ea40 0002 	orr.w	r0, r0, r2
1001a6d4:	f001 4200 	and.w	r2, r1, #2147483648	@ 0x80000000
1001a6d8:	f021 4100 	bic.w	r1, r1, #2147483648	@ 0x80000000
1001a6dc:	eb10 70d3 	adds.w	r0, r0, r3, lsr #31
1001a6e0:	fa21 f604 	lsr.w	r6, r1, r4
1001a6e4:	eb42 0106 	adc.w	r1, r2, r6
1001a6e8:	ea5e 0e43 	orrs.w	lr, lr, r3, lsl #1
1001a6ec:	bf08      	it	eq
1001a6ee:	ea20 70d3 	biceq.w	r0, r0, r3, lsr #31
1001a6f2:	bd70      	pop	{r4, r5, r6, pc}
1001a6f4:	f1c4 040c 	rsb	r4, r4, #12
1001a6f8:	f1c4 0520 	rsb	r5, r4, #32
1001a6fc:	fa00 f304 	lsl.w	r3, r0, r4
1001a700:	fa20 f005 	lsr.w	r0, r0, r5
1001a704:	fa01 f204 	lsl.w	r2, r1, r4
1001a708:	ea40 0002 	orr.w	r0, r0, r2
1001a70c:	f001 4100 	and.w	r1, r1, #2147483648	@ 0x80000000
1001a710:	eb10 70d3 	adds.w	r0, r0, r3, lsr #31
1001a714:	f141 0100 	adc.w	r1, r1, #0
1001a718:	ea5e 0e43 	orrs.w	lr, lr, r3, lsl #1
1001a71c:	bf08      	it	eq
1001a71e:	ea20 70d3 	biceq.w	r0, r0, r3, lsr #31
1001a722:	bd70      	pop	{r4, r5, r6, pc}
1001a724:	f1c4 0520 	rsb	r5, r4, #32
1001a728:	fa00 f205 	lsl.w	r2, r0, r5
1001a72c:	ea4e 0e02 	orr.w	lr, lr, r2
1001a730:	fa20 f304 	lsr.w	r3, r0, r4
1001a734:	fa01 f205 	lsl.w	r2, r1, r5
1001a738:	ea43 0302 	orr.w	r3, r3, r2
1001a73c:	fa21 f004 	lsr.w	r0, r1, r4
1001a740:	f001 4100 	and.w	r1, r1, #2147483648	@ 0x80000000
1001a744:	fa21 f204 	lsr.w	r2, r1, r4
1001a748:	ea20 0002 	bic.w	r0, r0, r2
1001a74c:	eb00 70d3 	add.w	r0, r0, r3, lsr #31
1001a750:	ea5e 0e43 	orrs.w	lr, lr, r3, lsl #1
1001a754:	bf08      	it	eq
1001a756:	ea20 70d3 	biceq.w	r0, r0, r3, lsr #31
1001a75a:	bd70      	pop	{r4, r5, r6, pc}
1001a75c:	f094 0f00 	teq	r4, #0
1001a760:	d10f      	bne.n	1001a782 <__aeabi_dmul+0x1c2>
1001a762:	f001 4600 	and.w	r6, r1, #2147483648	@ 0x80000000
1001a766:	0040      	lsls	r0, r0, #1
1001a768:	eb41 0101 	adc.w	r1, r1, r1
1001a76c:	f411 1f80 	tst.w	r1, #1048576	@ 0x100000
1001a770:	bf08      	it	eq
1001a772:	3c01      	subeq	r4, #1
1001a774:	d0f7      	beq.n	1001a766 <__aeabi_dmul+0x1a6>
1001a776:	ea41 0106 	orr.w	r1, r1, r6
1001a77a:	f095 0f00 	teq	r5, #0
1001a77e:	bf18      	it	ne
1001a780:	4770      	bxne	lr
1001a782:	f003 4600 	and.w	r6, r3, #2147483648	@ 0x80000000
1001a786:	0052      	lsls	r2, r2, #1
1001a788:	eb43 0303 	adc.w	r3, r3, r3
1001a78c:	f413 1f80 	tst.w	r3, #1048576	@ 0x100000
1001a790:	bf08      	it	eq
1001a792:	3d01      	subeq	r5, #1
1001a794:	d0f7      	beq.n	1001a786 <__aeabi_dmul+0x1c6>
1001a796:	ea43 0306 	orr.w	r3, r3, r6
1001a79a:	4770      	bx	lr
1001a79c:	ea94 0f0c 	teq	r4, ip
1001a7a0:	ea0c 5513 	and.w	r5, ip, r3, lsr #20
1001a7a4:	bf18      	it	ne
1001a7a6:	ea95 0f0c 	teqne	r5, ip
1001a7aa:	d00c      	beq.n	1001a7c6 <__aeabi_dmul+0x206>
1001a7ac:	ea50 0641 	orrs.w	r6, r0, r1, lsl #1
1001a7b0:	bf18      	it	ne
1001a7b2:	ea52 0643 	orrsne.w	r6, r2, r3, lsl #1
1001a7b6:	d1d1      	bne.n	1001a75c <__aeabi_dmul+0x19c>
1001a7b8:	ea81 0103 	eor.w	r1, r1, r3
1001a7bc:	f001 4100 	and.w	r1, r1, #2147483648	@ 0x80000000
1001a7c0:	f04f 0000 	mov.w	r0, #0
1001a7c4:	bd70      	pop	{r4, r5, r6, pc}
1001a7c6:	ea50 0641 	orrs.w	r6, r0, r1, lsl #1
1001a7ca:	bf06      	itte	eq
1001a7cc:	4610      	moveq	r0, r2
1001a7ce:	4619      	moveq	r1, r3
1001a7d0:	ea52 0643 	orrsne.w	r6, r2, r3, lsl #1
1001a7d4:	d019      	beq.n	1001a80a <__aeabi_dmul+0x24a>
1001a7d6:	ea94 0f0c 	teq	r4, ip
1001a7da:	d102      	bne.n	1001a7e2 <__aeabi_dmul+0x222>
1001a7dc:	ea50 3601 	orrs.w	r6, r0, r1, lsl #12
1001a7e0:	d113      	bne.n	1001a80a <__aeabi_dmul+0x24a>
1001a7e2:	ea95 0f0c 	teq	r5, ip
1001a7e6:	d105      	bne.n	1001a7f4 <__aeabi_dmul+0x234>
1001a7e8:	ea52 3603 	orrs.w	r6, r2, r3, lsl #12
1001a7ec:	bf1c      	itt	ne
1001a7ee:	4610      	movne	r0, r2
1001a7f0:	4619      	movne	r1, r3
1001a7f2:	d10a      	bne.n	1001a80a <__aeabi_dmul+0x24a>
1001a7f4:	ea81 0103 	eor.w	r1, r1, r3
1001a7f8:	f001 4100 	and.w	r1, r1, #2147483648	@ 0x80000000
1001a7fc:	f041 41fe 	orr.w	r1, r1, #2130706432	@ 0x7f000000
1001a800:	f441 0170 	orr.w	r1, r1, #15728640	@ 0xf00000
1001a804:	f04f 0000 	mov.w	r0, #0
1001a808:	bd70      	pop	{r4, r5, r6, pc}
1001a80a:	f041 41fe 	orr.w	r1, r1, #2130706432	@ 0x7f000000
1001a80e:	f441 0178 	orr.w	r1, r1, #16252928	@ 0xf80000
1001a812:	bd70      	pop	{r4, r5, r6, pc}

1001a814 <__aeabi_ddiv>:
1001a814:	b570      	push	{r4, r5, r6, lr}
1001a816:	f04f 0cff 	mov.w	ip, #255	@ 0xff
1001a81a:	f44c 6ce0 	orr.w	ip, ip, #1792	@ 0x700
1001a81e:	ea1c 5411 	ands.w	r4, ip, r1, lsr #20
1001a822:	bf1d      	ittte	ne
1001a824:	ea1c 5513 	andsne.w	r5, ip, r3, lsr #20
1001a828:	ea94 0f0c 	teqne	r4, ip
1001a82c:	ea95 0f0c 	teqne	r5, ip
1001a830:	f000 f8a7 	bleq	1001a982 <__aeabi_ddiv+0x16e>
1001a834:	eba4 0405 	sub.w	r4, r4, r5
1001a838:	ea81 0e03 	eor.w	lr, r1, r3
1001a83c:	ea52 3503 	orrs.w	r5, r2, r3, lsl #12
1001a840:	ea4f 3101 	mov.w	r1, r1, lsl #12
1001a844:	f000 8088 	beq.w	1001a958 <__aeabi_ddiv+0x144>
1001a848:	ea4f 3303 	mov.w	r3, r3, lsl #12
1001a84c:	f04f 5580 	mov.w	r5, #268435456	@ 0x10000000
1001a850:	ea45 1313 	orr.w	r3, r5, r3, lsr #4
1001a854:	ea43 6312 	orr.w	r3, r3, r2, lsr #24
1001a858:	ea4f 2202 	mov.w	r2, r2, lsl #8
1001a85c:	ea45 1511 	orr.w	r5, r5, r1, lsr #4
1001a860:	ea45 6510 	orr.w	r5, r5, r0, lsr #24
1001a864:	ea4f 2600 	mov.w	r6, r0, lsl #8
1001a868:	f00e 4100 	and.w	r1, lr, #2147483648	@ 0x80000000
1001a86c:	429d      	cmp	r5, r3
1001a86e:	bf08      	it	eq
1001a870:	4296      	cmpeq	r6, r2
1001a872:	f144 04fd 	adc.w	r4, r4, #253	@ 0xfd
1001a876:	f504 7440 	add.w	r4, r4, #768	@ 0x300
1001a87a:	d202      	bcs.n	1001a882 <__aeabi_ddiv+0x6e>
1001a87c:	085b      	lsrs	r3, r3, #1
1001a87e:	ea4f 0232 	mov.w	r2, r2, rrx
1001a882:	1ab6      	subs	r6, r6, r2
1001a884:	eb65 0503 	sbc.w	r5, r5, r3
1001a888:	085b      	lsrs	r3, r3, #1
1001a88a:	ea4f 0232 	mov.w	r2, r2, rrx
1001a88e:	f44f 1080 	mov.w	r0, #1048576	@ 0x100000
1001a892:	f44f 2c00 	mov.w	ip, #524288	@ 0x80000
1001a896:	ebb6 0e02 	subs.w	lr, r6, r2
1001a89a:	eb75 0e03 	sbcs.w	lr, r5, r3
1001a89e:	bf22      	ittt	cs
1001a8a0:	1ab6      	subcs	r6, r6, r2
1001a8a2:	4675      	movcs	r5, lr
1001a8a4:	ea40 000c 	orrcs.w	r0, r0, ip
1001a8a8:	085b      	lsrs	r3, r3, #1
1001a8aa:	ea4f 0232 	mov.w	r2, r2, rrx
1001a8ae:	ebb6 0e02 	subs.w	lr, r6, r2
1001a8b2:	eb75 0e03 	sbcs.w	lr, r5, r3
1001a8b6:	bf22      	ittt	cs
1001a8b8:	1ab6      	subcs	r6, r6, r2
1001a8ba:	4675      	movcs	r5, lr
1001a8bc:	ea40 005c 	orrcs.w	r0, r0, ip, lsr #1
1001a8c0:	085b      	lsrs	r3, r3, #1
1001a8c2:	ea4f 0232 	mov.w	r2, r2, rrx
1001a8c6:	ebb6 0e02 	subs.w	lr, r6, r2
1001a8ca:	eb75 0e03 	sbcs.w	lr, r5, r3
1001a8ce:	bf22      	ittt	cs
1001a8d0:	1ab6      	subcs	r6, r6, r2
1001a8d2:	4675      	movcs	r5, lr
1001a8d4:	ea40 009c 	orrcs.w	r0, r0, ip, lsr #2
1001a8d8:	085b      	lsrs	r3, r3, #1
1001a8da:	ea4f 0232 	mov.w	r2, r2, rrx
1001a8de:	ebb6 0e02 	subs.w	lr, r6, r2
1001a8e2:	eb75 0e03 	sbcs.w	lr, r5, r3
1001a8e6:	bf22      	ittt	cs
1001a8e8:	1ab6      	subcs	r6, r6, r2
1001a8ea:	4675      	movcs	r5, lr
1001a8ec:	ea40 00dc 	orrcs.w	r0, r0, ip, lsr #3
1001a8f0:	ea55 0e06 	orrs.w	lr, r5, r6
1001a8f4:	d018      	beq.n	1001a928 <__aeabi_ddiv+0x114>
1001a8f6:	ea4f 1505 	mov.w	r5, r5, lsl #4
1001a8fa:	ea45 7516 	orr.w	r5, r5, r6, lsr #28
1001a8fe:	ea4f 1606 	mov.w	r6, r6, lsl #4
1001a902:	ea4f 03c3 	mov.w	r3, r3, lsl #3
1001a906:	ea43 7352 	orr.w	r3, r3, r2, lsr #29
1001a90a:	ea4f 02c2 	mov.w	r2, r2, lsl #3
1001a90e:	ea5f 1c1c 	movs.w	ip, ip, lsr #4
1001a912:	d1c0      	bne.n	1001a896 <__aeabi_ddiv+0x82>
1001a914:	f411 1f80 	tst.w	r1, #1048576	@ 0x100000
1001a918:	d10b      	bne.n	1001a932 <__aeabi_ddiv+0x11e>
1001a91a:	ea41 0100 	orr.w	r1, r1, r0
1001a91e:	f04f 0000 	mov.w	r0, #0
1001a922:	f04f 4c00 	mov.w	ip, #2147483648	@ 0x80000000
1001a926:	e7b6      	b.n	1001a896 <__aeabi_ddiv+0x82>
1001a928:	f411 1f80 	tst.w	r1, #1048576	@ 0x100000
1001a92c:	bf04      	itt	eq
1001a92e:	4301      	orreq	r1, r0
1001a930:	2000      	moveq	r0, #0
1001a932:	f1b4 0cfd 	subs.w	ip, r4, #253	@ 0xfd
1001a936:	bf88      	it	hi
1001a938:	f5bc 6fe0 	cmphi.w	ip, #1792	@ 0x700
1001a93c:	f63f aeaf 	bhi.w	1001a69e <__aeabi_dmul+0xde>
1001a940:	ebb5 0c03 	subs.w	ip, r5, r3
1001a944:	bf04      	itt	eq
1001a946:	ebb6 0c02 	subseq.w	ip, r6, r2
1001a94a:	ea5f 0c50 	movseq.w	ip, r0, lsr #1
1001a94e:	f150 0000 	adcs.w	r0, r0, #0
1001a952:	eb41 5104 	adc.w	r1, r1, r4, lsl #20
1001a956:	bd70      	pop	{r4, r5, r6, pc}
1001a958:	f00e 4e00 	and.w	lr, lr, #2147483648	@ 0x80000000
1001a95c:	ea4e 3111 	orr.w	r1, lr, r1, lsr #12
1001a960:	eb14 045c 	adds.w	r4, r4, ip, lsr #1
1001a964:	bfc2      	ittt	gt
1001a966:	ebd4 050c 	rsbsgt	r5, r4, ip
1001a96a:	ea41 5104 	orrgt.w	r1, r1, r4, lsl #20
1001a96e:	bd70      	popgt	{r4, r5, r6, pc}
1001a970:	f441 1180 	orr.w	r1, r1, #1048576	@ 0x100000
1001a974:	f04f 0e00 	mov.w	lr, #0
1001a978:	3c01      	subs	r4, #1
1001a97a:	e690      	b.n	1001a69e <__aeabi_dmul+0xde>
1001a97c:	ea45 0e06 	orr.w	lr, r5, r6
1001a980:	e68d      	b.n	1001a69e <__aeabi_dmul+0xde>
1001a982:	ea0c 5513 	and.w	r5, ip, r3, lsr #20
1001a986:	ea94 0f0c 	teq	r4, ip
1001a98a:	bf08      	it	eq
1001a98c:	ea95 0f0c 	teqeq	r5, ip
1001a990:	f43f af3b 	beq.w	1001a80a <__aeabi_dmul+0x24a>
1001a994:	ea94 0f0c 	teq	r4, ip
1001a998:	d10a      	bne.n	1001a9b0 <__aeabi_ddiv+0x19c>
1001a99a:	ea50 3401 	orrs.w	r4, r0, r1, lsl #12
1001a99e:	f47f af34 	bne.w	1001a80a <__aeabi_dmul+0x24a>
1001a9a2:	ea95 0f0c 	teq	r5, ip
1001a9a6:	f47f af25 	bne.w	1001a7f4 <__aeabi_dmul+0x234>
1001a9aa:	4610      	mov	r0, r2
1001a9ac:	4619      	mov	r1, r3
1001a9ae:	e72c      	b.n	1001a80a <__aeabi_dmul+0x24a>
1001a9b0:	ea95 0f0c 	teq	r5, ip
1001a9b4:	d106      	bne.n	1001a9c4 <__aeabi_ddiv+0x1b0>
1001a9b6:	ea52 3503 	orrs.w	r5, r2, r3, lsl #12
1001a9ba:	f43f aefd 	beq.w	1001a7b8 <__aeabi_dmul+0x1f8>
1001a9be:	4610      	mov	r0, r2
1001a9c0:	4619      	mov	r1, r3
1001a9c2:	e722      	b.n	1001a80a <__aeabi_dmul+0x24a>
1001a9c4:	ea50 0641 	orrs.w	r6, r0, r1, lsl #1
1001a9c8:	bf18      	it	ne
1001a9ca:	ea52 0643 	orrsne.w	r6, r2, r3, lsl #1
1001a9ce:	f47f aec5 	bne.w	1001a75c <__aeabi_dmul+0x19c>
1001a9d2:	ea50 0441 	orrs.w	r4, r0, r1, lsl #1
1001a9d6:	f47f af0d 	bne.w	1001a7f4 <__aeabi_dmul+0x234>
1001a9da:	ea52 0543 	orrs.w	r5, r2, r3, lsl #1
1001a9de:	f47f aeeb 	bne.w	1001a7b8 <__aeabi_dmul+0x1f8>
1001a9e2:	e712      	b.n	1001a80a <__aeabi_dmul+0x24a>

1001a9e4 <__gedf2>:
1001a9e4:	f04f 3cff 	mov.w	ip, #4294967295	@ 0xffffffff
1001a9e8:	e006      	b.n	1001a9f8 <__cmpdf2+0x4>
1001a9ea:	bf00      	nop

1001a9ec <__ledf2>:
1001a9ec:	f04f 0c01 	mov.w	ip, #1
1001a9f0:	e002      	b.n	1001a9f8 <__cmpdf2+0x4>
1001a9f2:	bf00      	nop

1001a9f4 <__cmpdf2>:
1001a9f4:	f04f 0c01 	mov.w	ip, #1
1001a9f8:	f84d cd04 	str.w	ip, [sp, #-4]!
1001a9fc:	ea4f 0c41 	mov.w	ip, r1, lsl #1
1001aa00:	ea7f 5c6c 	mvns.w	ip, ip, asr #21
1001aa04:	ea4f 0c43 	mov.w	ip, r3, lsl #1
1001aa08:	bf18      	it	ne
1001aa0a:	ea7f 5c6c 	mvnsne.w	ip, ip, asr #21
1001aa0e:	d01b      	beq.n	1001aa48 <__cmpdf2+0x54>
1001aa10:	b001      	add	sp, #4
1001aa12:	ea50 0c41 	orrs.w	ip, r0, r1, lsl #1
1001aa16:	bf0c      	ite	eq
1001aa18:	ea52 0c43 	orrseq.w	ip, r2, r3, lsl #1
1001aa1c:	ea91 0f03 	teqne	r1, r3
1001aa20:	bf02      	ittt	eq
1001aa22:	ea90 0f02 	teqeq	r0, r2
1001aa26:	2000      	moveq	r0, #0
1001aa28:	4770      	bxeq	lr
1001aa2a:	f110 0f00 	cmn.w	r0, #0
1001aa2e:	ea91 0f03 	teq	r1, r3
1001aa32:	bf58      	it	pl
1001aa34:	4299      	cmppl	r1, r3
1001aa36:	bf08      	it	eq
1001aa38:	4290      	cmpeq	r0, r2
1001aa3a:	bf2c      	ite	cs
1001aa3c:	17d8      	asrcs	r0, r3, #31
1001aa3e:	ea6f 70e3 	mvncc.w	r0, r3, asr #31
1001aa42:	f040 0001 	orr.w	r0, r0, #1
1001aa46:	4770      	bx	lr
1001aa48:	ea4f 0c41 	mov.w	ip, r1, lsl #1
1001aa4c:	ea7f 5c6c 	mvns.w	ip, ip, asr #21
1001aa50:	d102      	bne.n	1001aa58 <__cmpdf2+0x64>
1001aa52:	ea50 3c01 	orrs.w	ip, r0, r1, lsl #12
1001aa56:	d107      	bne.n	1001aa68 <__cmpdf2+0x74>
1001aa58:	ea4f 0c43 	mov.w	ip, r3, lsl #1
1001aa5c:	ea7f 5c6c 	mvns.w	ip, ip, asr #21
1001aa60:	d1d6      	bne.n	1001aa10 <__cmpdf2+0x1c>
1001aa62:	ea52 3c03 	orrs.w	ip, r2, r3, lsl #12
1001aa66:	d0d3      	beq.n	1001aa10 <__cmpdf2+0x1c>
1001aa68:	f85d 0b04 	ldr.w	r0, [sp], #4
1001aa6c:	4770      	bx	lr
1001aa6e:	bf00      	nop

1001aa70 <__aeabi_cdrcmple>:
1001aa70:	4684      	mov	ip, r0
1001aa72:	4610      	mov	r0, r2
1001aa74:	4662      	mov	r2, ip
1001aa76:	468c      	mov	ip, r1
1001aa78:	4619      	mov	r1, r3
1001aa7a:	4663      	mov	r3, ip
1001aa7c:	e000      	b.n	1001aa80 <__aeabi_cdcmpeq>
1001aa7e:	bf00      	nop

1001aa80 <__aeabi_cdcmpeq>:
1001aa80:	b501      	push	{r0, lr}
1001aa82:	f7ff ffb7 	bl	1001a9f4 <__cmpdf2>
1001aa86:	2800      	cmp	r0, #0
1001aa88:	bf48      	it	mi
1001aa8a:	f110 0f00 	cmnmi.w	r0, #0
1001aa8e:	bd01      	pop	{r0, pc}

1001aa90 <__aeabi_dcmpeq>:
1001aa90:	f84d ed08 	str.w	lr, [sp, #-8]!
1001aa94:	f7ff fff4 	bl	1001aa80 <__aeabi_cdcmpeq>
1001aa98:	bf0c      	ite	eq
1001aa9a:	2001      	moveq	r0, #1
1001aa9c:	2000      	movne	r0, #0
1001aa9e:	f85d fb08 	ldr.w	pc, [sp], #8
1001aaa2:	bf00      	nop

1001aaa4 <__aeabi_dcmplt>:
1001aaa4:	f84d ed08 	str.w	lr, [sp, #-8]!
1001aaa8:	f7ff ffea 	bl	1001aa80 <__aeabi_cdcmpeq>
1001aaac:	bf34      	ite	cc
1001aaae:	2001      	movcc	r0, #1
1001aab0:	2000      	movcs	r0, #0
1001aab2:	f85d fb08 	ldr.w	pc, [sp], #8
1001aab6:	bf00      	nop

1001aab8 <__aeabi_dcmple>:
1001aab8:	f84d ed08 	str.w	lr, [sp, #-8]!
1001aabc:	f7ff ffe0 	bl	1001aa80 <__aeabi_cdcmpeq>
1001aac0:	bf94      	ite	ls
1001aac2:	2001      	movls	r0, #1
1001aac4:	2000      	movhi	r0, #0
1001aac6:	f85d fb08 	ldr.w	pc, [sp], #8
1001aaca:	bf00      	nop

1001aacc <__aeabi_dcmpge>:
1001aacc:	f84d ed08 	str.w	lr, [sp, #-8]!
1001aad0:	f7ff ffce 	bl	1001aa70 <__aeabi_cdrcmple>
1001aad4:	bf94      	ite	ls
1001aad6:	2001      	movls	r0, #1
1001aad8:	2000      	movhi	r0, #0
1001aada:	f85d fb08 	ldr.w	pc, [sp], #8
1001aade:	bf00      	nop

1001aae0 <__aeabi_dcmpgt>:
1001aae0:	f84d ed08 	str.w	lr, [sp, #-8]!
1001aae4:	f7ff ffc4 	bl	1001aa70 <__aeabi_cdrcmple>
1001aae8:	bf34      	ite	cc
1001aaea:	2001      	movcc	r0, #1
1001aaec:	2000      	movcs	r0, #0
1001aaee:	f85d fb08 	ldr.w	pc, [sp], #8
1001aaf2:	bf00      	nop

1001aaf4 <__aeabi_dcmpun>:
1001aaf4:	ea4f 0c41 	mov.w	ip, r1, lsl #1
1001aaf8:	ea7f 5c6c 	mvns.w	ip, ip, asr #21
1001aafc:	d102      	bne.n	1001ab04 <__aeabi_dcmpun+0x10>
1001aafe:	ea50 3c01 	orrs.w	ip, r0, r1, lsl #12
1001ab02:	d10a      	bne.n	1001ab1a <__aeabi_dcmpun+0x26>
1001ab04:	ea4f 0c43 	mov.w	ip, r3, lsl #1
1001ab08:	ea7f 5c6c 	mvns.w	ip, ip, asr #21
1001ab0c:	d102      	bne.n	1001ab14 <__aeabi_dcmpun+0x20>
1001ab0e:	ea52 3c03 	orrs.w	ip, r2, r3, lsl #12
1001ab12:	d102      	bne.n	1001ab1a <__aeabi_dcmpun+0x26>
1001ab14:	f04f 0000 	mov.w	r0, #0
1001ab18:	4770      	bx	lr
1001ab1a:	f04f 0001 	mov.w	r0, #1
1001ab1e:	4770      	bx	lr

1001ab20 <__aeabi_d2iz>:
1001ab20:	ea4f 0241 	mov.w	r2, r1, lsl #1
1001ab24:	f512 1200 	adds.w	r2, r2, #2097152	@ 0x200000
1001ab28:	d215      	bcs.n	1001ab56 <__aeabi_d2iz+0x36>
1001ab2a:	d511      	bpl.n	1001ab50 <__aeabi_d2iz+0x30>
1001ab2c:	f46f 7378 	mvn.w	r3, #992	@ 0x3e0
1001ab30:	ebb3 5262 	subs.w	r2, r3, r2, asr #21
1001ab34:	d912      	bls.n	1001ab5c <__aeabi_d2iz+0x3c>
1001ab36:	ea4f 23c1 	mov.w	r3, r1, lsl #11
1001ab3a:	f043 4300 	orr.w	r3, r3, #2147483648	@ 0x80000000
1001ab3e:	ea43 5350 	orr.w	r3, r3, r0, lsr #21
1001ab42:	f011 4f00 	tst.w	r1, #2147483648	@ 0x80000000
1001ab46:	fa23 f002 	lsr.w	r0, r3, r2
1001ab4a:	bf18      	it	ne
1001ab4c:	4240      	negne	r0, r0
1001ab4e:	4770      	bx	lr
1001ab50:	f04f 0000 	mov.w	r0, #0
1001ab54:	4770      	bx	lr
1001ab56:	ea50 3001 	orrs.w	r0, r0, r1, lsl #12
1001ab5a:	d105      	bne.n	1001ab68 <__aeabi_d2iz+0x48>
1001ab5c:	f011 4000 	ands.w	r0, r1, #2147483648	@ 0x80000000
1001ab60:	bf08      	it	eq
1001ab62:	f06f 4000 	mvneq.w	r0, #2147483648	@ 0x80000000
1001ab66:	4770      	bx	lr
1001ab68:	f04f 0000 	mov.w	r0, #0
1001ab6c:	4770      	bx	lr
1001ab6e:	bf00      	nop

1001ab70 <__aeabi_uldivmod>:
1001ab70:	b953      	cbnz	r3, 1001ab88 <__aeabi_uldivmod+0x18>
1001ab72:	b94a      	cbnz	r2, 1001ab88 <__aeabi_uldivmod+0x18>
1001ab74:	2900      	cmp	r1, #0
1001ab76:	bf08      	it	eq
1001ab78:	2800      	cmpeq	r0, #0
1001ab7a:	bf1c      	itt	ne
1001ab7c:	f04f 31ff 	movne.w	r1, #4294967295	@ 0xffffffff
1001ab80:	f04f 30ff 	movne.w	r0, #4294967295	@ 0xffffffff
1001ab84:	f000 b96a 	b.w	1001ae5c <__aeabi_idiv0>
1001ab88:	f1ad 0c08 	sub.w	ip, sp, #8
1001ab8c:	e96d ce04 	strd	ip, lr, [sp, #-16]!
1001ab90:	f000 f806 	bl	1001aba0 <__udivmoddi4>
1001ab94:	f8dd e004 	ldr.w	lr, [sp, #4]
1001ab98:	e9dd 2302 	ldrd	r2, r3, [sp, #8]
1001ab9c:	b004      	add	sp, #16
1001ab9e:	4770      	bx	lr

1001aba0 <__udivmoddi4>:
1001aba0:	e92d 47f0 	stmdb	sp!, {r4, r5, r6, r7, r8, r9, sl, lr}
1001aba4:	9d08      	ldr	r5, [sp, #32]
1001aba6:	460c      	mov	r4, r1
1001aba8:	2b00      	cmp	r3, #0
1001abaa:	d14e      	bne.n	1001ac4a <__udivmoddi4+0xaa>
1001abac:	4694      	mov	ip, r2
1001abae:	458c      	cmp	ip, r1
1001abb0:	4686      	mov	lr, r0
1001abb2:	fab2 f282 	clz	r2, r2
1001abb6:	d962      	bls.n	1001ac7e <__udivmoddi4+0xde>
1001abb8:	b14a      	cbz	r2, 1001abce <__udivmoddi4+0x2e>
1001abba:	f1c2 0320 	rsb	r3, r2, #32
1001abbe:	4091      	lsls	r1, r2
1001abc0:	fa20 f303 	lsr.w	r3, r0, r3
1001abc4:	fa0c fc02 	lsl.w	ip, ip, r2
1001abc8:	4319      	orrs	r1, r3
1001abca:	fa00 fe02 	lsl.w	lr, r0, r2
1001abce:	ea4f 471c 	mov.w	r7, ip, lsr #16
1001abd2:	fa1f f68c 	uxth.w	r6, ip
1001abd6:	fbb1 f4f7 	udiv	r4, r1, r7
1001abda:	ea4f 431e 	mov.w	r3, lr, lsr #16
1001abde:	fb07 1114 	mls	r1, r7, r4, r1
1001abe2:	ea43 4301 	orr.w	r3, r3, r1, lsl #16
1001abe6:	fb04 f106 	mul.w	r1, r4, r6
1001abea:	4299      	cmp	r1, r3
1001abec:	d90a      	bls.n	1001ac04 <__udivmoddi4+0x64>
1001abee:	eb1c 0303 	adds.w	r3, ip, r3
1001abf2:	f104 30ff 	add.w	r0, r4, #4294967295	@ 0xffffffff
1001abf6:	f080 8112 	bcs.w	1001ae1e <__udivmoddi4+0x27e>
1001abfa:	4299      	cmp	r1, r3
1001abfc:	f240 810f 	bls.w	1001ae1e <__udivmoddi4+0x27e>
1001ac00:	3c02      	subs	r4, #2
1001ac02:	4463      	add	r3, ip
1001ac04:	1a59      	subs	r1, r3, r1
1001ac06:	fa1f f38e 	uxth.w	r3, lr
1001ac0a:	fbb1 f0f7 	udiv	r0, r1, r7
1001ac0e:	fb07 1110 	mls	r1, r7, r0, r1
1001ac12:	ea43 4301 	orr.w	r3, r3, r1, lsl #16
1001ac16:	fb00 f606 	mul.w	r6, r0, r6
1001ac1a:	429e      	cmp	r6, r3
1001ac1c:	d90a      	bls.n	1001ac34 <__udivmoddi4+0x94>
1001ac1e:	eb1c 0303 	adds.w	r3, ip, r3
1001ac22:	f100 31ff 	add.w	r1, r0, #4294967295	@ 0xffffffff
1001ac26:	f080 80fc 	bcs.w	1001ae22 <__udivmoddi4+0x282>
1001ac2a:	429e      	cmp	r6, r3
1001ac2c:	f240 80f9 	bls.w	1001ae22 <__udivmoddi4+0x282>
1001ac30:	4463      	add	r3, ip
1001ac32:	3802      	subs	r0, #2
1001ac34:	1b9b      	subs	r3, r3, r6
1001ac36:	ea40 4004 	orr.w	r0, r0, r4, lsl #16
1001ac3a:	2100      	movs	r1, #0
1001ac3c:	b11d      	cbz	r5, 1001ac46 <__udivmoddi4+0xa6>
1001ac3e:	40d3      	lsrs	r3, r2
1001ac40:	2200      	movs	r2, #0
1001ac42:	e9c5 3200 	strd	r3, r2, [r5]
1001ac46:	e8bd 87f0 	ldmia.w	sp!, {r4, r5, r6, r7, r8, r9, sl, pc}
1001ac4a:	428b      	cmp	r3, r1
1001ac4c:	d905      	bls.n	1001ac5a <__udivmoddi4+0xba>
1001ac4e:	b10d      	cbz	r5, 1001ac54 <__udivmoddi4+0xb4>
1001ac50:	e9c5 0100 	strd	r0, r1, [r5]
1001ac54:	2100      	movs	r1, #0
1001ac56:	4608      	mov	r0, r1
1001ac58:	e7f5      	b.n	1001ac46 <__udivmoddi4+0xa6>
1001ac5a:	fab3 f183 	clz	r1, r3
1001ac5e:	2900      	cmp	r1, #0
1001ac60:	d146      	bne.n	1001acf0 <__udivmoddi4+0x150>
1001ac62:	42a3      	cmp	r3, r4
1001ac64:	d302      	bcc.n	1001ac6c <__udivmoddi4+0xcc>
1001ac66:	4290      	cmp	r0, r2
1001ac68:	f0c0 80f0 	bcc.w	1001ae4c <__udivmoddi4+0x2ac>
1001ac6c:	1a86      	subs	r6, r0, r2
1001ac6e:	eb64 0303 	sbc.w	r3, r4, r3
1001ac72:	2001      	movs	r0, #1
1001ac74:	2d00      	cmp	r5, #0
1001ac76:	d0e6      	beq.n	1001ac46 <__udivmoddi4+0xa6>
1001ac78:	e9c5 6300 	strd	r6, r3, [r5]
1001ac7c:	e7e3      	b.n	1001ac46 <__udivmoddi4+0xa6>
1001ac7e:	2a00      	cmp	r2, #0
1001ac80:	f040 8090 	bne.w	1001ada4 <__udivmoddi4+0x204>
1001ac84:	eba1 040c 	sub.w	r4, r1, ip
1001ac88:	ea4f 481c 	mov.w	r8, ip, lsr #16
1001ac8c:	fa1f f78c 	uxth.w	r7, ip
1001ac90:	2101      	movs	r1, #1
1001ac92:	fbb4 f6f8 	udiv	r6, r4, r8
1001ac96:	ea4f 431e 	mov.w	r3, lr, lsr #16
1001ac9a:	fb08 4416 	mls	r4, r8, r6, r4
1001ac9e:	ea43 4304 	orr.w	r3, r3, r4, lsl #16
1001aca2:	fb07 f006 	mul.w	r0, r7, r6
1001aca6:	4298      	cmp	r0, r3
1001aca8:	d908      	bls.n	1001acbc <__udivmoddi4+0x11c>
1001acaa:	eb1c 0303 	adds.w	r3, ip, r3
1001acae:	f106 34ff 	add.w	r4, r6, #4294967295	@ 0xffffffff
1001acb2:	d202      	bcs.n	1001acba <__udivmoddi4+0x11a>
1001acb4:	4298      	cmp	r0, r3
1001acb6:	f200 80cd 	bhi.w	1001ae54 <__udivmoddi4+0x2b4>
1001acba:	4626      	mov	r6, r4
1001acbc:	1a1c      	subs	r4, r3, r0
1001acbe:	fa1f f38e 	uxth.w	r3, lr
1001acc2:	fbb4 f0f8 	udiv	r0, r4, r8
1001acc6:	fb08 4410 	mls	r4, r8, r0, r4
1001acca:	ea43 4304 	orr.w	r3, r3, r4, lsl #16
1001acce:	fb00 f707 	mul.w	r7, r0, r7
1001acd2:	429f      	cmp	r7, r3
1001acd4:	d908      	bls.n	1001ace8 <__udivmoddi4+0x148>
1001acd6:	eb1c 0303 	adds.w	r3, ip, r3
1001acda:	f100 34ff 	add.w	r4, r0, #4294967295	@ 0xffffffff
1001acde:	d202      	bcs.n	1001ace6 <__udivmoddi4+0x146>
1001ace0:	429f      	cmp	r7, r3
1001ace2:	f200 80b0 	bhi.w	1001ae46 <__udivmoddi4+0x2a6>
1001ace6:	4620      	mov	r0, r4
1001ace8:	1bdb      	subs	r3, r3, r7
1001acea:	ea40 4006 	orr.w	r0, r0, r6, lsl #16
1001acee:	e7a5      	b.n	1001ac3c <__udivmoddi4+0x9c>
1001acf0:	f1c1 0620 	rsb	r6, r1, #32
1001acf4:	408b      	lsls	r3, r1
1001acf6:	fa22 f706 	lsr.w	r7, r2, r6
1001acfa:	431f      	orrs	r7, r3
1001acfc:	fa20 fc06 	lsr.w	ip, r0, r6
1001ad00:	fa04 f301 	lsl.w	r3, r4, r1
1001ad04:	ea43 030c 	orr.w	r3, r3, ip
1001ad08:	40f4      	lsrs	r4, r6
1001ad0a:	fa00 f801 	lsl.w	r8, r0, r1
1001ad0e:	0c38      	lsrs	r0, r7, #16
1001ad10:	ea4f 4913 	mov.w	r9, r3, lsr #16
1001ad14:	fbb4 fef0 	udiv	lr, r4, r0
1001ad18:	fa1f fc87 	uxth.w	ip, r7
1001ad1c:	fb00 441e 	mls	r4, r0, lr, r4
1001ad20:	ea49 4404 	orr.w	r4, r9, r4, lsl #16
1001ad24:	fb0e f90c 	mul.w	r9, lr, ip
1001ad28:	45a1      	cmp	r9, r4
1001ad2a:	fa02 f201 	lsl.w	r2, r2, r1
1001ad2e:	d90a      	bls.n	1001ad46 <__udivmoddi4+0x1a6>
1001ad30:	193c      	adds	r4, r7, r4
1001ad32:	f10e 3aff 	add.w	sl, lr, #4294967295	@ 0xffffffff
1001ad36:	f080 8084 	bcs.w	1001ae42 <__udivmoddi4+0x2a2>
1001ad3a:	45a1      	cmp	r9, r4
1001ad3c:	f240 8081 	bls.w	1001ae42 <__udivmoddi4+0x2a2>
1001ad40:	f1ae 0e02 	sub.w	lr, lr, #2
1001ad44:	443c      	add	r4, r7
1001ad46:	eba4 0409 	sub.w	r4, r4, r9
1001ad4a:	fa1f f983 	uxth.w	r9, r3
1001ad4e:	fbb4 f3f0 	udiv	r3, r4, r0
1001ad52:	fb00 4413 	mls	r4, r0, r3, r4
1001ad56:	ea49 4404 	orr.w	r4, r9, r4, lsl #16
1001ad5a:	fb03 fc0c 	mul.w	ip, r3, ip
1001ad5e:	45a4      	cmp	ip, r4
1001ad60:	d907      	bls.n	1001ad72 <__udivmoddi4+0x1d2>
1001ad62:	193c      	adds	r4, r7, r4
1001ad64:	f103 30ff 	add.w	r0, r3, #4294967295	@ 0xffffffff
1001ad68:	d267      	bcs.n	1001ae3a <__udivmoddi4+0x29a>
1001ad6a:	45a4      	cmp	ip, r4
1001ad6c:	d965      	bls.n	1001ae3a <__udivmoddi4+0x29a>
1001ad6e:	3b02      	subs	r3, #2
1001ad70:	443c      	add	r4, r7
1001ad72:	ea43 400e 	orr.w	r0, r3, lr, lsl #16
1001ad76:	fba0 9302 	umull	r9, r3, r0, r2
1001ad7a:	eba4 040c 	sub.w	r4, r4, ip
1001ad7e:	429c      	cmp	r4, r3
1001ad80:	46ce      	mov	lr, r9
1001ad82:	469c      	mov	ip, r3
1001ad84:	d351      	bcc.n	1001ae2a <__udivmoddi4+0x28a>
1001ad86:	d04e      	beq.n	1001ae26 <__udivmoddi4+0x286>
1001ad88:	b155      	cbz	r5, 1001ada0 <__udivmoddi4+0x200>
1001ad8a:	ebb8 030e 	subs.w	r3, r8, lr
1001ad8e:	eb64 040c 	sbc.w	r4, r4, ip
1001ad92:	fa04 f606 	lsl.w	r6, r4, r6
1001ad96:	40cb      	lsrs	r3, r1
1001ad98:	431e      	orrs	r6, r3
1001ad9a:	40cc      	lsrs	r4, r1
1001ad9c:	e9c5 6400 	strd	r6, r4, [r5]
1001ada0:	2100      	movs	r1, #0
1001ada2:	e750      	b.n	1001ac46 <__udivmoddi4+0xa6>
1001ada4:	f1c2 0320 	rsb	r3, r2, #32
1001ada8:	fa20 f103 	lsr.w	r1, r0, r3
1001adac:	fa0c fc02 	lsl.w	ip, ip, r2
1001adb0:	fa24 f303 	lsr.w	r3, r4, r3
1001adb4:	4094      	lsls	r4, r2
1001adb6:	430c      	orrs	r4, r1
1001adb8:	ea4f 481c 	mov.w	r8, ip, lsr #16
1001adbc:	fa00 fe02 	lsl.w	lr, r0, r2
1001adc0:	fa1f f78c 	uxth.w	r7, ip
1001adc4:	fbb3 f0f8 	udiv	r0, r3, r8
1001adc8:	fb08 3110 	mls	r1, r8, r0, r3
1001adcc:	0c23      	lsrs	r3, r4, #16
1001adce:	ea43 4301 	orr.w	r3, r3, r1, lsl #16
1001add2:	fb00 f107 	mul.w	r1, r0, r7
1001add6:	4299      	cmp	r1, r3
1001add8:	d908      	bls.n	1001adec <__udivmoddi4+0x24c>
1001adda:	eb1c 0303 	adds.w	r3, ip, r3
1001adde:	f100 36ff 	add.w	r6, r0, #4294967295	@ 0xffffffff
1001ade2:	d22c      	bcs.n	1001ae3e <__udivmoddi4+0x29e>
1001ade4:	4299      	cmp	r1, r3
1001ade6:	d92a      	bls.n	1001ae3e <__udivmoddi4+0x29e>
1001ade8:	3802      	subs	r0, #2
1001adea:	4463      	add	r3, ip
1001adec:	1a5b      	subs	r3, r3, r1
1001adee:	b2a4      	uxth	r4, r4
1001adf0:	fbb3 f1f8 	udiv	r1, r3, r8
1001adf4:	fb08 3311 	mls	r3, r8, r1, r3
1001adf8:	ea44 4403 	orr.w	r4, r4, r3, lsl #16
1001adfc:	fb01 f307 	mul.w	r3, r1, r7
1001ae00:	42a3      	cmp	r3, r4
1001ae02:	d908      	bls.n	1001ae16 <__udivmoddi4+0x276>
1001ae04:	eb1c 0404 	adds.w	r4, ip, r4
1001ae08:	f101 36ff 	add.w	r6, r1, #4294967295	@ 0xffffffff
1001ae0c:	d213      	bcs.n	1001ae36 <__udivmoddi4+0x296>
1001ae0e:	42a3      	cmp	r3, r4
1001ae10:	d911      	bls.n	1001ae36 <__udivmoddi4+0x296>
1001ae12:	3902      	subs	r1, #2
1001ae14:	4464      	add	r4, ip
1001ae16:	1ae4      	subs	r4, r4, r3
1001ae18:	ea41 4100 	orr.w	r1, r1, r0, lsl #16
1001ae1c:	e739      	b.n	1001ac92 <__udivmoddi4+0xf2>
1001ae1e:	4604      	mov	r4, r0
1001ae20:	e6f0      	b.n	1001ac04 <__udivmoddi4+0x64>
1001ae22:	4608      	mov	r0, r1
1001ae24:	e706      	b.n	1001ac34 <__udivmoddi4+0x94>
1001ae26:	45c8      	cmp	r8, r9
1001ae28:	d2ae      	bcs.n	1001ad88 <__udivmoddi4+0x1e8>
1001ae2a:	ebb9 0e02 	subs.w	lr, r9, r2
1001ae2e:	eb63 0c07 	sbc.w	ip, r3, r7
1001ae32:	3801      	subs	r0, #1
1001ae34:	e7a8      	b.n	1001ad88 <__udivmoddi4+0x1e8>
1001ae36:	4631      	mov	r1, r6
1001ae38:	e7ed      	b.n	1001ae16 <__udivmoddi4+0x276>
1001ae3a:	4603      	mov	r3, r0
1001ae3c:	e799      	b.n	1001ad72 <__udivmoddi4+0x1d2>
1001ae3e:	4630      	mov	r0, r6
1001ae40:	e7d4      	b.n	1001adec <__udivmoddi4+0x24c>
1001ae42:	46d6      	mov	lr, sl
1001ae44:	e77f      	b.n	1001ad46 <__udivmoddi4+0x1a6>
1001ae46:	4463      	add	r3, ip
1001ae48:	3802      	subs	r0, #2
1001ae4a:	e74d      	b.n	1001ace8 <__udivmoddi4+0x148>
1001ae4c:	4606      	mov	r6, r0
1001ae4e:	4623      	mov	r3, r4
1001ae50:	4608      	mov	r0, r1
1001ae52:	e70f      	b.n	1001ac74 <__udivmoddi4+0xd4>
1001ae54:	3e02      	subs	r6, #2
1001ae56:	4463      	add	r3, ip
1001ae58:	e730      	b.n	1001acbc <__udivmoddi4+0x11c>
1001ae5a:	bf00      	nop

1001ae5c <__aeabi_idiv0>:
1001ae5c:	4770      	bx	lr
1001ae5e:	bf00      	nop
1001ae60:	6c206557 	.word	0x6c206557
1001ae64:	2065766f 	.word	0x2065766f
1001ae68:	206d6968 	.word	0x206d6968
1001ae6c:	20676962 	.word	0x20676962
1001ae70:	6e756863 	.word	0x6e756863
1001ae74:	00737567 	.word	0x00737567
1001ae78:	65746164 	.word	0x65746164
1001ae7c:	00000000 	.word	0x00000000
1001ae80:	61636f4c 	.word	0x61636f4c
1001ae84:	6e6f6974 	.word	0x6e6f6974
1001ae88:	00000000 	.word	0x00000000
1001ae8c:	3e434f4c 	.word	0x3e434f4c
1001ae90:	440a7325 	.word	0x440a7325
1001ae94:	3e455441 	.word	0x3e455441
1001ae98:	430a7325 	.word	0x430a7325
1001ae9c:	3e545355 	.word	0x3e545355
1001aea0:	000a7325 	.word	0x000a7325
1001aea4:	74737563 	.word	0x74737563
1001aea8:	72656d6f 	.word	0x72656d6f
1001aeac:	00000000 	.word	0x00000000
1001aeb0:	6f727245 	.word	0x6f727245
1001aeb4:	55203a72 	.word	0x55203a72
1001aeb8:	6365726e 	.word	0x6365726e
1001aebc:	696e676f 	.word	0x696e676f
1001aec0:	2064657a 	.word	0x2064657a
1001aec4:	6d6d6f63 	.word	0x6d6d6f63
1001aec8:	20646e61 	.word	0x20646e61
1001aecc:	65636572 	.word	0x65636572
1001aed0:	64657669 	.word	0x64657669
1001aed4:	0a642520 	.word	0x0a642520
1001aed8:	00000000 	.word	0x00000000
1001aedc:	706d6f43 	.word	0x706d6f43
1001aee0:	6e656e6f 	.word	0x6e656e6f
1001aee4:	74532074 	.word	0x74532074
1001aee8:	65747261 	.word	0x65747261
1001aeec:	00000064 	.word	0x00000064
1001aef0:	6c696146 	.word	0x6c696146
1001aef4:	74206465 	.word	0x74206465
1001aef8:	6e69206f 	.word	0x6e69206f
1001aefc:	61697469 	.word	0x61697469
1001af00:	657a696c 	.word	0x657a696c
1001af04:	43324920 	.word	0x43324920
1001af08:	0000002e 	.word	0x0000002e
1001af0c:	5f43584d 	.word	0x5f43584d
1001af10:	45535341 	.word	0x45535341
1001af14:	25205452 	.word	0x25205452
1001af18:	25232073 	.word	0x25232073
1001af1c:	28203a64 	.word	0x28203a64
1001af20:	0a297325 	.word	0x0a297325
1001af24:	00000000 	.word	0x00000000
1001af28:	6d6f682f 	.word	0x6d6f682f
1001af2c:	72622f65 	.word	0x72622f65
1001af30:	6f747369 	.word	0x6f747369
1001af34:	72656870 	.word	0x72656870
1001af38:	646f6f77 	.word	0x646f6f77
1001af3c:	65442f73 	.word	0x65442f73
1001af40:	6f746b73 	.word	0x6f746b73
1001af44:	54432f70 	.word	0x54432f70
1001af48:	4d2f7346 	.word	0x4d2f7346
1001af4c:	45525449 	.word	0x45525449
1001af50:	5443652f 	.word	0x5443652f
1001af54:	6f4d2d46 	.word	0x6f4d2d46
1001af58:	65726f6e 	.word	0x65726f6e
1001af5c:	325f6f70 	.word	0x325f6f70
1001af60:	2f343230 	.word	0x2f343230
1001af64:	6373696d 	.word	0x6373696d
1001af68:	7070615f 	.word	0x7070615f
1001af6c:	6163696c 	.word	0x6163696c
1001af70:	6e6f6974 	.word	0x6e6f6974
1001af74:	64736d2f 	.word	0x64736d2f
1001af78:	694c2f6b 	.word	0x694c2f6b
1001af7c:	72617262 	.word	0x72617262
1001af80:	2f736569 	.word	0x2f736569
1001af84:	72616f42 	.word	0x72616f42
1001af88:	4d2f7364 	.word	0x4d2f7364
1001af8c:	38375841 	.word	0x38375841
1001af90:	2f303030 	.word	0x2f303030
1001af94:	52485446 	.word	0x52485446
1001af98:	7665525f 	.word	0x7665525f
1001af9c:	6f532f41 	.word	0x6f532f41
1001afa0:	65637275 	.word	0x65637275
1001afa4:	616f622f 	.word	0x616f622f
1001afa8:	632e6472 	.word	0x632e6472
1001afac:	00000000 	.word	0x00000000
1001afb0:	4c494146 	.word	0x4c494146
1001afb4:	00000000 	.word	0x00000000

1001afb8 <num_leds>:
1001afb8:	00000003                                ....

1001afbc <led_pin>:
1001afbc:	40080400 00000001 00010001 40080400     ...@...........@
1001afcc:	00000002 00010001 40080400 00000004     ...........@....
1001afdc:	00010001                                ....

1001afe0 <num_pbs>:
1001afe0:	00000002                                ....

1001afe4 <pb_pin>:
1001afe4:	40008000 00000004 00010100 40009000     ...@...........@
1001aff4:	00000080 00010100 6d6f682f 72622f65     ......../home/br
1001b004:	6f747369 72656870 646f6f77 65442f73     istopherwoods/De
1001b014:	6f746b73 54432f70 4d2f7346 45525449     sktop/CTFs/MITRE
1001b024:	5443652f 6f4d2d46 65726f6e 325f6f70     /eCTF-Monorepo_2
1001b034:	2f343230 6373696d 7070615f 6163696c     024/misc_applica
1001b044:	6e6f6974 64736d2f 694c2f6b 72617262     tion/msdk/Librar
1001b054:	2f736569 6373694d 76697244 2f737265     ies/MiscDrivers/
1001b064:	2f44454c 2e64656c 00000063 20786469     LED/led.c...idx 
1001b074:	756e203c 656c5f6d 00007364              < num_leds..

1001b080 <gpio_cfg_uart3>:
1001b080:	40080400 000000c0 00000003              ...@........

1001b08c <gpio_cfg_uart2>:
1001b08c:	40009000 00000003 00000002              ...@........

1001b098 <gpio_cfg_uart1>:
1001b098:	40008000 00003000 00000002              ...@.0......

1001b0a4 <gpio_cfg_uart0>:
1001b0a4:	40008000 00000003 00000002              ...@........

1001b0b0 <gpio_cfg_i2c2>:
1001b0b0:	40008000 c0000000 00000002              ...@........

1001b0bc <gpio_cfg_i2c1>:
1001b0bc:	40008000 00030000 00000002              ...@........

1001b0c8 <gpio_cfg_i2c0>:
1001b0c8:	40008000 00000c00 00000002              ...@........

1001b0d4 <gpio_cfg_extclk>:
1001b0d4:	40008000 00000008 00000002              ...@........

1001b0e0 <CSWTCH.16>:
1001b0e0:	40008000 40009000 40080400 40080600     ...@...@...@...@
1001b0f0:	00464e49 00666e69 004e414e 006e616e     INF.inf.NAN.nan.
1001b100:	33323130 37363534 62613938 66656463     0123456789abcdef
1001b110:	00000000 33323130 37363534 42413938     ....0123456789AB
1001b120:	46454443 00000000 6c756e28 0000296c     CDEF....(null)..
1001b130:	00000030                                0...

1001b134 <zeroes.0>:
1001b134:	30303030 30303030 30303030 30303030     0000000000000000

1001b144 <blanks.1>:
1001b144:	20202020 20202020 20202020 20202020                     
1001b154:	435f434c 414c4c4f 00004554 435f434c     LC_COLLATE..LC_C
1001b164:	45505954 00000000 4d5f434c 54454e4f     TYPE....LC_MONET
1001b174:	00595241 4e5f434c 52454d55 00004349     ARY.LC_NUMERIC..
1001b184:	545f434c 00454d49 4d5f434c 41535345     LC_TIME.LC_MESSA
1001b194:	00534547 0000000a 69666e49 7974696e     GES.....Infinity
1001b1a4:	00000000 004e614e 6c6c6142 7320636f     ....NaN.Balloc s
1001b1b4:	65636375 64656465 00000000 7461642f     ucceeded..../dat
1001b1c4:	656a2f61 6e696b6e 6f772f73 70736b72     a/jenkins/worksp
1001b1d4:	2f656361 2d554e47 6c6f6f74 69616863     ace/GNU-toolchai
1001b1e4:	72612f6e 32312d6d 6372732f 77656e2f     n/arm-12/src/new
1001b1f4:	2d62696c 77677963 6e2f6e69 696c7765     lib-cygwin/newli
1001b204:	696c2f62 732f6362 696c6474 74642f62     b/libc/stdlib/dt
1001b214:	632e616f 00000000                       oa.c....

1001b21c <_ctype_>:
1001b21c:	20202000 20202020 28282020 20282828     .         ((((( 
1001b22c:	20202020 20202020 20202020 20202020                     
1001b23c:	10108820 10101010 10101010 10101010      ...............
1001b24c:	04040410 04040404 10040404 10101010     ................
1001b25c:	41411010 41414141 01010101 01010101     ..AAAAAA........
1001b26c:	01010101 01010101 01010101 10101010     ................
1001b27c:	42421010 42424242 02020202 02020202     ..BBBBBB........
1001b28c:	02020202 02020202 02020202 10101010     ................
1001b29c:	00000020 00000000 00000000 00000000      ...............
	...

1001b320 <zeroes.0>:
1001b320:	30303030 30303030 30303030 30303030     0000000000000000

1001b330 <blanks.1>:
1001b330:	20202020 20202020 20202020 20202020                     

1001b340 <zeroes.0>:
1001b340:	30303030 30303030 30303030 30303030     0000000000000000

1001b350 <blanks.1>:
1001b350:	20202020 20202020 20202020 20202020                     
1001b360:	7566202c 6974636e 203a6e6f 00000000     , function: ....
1001b370:	65737361 6f697472 2522206e 66202273     assertion "%s" f
1001b380:	656c6961 66203a64 20656c69 22732522     ailed: file "%s"
1001b390:	696c202c 2520656e 25732564 00000a73     , line %d%s%s...
1001b3a0:	7461642f 656a2f61 6e696b6e 6f772f73     /data/jenkins/wo
1001b3b0:	70736b72 2f656361 2d554e47 6c6f6f74     rkspace/GNU-tool
1001b3c0:	69616863 72612f6e 32312d6d 6372732f     chain/arm-12/src
1001b3d0:	77656e2f 2d62696c 77677963 6e2f6e69     /newlib-cygwin/n
1001b3e0:	696c7765 696c2f62 732f6362 696c6474     ewlib/libc/stdli
1001b3f0:	706d2f62 2e636572 00000063              b/mprec.c...

1001b3fc <p05.0>:
1001b3fc:	00000005 00000019 0000007d              ........}...

1001b408 <__mprec_bigtens>:
1001b408:	37e08000 4341c379 b5056e17 4693b8b5     ...7y.AC.n.....F
1001b418:	e93ff9f5 4d384f03 f9301d32 5a827748     ..?..O8M2.0.Hw.Z
1001b428:	7f73bf3c 75154fdd                       <.s..O.u

1001b430 <__mprec_tens>:
1001b430:	00000000 3ff00000 00000000 40240000     .......?......$@
1001b440:	00000000 40590000 00000000 408f4000     ......Y@.....@.@
1001b450:	00000000 40c38800 00000000 40f86a00     .......@.....j.@
1001b460:	00000000 412e8480 00000000 416312d0     .......A......cA
1001b470:	00000000 4197d784 00000000 41cdcd65     .......A....e..A
1001b480:	20000000 4202a05f e8000000 42374876     ... _..B....vH7B
1001b490:	a2000000 426d1a94 e5400000 42a2309c     ......mB..@..0.B
1001b4a0:	1e900000 42d6bcc4 26340000 430c6bf5     .......B..4&.k.C
1001b4b0:	37e08000 4341c379 85d8a000 43763457     ...7y.AC....W4vC
1001b4c0:	674ec800 43abc16d 60913d00 43e158e4     ..Ngm..C.=.`.X.C
1001b4d0:	78b58c40 4415af1d d6e2ef50 444b1ae4     @..x...DP.....KD
1001b4e0:	064dd592 4480f0cf c7e14af6 44b52d02     ..M....D.J...-.D
1001b4f0:	79d99db4 44ea7843                       ...yCx.D

1001b4f8 <_init>:
1001b4f8:	b5f8      	push	{r3, r4, r5, r6, r7, lr}
1001b4fa:	bf00      	nop
1001b4fc:	bcf8      	pop	{r3, r4, r5, r6, r7}
1001b4fe:	bc08      	pop	{r3}
1001b500:	469e      	mov	lr, r3
1001b502:	4770      	bx	lr

1001b504 <_fini>:
1001b504:	b5f8      	push	{r3, r4, r5, r6, r7, lr}
1001b506:	bf00      	nop
1001b508:	bcf8      	pop	{r3, r4, r5, r6, r7}
1001b50a:	bc08      	pop	{r3}
1001b50c:	469e      	mov	lr, r3
1001b50e:	4770      	bx	lr

1001b510 <__EH_FRAME_BEGIN__>:
1001b510:	0010 0000 0000 0000 7a01 0052 7c02 010e     .........zR..|..
1001b520:	0c1b 000d 0038 0000 0018 0000 9eb4 ffff     ....8...........
1001b530:	009e 0000 5100 100e 0484 0385 0286 0187     .....Q..........
1001b540:	c75b c5c6 0ec4 4c00 420a 0a0b 0b42 100e     [......L.B..B...
1001b550:	0484 0385 0286 0187 c751 c5c6 0ec4 0000     ........Q.......
1001b560:	0010 0000 0000 0000 7a01 0052 7c02 010e     .........zR..|..
1001b570:	0c1b 000d 0014 0000 0018 0000 9f04 ffff     ................
1001b580:	0134 0000 0200 0a71 0b43 0000 0010 0000     4.....q.C.......
1001b590:	0000 0000 7a01 0052 7c02 010e 0c1b 000d     .....zR..|......
1001b5a0:	001c 0000 0018 0000 a018 ffff 00d8 0000     ................
1001b5b0:	4100 080e 0185 0284 4902 4a0a c4c5 0b41     .A.......I.J..A.

1001b5c0 <__FRAME_END__>:
1001b5c0:	0000 0000                                   ....
