
/home/bristopherwoods/Desktop/CTFs/MITRE/shy_design/2024-ectf-insecure-example/component/build/max78000.elf:     file format elf32-littlearm


Disassembly of section .text:

10010000 <__isr_vector>:
10010000:	20020000 	.word	0x20020000
10010004:	10010969 	.word	0x10010969
10010008:	1001079d 	.word	0x1001079d
1001000c:	100109a7 	.word	0x100109a7
10010010:	100109a9 	.word	0x100109a9
10010014:	100109ab 	.word	0x100109ab
10010018:	100109ad 	.word	0x100109ad
	...
1001002c:	100109af 	.word	0x100109af
10010030:	100109b1 	.word	0x100109b1
10010034:	00000000 	.word	0x00000000
10010038:	100109b3 	.word	0x100109b3
1001003c:	100109b5 	.word	0x100109b5
10010040:	100109b9 	.word	0x100109b9
10010044:	100109bb 	.word	0x100109bb
10010048:	100109bd 	.word	0x100109bd
1001004c:	100109bf 	.word	0x100109bf
10010050:	100109c1 	.word	0x100109c1
10010054:	100109c3 	.word	0x100109c3
10010058:	100109c5 	.word	0x100109c5
1001005c:	100109c7 	.word	0x100109c7
10010060:	100109c9 	.word	0x100109c9
10010064:	100109cb 	.word	0x100109cb
10010068:	100109cd 	.word	0x100109cd
1001006c:	100109cf 	.word	0x100109cf
10010070:	100109d1 	.word	0x100109d1
10010074:	100109d3 	.word	0x100109d3
10010078:	100109d5 	.word	0x100109d5
1001007c:	100109d7 	.word	0x100109d7
10010080:	100109d9 	.word	0x100109d9
10010084:	100109db 	.word	0x100109db
10010088:	100109dd 	.word	0x100109dd
1001008c:	100109df 	.word	0x100109df
10010090:	100109e1 	.word	0x100109e1
10010094:	100109e3 	.word	0x100109e3
10010098:	100109e5 	.word	0x100109e5
1001009c:	100109e7 	.word	0x100109e7
100100a0:	10010721 	.word	0x10010721
100100a4:	10010729 	.word	0x10010729
100100a8:	100109ed 	.word	0x100109ed
100100ac:	100109ef 	.word	0x100109ef
100100b0:	100109f1 	.word	0x100109f1
100100b4:	100109f3 	.word	0x100109f3
100100b8:	100109f5 	.word	0x100109f5
100100bc:	100109f7 	.word	0x100109f7
100100c0:	100109f9 	.word	0x100109f9
100100c4:	100109fb 	.word	0x100109fb
100100c8:	100109fd 	.word	0x100109fd
100100cc:	100109ff 	.word	0x100109ff
100100d0:	10010a01 	.word	0x10010a01
100100d4:	10010a03 	.word	0x10010a03
100100d8:	10010a05 	.word	0x10010a05
100100dc:	10010a07 	.word	0x10010a07
100100e0:	10010a09 	.word	0x10010a09
100100e4:	10010a0b 	.word	0x10010a0b
100100e8:	10010a0d 	.word	0x10010a0d
100100ec:	10010a0f 	.word	0x10010a0f
100100f0:	10010a11 	.word	0x10010a11
100100f4:	10010a13 	.word	0x10010a13
100100f8:	10010a15 	.word	0x10010a15
100100fc:	10010a17 	.word	0x10010a17
10010100:	10010a19 	.word	0x10010a19
10010104:	10010a1b 	.word	0x10010a1b
10010108:	10010a1d 	.word	0x10010a1d
1001010c:	10010a1f 	.word	0x10010a1f
10010110:	10010a21 	.word	0x10010a21
10010114:	10010a23 	.word	0x10010a23
10010118:	10010a25 	.word	0x10010a25
1001011c:	10010a27 	.word	0x10010a27
10010120:	10010a29 	.word	0x10010a29
10010124:	10010a2b 	.word	0x10010a2b
10010128:	10010a2d 	.word	0x10010a2d
1001012c:	10010a2f 	.word	0x10010a2f
10010130:	10010a31 	.word	0x10010a31
10010134:	10010a33 	.word	0x10010a33
10010138:	10010a35 	.word	0x10010a35
1001013c:	10010a37 	.word	0x10010a37
10010140:	10010a39 	.word	0x10010a39
10010144:	10010a3b 	.word	0x10010a3b
10010148:	10010a3d 	.word	0x10010a3d
1001014c:	10010a3f 	.word	0x10010a3f
10010150:	10010a41 	.word	0x10010a41
10010154:	10010a43 	.word	0x10010a43
10010158:	10010a45 	.word	0x10010a45
1001015c:	10010a47 	.word	0x10010a47
10010160:	10010a49 	.word	0x10010a49
10010164:	10010a4b 	.word	0x10010a4b
10010168:	10010a4d 	.word	0x10010a4d
1001016c:	10010a4f 	.word	0x10010a4f
10010170:	10010a51 	.word	0x10010a51
10010174:	10010a53 	.word	0x10010a53
10010178:	10010a55 	.word	0x10010a55
1001017c:	10010a57 	.word	0x10010a57
10010180:	10010a59 	.word	0x10010a59
10010184:	10010a5b 	.word	0x10010a5b
10010188:	10010a5d 	.word	0x10010a5d
1001018c:	10010a5f 	.word	0x10010a5f
10010190:	10010a61 	.word	0x10010a61
10010194:	10010a63 	.word	0x10010a63
10010198:	10010a65 	.word	0x10010a65
1001019c:	10010a67 	.word	0x10010a67
100101a0:	10010a69 	.word	0x10010a69
100101a4:	10010a6b 	.word	0x10010a6b
100101a8:	10010a6d 	.word	0x10010a6d
100101ac:	10010a6f 	.word	0x10010a6f
100101b0:	10010a71 	.word	0x10010a71
100101b4:	10010a73 	.word	0x10010a73
100101b8:	10010a75 	.word	0x10010a75
100101bc:	10010a77 	.word	0x10010a77
100101c0:	10010a79 	.word	0x10010a79
100101c4:	10010a7b 	.word	0x10010a7b
100101c8:	10010a7d 	.word	0x10010a7d
100101cc:	10010a7f 	.word	0x10010a7f
100101d0:	10010a81 	.word	0x10010a81
100101d4:	10010a83 	.word	0x10010a83
100101d8:	10010a85 	.word	0x10010a85
100101dc:	10010a87 	.word	0x10010a87
	...

10010200 <firmware_startup>:
10010200:	4800      	ldr	r0, [pc, #0]	@ (10010204 <firmware_startup+0x4>)
10010202:	4780      	blx	r0
10010204:	10010969 	.word	0x10010969

10010208 <deregister_tm_clones>:
10010208:	4803      	ldr	r0, [pc, #12]	@ (10010218 <deregister_tm_clones+0x10>)
1001020a:	4b04      	ldr	r3, [pc, #16]	@ (1001021c <deregister_tm_clones+0x14>)
1001020c:	4283      	cmp	r3, r0
1001020e:	d002      	beq.n	10010216 <deregister_tm_clones+0xe>
10010210:	4b03      	ldr	r3, [pc, #12]	@ (10010220 <deregister_tm_clones+0x18>)
10010212:	b103      	cbz	r3, 10010216 <deregister_tm_clones+0xe>
10010214:	4718      	bx	r3
10010216:	4770      	bx	lr
10010218:	200006f8 	.word	0x200006f8
1001021c:	200006f8 	.word	0x200006f8
10010220:	00000000 	.word	0x00000000

10010224 <register_tm_clones>:
10010224:	4805      	ldr	r0, [pc, #20]	@ (1001023c <register_tm_clones+0x18>)
10010226:	4b06      	ldr	r3, [pc, #24]	@ (10010240 <register_tm_clones+0x1c>)
10010228:	1a1b      	subs	r3, r3, r0
1001022a:	0fd9      	lsrs	r1, r3, #31
1001022c:	eb01 01a3 	add.w	r1, r1, r3, asr #2
10010230:	1049      	asrs	r1, r1, #1
10010232:	d002      	beq.n	1001023a <register_tm_clones+0x16>
10010234:	4b03      	ldr	r3, [pc, #12]	@ (10010244 <register_tm_clones+0x20>)
10010236:	b103      	cbz	r3, 1001023a <register_tm_clones+0x16>
10010238:	4718      	bx	r3
1001023a:	4770      	bx	lr
1001023c:	200006f8 	.word	0x200006f8
10010240:	200006f8 	.word	0x200006f8
10010244:	00000000 	.word	0x00000000

10010248 <__do_global_dtors_aux>:
10010248:	b510      	push	{r4, lr}
1001024a:	4c06      	ldr	r4, [pc, #24]	@ (10010264 <__do_global_dtors_aux+0x1c>)
1001024c:	7823      	ldrb	r3, [r4, #0]
1001024e:	b943      	cbnz	r3, 10010262 <__do_global_dtors_aux+0x1a>
10010250:	f7ff ffda 	bl	10010208 <deregister_tm_clones>
10010254:	4b04      	ldr	r3, [pc, #16]	@ (10010268 <__do_global_dtors_aux+0x20>)
10010256:	b113      	cbz	r3, 1001025e <__do_global_dtors_aux+0x16>
10010258:	4804      	ldr	r0, [pc, #16]	@ (1001026c <__do_global_dtors_aux+0x24>)
1001025a:	f3af 8000 	nop.w
1001025e:	2301      	movs	r3, #1
10010260:	7023      	strb	r3, [r4, #0]
10010262:	bd10      	pop	{r4, pc}
10010264:	20000800 	.word	0x20000800
10010268:	00000000 	.word	0x00000000
1001026c:	1001b5b8 	.word	0x1001b5b8

10010270 <frame_dummy>:
10010270:	b508      	push	{r3, lr}
10010272:	4b05      	ldr	r3, [pc, #20]	@ (10010288 <frame_dummy+0x18>)
10010274:	b11b      	cbz	r3, 1001027e <frame_dummy+0xe>
10010276:	4905      	ldr	r1, [pc, #20]	@ (1001028c <frame_dummy+0x1c>)
10010278:	4805      	ldr	r0, [pc, #20]	@ (10010290 <frame_dummy+0x20>)
1001027a:	f3af 8000 	nop.w
1001027e:	e8bd 4008 	ldmia.w	sp!, {r3, lr}
10010282:	f7ff bfcf 	b.w	10010224 <register_tm_clones>
10010286:	bf00      	nop
10010288:	00000000 	.word	0x00000000
1001028c:	20000804 	.word	0x20000804
10010290:	1001b5b8 	.word	0x1001b5b8

10010294 <board_link_init>:
 * @return int: negative if error, zero if successful
 *
 * Initialized the underlying i2c_simple interface
*/
int board_link_init(i2c_addr_t addr) {
    return i2c_simple_peripheral_init(addr);
10010294:	f000 b9f6 	b.w	10010684 <i2c_simple_peripheral_init>

10010298 <component_id_to_i2c_addr>:
 * 
 * @return i2c_addr_t, i2c address
*/
i2c_addr_t component_id_to_i2c_addr(uint32_t component_id) {
    return (uint8_t) component_id & COMPONENT_ADDR_MASK;
}
10010298:	b2c0      	uxtb	r0, r0
1001029a:	4770      	bx	lr

1001029c <send_packet_and_ack>:
 * @param message: uint8_t*, message to be sent
 * 
 * This function utilizes the simple_i2c_peripheral library to
 * send a packet to the AP and wait for the message to be received
*/
void send_packet_and_ack(uint8_t len, uint8_t* packet) {
1001029c:	b510      	push	{r4, lr}
    I2C_REGS[TRANSMIT_LEN][0] = len;
1001029e:	4c09      	ldr	r4, [pc, #36]	@ (100102c4 <send_packet_and_ack+0x28>)
100102a0:	6963      	ldr	r3, [r4, #20]
100102a2:	7018      	strb	r0, [r3, #0]
void send_packet_and_ack(uint8_t len, uint8_t* packet) {
100102a4:	4602      	mov	r2, r0
    memcpy((void*)I2C_REGS[TRANSMIT], (void*)packet, len);
100102a6:	68e0      	ldr	r0, [r4, #12]
100102a8:	f005 f90a 	bl	100154c0 <memcpy>
    I2C_REGS[TRANSMIT_DONE][0] = false;
100102ac:	6923      	ldr	r3, [r4, #16]
100102ae:	2200      	movs	r2, #0
100102b0:	701a      	strb	r2, [r3, #0]

    // Wait for ack from AP
    while(!I2C_REGS[TRANSMIT_DONE][0]);
100102b2:	6922      	ldr	r2, [r4, #16]
100102b4:	7813      	ldrb	r3, [r2, #0]
100102b6:	2b00      	cmp	r3, #0
100102b8:	d0fc      	beq.n	100102b4 <send_packet_and_ack+0x18>
    I2C_REGS[RECEIVE_DONE][0] = false;
100102ba:	6863      	ldr	r3, [r4, #4]
100102bc:	2200      	movs	r2, #0
100102be:	701a      	strb	r2, [r3, #0]
}
100102c0:	bd10      	pop	{r4, pc}
100102c2:	bf00      	nop
100102c4:	20000018 	.word	0x20000018

100102c8 <wait_and_receive_packet>:
 * @param packet: uint8_t*, message received
 * 
 * This function waits for a new message to be available from the AP,
 * once the message is available it is returned in the buffer pointer to by packet 
*/
uint8_t wait_and_receive_packet(uint8_t* packet) {
100102c8:	b510      	push	{r4, lr}
    while(!I2C_REGS[RECEIVE_DONE][0]);
100102ca:	4907      	ldr	r1, [pc, #28]	@ (100102e8 <wait_and_receive_packet+0x20>)
100102cc:	684a      	ldr	r2, [r1, #4]
100102ce:	7813      	ldrb	r3, [r2, #0]
100102d0:	2b00      	cmp	r3, #0
100102d2:	d0fc      	beq.n	100102ce <wait_and_receive_packet+0x6>

    uint8_t len = I2C_REGS[RECEIVE_LEN][0];
100102d4:	688b      	ldr	r3, [r1, #8]
    memcpy(packet, (void*)I2C_REGS[RECEIVE], len);
100102d6:	6809      	ldr	r1, [r1, #0]
    uint8_t len = I2C_REGS[RECEIVE_LEN][0];
100102d8:	781c      	ldrb	r4, [r3, #0]
100102da:	b2e4      	uxtb	r4, r4
    memcpy(packet, (void*)I2C_REGS[RECEIVE], len);
100102dc:	4622      	mov	r2, r4
100102de:	f005 f8ef 	bl	100154c0 <memcpy>

    return len;
}
100102e2:	4620      	mov	r0, r4
100102e4:	bd10      	pop	{r4, pc}
100102e6:	bf00      	nop
100102e8:	20000018 	.word	0x20000018

100102ec <boot>:

/******************************* FUNCTION DEFINITIONS *********************************/

// Example boot sequence
// Your design does not need to change this
void boot() {
100102ec:	b508      	push	{r3, lr}
    #ifdef POST_BOOT
        POST_BOOT
    #else
    // Anything after this macro can be changed by your design
    // but will not be run on provisioned systems
    LED_Off(LED1);
100102ee:	2000      	movs	r0, #0
100102f0:	f000 fafe 	bl	100108f0 <LED_Off>
    LED_Off(LED2);
100102f4:	2001      	movs	r0, #1
100102f6:	f000 fafb 	bl	100108f0 <LED_Off>
    LED_Off(LED3);
100102fa:	2002      	movs	r0, #2
100102fc:	f000 faf8 	bl	100108f0 <LED_Off>
    // LED loop to show that boot occurred
    while (1) {
        LED_On(LED1);
        MXC_Delay(500000);
10010300:	4c12      	ldr	r4, [pc, #72]	@ (1001034c <boot+0x60>)
        LED_On(LED1);
10010302:	2000      	movs	r0, #0
10010304:	f000 fad4 	bl	100108b0 <LED_On>
        MXC_Delay(500000);
10010308:	4620      	mov	r0, r4
1001030a:	f000 fcef 	bl	10010cec <MXC_Delay>
        LED_On(LED2);
1001030e:	2001      	movs	r0, #1
10010310:	f000 face 	bl	100108b0 <LED_On>
        MXC_Delay(500000);
10010314:	4620      	mov	r0, r4
10010316:	f000 fce9 	bl	10010cec <MXC_Delay>
        LED_On(LED3);
1001031a:	2002      	movs	r0, #2
1001031c:	f000 fac8 	bl	100108b0 <LED_On>
        MXC_Delay(500000);
10010320:	4620      	mov	r0, r4
10010322:	f000 fce3 	bl	10010cec <MXC_Delay>
        LED_Off(LED1);
10010326:	2000      	movs	r0, #0
10010328:	f000 fae2 	bl	100108f0 <LED_Off>
        MXC_Delay(500000);
1001032c:	4620      	mov	r0, r4
1001032e:	f000 fcdd 	bl	10010cec <MXC_Delay>
        LED_Off(LED2);
10010332:	2001      	movs	r0, #1
10010334:	f000 fadc 	bl	100108f0 <LED_Off>
        MXC_Delay(500000);
10010338:	4620      	mov	r0, r4
1001033a:	f000 fcd7 	bl	10010cec <MXC_Delay>
        LED_Off(LED3);
1001033e:	2002      	movs	r0, #2
10010340:	f000 fad6 	bl	100108f0 <LED_Off>
        MXC_Delay(500000);
10010344:	4620      	mov	r0, r4
10010346:	f000 fcd1 	bl	10010cec <MXC_Delay>
    while (1) {
1001034a:	e7da      	b.n	10010302 <boot+0x16>
1001034c:	0007a120 	.word	0x0007a120

10010350 <process_boot>:

void process_boot() {
    // The AP requested a boot. Set `component_boot` for the main loop and
    // respond with the boot message
    uint8_t len = strlen(COMPONENT_BOOT_MSG) + 1;
    memcpy((void*)transmit_buffer, COMPONENT_BOOT_MSG, len);
10010350:	4b07      	ldr	r3, [pc, #28]	@ (10010370 <process_boot+0x20>)
10010352:	cb0f      	ldmia	r3, {r0, r1, r2, r3}
void process_boot() {
10010354:	b510      	push	{r4, lr}
    memcpy((void*)transmit_buffer, COMPONENT_BOOT_MSG, len);
10010356:	4c07      	ldr	r4, [pc, #28]	@ (10010374 <process_boot+0x24>)
10010358:	46a4      	mov	ip, r4
1001035a:	e8ac 0007 	stmia.w	ip!, {r0, r1, r2}
    send_packet_and_ack(len, transmit_buffer);
1001035e:	4621      	mov	r1, r4
10010360:	200d      	movs	r0, #13
    memcpy((void*)transmit_buffer, COMPONENT_BOOT_MSG, len);
10010362:	f88c 3000 	strb.w	r3, [ip]
    send_packet_and_ack(len, transmit_buffer);
10010366:	f7ff ff99 	bl	1001029c <send_packet_and_ack>
    // Call the boot function
    boot();
1001036a:	f7ff ffbf 	bl	100102ec <boot>
1001036e:	bf00      	nop
10010370:	1001aea0 	.word	0x1001aea0
10010374:	2000081c 	.word	0x2000081c

10010378 <component_process_cmd>:
void component_process_cmd() {
10010378:	b510      	push	{r4, lr}
    switch (command->opcode) {
1001037a:	4b15      	ldr	r3, [pc, #84]	@ (100103d0 <component_process_cmd+0x58>)
1001037c:	7819      	ldrb	r1, [r3, #0]
1001037e:	1e4b      	subs	r3, r1, #1
void component_process_cmd() {
10010380:	b082      	sub	sp, #8
    switch (command->opcode) {
10010382:	2b03      	cmp	r3, #3
10010384:	d81d      	bhi.n	100103c2 <component_process_cmd+0x4a>
10010386:	e8df f003 	tbb	[pc, r3]
1001038a:	0202      	.short	0x0202
1001038c:	0b1a      	.short	0x0b1a
}

void process_validate() {
    // The AP requested a validation. Respond with the Component ID
    validate_message* packet = (validate_message*) transmit_buffer;
    packet->component_id = COMPONENT_ID;
1001038e:	4911      	ldr	r1, [pc, #68]	@ (100103d4 <component_process_cmd+0x5c>)
10010390:	4b11      	ldr	r3, [pc, #68]	@ (100103d8 <component_process_cmd+0x60>)
10010392:	600b      	str	r3, [r1, #0]
    send_packet_and_ack(sizeof(validate_message), transmit_buffer);
10010394:	2004      	movs	r0, #4
}
10010396:	b002      	add	sp, #8
10010398:	e8bd 4010 	ldmia.w	sp!, {r4, lr}

void process_attest() {
    // The AP requested attestation. Respond with the attestation data
    uint8_t len = sprintf((char*)transmit_buffer, "LOC>%s\nDATE>%s\nCUST>%s\n",
                ATTESTATION_LOC, ATTESTATION_DATE, ATTESTATION_CUSTOMER) + 1;
    send_packet_and_ack(len, transmit_buffer);
1001039c:	f7ff bf7e 	b.w	1001029c <send_packet_and_ack>
    uint8_t len = sprintf((char*)transmit_buffer, "LOC>%s\nDATE>%s\nCUST>%s\n",
100103a0:	4c0e      	ldr	r4, [pc, #56]	@ (100103dc <component_process_cmd+0x64>)
100103a2:	490f      	ldr	r1, [pc, #60]	@ (100103e0 <component_process_cmd+0x68>)
100103a4:	4b0f      	ldr	r3, [pc, #60]	@ (100103e4 <component_process_cmd+0x6c>)
100103a6:	4a10      	ldr	r2, [pc, #64]	@ (100103e8 <component_process_cmd+0x70>)
100103a8:	9400      	str	r4, [sp, #0]
100103aa:	480a      	ldr	r0, [pc, #40]	@ (100103d4 <component_process_cmd+0x5c>)
100103ac:	f001 fd9a 	bl	10011ee4 <sprintf>
    send_packet_and_ack(len, transmit_buffer);
100103b0:	4908      	ldr	r1, [pc, #32]	@ (100103d4 <component_process_cmd+0x5c>)
100103b2:	2025      	movs	r0, #37	@ 0x25
}
100103b4:	b002      	add	sp, #8
100103b6:	e8bd 4010 	ldmia.w	sp!, {r4, lr}
    send_packet_and_ack(len, transmit_buffer);
100103ba:	f7ff bf6f 	b.w	1001029c <send_packet_and_ack>
        process_boot();
100103be:	f7ff ffc7 	bl	10010350 <process_boot>
        printf("Error: Unrecognized command received %d\n", command->opcode);
100103c2:	480a      	ldr	r0, [pc, #40]	@ (100103ec <component_process_cmd+0x74>)
}
100103c4:	b002      	add	sp, #8
100103c6:	e8bd 4010 	ldmia.w	sp!, {r4, lr}
        printf("Error: Unrecognized command received %d\n", command->opcode);
100103ca:	f003 bf19 	b.w	10014200 <printf>
100103ce:	bf00      	nop
100103d0:	2000091c 	.word	0x2000091c
100103d4:	2000081c 	.word	0x2000081c
100103d8:	11111125 	.word	0x11111125
100103dc:	1001aedc 	.word	0x1001aedc
100103e0:	1001aec4 	.word	0x1001aec4
100103e4:	1001aeb0 	.word	0x1001aeb0
100103e8:	1001aebc 	.word	0x1001aebc
100103ec:	1001aee4 	.word	0x1001aee4

100103f0 <main>:
}

/*********************************** MAIN *************************************/

int main(void) {
100103f0:	b510      	push	{r4, lr}
    printf("Component Started\n");
100103f2:	4809      	ldr	r0, [pc, #36]	@ (10010418 <main+0x28>)
100103f4:	f003 ff64 	bl	100142c0 <puts>
  \details Enables IRQ interrupts by clearing special-purpose register PRIMASK.
           Can only be executed in Privileged modes.
 */
__STATIC_FORCEINLINE void __enable_irq(void)
{
  __ASM volatile ("cpsie i" : : : "memory");
100103f8:	b662      	cpsie	i
    
    // Enable Global Interrupts
    __enable_irq();
    
    // Initialize Component
    i2c_addr_t addr = component_id_to_i2c_addr(COMPONENT_ID);
100103fa:	4808      	ldr	r0, [pc, #32]	@ (1001041c <main+0x2c>)
    board_link_init(addr);
    
    LED_On(LED2);

    while (1) {
        wait_and_receive_packet(receive_buffer);
100103fc:	4c08      	ldr	r4, [pc, #32]	@ (10010420 <main+0x30>)
    i2c_addr_t addr = component_id_to_i2c_addr(COMPONENT_ID);
100103fe:	f7ff ff4b 	bl	10010298 <component_id_to_i2c_addr>
    board_link_init(addr);
10010402:	f7ff ff47 	bl	10010294 <board_link_init>
    LED_On(LED2);
10010406:	2001      	movs	r0, #1
10010408:	f000 fa52 	bl	100108b0 <LED_On>
        wait_and_receive_packet(receive_buffer);
1001040c:	4620      	mov	r0, r4
1001040e:	f7ff ff5b 	bl	100102c8 <wait_and_receive_packet>

        component_process_cmd();
10010412:	f7ff ffb1 	bl	10010378 <component_process_cmd>
    while (1) {
10010416:	e7f9      	b.n	1001040c <main+0x1c>
10010418:	1001af10 	.word	0x1001af10
1001041c:	11111125 	.word	0x11111125
10010420:	2000091c 	.word	0x2000091c

10010424 <i2c_simple_isr>:
    static int READ_INDEX = 0;
    static int WRITE_INDEX = 0;
    static ECTF_I2C_REGS ACTIVE_REG = RECEIVE;

    // Read interrupt flags
    uint32_t Flags = I2C_INTERFACE->intfl0;
10010424:	4890      	ldr	r0, [pc, #576]	@ (10010668 <i2c_simple_isr+0x244>)
void i2c_simple_isr (void) {
10010426:	b5f8      	push	{r3, r4, r5, r6, r7, lr}
    uint32_t Flags = I2C_INTERFACE->intfl0;
10010428:	6884      	ldr	r4, [r0, #8]
    
    // Transaction over interrupt
    if (Flags & MXC_F_I2C_INTFL0_STOP) {
1001042a:	0663      	lsls	r3, r4, #25
1001042c:	d549      	bpl.n	100104c2 <i2c_simple_isr+0x9e>
        
        // Ready any remaining data
        if (WRITE_START == true) {
1001042e:	4e8f      	ldr	r6, [pc, #572]	@ (1001066c <i2c_simple_isr+0x248>)
10010430:	7833      	ldrb	r3, [r6, #0]
10010432:	2b00      	cmp	r3, #0
10010434:	f040 80cb 	bne.w	100105ce <i2c_simple_isr+0x1aa>
            MXC_I2C_ReadRXFIFO(I2C_INTERFACE, (volatile unsigned char*) &ACTIVE_REG, 1);
            WRITE_START = false;
        }
        if (ACTIVE_REG <= MAX_REG) {
10010438:	4d8d      	ldr	r5, [pc, #564]	@ (10010670 <i2c_simple_isr+0x24c>)
            int available = MXC_I2C_GetRXFIFOAvailable(I2C_INTERFACE);
1001043a:	488b      	ldr	r0, [pc, #556]	@ (10010668 <i2c_simple_isr+0x244>)
        if (ACTIVE_REG <= MAX_REG) {
1001043c:	782b      	ldrb	r3, [r5, #0]
1001043e:	2b05      	cmp	r3, #5
10010440:	d81b      	bhi.n	1001047a <i2c_simple_isr+0x56>
            int available = MXC_I2C_GetRXFIFOAvailable(I2C_INTERFACE);
10010442:	f000 ffcf 	bl	100113e4 <MXC_I2C_GetRXFIFOAvailable>
            if (available < (I2C_REGS_LEN[ACTIVE_REG]-WRITE_INDEX)) {
10010446:	7829      	ldrb	r1, [r5, #0]
10010448:	4b8a      	ldr	r3, [pc, #552]	@ (10010674 <i2c_simple_isr+0x250>)
1001044a:	4d8b      	ldr	r5, [pc, #556]	@ (10010678 <i2c_simple_isr+0x254>)
1001044c:	f853 2021 	ldr.w	r2, [r3, r1, lsl #2]
10010450:	682b      	ldr	r3, [r5, #0]
10010452:	1ad2      	subs	r2, r2, r3
10010454:	4282      	cmp	r2, r0
10010456:	f340 80da 	ble.w	1001060e <i2c_simple_isr+0x1ea>
                WRITE_INDEX += MXC_I2C_ReadRXFIFO(I2C_INTERFACE,
                    &I2C_REGS[ACTIVE_REG][WRITE_INDEX],
1001045a:	4a88      	ldr	r2, [pc, #544]	@ (1001067c <i2c_simple_isr+0x258>)
                    MXC_I2C_GetRXFIFOAvailable(I2C_INTERFACE));
1001045c:	4882      	ldr	r0, [pc, #520]	@ (10010668 <i2c_simple_isr+0x244>)
                    &I2C_REGS[ACTIVE_REG][WRITE_INDEX],
1001045e:	f852 7021 	ldr.w	r7, [r2, r1, lsl #2]
10010462:	441f      	add	r7, r3
                    MXC_I2C_GetRXFIFOAvailable(I2C_INTERFACE));
10010464:	f000 ffbe 	bl	100113e4 <MXC_I2C_GetRXFIFOAvailable>
                WRITE_INDEX += MXC_I2C_ReadRXFIFO(I2C_INTERFACE,
10010468:	4639      	mov	r1, r7
                    MXC_I2C_GetRXFIFOAvailable(I2C_INTERFACE));
1001046a:	4602      	mov	r2, r0
            }
            else {
                WRITE_INDEX += MXC_I2C_ReadRXFIFO(I2C_INTERFACE,
1001046c:	487e      	ldr	r0, [pc, #504]	@ (10010668 <i2c_simple_isr+0x244>)
1001046e:	f000 ffb7 	bl	100113e0 <MXC_I2C_ReadRXFIFO>
10010472:	682b      	ldr	r3, [r5, #0]
10010474:	4403      	add	r3, r0
10010476:	602b      	str	r3, [r5, #0]
10010478:	e002      	b.n	10010480 <i2c_simple_isr+0x5c>
                    &I2C_REGS[ACTIVE_REG][WRITE_INDEX],
                    I2C_REGS_LEN[ACTIVE_REG]-WRITE_INDEX);
            }
        } else {
            MXC_I2C_ClearRXFIFO(I2C_INTERFACE);
1001047a:	f000 ffb9 	bl	100113f0 <MXC_I2C_ClearRXFIFO>
1001047e:	4d7e      	ldr	r5, [pc, #504]	@ (10010678 <i2c_simple_isr+0x254>)
        }

        // Disable bulk send/receive interrupts
        MXC_I2C_DisableInt(I2C_INTERFACE, MXC_F_I2C_INTEN0_RX_THD, 0);
10010480:	4879      	ldr	r0, [pc, #484]	@ (10010668 <i2c_simple_isr+0x244>)
10010482:	2200      	movs	r2, #0
10010484:	2110      	movs	r1, #16
10010486:	f000 ffbb 	bl	10011400 <MXC_I2C_DisableInt>
        MXC_I2C_DisableInt(I2C_INTERFACE, MXC_F_I2C_INTEN0_TX_THD, 0);
1001048a:	4877      	ldr	r0, [pc, #476]	@ (10010668 <i2c_simple_isr+0x244>)
1001048c:	2200      	movs	r2, #0
1001048e:	2120      	movs	r1, #32
10010490:	f000 ffb6 	bl	10011400 <MXC_I2C_DisableInt>

        // Clear FIFOs if full
        if (MXC_I2C_GetRXFIFOAvailable(I2C_INTERFACE) != 0) {
10010494:	4874      	ldr	r0, [pc, #464]	@ (10010668 <i2c_simple_isr+0x244>)
10010496:	f000 ffa5 	bl	100113e4 <MXC_I2C_GetRXFIFOAvailable>
1001049a:	2800      	cmp	r0, #0
1001049c:	f040 80df 	bne.w	1001065e <i2c_simple_isr+0x23a>
            MXC_I2C_ClearRXFIFO(I2C_INTERFACE);
        }
        if (MXC_I2C_GetTXFIFOAvailable(I2C_INTERFACE) != 8) {
100104a0:	4871      	ldr	r0, [pc, #452]	@ (10010668 <i2c_simple_isr+0x244>)
100104a2:	f000 ffa3 	bl	100113ec <MXC_I2C_GetTXFIFOAvailable>
100104a6:	2808      	cmp	r0, #8
100104a8:	d002      	beq.n	100104b0 <i2c_simple_isr+0x8c>
            MXC_I2C_ClearTXFIFO(I2C_INTERFACE);
100104aa:	486f      	ldr	r0, [pc, #444]	@ (10010668 <i2c_simple_isr+0x244>)
100104ac:	f000 ffa2 	bl	100113f4 <MXC_I2C_ClearTXFIFO>
        }

        // Reset state
        READ_INDEX = 0;
100104b0:	4b73      	ldr	r3, [pc, #460]	@ (10010680 <i2c_simple_isr+0x25c>)
        WRITE_INDEX = 0;
        WRITE_START = false;

        // Clear ISR flag
        MXC_I2C_ClearFlags(I2C_INTERFACE, MXC_F_I2C_INTFL0_STOP, 0);
100104b2:	486d      	ldr	r0, [pc, #436]	@ (10010668 <i2c_simple_isr+0x244>)
        READ_INDEX = 0;
100104b4:	2200      	movs	r2, #0
        MXC_I2C_ClearFlags(I2C_INTERFACE, MXC_F_I2C_INTFL0_STOP, 0);
100104b6:	2140      	movs	r1, #64	@ 0x40
        WRITE_INDEX = 0;
100104b8:	602a      	str	r2, [r5, #0]
        READ_INDEX = 0;
100104ba:	601a      	str	r2, [r3, #0]
        WRITE_START = false;
100104bc:	7032      	strb	r2, [r6, #0]
        MXC_I2C_ClearFlags(I2C_INTERFACE, MXC_F_I2C_INTFL0_STOP, 0);
100104be:	f000 ff9b 	bl	100113f8 <MXC_I2C_ClearFlags>
    }

    // TX Fifo Threshold Met on Read
    if (Flags & MXC_F_I2C_INTEN0_TX_THD && (I2C_INTERFACE->inten0 & MXC_F_I2C_INTEN0_TX_THD)) {
100104c2:	06a7      	lsls	r7, r4, #26
100104c4:	d503      	bpl.n	100104ce <i2c_simple_isr+0xaa>
100104c6:	4868      	ldr	r0, [pc, #416]	@ (10010668 <i2c_simple_isr+0x244>)
100104c8:	68c3      	ldr	r3, [r0, #12]
100104ca:	069e      	lsls	r6, r3, #26
100104cc:	d433      	bmi.n	10010536 <i2c_simple_isr+0x112>
        // Clear ISR flag
        MXC_I2C_ClearFlags(I2C_INTERFACE, MXC_F_I2C_INTFL0_TX_THD, 0);
    }

    // Read from Peripheral from Controller Match
    if (Flags & MXC_F_I2C_INTFL0_WR_ADDR_MATCH) {
100104ce:	0220      	lsls	r0, r4, #8
100104d0:	d43f      	bmi.n	10010552 <i2c_simple_isr+0x12e>
            }
        }
    }

    // Write to Peripheral from Controller Match
    if (Flags & MXC_F_I2C_INTFL0_RD_ADDR_MATCH) {
100104d2:	0262      	lsls	r2, r4, #9
100104d4:	d46c      	bmi.n	100105b0 <i2c_simple_isr+0x18c>
        // Clear flag
        MXC_I2C_ClearFlags(I2C_INTERFACE, MXC_F_I2C_INTFL0_RD_ADDR_MATCH, 0);
    }

    // RX Fifo Threshold Met on Write
    if (Flags & MXC_F_I2C_INTEN0_RX_THD) {
100104d6:	06e3      	lsls	r3, r4, #27
100104d8:	d511      	bpl.n	100104fe <i2c_simple_isr+0xda>
        // We always write a register before writing data so select register
        if (WRITE_START == true) {
100104da:	4c64      	ldr	r4, [pc, #400]	@ (1001066c <i2c_simple_isr+0x248>)
100104dc:	7823      	ldrb	r3, [r4, #0]
100104de:	2b00      	cmp	r3, #0
100104e0:	d17c      	bne.n	100105dc <i2c_simple_isr+0x1b8>
            MXC_I2C_ReadRXFIFO(I2C_INTERFACE, (volatile unsigned char*) &ACTIVE_REG, 1);
            WRITE_START = false;
        }
        // Read remaining data
        if (ACTIVE_REG <= MAX_REG) {
100104e2:	4c63      	ldr	r4, [pc, #396]	@ (10010670 <i2c_simple_isr+0x24c>)
            int available = MXC_I2C_GetRXFIFOAvailable(I2C_INTERFACE);
100104e4:	4860      	ldr	r0, [pc, #384]	@ (10010668 <i2c_simple_isr+0x244>)
        if (ACTIVE_REG <= MAX_REG) {
100104e6:	7823      	ldrb	r3, [r4, #0]
100104e8:	2b05      	cmp	r3, #5
100104ea:	d909      	bls.n	10010500 <i2c_simple_isr+0xdc>
                    &I2C_REGS[ACTIVE_REG][WRITE_INDEX],
                    I2C_REGS_LEN[ACTIVE_REG]-WRITE_INDEX);
            }
        // Clear out FIFO if invalid register specified
        } else {
            MXC_I2C_ClearRXFIFO(I2C_INTERFACE);
100104ec:	f000 ff80 	bl	100113f0 <MXC_I2C_ClearRXFIFO>
        }

        // Clear ISR flag
        MXC_I2C_ClearFlags(I2C_INTERFACE, MXC_F_I2C_INTFL0_RX_THD, 0);
    }
}
100104f0:	e8bd 40f8 	ldmia.w	sp!, {r3, r4, r5, r6, r7, lr}
        MXC_I2C_ClearFlags(I2C_INTERFACE, MXC_F_I2C_INTFL0_RX_THD, 0);
100104f4:	485c      	ldr	r0, [pc, #368]	@ (10010668 <i2c_simple_isr+0x244>)
100104f6:	2200      	movs	r2, #0
100104f8:	2110      	movs	r1, #16
100104fa:	f000 bf7d 	b.w	100113f8 <MXC_I2C_ClearFlags>
}
100104fe:	bdf8      	pop	{r3, r4, r5, r6, r7, pc}
            int available = MXC_I2C_GetRXFIFOAvailable(I2C_INTERFACE);
10010500:	f000 ff70 	bl	100113e4 <MXC_I2C_GetRXFIFOAvailable>
            if (available < (I2C_REGS_LEN[ACTIVE_REG]-WRITE_INDEX)) {
10010504:	7821      	ldrb	r1, [r4, #0]
10010506:	4a5b      	ldr	r2, [pc, #364]	@ (10010674 <i2c_simple_isr+0x250>)
10010508:	4c5b      	ldr	r4, [pc, #364]	@ (10010678 <i2c_simple_isr+0x254>)
1001050a:	f852 2021 	ldr.w	r2, [r2, r1, lsl #2]
1001050e:	6823      	ldr	r3, [r4, #0]
10010510:	1ad2      	subs	r2, r2, r3
10010512:	4282      	cmp	r2, r0
10010514:	dd70      	ble.n	100105f8 <i2c_simple_isr+0x1d4>
                    &I2C_REGS[ACTIVE_REG][WRITE_INDEX],
10010516:	4a59      	ldr	r2, [pc, #356]	@ (1001067c <i2c_simple_isr+0x258>)
                    MXC_I2C_GetRXFIFOAvailable(I2C_INTERFACE));
10010518:	4853      	ldr	r0, [pc, #332]	@ (10010668 <i2c_simple_isr+0x244>)
                    &I2C_REGS[ACTIVE_REG][WRITE_INDEX],
1001051a:	f852 5021 	ldr.w	r5, [r2, r1, lsl #2]
1001051e:	441d      	add	r5, r3
                    MXC_I2C_GetRXFIFOAvailable(I2C_INTERFACE));
10010520:	f000 ff60 	bl	100113e4 <MXC_I2C_GetRXFIFOAvailable>
                WRITE_INDEX += MXC_I2C_ReadRXFIFO(I2C_INTERFACE,
10010524:	4629      	mov	r1, r5
                    MXC_I2C_GetRXFIFOAvailable(I2C_INTERFACE));
10010526:	4602      	mov	r2, r0
                WRITE_INDEX += MXC_I2C_ReadRXFIFO(I2C_INTERFACE,
10010528:	484f      	ldr	r0, [pc, #316]	@ (10010668 <i2c_simple_isr+0x244>)
1001052a:	f000 ff59 	bl	100113e0 <MXC_I2C_ReadRXFIFO>
1001052e:	6823      	ldr	r3, [r4, #0]
10010530:	4403      	add	r3, r0
10010532:	6023      	str	r3, [r4, #0]
10010534:	e7dc      	b.n	100104f0 <i2c_simple_isr+0xcc>
        if (Flags & MXC_F_I2C_INTFL0_TX_LOCKOUT) {
10010536:	0425      	lsls	r5, r4, #16
10010538:	f100 808b 	bmi.w	10010652 <i2c_simple_isr+0x22e>
        if (ACTIVE_REG <= MAX_REG) {
1001053c:	4d4c      	ldr	r5, [pc, #304]	@ (10010670 <i2c_simple_isr+0x24c>)
1001053e:	782b      	ldrb	r3, [r5, #0]
10010540:	2b05      	cmp	r3, #5
10010542:	d969      	bls.n	10010618 <i2c_simple_isr+0x1f4>
        MXC_I2C_ClearFlags(I2C_INTERFACE, MXC_F_I2C_INTFL0_TX_THD, 0);
10010544:	4848      	ldr	r0, [pc, #288]	@ (10010668 <i2c_simple_isr+0x244>)
10010546:	2200      	movs	r2, #0
10010548:	2120      	movs	r1, #32
1001054a:	f000 ff55 	bl	100113f8 <MXC_I2C_ClearFlags>
    if (Flags & MXC_F_I2C_INTFL0_WR_ADDR_MATCH) {
1001054e:	0220      	lsls	r0, r4, #8
10010550:	d5bf      	bpl.n	100104d2 <i2c_simple_isr+0xae>
        MXC_I2C_ClearFlags(I2C_INTERFACE, MXC_F_I2C_INTFL0_WR_ADDR_MATCH, 0);
10010552:	f44f 0100 	mov.w	r1, #8388608	@ 0x800000
10010556:	4844      	ldr	r0, [pc, #272]	@ (10010668 <i2c_simple_isr+0x244>)
10010558:	2200      	movs	r2, #0
1001055a:	f000 ff4d 	bl	100113f8 <MXC_I2C_ClearFlags>
        if (Flags & MXC_F_I2C_INTFL0_TX_LOCKOUT) {
1001055e:	0421      	lsls	r1, r4, #16
10010560:	d5b7      	bpl.n	100104d2 <i2c_simple_isr+0xae>
            MXC_I2C_ReadRXFIFO(I2C_INTERFACE, (volatile unsigned char*) &ACTIVE_REG, 1);
10010562:	4d43      	ldr	r5, [pc, #268]	@ (10010670 <i2c_simple_isr+0x24c>)
            MXC_I2C_ClearFlags(I2C_INTERFACE, MXC_F_I2C_INTFL0_TX_LOCKOUT, 0);
10010564:	4840      	ldr	r0, [pc, #256]	@ (10010668 <i2c_simple_isr+0x244>)
10010566:	2200      	movs	r2, #0
10010568:	f44f 4100 	mov.w	r1, #32768	@ 0x8000
1001056c:	f000 ff44 	bl	100113f8 <MXC_I2C_ClearFlags>
            MXC_I2C_ReadRXFIFO(I2C_INTERFACE, (volatile unsigned char*) &ACTIVE_REG, 1);
10010570:	483d      	ldr	r0, [pc, #244]	@ (10010668 <i2c_simple_isr+0x244>)
10010572:	2201      	movs	r2, #1
10010574:	4629      	mov	r1, r5
10010576:	f000 ff33 	bl	100113e0 <MXC_I2C_ReadRXFIFO>
            if (ACTIVE_REG <= MAX_REG) {
1001057a:	782b      	ldrb	r3, [r5, #0]
1001057c:	2b05      	cmp	r3, #5
1001057e:	d8a8      	bhi.n	100104d2 <i2c_simple_isr+0xae>
                READ_INDEX += MXC_I2C_WriteTXFIFO(I2C_INTERFACE, (volatile unsigned char*)I2C_REGS[ACTIVE_REG], I2C_REGS_LEN[ACTIVE_REG]);
10010580:	4e3c      	ldr	r6, [pc, #240]	@ (10010674 <i2c_simple_isr+0x250>)
10010582:	4a3e      	ldr	r2, [pc, #248]	@ (1001067c <i2c_simple_isr+0x258>)
10010584:	4838      	ldr	r0, [pc, #224]	@ (10010668 <i2c_simple_isr+0x244>)
10010586:	f852 1023 	ldr.w	r1, [r2, r3, lsl #2]
1001058a:	f856 2023 	ldr.w	r2, [r6, r3, lsl #2]
1001058e:	f000 ff2b 	bl	100113e8 <MXC_I2C_WriteTXFIFO>
10010592:	4b3b      	ldr	r3, [pc, #236]	@ (10010680 <i2c_simple_isr+0x25c>)
                if (READ_INDEX < I2C_REGS_LEN[ACTIVE_REG]) {
10010594:	782a      	ldrb	r2, [r5, #0]
                READ_INDEX += MXC_I2C_WriteTXFIFO(I2C_INTERFACE, (volatile unsigned char*)I2C_REGS[ACTIVE_REG], I2C_REGS_LEN[ACTIVE_REG]);
10010596:	6819      	ldr	r1, [r3, #0]
                if (READ_INDEX < I2C_REGS_LEN[ACTIVE_REG]) {
10010598:	f856 2022 	ldr.w	r2, [r6, r2, lsl #2]
                READ_INDEX += MXC_I2C_WriteTXFIFO(I2C_INTERFACE, (volatile unsigned char*)I2C_REGS[ACTIVE_REG], I2C_REGS_LEN[ACTIVE_REG]);
1001059c:	4408      	add	r0, r1
                if (READ_INDEX < I2C_REGS_LEN[ACTIVE_REG]) {
1001059e:	4290      	cmp	r0, r2
                READ_INDEX += MXC_I2C_WriteTXFIFO(I2C_INTERFACE, (volatile unsigned char*)I2C_REGS[ACTIVE_REG], I2C_REGS_LEN[ACTIVE_REG]);
100105a0:	6018      	str	r0, [r3, #0]
                if (READ_INDEX < I2C_REGS_LEN[ACTIVE_REG]) {
100105a2:	da96      	bge.n	100104d2 <i2c_simple_isr+0xae>
                    MXC_I2C_EnableInt(I2C_INTERFACE, MXC_F_I2C_INTEN0_TX_THD, 0);
100105a4:	4830      	ldr	r0, [pc, #192]	@ (10010668 <i2c_simple_isr+0x244>)
100105a6:	2200      	movs	r2, #0
100105a8:	2120      	movs	r1, #32
100105aa:	f000 ff27 	bl	100113fc <MXC_I2C_EnableInt>
100105ae:	e790      	b.n	100104d2 <i2c_simple_isr+0xae>
        WRITE_START = true;
100105b0:	4b2e      	ldr	r3, [pc, #184]	@ (1001066c <i2c_simple_isr+0x248>)
        MXC_I2C_EnableInt(I2C_INTERFACE, MXC_F_I2C_INTEN0_RX_THD, 0);
100105b2:	482d      	ldr	r0, [pc, #180]	@ (10010668 <i2c_simple_isr+0x244>)
100105b4:	2200      	movs	r2, #0
100105b6:	2110      	movs	r1, #16
        WRITE_START = true;
100105b8:	2501      	movs	r5, #1
100105ba:	701d      	strb	r5, [r3, #0]
        MXC_I2C_EnableInt(I2C_INTERFACE, MXC_F_I2C_INTEN0_RX_THD, 0);
100105bc:	f000 ff1e 	bl	100113fc <MXC_I2C_EnableInt>
        MXC_I2C_ClearFlags(I2C_INTERFACE, MXC_F_I2C_INTFL0_RD_ADDR_MATCH, 0);
100105c0:	4829      	ldr	r0, [pc, #164]	@ (10010668 <i2c_simple_isr+0x244>)
100105c2:	2200      	movs	r2, #0
100105c4:	f44f 0180 	mov.w	r1, #4194304	@ 0x400000
100105c8:	f000 ff16 	bl	100113f8 <MXC_I2C_ClearFlags>
100105cc:	e783      	b.n	100104d6 <i2c_simple_isr+0xb2>
            MXC_I2C_ReadRXFIFO(I2C_INTERFACE, (volatile unsigned char*) &ACTIVE_REG, 1);
100105ce:	4928      	ldr	r1, [pc, #160]	@ (10010670 <i2c_simple_isr+0x24c>)
100105d0:	2201      	movs	r2, #1
100105d2:	f000 ff05 	bl	100113e0 <MXC_I2C_ReadRXFIFO>
            WRITE_START = false;
100105d6:	2300      	movs	r3, #0
100105d8:	7033      	strb	r3, [r6, #0]
100105da:	e72d      	b.n	10010438 <i2c_simple_isr+0x14>
            MXC_I2C_ReadRXFIFO(I2C_INTERFACE, (volatile unsigned char*) &ACTIVE_REG, 1);
100105dc:	4924      	ldr	r1, [pc, #144]	@ (10010670 <i2c_simple_isr+0x24c>)
100105de:	4822      	ldr	r0, [pc, #136]	@ (10010668 <i2c_simple_isr+0x244>)
100105e0:	2201      	movs	r2, #1
100105e2:	f000 fefd 	bl	100113e0 <MXC_I2C_ReadRXFIFO>
            WRITE_START = false;
100105e6:	2300      	movs	r3, #0
100105e8:	7023      	strb	r3, [r4, #0]
        if (ACTIVE_REG <= MAX_REG) {
100105ea:	4c21      	ldr	r4, [pc, #132]	@ (10010670 <i2c_simple_isr+0x24c>)
            int available = MXC_I2C_GetRXFIFOAvailable(I2C_INTERFACE);
100105ec:	481e      	ldr	r0, [pc, #120]	@ (10010668 <i2c_simple_isr+0x244>)
        if (ACTIVE_REG <= MAX_REG) {
100105ee:	7823      	ldrb	r3, [r4, #0]
100105f0:	2b05      	cmp	r3, #5
100105f2:	f63f af7b 	bhi.w	100104ec <i2c_simple_isr+0xc8>
100105f6:	e783      	b.n	10010500 <i2c_simple_isr+0xdc>
                    &I2C_REGS[ACTIVE_REG][WRITE_INDEX],
100105f8:	4820      	ldr	r0, [pc, #128]	@ (1001067c <i2c_simple_isr+0x258>)
100105fa:	f850 1021 	ldr.w	r1, [r0, r1, lsl #2]
                WRITE_INDEX += MXC_I2C_ReadRXFIFO(I2C_INTERFACE,
100105fe:	481a      	ldr	r0, [pc, #104]	@ (10010668 <i2c_simple_isr+0x244>)
10010600:	4419      	add	r1, r3
10010602:	f000 feed 	bl	100113e0 <MXC_I2C_ReadRXFIFO>
10010606:	6823      	ldr	r3, [r4, #0]
10010608:	4403      	add	r3, r0
1001060a:	6023      	str	r3, [r4, #0]
1001060c:	e770      	b.n	100104f0 <i2c_simple_isr+0xcc>
                    &I2C_REGS[ACTIVE_REG][WRITE_INDEX],
1001060e:	481b      	ldr	r0, [pc, #108]	@ (1001067c <i2c_simple_isr+0x258>)
10010610:	f850 1021 	ldr.w	r1, [r0, r1, lsl #2]
                WRITE_INDEX += MXC_I2C_ReadRXFIFO(I2C_INTERFACE,
10010614:	4419      	add	r1, r3
10010616:	e729      	b.n	1001046c <i2c_simple_isr+0x48>
            READ_INDEX += MXC_I2C_WriteTXFIFO(I2C_INTERFACE,
10010618:	4e19      	ldr	r6, [pc, #100]	@ (10010680 <i2c_simple_isr+0x25c>)
                I2C_REGS_LEN[ACTIVE_REG]-READ_INDEX);
1001061a:	4f16      	ldr	r7, [pc, #88]	@ (10010674 <i2c_simple_isr+0x250>)
                (volatile unsigned char*)&I2C_REGS[ACTIVE_REG][READ_INDEX],
1001061c:	4917      	ldr	r1, [pc, #92]	@ (1001067c <i2c_simple_isr+0x258>)
            READ_INDEX += MXC_I2C_WriteTXFIFO(I2C_INTERFACE,
1001061e:	6832      	ldr	r2, [r6, #0]
                (volatile unsigned char*)&I2C_REGS[ACTIVE_REG][READ_INDEX],
10010620:	f851 1023 	ldr.w	r1, [r1, r3, lsl #2]
                I2C_REGS_LEN[ACTIVE_REG]-READ_INDEX);
10010624:	f857 3023 	ldr.w	r3, [r7, r3, lsl #2]
            READ_INDEX += MXC_I2C_WriteTXFIFO(I2C_INTERFACE,
10010628:	480f      	ldr	r0, [pc, #60]	@ (10010668 <i2c_simple_isr+0x244>)
1001062a:	4411      	add	r1, r2
1001062c:	1a9a      	subs	r2, r3, r2
1001062e:	f000 fedb 	bl	100113e8 <MXC_I2C_WriteTXFIFO>
            if (I2C_REGS_LEN[ACTIVE_REG]-1 == READ_INDEX) {
10010632:	782b      	ldrb	r3, [r5, #0]
            READ_INDEX += MXC_I2C_WriteTXFIFO(I2C_INTERFACE,
10010634:	6832      	ldr	r2, [r6, #0]
            if (I2C_REGS_LEN[ACTIVE_REG]-1 == READ_INDEX) {
10010636:	f857 3023 	ldr.w	r3, [r7, r3, lsl #2]
            READ_INDEX += MXC_I2C_WriteTXFIFO(I2C_INTERFACE,
1001063a:	4410      	add	r0, r2
            if (I2C_REGS_LEN[ACTIVE_REG]-1 == READ_INDEX) {
1001063c:	3b01      	subs	r3, #1
1001063e:	4298      	cmp	r0, r3
            READ_INDEX += MXC_I2C_WriteTXFIFO(I2C_INTERFACE,
10010640:	6030      	str	r0, [r6, #0]
            if (I2C_REGS_LEN[ACTIVE_REG]-1 == READ_INDEX) {
10010642:	f47f af7f 	bne.w	10010544 <i2c_simple_isr+0x120>
                MXC_I2C_DisableInt(I2C_INTERFACE, MXC_F_I2C_INTEN0_TX_THD, 0);
10010646:	4808      	ldr	r0, [pc, #32]	@ (10010668 <i2c_simple_isr+0x244>)
10010648:	2200      	movs	r2, #0
1001064a:	2120      	movs	r1, #32
1001064c:	f000 fed8 	bl	10011400 <MXC_I2C_DisableInt>
10010650:	e778      	b.n	10010544 <i2c_simple_isr+0x120>
            MXC_I2C_ClearFlags(I2C_INTERFACE, MXC_F_I2C_INTFL0_TX_LOCKOUT, 0);
10010652:	2200      	movs	r2, #0
10010654:	f44f 4100 	mov.w	r1, #32768	@ 0x8000
10010658:	f000 fece 	bl	100113f8 <MXC_I2C_ClearFlags>
1001065c:	e76e      	b.n	1001053c <i2c_simple_isr+0x118>
            MXC_I2C_ClearRXFIFO(I2C_INTERFACE);
1001065e:	4802      	ldr	r0, [pc, #8]	@ (10010668 <i2c_simple_isr+0x244>)
10010660:	f000 fec6 	bl	100113f0 <MXC_I2C_ClearRXFIFO>
10010664:	e71c      	b.n	100104a0 <i2c_simple_isr+0x7c>
10010666:	bf00      	nop
10010668:	4001e000 	.word	0x4001e000
1001066c:	20000a25 	.word	0x20000a25
10010670:	20000a24 	.word	0x20000a24
10010674:	20000000 	.word	0x20000000
10010678:	20000a20 	.word	0x20000a20
1001067c:	20000018 	.word	0x20000018
10010680:	20000a1c 	.word	0x20000a1c

10010684 <i2c_simple_peripheral_init>:
int i2c_simple_peripheral_init(uint8_t addr) {
10010684:	b510      	push	{r4, lr}
10010686:	4602      	mov	r2, r0
    error = MXC_I2C_Init(I2C_INTERFACE, false, addr);
10010688:	2100      	movs	r1, #0
1001068a:	481b      	ldr	r0, [pc, #108]	@ (100106f8 <i2c_simple_peripheral_init+0x74>)
1001068c:	f000 fe52 	bl	10011334 <MXC_I2C_Init>
    if (error != E_NO_ERROR) {
10010690:	4604      	mov	r4, r0
10010692:	bb60      	cbnz	r0, 100106ee <i2c_simple_peripheral_init+0x6a>
    MXC_I2C_SetFrequency(I2C_INTERFACE, I2C_FREQ);
10010694:	4919      	ldr	r1, [pc, #100]	@ (100106fc <i2c_simple_peripheral_init+0x78>)
10010696:	4818      	ldr	r0, [pc, #96]	@ (100106f8 <i2c_simple_peripheral_init+0x74>)
10010698:	f000 fe96 	bl	100113c8 <MXC_I2C_SetFrequency>
    MXC_I2C_ClearRXFIFO(I2C_INTERFACE);
1001069c:	4816      	ldr	r0, [pc, #88]	@ (100106f8 <i2c_simple_peripheral_init+0x74>)
1001069e:	f000 fea7 	bl	100113f0 <MXC_I2C_ClearRXFIFO>
    MXC_I2C_EnableInt(I2C_INTERFACE, MXC_F_I2C_INTFL0_RD_ADDR_MATCH, 0);
100106a2:	4622      	mov	r2, r4
100106a4:	4814      	ldr	r0, [pc, #80]	@ (100106f8 <i2c_simple_peripheral_init+0x74>)
100106a6:	f44f 0180 	mov.w	r1, #4194304	@ 0x400000
100106aa:	f000 fea7 	bl	100113fc <MXC_I2C_EnableInt>
    MXC_I2C_EnableInt(I2C_INTERFACE, MXC_F_I2C_INTFL0_WR_ADDR_MATCH, 0);
100106ae:	4622      	mov	r2, r4
100106b0:	4811      	ldr	r0, [pc, #68]	@ (100106f8 <i2c_simple_peripheral_init+0x74>)
100106b2:	f44f 0100 	mov.w	r1, #8388608	@ 0x800000
100106b6:	f000 fea1 	bl	100113fc <MXC_I2C_EnableInt>
    MXC_I2C_EnableInt(I2C_INTERFACE, MXC_F_I2C_INTFL0_STOP, 0);
100106ba:	4622      	mov	r2, r4
100106bc:	480e      	ldr	r0, [pc, #56]	@ (100106f8 <i2c_simple_peripheral_init+0x74>)
100106be:	2140      	movs	r1, #64	@ 0x40
100106c0:	f000 fe9c 	bl	100113fc <MXC_I2C_EnableInt>
    MXC_NVIC_SetVector(MXC_I2C_GET_IRQ(MXC_I2C_GET_IDX(I2C_INTERFACE)), i2c_simple_isr);
100106c4:	490e      	ldr	r1, [pc, #56]	@ (10010700 <i2c_simple_peripheral_init+0x7c>)
100106c6:	2024      	movs	r0, #36	@ 0x24
100106c8:	f000 fb4a 	bl	10010d60 <MXC_NVIC_SetVector>
__STATIC_INLINE void __NVIC_EnableIRQ(IRQn_Type IRQn)
{
  if ((int32_t)(IRQn) >= 0)
  {
    __COMPILER_BARRIER();
    NVIC->ISER[(((uint32_t)IRQn) >> 5UL)] = (uint32_t)(1UL << (((uint32_t)IRQn) & 0x1FUL));
100106cc:	4b0d      	ldr	r3, [pc, #52]	@ (10010704 <i2c_simple_peripheral_init+0x80>)
100106ce:	2210      	movs	r2, #16
100106d0:	605a      	str	r2, [r3, #4]
    MXC_I2C_ClearFlags(I2C_INTERFACE, 0xFFFFFFFF, 0xFFFFFFFF);
100106d2:	f04f 32ff 	mov.w	r2, #4294967295	@ 0xffffffff
100106d6:	4611      	mov	r1, r2
100106d8:	4807      	ldr	r0, [pc, #28]	@ (100106f8 <i2c_simple_peripheral_init+0x74>)
100106da:	f000 fe8d 	bl	100113f8 <MXC_I2C_ClearFlags>
    I2C_REGS[RECEIVE_DONE][0] = false;
100106de:	4b0a      	ldr	r3, [pc, #40]	@ (10010708 <i2c_simple_peripheral_init+0x84>)
100106e0:	6859      	ldr	r1, [r3, #4]
100106e2:	700c      	strb	r4, [r1, #0]
    I2C_REGS[TRANSMIT_DONE][0] = true;
100106e4:	691b      	ldr	r3, [r3, #16]
100106e6:	2201      	movs	r2, #1
100106e8:	701a      	strb	r2, [r3, #0]
}
100106ea:	4620      	mov	r0, r4
100106ec:	bd10      	pop	{r4, pc}
        printf("Failed to initialize I2C.\n");
100106ee:	4807      	ldr	r0, [pc, #28]	@ (1001070c <i2c_simple_peripheral_init+0x88>)
100106f0:	f003 fde6 	bl	100142c0 <puts>
}
100106f4:	4620      	mov	r0, r4
100106f6:	bd10      	pop	{r4, pc}
100106f8:	4001e000 	.word	0x4001e000
100106fc:	000186a0 	.word	0x000186a0
10010700:	10010425 	.word	0x10010425
10010704:	e000e100 	.word	0xe000e100
10010708:	20000018 	.word	0x20000018
1001070c:	1001af24 	.word	0x1001af24

10010710 <mxc_assert>:
};
const unsigned int num_leds = (sizeof(led_pin) / sizeof(mxc_gpio_cfg_t));

/******************************************************************************/
void mxc_assert(const char *expr, const char *file, int line)
{
10010710:	b508      	push	{r3, lr}
10010712:	4603      	mov	r3, r0
    printf("MXC_ASSERT %s #%d: (%s)\n", file, line, expr);
10010714:	4801      	ldr	r0, [pc, #4]	@ (1001071c <mxc_assert+0xc>)
10010716:	f003 fd73 	bl	10014200 <printf>

    while (1) {}
1001071a:	e7fe      	b.n	1001071a <mxc_assert+0xa>
1001071c:	1001af40 	.word	0x1001af40

10010720 <GPIO0_IRQHandler>:
 * NOTE: This weak definition is included to support Push Button 0 interrupts in
 *       case the user does not define this interrupt handler in their application.
 **/
__weak void GPIO0_IRQHandler(void)
{
    MXC_GPIO_Handler(MXC_GPIO_GET_IDX(MXC_GPIO0));
10010720:	2000      	movs	r0, #0
10010722:	f000 bd7d 	b.w	10011220 <MXC_GPIO_Handler>
10010726:	bf00      	nop

10010728 <GPIO1_IRQHandler>:
 * NOTE: This weak definition is included to support Push Button 1 interrupts in
 *       case the user does not define this interrupt handler in their application.
 **/
__weak void GPIO1_IRQHandler(void)
{
    MXC_GPIO_Handler(MXC_GPIO_GET_IDX(MXC_GPIO1));
10010728:	2001      	movs	r0, #1
1001072a:	f000 bd79 	b.w	10011220 <MXC_GPIO_Handler>
1001072e:	bf00      	nop

10010730 <Board_Init>:
}

/******************************************************************************/
int Board_Init(void)
{
10010730:	b510      	push	{r4, lr}
#ifndef __riscv
    int err;

    // Enable GPIO
    MXC_SYS_ClockEnable(MXC_SYS_PERIPH_CLOCK_GPIO0);
10010732:	2000      	movs	r0, #0
10010734:	f000 fb5e 	bl	10010df4 <MXC_SYS_ClockEnable>
    MXC_SYS_ClockEnable(MXC_SYS_PERIPH_CLOCK_GPIO1);
10010738:	2001      	movs	r0, #1
1001073a:	f000 fb5b 	bl	10010df4 <MXC_SYS_ClockEnable>
    MXC_SYS_ClockEnable(MXC_SYS_PERIPH_CLOCK_GPIO2);
1001073e:	2040      	movs	r0, #64	@ 0x40
10010740:	f000 fb58 	bl	10010df4 <MXC_SYS_ClockEnable>
/******************************************************************************/
int Console_Init(void)
{
    int err;

    if ((err = MXC_UART_Init(ConsoleUart, CONSOLE_BAUD, MXC_UART_IBRO_CLK)) != E_NO_ERROR) {
10010744:	4b10      	ldr	r3, [pc, #64]	@ (10010788 <Board_Init+0x58>)
10010746:	2202      	movs	r2, #2
10010748:	6818      	ldr	r0, [r3, #0]
1001074a:	f44f 31e1 	mov.w	r1, #115200	@ 0x1c200
1001074e:	f001 f891 	bl	10011874 <MXC_UART_Init>
    if ((err = Console_Init()) < E_NO_ERROR) {
10010752:	1e04      	subs	r4, r0, #0
10010754:	db0c      	blt.n	10010770 <Board_Init+0x40>
    if ((err = PB_Init()) != E_NO_ERROR) {
10010756:	f000 f8eb 	bl	10010930 <PB_Init>
1001075a:	b958      	cbnz	r0, 10010774 <Board_Init+0x44>
    if ((err = LED_Init()) != E_NO_ERROR) {
1001075c:	f000 f888 	bl	10010870 <LED_Init>
10010760:	4604      	mov	r4, r0
10010762:	b960      	cbnz	r0, 1001077e <Board_Init+0x4e>
    MXC_SIMO->vrego_c = 0x43; // Set CNN voltage
10010764:	4b09      	ldr	r3, [pc, #36]	@ (1001078c <Board_Init+0x5c>)
    MXC_Delay(200000);
10010766:	480a      	ldr	r0, [pc, #40]	@ (10010790 <Board_Init+0x60>)
    MXC_SIMO->vrego_c = 0x43; // Set CNN voltage
10010768:	2243      	movs	r2, #67	@ 0x43
1001076a:	60da      	str	r2, [r3, #12]
    MXC_Delay(200000);
1001076c:	f000 fabe 	bl	10010cec <MXC_Delay>
}
10010770:	4620      	mov	r0, r4
10010772:	bd10      	pop	{r4, pc}
        MXC_ASSERT_FAIL();
10010774:	4907      	ldr	r1, [pc, #28]	@ (10010794 <Board_Init+0x64>)
10010776:	4808      	ldr	r0, [pc, #32]	@ (10010798 <Board_Init+0x68>)
10010778:	226f      	movs	r2, #111	@ 0x6f
1001077a:	f7ff ffc9 	bl	10010710 <mxc_assert>
        MXC_ASSERT_FAIL();
1001077e:	4905      	ldr	r1, [pc, #20]	@ (10010794 <Board_Init+0x64>)
10010780:	4805      	ldr	r0, [pc, #20]	@ (10010798 <Board_Init+0x68>)
10010782:	2274      	movs	r2, #116	@ 0x74
10010784:	f7ff ffc4 	bl	10010710 <mxc_assert>
10010788:	20000030 	.word	0x20000030
1001078c:	40004400 	.word	0x40004400
10010790:	00030d40 	.word	0x00030d40
10010794:	1001af5c 	.word	0x1001af5c
10010798:	1001afe4 	.word	0x1001afe4

1001079c <NMI_Handler>:
}

/******************************************************************************/
void NMI_Handler(void)
{
    __NOP();
1001079c:	bf00      	nop
}
1001079e:	4770      	bx	lr

100107a0 <_close>:
    return -1;
}
int _close(int file)
{
    return -1;
}
100107a0:	f04f 30ff 	mov.w	r0, #4294967295	@ 0xffffffff
100107a4:	4770      	bx	lr
100107a6:	bf00      	nop

100107a8 <_isatty>:
int _isatty(int file)
100107a8:	f04f 30ff 	mov.w	r0, #4294967295	@ 0xffffffff
100107ac:	4770      	bx	lr
100107ae:	bf00      	nop

100107b0 <_lseek>:
    return -1;
}
int _lseek(int file, off_t offset, int whence)
{
    return -1;
}
100107b0:	f04f 30ff 	mov.w	r0, #4294967295	@ 0xffffffff
100107b4:	4770      	bx	lr
100107b6:	bf00      	nop

100107b8 <_fstat>:
int _fstat(int file, struct stat *st)
{
    return -1;
}
100107b8:	f04f 30ff 	mov.w	r0, #4294967295	@ 0xffffffff
100107bc:	4770      	bx	lr
100107be:	bf00      	nop

100107c0 <_read>:
   fgetc for stdio */
#if defined(__ICCARM__) || defined(__GNUC__)

#if defined(__GNUC__) // GNUC _read function prototype
int _read(int file, char *ptr, int len)
{
100107c0:	b5f8      	push	{r3, r4, r5, r6, r7, lr}
    size_t n;
#endif /*  */

    int num = 0; // count of number received.

    switch (file) {
100107c2:	b9e0      	cbnz	r0, 100107fe <_read+0x3e>
    case STDIN_FILENO:
        for (n = 0; n < len; n++) {
100107c4:	2a00      	cmp	r2, #0
100107c6:	dd19      	ble.n	100107fc <_read+0x3c>
            *ptr = MXC_UART_ReadCharacter(MXC_UARTn); // read a byte.
100107c8:	4d10      	ldr	r5, [pc, #64]	@ (1001080c <_read+0x4c>)
100107ca:	460e      	mov	r6, r1
100107cc:	188f      	adds	r7, r1, r2
        for (n = 0; n < len; n++) {
100107ce:	460c      	mov	r4, r1
100107d0:	e002      	b.n	100107d8 <_read+0x18>
100107d2:	42bb      	cmp	r3, r7
100107d4:	d00f      	beq.n	100107f6 <_read+0x36>
                num++;
                ptr++;

                break;
            } else {
                ptr++;
100107d6:	461c      	mov	r4, r3
            *ptr = MXC_UART_ReadCharacter(MXC_UARTn); // read a byte.
100107d8:	4628      	mov	r0, r5
100107da:	f001 f941 	bl	10011a60 <MXC_UART_ReadCharacter>
100107de:	b2c1      	uxtb	r1, r0
100107e0:	7021      	strb	r1, [r4, #0]
            MXC_UART_WriteCharacter(MXC_UARTn, *ptr); // echo the byte.
100107e2:	4628      	mov	r0, r5
100107e4:	f001 f93e 	bl	10011a64 <MXC_UART_WriteCharacter>
            if (*ptr == '\r') { // check for end of line.
100107e8:	7822      	ldrb	r2, [r4, #0]
100107ea:	2a0d      	cmp	r2, #13
                ptr++;
100107ec:	f104 0301 	add.w	r3, r4, #1
            if (*ptr == '\r') { // check for end of line.
100107f0:	d1ef      	bne.n	100107d2 <_read+0x12>
                *ptr = '\n';
100107f2:	230a      	movs	r3, #10
100107f4:	7023      	strb	r3, [r4, #0]
                num++;
100107f6:	f1c6 0601 	rsb	r6, r6, #1
100107fa:	19a0      	adds	r0, r4, r6
        errno = EBADF;
        return -1;
    }

    return num;
}
100107fc:	bdf8      	pop	{r3, r4, r5, r6, r7, pc}
        errno = EBADF;
100107fe:	f001 fb91 	bl	10011f24 <__errno>
10010802:	2309      	movs	r3, #9
10010804:	6003      	str	r3, [r0, #0]
        return -1;
10010806:	f04f 30ff 	mov.w	r0, #4294967295	@ 0xffffffff
}
1001080a:	bdf8      	pop	{r3, r4, r5, r6, r7, pc}
1001080c:	40042000 	.word	0x40042000

10010810 <_write>:

/* newlib/libc printf() will eventually call write() to get the data to the stdout */
#if defined(__GNUC__)
// GNUC _write function prototype
int _write(int file, char *ptr, int len)
{
10010810:	b5f8      	push	{r3, r4, r5, r6, r7, lr}
int __write(int file, const unsigned char *ptr, size_t len)
{
    size_t n;
#endif /* __GNUC__ */

    switch (file) {
10010812:	1e43      	subs	r3, r0, #1
10010814:	2b01      	cmp	r3, #1
10010816:	d821      	bhi.n	1001085c <_write+0x4c>
    case STDOUT_FILENO:
    case STDERR_FILENO:

        // This function should be as fast as possible
        // So we'll forgo the UART driver for now
        for (n = 0; n < len; n++) {
10010818:	2a00      	cmp	r2, #0
1001081a:	4617      	mov	r7, r2
1001081c:	dd12      	ble.n	10010844 <_write+0x34>
1001081e:	1e53      	subs	r3, r2, #1
            if (*ptr == '\n') {
                // Wait until there's room in the FIFO
                while (MXC_UART_GetTXFIFOAvailable(MXC_UARTn) == 0) {}
10010820:	4e12      	ldr	r6, [pc, #72]	@ (1001086c <_write+0x5c>)
10010822:	1e4c      	subs	r4, r1, #1
10010824:	18cd      	adds	r5, r1, r3
            if (*ptr == '\n') {
10010826:	f814 3f01 	ldrb.w	r3, [r4, #1]!
1001082a:	2b0a      	cmp	r3, #10
1001082c:	d00c      	beq.n	10010848 <_write+0x38>

                MXC_UART_WriteCharacter(MXC_UARTn, '\r');
            }

            // Wait until there's room in the FIFO
            while (MXC_UART_GetTXFIFOAvailable(MXC_UARTn) == 0) {}
1001082e:	480f      	ldr	r0, [pc, #60]	@ (1001086c <_write+0x5c>)
10010830:	f001 f91c 	bl	10011a6c <MXC_UART_GetTXFIFOAvailable>
10010834:	2800      	cmp	r0, #0
10010836:	d0fa      	beq.n	1001082e <_write+0x1e>

            MXC_UART_WriteCharacter(MXC_UARTn, *ptr++);
10010838:	7821      	ldrb	r1, [r4, #0]
1001083a:	4630      	mov	r0, r6
1001083c:	f001 f912 	bl	10011a64 <MXC_UART_WriteCharacter>
        for (n = 0; n < len; n++) {
10010840:	42ac      	cmp	r4, r5
10010842:	d1f0      	bne.n	10010826 <_write+0x16>

        break;

    default:
        errno = EBADF;
        return -1;
10010844:	4638      	mov	r0, r7
    }

    return len;
}
10010846:	bdf8      	pop	{r3, r4, r5, r6, r7, pc}
                while (MXC_UART_GetTXFIFOAvailable(MXC_UARTn) == 0) {}
10010848:	4808      	ldr	r0, [pc, #32]	@ (1001086c <_write+0x5c>)
1001084a:	f001 f90f 	bl	10011a6c <MXC_UART_GetTXFIFOAvailable>
1001084e:	2800      	cmp	r0, #0
10010850:	d0fa      	beq.n	10010848 <_write+0x38>
                MXC_UART_WriteCharacter(MXC_UARTn, '\r');
10010852:	210d      	movs	r1, #13
10010854:	4630      	mov	r0, r6
10010856:	f001 f905 	bl	10011a64 <MXC_UART_WriteCharacter>
1001085a:	e7e8      	b.n	1001082e <_write+0x1e>
        errno = EBADF;
1001085c:	f001 fb62 	bl	10011f24 <__errno>
10010860:	2309      	movs	r3, #9
10010862:	6003      	str	r3, [r0, #0]
        return -1;
10010864:	f04f 30ff 	mov.w	r0, #4294967295	@ 0xffffffff
}
10010868:	bdf8      	pop	{r3, r4, r5, r6, r7, pc}
1001086a:	bf00      	nop
1001086c:	40042000 	.word	0x40042000

10010870 <LED_Init>:
#include "led.h"
#include "mxc_device.h"

/******************************************************************************/
int LED_Init(void)
{
10010870:	b5f8      	push	{r3, r4, r5, r6, r7, lr}
    int retval = E_NO_ERROR;
    unsigned int i;

    /* setup GPIO for the LED */
    for (i = 0; i < num_leds; i++) {
10010872:	4b0d      	ldr	r3, [pc, #52]	@ (100108a8 <LED_Init+0x38>)
10010874:	681f      	ldr	r7, [r3, #0]
10010876:	b1a7      	cbz	r7, 100108a2 <LED_Init+0x32>
10010878:	2500      	movs	r5, #0
1001087a:	4c0c      	ldr	r4, [pc, #48]	@ (100108ac <LED_Init+0x3c>)
    int retval = E_NO_ERROR;
1001087c:	462e      	mov	r6, r5
//******************************************************************************
void LED_Off(unsigned int idx)
{
    MXC_ASSERT(idx < num_leds);
#if (LED_ON == 0)
    MXC_GPIO_OutSet(led_pin[idx].port, led_pin[idx].mask);
1001087e:	e9d4 0100 	ldrd	r0, r1, [r4]
10010882:	f000 fc99 	bl	100111b8 <MXC_GPIO_OutSet>
        if (MXC_GPIO_Config(&led_pin[i]) != E_NO_ERROR) {
10010886:	4620      	mov	r0, r4
10010888:	f000 fb9c 	bl	10010fc4 <MXC_GPIO_Config>
    for (i = 0; i < num_leds; i++) {
1001088c:	3501      	adds	r5, #1
            retval = E_UNKNOWN;
1001088e:	2800      	cmp	r0, #0
10010890:	bf18      	it	ne
10010892:	f06f 0607 	mvnne.w	r6, #7
    for (i = 0; i < num_leds; i++) {
10010896:	42af      	cmp	r7, r5
10010898:	f104 040c 	add.w	r4, r4, #12
1001089c:	d1ef      	bne.n	1001087e <LED_Init+0xe>
}
1001089e:	4630      	mov	r0, r6
100108a0:	bdf8      	pop	{r3, r4, r5, r6, r7, pc}
    int retval = E_NO_ERROR;
100108a2:	463e      	mov	r6, r7
}
100108a4:	4630      	mov	r0, r6
100108a6:	bdf8      	pop	{r3, r4, r5, r6, r7, pc}
100108a8:	1001afec 	.word	0x1001afec
100108ac:	1001aff0 	.word	0x1001aff0

100108b0 <LED_On>:
    MXC_ASSERT(idx < num_leds);
100108b0:	4b0b      	ldr	r3, [pc, #44]	@ (100108e0 <LED_On+0x30>)
100108b2:	681b      	ldr	r3, [r3, #0]
100108b4:	4283      	cmp	r3, r0
{
100108b6:	b510      	push	{r4, lr}
100108b8:	4604      	mov	r4, r0
    MXC_ASSERT(idx < num_leds);
100108ba:	d90b      	bls.n	100108d4 <LED_On+0x24>
    MXC_GPIO_OutClr(led_pin[idx].port, led_pin[idx].mask);
100108bc:	4b09      	ldr	r3, [pc, #36]	@ (100108e4 <LED_On+0x34>)
100108be:	eb04 0444 	add.w	r4, r4, r4, lsl #1
100108c2:	eb03 0284 	add.w	r2, r3, r4, lsl #2
100108c6:	f853 0024 	ldr.w	r0, [r3, r4, lsl #2]
100108ca:	6851      	ldr	r1, [r2, #4]
}
100108cc:	e8bd 4010 	ldmia.w	sp!, {r4, lr}
    MXC_GPIO_OutClr(led_pin[idx].port, led_pin[idx].mask);
100108d0:	f000 bc8c 	b.w	100111ec <MXC_GPIO_OutClr>
    MXC_ASSERT(idx < num_leds);
100108d4:	4904      	ldr	r1, [pc, #16]	@ (100108e8 <LED_On+0x38>)
100108d6:	4805      	ldr	r0, [pc, #20]	@ (100108ec <LED_On+0x3c>)
100108d8:	223b      	movs	r2, #59	@ 0x3b
100108da:	f7ff ff19 	bl	10010710 <mxc_assert>
100108de:	e7ed      	b.n	100108bc <LED_On+0xc>
100108e0:	1001afec 	.word	0x1001afec
100108e4:	1001aff0 	.word	0x1001aff0
100108e8:	1001b030 	.word	0x1001b030
100108ec:	1001b0a4 	.word	0x1001b0a4

100108f0 <LED_Off>:
    MXC_ASSERT(idx < num_leds);
100108f0:	4b0b      	ldr	r3, [pc, #44]	@ (10010920 <LED_Off+0x30>)
100108f2:	681b      	ldr	r3, [r3, #0]
100108f4:	4283      	cmp	r3, r0
{
100108f6:	b510      	push	{r4, lr}
100108f8:	4604      	mov	r4, r0
    MXC_ASSERT(idx < num_leds);
100108fa:	d90b      	bls.n	10010914 <LED_Off+0x24>
    MXC_GPIO_OutSet(led_pin[idx].port, led_pin[idx].mask);
100108fc:	4b09      	ldr	r3, [pc, #36]	@ (10010924 <LED_Off+0x34>)
100108fe:	eb04 0444 	add.w	r4, r4, r4, lsl #1
10010902:	eb03 0284 	add.w	r2, r3, r4, lsl #2
10010906:	f853 0024 	ldr.w	r0, [r3, r4, lsl #2]
1001090a:	6851      	ldr	r1, [r2, #4]
#else
    MXC_GPIO_OutClr(led_pin[idx].port, led_pin[idx].mask);
#endif
}
1001090c:	e8bd 4010 	ldmia.w	sp!, {r4, lr}
    MXC_GPIO_OutSet(led_pin[idx].port, led_pin[idx].mask);
10010910:	f000 bc52 	b.w	100111b8 <MXC_GPIO_OutSet>
    MXC_ASSERT(idx < num_leds);
10010914:	4904      	ldr	r1, [pc, #16]	@ (10010928 <LED_Off+0x38>)
10010916:	4805      	ldr	r0, [pc, #20]	@ (1001092c <LED_Off+0x3c>)
10010918:	2246      	movs	r2, #70	@ 0x46
1001091a:	f7ff fef9 	bl	10010710 <mxc_assert>
1001091e:	e7ed      	b.n	100108fc <LED_Off+0xc>
10010920:	1001afec 	.word	0x1001afec
10010924:	1001aff0 	.word	0x1001aff0
10010928:	1001b030 	.word	0x1001b030
1001092c:	1001b0a4 	.word	0x1001b0a4

10010930 <PB_Init>:
#include "mxc_assert.h"
#include "pb.h"

/******************************************************************************/
int PB_Init(void)
{
10010930:	b5f8      	push	{r3, r4, r5, r6, r7, lr}
    int retval = E_NO_ERROR;
    unsigned int i;

    // Enable pushbutton inputs
    for (i = 0; i < num_pbs; i++) {
10010932:	4b0b      	ldr	r3, [pc, #44]	@ (10010960 <PB_Init+0x30>)
10010934:	681f      	ldr	r7, [r3, #0]
10010936:	b187      	cbz	r7, 1001095a <PB_Init+0x2a>
10010938:	2400      	movs	r4, #0
1001093a:	4d0a      	ldr	r5, [pc, #40]	@ (10010964 <PB_Init+0x34>)
    int retval = E_NO_ERROR;
1001093c:	4626      	mov	r6, r4
        if (MXC_GPIO_Config(&pb_pin[i]) != E_NO_ERROR) {
1001093e:	4628      	mov	r0, r5
10010940:	f000 fb40 	bl	10010fc4 <MXC_GPIO_Config>
    for (i = 0; i < num_pbs; i++) {
10010944:	3401      	adds	r4, #1
            retval = E_UNKNOWN;
10010946:	2800      	cmp	r0, #0
10010948:	bf18      	it	ne
1001094a:	f06f 0607 	mvnne.w	r6, #7
    for (i = 0; i < num_pbs; i++) {
1001094e:	42bc      	cmp	r4, r7
10010950:	f105 050c 	add.w	r5, r5, #12
10010954:	d1f3      	bne.n	1001093e <PB_Init+0xe>
        }
    }

    return retval;
}
10010956:	4630      	mov	r0, r6
10010958:	bdf8      	pop	{r3, r4, r5, r6, r7, pc}
    int retval = E_NO_ERROR;
1001095a:	463e      	mov	r6, r7
}
1001095c:	4630      	mov	r0, r6
1001095e:	bdf8      	pop	{r3, r4, r5, r6, r7, pc}
10010960:	1001b014 	.word	0x1001b014
10010964:	1001b018 	.word	0x1001b018

10010968 <Reset_Handler>:
10010968:	4847      	ldr	r0, [pc, #284]	@ (10010a88 <LPCMP_IRQHandler+0x2>)
1001096a:	4685      	mov	sp, r0
1001096c:	4847      	ldr	r0, [pc, #284]	@ (10010a8c <LPCMP_IRQHandler+0x6>)
1001096e:	4780      	blx	r0
10010970:	b980      	cbnz	r0, 10010994 <.SKIPRAMINIT>
10010972:	4947      	ldr	r1, [pc, #284]	@ (10010a90 <LPCMP_IRQHandler+0xa>)
10010974:	4a47      	ldr	r2, [pc, #284]	@ (10010a94 <LPCMP_IRQHandler+0xe>)
10010976:	4b48      	ldr	r3, [pc, #288]	@ (10010a98 <LPCMP_IRQHandler+0x12>)
10010978:	1a9b      	subs	r3, r3, r2
1001097a:	dd03      	ble.n	10010984 <Reset_Handler+0x1c>
1001097c:	3b04      	subs	r3, #4
1001097e:	58c8      	ldr	r0, [r1, r3]
10010980:	50d0      	str	r0, [r2, r3]
10010982:	dcfb      	bgt.n	1001097c <Reset_Handler+0x14>
10010984:	4945      	ldr	r1, [pc, #276]	@ (10010a9c <LPCMP_IRQHandler+0x16>)
10010986:	4a46      	ldr	r2, [pc, #280]	@ (10010aa0 <LPCMP_IRQHandler+0x1a>)
10010988:	2000      	movs	r0, #0
1001098a:	4291      	cmp	r1, r2
1001098c:	bfbc      	itt	lt
1001098e:	f841 0b04 	strlt.w	r0, [r1], #4
10010992:	e7fa      	blt.n	1001098a <Reset_Handler+0x22>

10010994 <.SKIPRAMINIT>:
10010994:	4843      	ldr	r0, [pc, #268]	@ (10010aa4 <LPCMP_IRQHandler+0x1e>)
10010996:	4780      	blx	r0
10010998:	4843      	ldr	r0, [pc, #268]	@ (10010aa8 <LPCMP_IRQHandler+0x22>)
1001099a:	4780      	blx	r0
1001099c:	4843      	ldr	r0, [pc, #268]	@ (10010aac <LPCMP_IRQHandler+0x26>)
1001099e:	4780      	blx	r0

100109a0 <.SPIN>:
100109a0:	f7ff fffe 	bl	100109a0 <.SPIN>
100109a4:	e7fe      	b.n	100109a4 <.SPIN+0x4>

100109a6 <HardFault_Handler>:
100109a6:	e7fe      	b.n	100109a6 <HardFault_Handler>

100109a8 <MemManage_Handler>:
100109a8:	e7fe      	b.n	100109a8 <MemManage_Handler>

100109aa <BusFault_Handler>:
100109aa:	e7fe      	b.n	100109aa <BusFault_Handler>

100109ac <UsageFault_Handler>:
100109ac:	e7fe      	b.n	100109ac <UsageFault_Handler>

100109ae <SVC_Handler>:
100109ae:	e7fe      	b.n	100109ae <SVC_Handler>

100109b0 <DebugMon_Handler>:
100109b0:	e7fe      	b.n	100109b0 <DebugMon_Handler>

100109b2 <PendSV_Handler>:
100109b2:	e7fe      	b.n	100109b2 <PendSV_Handler>

100109b4 <SysTick_Handler>:
100109b4:	e7fe      	b.n	100109b4 <SysTick_Handler>

100109b6 <Default_Handler>:
100109b6:	e7fe      	b.n	100109b6 <Default_Handler>

100109b8 <PF_IRQHandler>:
100109b8:	e7fe      	b.n	100109b8 <PF_IRQHandler>

100109ba <WDT0_IRQHandler>:
100109ba:	e7fe      	b.n	100109ba <WDT0_IRQHandler>

100109bc <RSV02_IRQHandler>:
100109bc:	e7fe      	b.n	100109bc <RSV02_IRQHandler>

100109be <RTC_IRQHandler>:
100109be:	e7fe      	b.n	100109be <RTC_IRQHandler>

100109c0 <TRNG_IRQHandler>:
100109c0:	e7fe      	b.n	100109c0 <TRNG_IRQHandler>

100109c2 <TMR0_IRQHandler>:
100109c2:	e7fe      	b.n	100109c2 <TMR0_IRQHandler>

100109c4 <TMR1_IRQHandler>:
100109c4:	e7fe      	b.n	100109c4 <TMR1_IRQHandler>

100109c6 <TMR2_IRQHandler>:
100109c6:	e7fe      	b.n	100109c6 <TMR2_IRQHandler>

100109c8 <TMR3_IRQHandler>:
100109c8:	e7fe      	b.n	100109c8 <TMR3_IRQHandler>

100109ca <TMR4_IRQHandler>:
100109ca:	e7fe      	b.n	100109ca <TMR4_IRQHandler>

100109cc <TMR5_IRQHandler>:
100109cc:	e7fe      	b.n	100109cc <TMR5_IRQHandler>

100109ce <RSV11_IRQHandler>:
100109ce:	e7fe      	b.n	100109ce <RSV11_IRQHandler>

100109d0 <RSV12_IRQHandler>:
100109d0:	e7fe      	b.n	100109d0 <RSV12_IRQHandler>

100109d2 <I2C0_IRQHandler>:
100109d2:	e7fe      	b.n	100109d2 <I2C0_IRQHandler>

100109d4 <UART0_IRQHandler>:
100109d4:	e7fe      	b.n	100109d4 <UART0_IRQHandler>

100109d6 <UART1_IRQHandler>:
100109d6:	e7fe      	b.n	100109d6 <UART1_IRQHandler>

100109d8 <SPI1_IRQHandler>:
100109d8:	e7fe      	b.n	100109d8 <SPI1_IRQHandler>

100109da <RSV17_IRQHandler>:
100109da:	e7fe      	b.n	100109da <RSV17_IRQHandler>

100109dc <RSV18_IRQHandler>:
100109dc:	e7fe      	b.n	100109dc <RSV18_IRQHandler>

100109de <RSV19_IRQHandler>:
100109de:	e7fe      	b.n	100109de <RSV19_IRQHandler>

100109e0 <ADC_IRQHandler>:
100109e0:	e7fe      	b.n	100109e0 <ADC_IRQHandler>

100109e2 <RSV21_IRQHandler>:
100109e2:	e7fe      	b.n	100109e2 <RSV21_IRQHandler>

100109e4 <RSV22_IRQHandler>:
100109e4:	e7fe      	b.n	100109e4 <RSV22_IRQHandler>

100109e6 <FLC0_IRQHandler>:
100109e6:	e7fe      	b.n	100109e6 <FLC0_IRQHandler>
100109e8:	e7fe      	b.n	100109e8 <FLC0_IRQHandler+0x2>
100109ea:	e7fe      	b.n	100109ea <FLC0_IRQHandler+0x4>

100109ec <GPIO2_IRQHandler>:
100109ec:	e7fe      	b.n	100109ec <GPIO2_IRQHandler>

100109ee <RSV27_IRQHandler>:
100109ee:	e7fe      	b.n	100109ee <RSV27_IRQHandler>

100109f0 <DMA0_IRQHandler>:
100109f0:	e7fe      	b.n	100109f0 <DMA0_IRQHandler>

100109f2 <DMA1_IRQHandler>:
100109f2:	e7fe      	b.n	100109f2 <DMA1_IRQHandler>

100109f4 <DMA2_IRQHandler>:
100109f4:	e7fe      	b.n	100109f4 <DMA2_IRQHandler>

100109f6 <DMA3_IRQHandler>:
100109f6:	e7fe      	b.n	100109f6 <DMA3_IRQHandler>

100109f8 <RSV32_IRQHandler>:
100109f8:	e7fe      	b.n	100109f8 <RSV32_IRQHandler>

100109fa <RSV33_IRQHandler>:
100109fa:	e7fe      	b.n	100109fa <RSV33_IRQHandler>

100109fc <UART2_IRQHandler>:
100109fc:	e7fe      	b.n	100109fc <UART2_IRQHandler>

100109fe <RSV35_IRQHandler>:
100109fe:	e7fe      	b.n	100109fe <RSV35_IRQHandler>

10010a00 <I2C1_IRQHandler>:
10010a00:	e7fe      	b.n	10010a00 <I2C1_IRQHandler>

10010a02 <RSV37_IRQHandler>:
10010a02:	e7fe      	b.n	10010a02 <RSV37_IRQHandler>

10010a04 <RSV38_IRQHandler>:
10010a04:	e7fe      	b.n	10010a04 <RSV38_IRQHandler>

10010a06 <RSV39_IRQHandler>:
10010a06:	e7fe      	b.n	10010a06 <RSV39_IRQHandler>

10010a08 <RSV40_IRQHandler>:
10010a08:	e7fe      	b.n	10010a08 <RSV40_IRQHandler>

10010a0a <RSV41_IRQHandler>:
10010a0a:	e7fe      	b.n	10010a0a <RSV41_IRQHandler>

10010a0c <RSV42_IRQHandler>:
10010a0c:	e7fe      	b.n	10010a0c <RSV42_IRQHandler>

10010a0e <RSV43_IRQHandler>:
10010a0e:	e7fe      	b.n	10010a0e <RSV43_IRQHandler>

10010a10 <RSV44_IRQHandler>:
10010a10:	e7fe      	b.n	10010a10 <RSV44_IRQHandler>

10010a12 <RSV45_IRQHandler>:
10010a12:	e7fe      	b.n	10010a12 <RSV45_IRQHandler>

10010a14 <RSV46_IRQHandler>:
10010a14:	e7fe      	b.n	10010a14 <RSV46_IRQHandler>

10010a16 <RSV47_IRQHandler>:
10010a16:	e7fe      	b.n	10010a16 <RSV47_IRQHandler>

10010a18 <RSV48_IRQHandler>:
10010a18:	e7fe      	b.n	10010a18 <RSV48_IRQHandler>

10010a1a <RSV49_IRQHandler>:
10010a1a:	e7fe      	b.n	10010a1a <RSV49_IRQHandler>

10010a1c <RSV50_IRQHandler>:
10010a1c:	e7fe      	b.n	10010a1c <RSV50_IRQHandler>

10010a1e <RSV51_IRQHandler>:
10010a1e:	e7fe      	b.n	10010a1e <RSV51_IRQHandler>

10010a20 <RSV52_IRQHandler>:
10010a20:	e7fe      	b.n	10010a20 <RSV52_IRQHandler>

10010a22 <WUT_IRQHandler>:
10010a22:	e7fe      	b.n	10010a22 <WUT_IRQHandler>

10010a24 <GPIOWAKE_IRQHandler>:
10010a24:	e7fe      	b.n	10010a24 <GPIOWAKE_IRQHandler>

10010a26 <RSV55_IRQHandler>:
10010a26:	e7fe      	b.n	10010a26 <RSV55_IRQHandler>

10010a28 <SPI0_IRQHandler>:
10010a28:	e7fe      	b.n	10010a28 <SPI0_IRQHandler>

10010a2a <WDT1_IRQHandler>:
10010a2a:	e7fe      	b.n	10010a2a <WDT1_IRQHandler>

10010a2c <RSV58_IRQHandler>:
10010a2c:	e7fe      	b.n	10010a2c <RSV58_IRQHandler>

10010a2e <PT_IRQHandler>:
10010a2e:	e7fe      	b.n	10010a2e <PT_IRQHandler>

10010a30 <RSV60_IRQHandler>:
10010a30:	e7fe      	b.n	10010a30 <RSV60_IRQHandler>

10010a32 <RSV61_IRQHandler>:
10010a32:	e7fe      	b.n	10010a32 <RSV61_IRQHandler>

10010a34 <I2C2_IRQHandler>:
10010a34:	e7fe      	b.n	10010a34 <I2C2_IRQHandler>

10010a36 <RISCV_IRQHandler>:
10010a36:	e7fe      	b.n	10010a36 <RISCV_IRQHandler>

10010a38 <RSV64_IRQHandler>:
10010a38:	e7fe      	b.n	10010a38 <RSV64_IRQHandler>

10010a3a <RSV65_IRQHandler>:
10010a3a:	e7fe      	b.n	10010a3a <RSV65_IRQHandler>

10010a3c <RSV66_IRQHandler>:
10010a3c:	e7fe      	b.n	10010a3c <RSV66_IRQHandler>

10010a3e <OWM_IRQHandler>:
10010a3e:	e7fe      	b.n	10010a3e <OWM_IRQHandler>

10010a40 <RSV68_IRQHandler>:
10010a40:	e7fe      	b.n	10010a40 <RSV68_IRQHandler>

10010a42 <RSV69_IRQHandler>:
10010a42:	e7fe      	b.n	10010a42 <RSV69_IRQHandler>

10010a44 <RSV70_IRQHandler>:
10010a44:	e7fe      	b.n	10010a44 <RSV70_IRQHandler>

10010a46 <RSV71_IRQHandler>:
10010a46:	e7fe      	b.n	10010a46 <RSV71_IRQHandler>

10010a48 <RSV72_IRQHandler>:
10010a48:	e7fe      	b.n	10010a48 <RSV72_IRQHandler>

10010a4a <RSV73_IRQHandler>:
10010a4a:	e7fe      	b.n	10010a4a <RSV73_IRQHandler>

10010a4c <RSV74_IRQHandler>:
10010a4c:	e7fe      	b.n	10010a4c <RSV74_IRQHandler>

10010a4e <RSV75_IRQHandler>:
10010a4e:	e7fe      	b.n	10010a4e <RSV75_IRQHandler>

10010a50 <RSV76_IRQHandler>:
10010a50:	e7fe      	b.n	10010a50 <RSV76_IRQHandler>

10010a52 <RSV77_IRQHandler>:
10010a52:	e7fe      	b.n	10010a52 <RSV77_IRQHandler>

10010a54 <RSV78_IRQHandler>:
10010a54:	e7fe      	b.n	10010a54 <RSV78_IRQHandler>

10010a56 <RSV79_IRQHandler>:
10010a56:	e7fe      	b.n	10010a56 <RSV79_IRQHandler>

10010a58 <RSV80_IRQHandler>:
10010a58:	e7fe      	b.n	10010a58 <RSV80_IRQHandler>

10010a5a <RSV81_IRQHandler>:
10010a5a:	e7fe      	b.n	10010a5a <RSV81_IRQHandler>

10010a5c <ECC_IRQHandler>:
10010a5c:	e7fe      	b.n	10010a5c <ECC_IRQHandler>

10010a5e <DVS_IRQHandler>:
10010a5e:	e7fe      	b.n	10010a5e <DVS_IRQHandler>

10010a60 <SIMO_IRQHandler>:
10010a60:	e7fe      	b.n	10010a60 <SIMO_IRQHandler>

10010a62 <RSV85_IRQHandler>:
10010a62:	e7fe      	b.n	10010a62 <RSV85_IRQHandler>

10010a64 <RSV86_IRQHandler>:
10010a64:	e7fe      	b.n	10010a64 <RSV86_IRQHandler>

10010a66 <RSV87_IRQHandler>:
10010a66:	e7fe      	b.n	10010a66 <RSV87_IRQHandler>

10010a68 <UART3_IRQHandler>:
10010a68:	e7fe      	b.n	10010a68 <UART3_IRQHandler>

10010a6a <RSV89_IRQHandler>:
10010a6a:	e7fe      	b.n	10010a6a <RSV89_IRQHandler>

10010a6c <RSV90_IRQHandler>:
10010a6c:	e7fe      	b.n	10010a6c <RSV90_IRQHandler>

10010a6e <PCIF_IRQHandler>:
10010a6e:	e7fe      	b.n	10010a6e <PCIF_IRQHandler>

10010a70 <RSV92_IRQHandler>:
10010a70:	e7fe      	b.n	10010a70 <RSV92_IRQHandler>

10010a72 <RSV93_IRQHandler>:
10010a72:	e7fe      	b.n	10010a72 <RSV93_IRQHandler>

10010a74 <RSV94_IRQHandler>:
10010a74:	e7fe      	b.n	10010a74 <RSV94_IRQHandler>

10010a76 <RSV95_IRQHandler>:
10010a76:	e7fe      	b.n	10010a76 <RSV95_IRQHandler>

10010a78 <RSV96_IRQHandler>:
10010a78:	e7fe      	b.n	10010a78 <RSV96_IRQHandler>

10010a7a <AES_IRQHandler>:
10010a7a:	e7fe      	b.n	10010a7a <AES_IRQHandler>

10010a7c <RSV98_IRQHandler>:
10010a7c:	e7fe      	b.n	10010a7c <RSV98_IRQHandler>

10010a7e <I2S_IRQHandler>:
10010a7e:	e7fe      	b.n	10010a7e <I2S_IRQHandler>

10010a80 <CNN_FIFO_IRQHandler>:
10010a80:	e7fe      	b.n	10010a80 <CNN_FIFO_IRQHandler>

10010a82 <CNN_IRQHandler>:
10010a82:	e7fe      	b.n	10010a82 <CNN_IRQHandler>

10010a84 <RSV102_IRQHandler>:
10010a84:	e7fe      	b.n	10010a84 <RSV102_IRQHandler>

10010a86 <LPCMP_IRQHandler>:
10010a86:	e7fe      	b.n	10010a86 <LPCMP_IRQHandler>
10010a88:	20020000 	.word	0x20020000
10010a8c:	10010b55 	.word	0x10010b55
10010a90:	1001b678 	.word	0x1001b678
10010a94:	20000000 	.word	0x20000000
10010a98:	200006f8 	.word	0x200006f8
10010a9c:	20000800 	.word	0x20000800
10010aa0:	20001740 	.word	0x20001740
10010aa4:	10010b59 	.word	0x10010b59
10010aa8:	10014149 	.word	0x10014149
10010aac:	100103f1 	.word	0x100103f1

10010ab0 <_sbrk>:
extern unsigned int __HeapLimit;
caddr_t _sbrk(int incr)
{
    char *prev_heap_end;

    if (heap_end == 0) {
10010ab0:	4a0b      	ldr	r2, [pc, #44]	@ (10010ae0 <_sbrk+0x30>)
{
10010ab2:	b508      	push	{r3, lr}
10010ab4:	4603      	mov	r3, r0
    if (heap_end == 0) {
10010ab6:	6810      	ldr	r0, [r2, #0]
10010ab8:	b128      	cbz	r0, 10010ac6 <_sbrk+0x16>
        heap_end = (caddr_t)&__HeapBase;
    }
    prev_heap_end = heap_end;

    if ((unsigned int)(heap_end + incr) > (unsigned int)&__HeapLimit) {
10010aba:	490a      	ldr	r1, [pc, #40]	@ (10010ae4 <_sbrk+0x34>)
10010abc:	4403      	add	r3, r0
10010abe:	428b      	cmp	r3, r1
10010ac0:	d807      	bhi.n	10010ad2 <_sbrk+0x22>
        errno = ENOMEM;
        return (caddr_t)-1;
    }

    heap_end += incr;
10010ac2:	6013      	str	r3, [r2, #0]

    return (caddr_t)prev_heap_end;
}
10010ac4:	bd08      	pop	{r3, pc}
        heap_end = (caddr_t)&__HeapBase;
10010ac6:	4808      	ldr	r0, [pc, #32]	@ (10010ae8 <_sbrk+0x38>)
    if ((unsigned int)(heap_end + incr) > (unsigned int)&__HeapLimit) {
10010ac8:	4906      	ldr	r1, [pc, #24]	@ (10010ae4 <_sbrk+0x34>)
        heap_end = (caddr_t)&__HeapBase;
10010aca:	6010      	str	r0, [r2, #0]
    if ((unsigned int)(heap_end + incr) > (unsigned int)&__HeapLimit) {
10010acc:	4403      	add	r3, r0
10010ace:	428b      	cmp	r3, r1
10010ad0:	d9f7      	bls.n	10010ac2 <_sbrk+0x12>
        errno = ENOMEM;
10010ad2:	f001 fa27 	bl	10011f24 <__errno>
10010ad6:	230c      	movs	r3, #12
10010ad8:	6003      	str	r3, [r0, #0]
        return (caddr_t)-1;
10010ada:	f04f 30ff 	mov.w	r0, #4294967295	@ 0xffffffff
}
10010ade:	bd08      	pop	{r3, pc}
10010ae0:	20000c38 	.word	0x20000c38
10010ae4:	2001f000 	.word	0x2001f000
10010ae8:	20001748 	.word	0x20001748

10010aec <SystemCoreClockUpdate>:
__weak void SystemCoreClockUpdate(void)
{
    uint32_t base_freq, div, clk_src;

    // Get the clock source and frequency
    clk_src = (MXC_GCR->clkctrl & MXC_F_GCR_CLKCTRL_SYSCLK_SEL);
10010aec:	f04f 4380 	mov.w	r3, #1073741824	@ 0x40000000
10010af0:	689a      	ldr	r2, [r3, #8]
10010af2:	f402 6260 	and.w	r2, r2, #3584	@ 0xe00
    switch (clk_src) {
10010af6:	f5b2 6f20 	cmp.w	r2, #2560	@ 0xa00
10010afa:	d020      	beq.n	10010b3e <SystemCoreClockUpdate+0x52>
10010afc:	d911      	bls.n	10010b22 <SystemCoreClockUpdate+0x36>
10010afe:	f5b2 6f40 	cmp.w	r2, #3072	@ 0xc00
10010b02:	d017      	beq.n	10010b34 <SystemCoreClockUpdate+0x48>
        break;
    case MXC_S_GCR_CLKCTRL_SYSCLK_SEL_INRO:
        base_freq = INRO_FREQ;
        break;
    case MXC_S_GCR_CLKCTRL_SYSCLK_SEL_IPO:
        base_freq = IPO_FREQ;
10010b04:	4b0f      	ldr	r3, [pc, #60]	@ (10010b44 <SystemCoreClockUpdate+0x58>)
10010b06:	4910      	ldr	r1, [pc, #64]	@ (10010b48 <SystemCoreClockUpdate+0x5c>)
10010b08:	f5b2 6f60 	cmp.w	r2, #3584	@ 0xe00
10010b0c:	bf18      	it	ne
10010b0e:	460b      	movne	r3, r1
        // This code should never execute, however, initialize to safe value.
        base_freq = HIRC_FREQ;
        break;
    }

    div = (MXC_GCR->clkctrl & MXC_F_GCR_CLKCTRL_SYSCLK_DIV) >> MXC_F_GCR_CLKCTRL_SYSCLK_DIV_POS;
10010b10:	f04f 4280 	mov.w	r2, #1073741824	@ 0x40000000

    SystemCoreClock = base_freq >> div;
10010b14:	490d      	ldr	r1, [pc, #52]	@ (10010b4c <SystemCoreClockUpdate+0x60>)
    div = (MXC_GCR->clkctrl & MXC_F_GCR_CLKCTRL_SYSCLK_DIV) >> MXC_F_GCR_CLKCTRL_SYSCLK_DIV_POS;
10010b16:	6892      	ldr	r2, [r2, #8]
10010b18:	f3c2 1282 	ubfx	r2, r2, #6, #3
    SystemCoreClock = base_freq >> div;
10010b1c:	40d3      	lsrs	r3, r2
10010b1e:	600b      	str	r3, [r1, #0]
}
10010b20:	4770      	bx	lr
    switch (clk_src) {
10010b22:	b152      	cbz	r2, 10010b3a <SystemCoreClockUpdate+0x4e>
        base_freq = IPO_FREQ;
10010b24:	4908      	ldr	r1, [pc, #32]	@ (10010b48 <SystemCoreClockUpdate+0x5c>)
10010b26:	f247 5330 	movw	r3, #30000	@ 0x7530
10010b2a:	f5b2 6fc0 	cmp.w	r2, #1536	@ 0x600
10010b2e:	bf18      	it	ne
10010b30:	460b      	movne	r3, r1
10010b32:	e7ed      	b.n	10010b10 <SystemCoreClockUpdate+0x24>
        base_freq = ERTCO_FREQ;
10010b34:	f44f 4300 	mov.w	r3, #32768	@ 0x8000
10010b38:	e7ea      	b.n	10010b10 <SystemCoreClockUpdate+0x24>
        base_freq = ISO_FREQ;
10010b3a:	4b05      	ldr	r3, [pc, #20]	@ (10010b50 <SystemCoreClockUpdate+0x64>)
10010b3c:	e7e8      	b.n	10010b10 <SystemCoreClockUpdate+0x24>
        base_freq = IBRO_FREQ;
10010b3e:	f44f 03e1 	mov.w	r3, #7372800	@ 0x708000
10010b42:	e7e5      	b.n	10010b10 <SystemCoreClockUpdate+0x24>
10010b44:	047868c0 	.word	0x047868c0
10010b48:	05f5e100 	.word	0x05f5e100
10010b4c:	20001740 	.word	0x20001740
10010b50:	03938700 	.word	0x03938700

10010b54 <PreInit>:
 */
__weak int PreInit(void)
{
    /* Do nothing */
    return 0;
}
10010b54:	2000      	movs	r0, #0
10010b56:	4770      	bx	lr

10010b58 <SystemInit>:
 * You may over-ride this function in your program by defining a custom 
 *  SystemInit(), but care should be taken to reproduce the initialization
 *  steps or a non-functional system may result.
 */
__weak void SystemInit(void)
{
10010b58:	b510      	push	{r4, lr}
    /* Configure the interrupt controller to use the application vector table in */
    /* the application space */
#if defined(__CC_ARM) || defined(__GNUC__)
    /* IAR sets the VTOR pointer incorrectly and causes stack corruption */
    SCB->VTOR = (uint32_t)__isr_vector;
10010b5a:	4c0a      	ldr	r4, [pc, #40]	@ (10010b84 <SystemInit+0x2c>)
10010b5c:	4b0a      	ldr	r3, [pc, #40]	@ (10010b88 <SystemInit+0x30>)
10010b5e:	60a3      	str	r3, [r4, #8]
#endif /* __CC_ARM || __GNUC__ */

    /* Enable instruction cache */
    MXC_ICC_Enable(MXC_ICC0);
10010b60:	480a      	ldr	r0, [pc, #40]	@ (10010b8c <SystemInit+0x34>)
10010b62:	f000 fe35 	bl	100117d0 <MXC_ICC_Enable>

    /* Enable FPU on Cortex-M4, which occupies coprocessor slots 10 & 11 */
    /* Grant full access, per "Table B3-24 CPACR bit assignments". */
    /* DDI0403D "ARMv7-M Architecture Reference Manual" */
    SCB->CPACR |= SCB_CPACR_CP10_Msk | SCB_CPACR_CP11_Msk;
10010b66:	f8d4 3088 	ldr.w	r3, [r4, #136]	@ 0x88
10010b6a:	f443 0370 	orr.w	r3, r3, #15728640	@ 0xf00000
10010b6e:	f8c4 3088 	str.w	r3, [r4, #136]	@ 0x88
  __ASM volatile ("dsb 0xF":::"memory");
10010b72:	f3bf 8f4f 	dsb	sy
  __ASM volatile ("isb 0xF":::"memory");
10010b76:	f3bf 8f6f 	isb	sy
    __DSB();
    __ISB();

    SystemCoreClockUpdate();
10010b7a:	f7ff ffb7 	bl	10010aec <SystemCoreClockUpdate>

    Board_Init();
10010b7e:	f7ff fdd7 	bl	10010730 <Board_Init>
}
10010b82:	bd10      	pop	{r4, pc}
10010b84:	e000ed00 	.word	0xe000ed00
10010b88:	10010000 	.word	0x10010000
10010b8c:	4002a000 	.word	0x4002a000

10010b90 <MXC_DelayInit>:
10010b90:	b538      	push	{r3, r4, r5, lr}
10010b92:	f04f 23e0 	mov.w	r3, #3758153728	@ 0xe000e000
10010b96:	4918      	ldr	r1, [pc, #96]	@ (10010bf8 <MXC_DelayInit+0x68>)
10010b98:	699c      	ldr	r4, [r3, #24]
10010b9a:	691a      	ldr	r2, [r3, #16]
10010b9c:	f422 3280 	bic.w	r2, r2, #65536	@ 0x10000
10010ba0:	600a      	str	r2, [r1, #0]
10010ba2:	691a      	ldr	r2, [r3, #16]
10010ba4:	07d2      	lsls	r2, r2, #31
10010ba6:	d423      	bmi.n	10010bf0 <MXC_DelayInit+0x60>
10010ba8:	f06f 447f 	mvn.w	r4, #4278190080	@ 0xff000000
10010bac:	2205      	movs	r2, #5
10010bae:	615c      	str	r4, [r3, #20]
10010bb0:	f04f 7580 	mov.w	r5, #16777216	@ 0x1000000
10010bb4:	619c      	str	r4, [r3, #24]
10010bb6:	611a      	str	r2, [r3, #16]
10010bb8:	4b10      	ldr	r3, [pc, #64]	@ (10010bfc <MXC_DelayInit+0x6c>)
10010bba:	4a11      	ldr	r2, [pc, #68]	@ (10010c00 <MXC_DelayInit+0x70>)
10010bbc:	6819      	ldr	r1, [r3, #0]
10010bbe:	2300      	movs	r3, #0
10010bc0:	fba0 0101 	umull	r0, r1, r0, r1
10010bc4:	f009 fff4 	bl	1001abb0 <__aeabi_uldivmod>
10010bc8:	4b0e      	ldr	r3, [pc, #56]	@ (10010c04 <MXC_DelayInit+0x74>)
10010bca:	fbb0 f2f5 	udiv	r2, r0, r5
10010bce:	fb05 0012 	mls	r0, r5, r2, r0
10010bd2:	4284      	cmp	r4, r0
10010bd4:	601a      	str	r2, [r3, #0]
10010bd6:	d807      	bhi.n	10010be8 <MXC_DelayInit+0x58>
10010bd8:	681a      	ldr	r2, [r3, #0]
10010bda:	3201      	adds	r2, #1
10010bdc:	601a      	str	r2, [r3, #0]
10010bde:	442c      	add	r4, r5
10010be0:	4b09      	ldr	r3, [pc, #36]	@ (10010c08 <MXC_DelayInit+0x78>)
10010be2:	1a20      	subs	r0, r4, r0
10010be4:	6018      	str	r0, [r3, #0]
10010be6:	bd38      	pop	{r3, r4, r5, pc}
10010be8:	4b07      	ldr	r3, [pc, #28]	@ (10010c08 <MXC_DelayInit+0x78>)
10010bea:	1a20      	subs	r0, r4, r0
10010bec:	6018      	str	r0, [r3, #0]
10010bee:	bd38      	pop	{r3, r4, r5, pc}
10010bf0:	695d      	ldr	r5, [r3, #20]
10010bf2:	3501      	adds	r5, #1
10010bf4:	e7e0      	b.n	10010bb8 <MXC_DelayInit+0x28>
10010bf6:	bf00      	nop
10010bf8:	20000c40 	.word	0x20000c40
10010bfc:	20001740 	.word	0x20001740
10010c00:	000f4240 	.word	0x000f4240
10010c04:	20000034 	.word	0x20000034
10010c08:	20000c44 	.word	0x20000c44

10010c0c <MXC_DelayAsync>:
10010c0c:	b510      	push	{r4, lr}
10010c0e:	4c0c      	ldr	r4, [pc, #48]	@ (10010c40 <MXC_DelayAsync+0x34>)
10010c10:	4b0c      	ldr	r3, [pc, #48]	@ (10010c44 <MXC_DelayAsync+0x38>)
10010c12:	6822      	ldr	r2, [r4, #0]
10010c14:	6019      	str	r1, [r3, #0]
10010c16:	2a00      	cmp	r2, #0
10010c18:	dc0f      	bgt.n	10010c3a <MXC_DelayAsync+0x2e>
10010c1a:	b908      	cbnz	r0, 10010c20 <MXC_DelayAsync+0x14>
10010c1c:	2000      	movs	r0, #0
10010c1e:	bd10      	pop	{r4, pc}
10010c20:	f7ff ffb6 	bl	10010b90 <MXC_DelayInit>
10010c24:	6823      	ldr	r3, [r4, #0]
10010c26:	2b00      	cmp	r3, #0
10010c28:	ddf8      	ble.n	10010c1c <MXC_DelayAsync+0x10>
10010c2a:	f04f 22e0 	mov.w	r2, #3758153728	@ 0xe000e000
10010c2e:	2000      	movs	r0, #0
10010c30:	6913      	ldr	r3, [r2, #16]
10010c32:	f043 0302 	orr.w	r3, r3, #2
10010c36:	6113      	str	r3, [r2, #16]
10010c38:	bd10      	pop	{r4, pc}
10010c3a:	f06f 0005 	mvn.w	r0, #5
10010c3e:	bd10      	pop	{r4, pc}
10010c40:	20000034 	.word	0x20000034
10010c44:	20000c3c 	.word	0x20000c3c

10010c48 <MXC_DelayCheck>:
10010c48:	b5f8      	push	{r3, r4, r5, r6, r7, lr}
10010c4a:	4c17      	ldr	r4, [pc, #92]	@ (10010ca8 <MXC_DelayCheck+0x60>)
10010c4c:	6823      	ldr	r3, [r4, #0]
10010c4e:	2b00      	cmp	r3, #0
10010c50:	db1e      	blt.n	10010c90 <MXC_DelayCheck+0x48>
10010c52:	6826      	ldr	r6, [r4, #0]
10010c54:	bb2e      	cbnz	r6, 10010ca2 <MXC_DelayCheck+0x5a>
10010c56:	4b15      	ldr	r3, [pc, #84]	@ (10010cac <MXC_DelayCheck+0x64>)
10010c58:	f04f 25e0 	mov.w	r5, #3758153728	@ 0xe000e000
10010c5c:	681b      	ldr	r3, [r3, #0]
10010c5e:	69aa      	ldr	r2, [r5, #24]
10010c60:	429a      	cmp	r2, r3
10010c62:	d81e      	bhi.n	10010ca2 <MXC_DelayCheck+0x5a>
10010c64:	4f12      	ldr	r7, [pc, #72]	@ (10010cb0 <MXC_DelayCheck+0x68>)
10010c66:	683b      	ldr	r3, [r7, #0]
10010c68:	b15b      	cbz	r3, 10010c82 <MXC_DelayCheck+0x3a>
10010c6a:	f06f 000f 	mvn.w	r0, #15
10010c6e:	4798      	blx	r3
10010c70:	4b10      	ldr	r3, [pc, #64]	@ (10010cb4 <MXC_DelayCheck+0x6c>)
10010c72:	603e      	str	r6, [r7, #0]
10010c74:	681a      	ldr	r2, [r3, #0]
10010c76:	612a      	str	r2, [r5, #16]
10010c78:	f04f 33ff 	mov.w	r3, #4294967295	@ 0xffffffff
10010c7c:	6023      	str	r3, [r4, #0]
10010c7e:	2000      	movs	r0, #0
10010c80:	bdf8      	pop	{r3, r4, r5, r6, r7, pc}
10010c82:	4a0c      	ldr	r2, [pc, #48]	@ (10010cb4 <MXC_DelayCheck+0x6c>)
10010c84:	f04f 33ff 	mov.w	r3, #4294967295	@ 0xffffffff
10010c88:	6812      	ldr	r2, [r2, #0]
10010c8a:	612a      	str	r2, [r5, #16]
10010c8c:	6023      	str	r3, [r4, #0]
10010c8e:	e7f6      	b.n	10010c7e <MXC_DelayCheck+0x36>
10010c90:	4c07      	ldr	r4, [pc, #28]	@ (10010cb0 <MXC_DelayCheck+0x68>)
10010c92:	6823      	ldr	r3, [r4, #0]
10010c94:	2b00      	cmp	r3, #0
10010c96:	d0f2      	beq.n	10010c7e <MXC_DelayCheck+0x36>
10010c98:	2000      	movs	r0, #0
10010c9a:	4798      	blx	r3
10010c9c:	2000      	movs	r0, #0
10010c9e:	6020      	str	r0, [r4, #0]
10010ca0:	bdf8      	pop	{r3, r4, r5, r6, r7, pc}
10010ca2:	f06f 0005 	mvn.w	r0, #5
10010ca6:	bdf8      	pop	{r3, r4, r5, r6, r7, pc}
10010ca8:	20000034 	.word	0x20000034
10010cac:	20000c44 	.word	0x20000c44
10010cb0:	20000c3c 	.word	0x20000c3c
10010cb4:	20000c40 	.word	0x20000c40

10010cb8 <MXC_DelayAbort>:
10010cb8:	b510      	push	{r4, lr}
10010cba:	4c09      	ldr	r4, [pc, #36]	@ (10010ce0 <MXC_DelayAbort+0x28>)
10010cbc:	6823      	ldr	r3, [r4, #0]
10010cbe:	b123      	cbz	r3, 10010cca <MXC_DelayAbort+0x12>
10010cc0:	f06f 000f 	mvn.w	r0, #15
10010cc4:	4798      	blx	r3
10010cc6:	2300      	movs	r3, #0
10010cc8:	6023      	str	r3, [r4, #0]
10010cca:	4a06      	ldr	r2, [pc, #24]	@ (10010ce4 <MXC_DelayAbort+0x2c>)
10010ccc:	4b06      	ldr	r3, [pc, #24]	@ (10010ce8 <MXC_DelayAbort+0x30>)
10010cce:	6810      	ldr	r0, [r2, #0]
10010cd0:	f04f 21e0 	mov.w	r1, #3758153728	@ 0xe000e000
10010cd4:	f04f 32ff 	mov.w	r2, #4294967295	@ 0xffffffff
10010cd8:	6108      	str	r0, [r1, #16]
10010cda:	601a      	str	r2, [r3, #0]
10010cdc:	bd10      	pop	{r4, pc}
10010cde:	bf00      	nop
10010ce0:	20000c3c 	.word	0x20000c3c
10010ce4:	20000c40 	.word	0x20000c40
10010ce8:	20000034 	.word	0x20000034

10010cec <MXC_Delay>:
10010cec:	b538      	push	{r3, r4, r5, lr}
10010cee:	4c18      	ldr	r4, [pc, #96]	@ (10010d50 <MXC_Delay+0x64>)
10010cf0:	6822      	ldr	r2, [r4, #0]
10010cf2:	2a00      	cmp	r2, #0
10010cf4:	dc29      	bgt.n	10010d4a <MXC_Delay+0x5e>
10010cf6:	b900      	cbnz	r0, 10010cfa <MXC_Delay+0xe>
10010cf8:	bd38      	pop	{r3, r4, r5, pc}
10010cfa:	f7ff ff49 	bl	10010b90 <MXC_DelayInit>
10010cfe:	f04f 22e0 	mov.w	r2, #3758153728	@ 0xe000e000
10010d02:	e002      	b.n	10010d0a <MXC_Delay+0x1e>
10010d04:	6913      	ldr	r3, [r2, #16]
10010d06:	03db      	lsls	r3, r3, #15
10010d08:	d41b      	bmi.n	10010d42 <MXC_Delay+0x56>
10010d0a:	6823      	ldr	r3, [r4, #0]
10010d0c:	2b00      	cmp	r3, #0
10010d0e:	dcf9      	bgt.n	10010d04 <MXC_Delay+0x18>
10010d10:	4b10      	ldr	r3, [pc, #64]	@ (10010d54 <MXC_Delay+0x68>)
10010d12:	681a      	ldr	r2, [r3, #0]
10010d14:	f04f 21e0 	mov.w	r1, #3758153728	@ 0xe000e000
10010d18:	698b      	ldr	r3, [r1, #24]
10010d1a:	4293      	cmp	r3, r2
10010d1c:	d8fc      	bhi.n	10010d18 <MXC_Delay+0x2c>
10010d1e:	4d0e      	ldr	r5, [pc, #56]	@ (10010d58 <MXC_Delay+0x6c>)
10010d20:	682b      	ldr	r3, [r5, #0]
10010d22:	b123      	cbz	r3, 10010d2e <MXC_Delay+0x42>
10010d24:	f06f 000f 	mvn.w	r0, #15
10010d28:	4798      	blx	r3
10010d2a:	2300      	movs	r3, #0
10010d2c:	602b      	str	r3, [r5, #0]
10010d2e:	4b0b      	ldr	r3, [pc, #44]	@ (10010d5c <MXC_Delay+0x70>)
10010d30:	f04f 22e0 	mov.w	r2, #3758153728	@ 0xe000e000
10010d34:	6819      	ldr	r1, [r3, #0]
10010d36:	6111      	str	r1, [r2, #16]
10010d38:	f04f 33ff 	mov.w	r3, #4294967295	@ 0xffffffff
10010d3c:	2000      	movs	r0, #0
10010d3e:	6023      	str	r3, [r4, #0]
10010d40:	bd38      	pop	{r3, r4, r5, pc}
10010d42:	6823      	ldr	r3, [r4, #0]
10010d44:	3b01      	subs	r3, #1
10010d46:	6023      	str	r3, [r4, #0]
10010d48:	e7df      	b.n	10010d0a <MXC_Delay+0x1e>
10010d4a:	f06f 0005 	mvn.w	r0, #5
10010d4e:	bd38      	pop	{r3, r4, r5, pc}
10010d50:	20000034 	.word	0x20000034
10010d54:	20000c44 	.word	0x20000c44
10010d58:	20000c3c 	.word	0x20000c3c
10010d5c:	20000c40 	.word	0x20000c40

10010d60 <MXC_NVIC_SetVector>:
10010d60:	b5f8      	push	{r3, r4, r5, r6, r7, lr}
10010d62:	4e0f      	ldr	r6, [pc, #60]	@ (10010da0 <MXC_NVIC_SetVector+0x40>)
10010d64:	4b0f      	ldr	r3, [pc, #60]	@ (10010da4 <MXC_NVIC_SetVector+0x44>)
10010d66:	68b2      	ldr	r2, [r6, #8]
10010d68:	429a      	cmp	r2, r3
10010d6a:	4604      	mov	r4, r0
10010d6c:	460d      	mov	r5, r1
10010d6e:	f100 0710 	add.w	r7, r0, #16
10010d72:	d007      	beq.n	10010d84 <MXC_NVIC_SetVector+0x24>
10010d74:	4618      	mov	r0, r3
10010d76:	490c      	ldr	r1, [pc, #48]	@ (10010da8 <MXC_NVIC_SetVector+0x48>)
10010d78:	f44f 72f0 	mov.w	r2, #480	@ 0x1e0
10010d7c:	f004 fba0 	bl	100154c0 <memcpy>
10010d80:	4603      	mov	r3, r0
10010d82:	60b0      	str	r0, [r6, #8]
10010d84:	2c00      	cmp	r4, #0
10010d86:	f843 5027 	str.w	r5, [r3, r7, lsl #2]
10010d8a:	db08      	blt.n	10010d9e <MXC_NVIC_SetVector+0x3e>
10010d8c:	4b07      	ldr	r3, [pc, #28]	@ (10010dac <MXC_NVIC_SetVector+0x4c>)
10010d8e:	0962      	lsrs	r2, r4, #5
10010d90:	2001      	movs	r0, #1
10010d92:	f004 041f 	and.w	r4, r4, #31
10010d96:	fa00 f404 	lsl.w	r4, r0, r4
10010d9a:	f843 4022 	str.w	r4, [r3, r2, lsl #2]
10010d9e:	bdf8      	pop	{r3, r4, r5, r6, r7, pc}
10010da0:	e000ed00 	.word	0xe000ed00
10010da4:	20000e00 	.word	0x20000e00
10010da8:	10010000 	.word	0x10010000
10010dac:	e000e100 	.word	0xe000e100

10010db0 <MXC_SYS_ClockDisable>:
10010db0:	283f      	cmp	r0, #63	@ 0x3f
10010db2:	d909      	bls.n	10010dc8 <MXC_SYS_ClockDisable+0x18>
10010db4:	4a0e      	ldr	r2, [pc, #56]	@ (10010df0 <MXC_SYS_ClockDisable+0x40>)
10010db6:	3840      	subs	r0, #64	@ 0x40
10010db8:	68d1      	ldr	r1, [r2, #12]
10010dba:	b2c0      	uxtb	r0, r0
10010dbc:	2301      	movs	r3, #1
10010dbe:	fa03 f000 	lsl.w	r0, r3, r0
10010dc2:	4308      	orrs	r0, r1
10010dc4:	60d0      	str	r0, [r2, #12]
10010dc6:	4770      	bx	lr
10010dc8:	281f      	cmp	r0, #31
10010dca:	f04f 4280 	mov.w	r2, #1073741824	@ 0x40000000
10010dce:	d908      	bls.n	10010de2 <MXC_SYS_ClockDisable+0x32>
10010dd0:	3820      	subs	r0, #32
10010dd2:	6c91      	ldr	r1, [r2, #72]	@ 0x48
10010dd4:	b2c0      	uxtb	r0, r0
10010dd6:	2301      	movs	r3, #1
10010dd8:	fa03 f000 	lsl.w	r0, r3, r0
10010ddc:	4308      	orrs	r0, r1
10010dde:	6490      	str	r0, [r2, #72]	@ 0x48
10010de0:	4770      	bx	lr
10010de2:	6a51      	ldr	r1, [r2, #36]	@ 0x24
10010de4:	2301      	movs	r3, #1
10010de6:	fa03 f000 	lsl.w	r0, r3, r0
10010dea:	4308      	orrs	r0, r1
10010dec:	6250      	str	r0, [r2, #36]	@ 0x24
10010dee:	4770      	bx	lr
10010df0:	40080000 	.word	0x40080000

10010df4 <MXC_SYS_ClockEnable>:
10010df4:	283f      	cmp	r0, #63	@ 0x3f
10010df6:	d90a      	bls.n	10010e0e <MXC_SYS_ClockEnable+0x1a>
10010df8:	4910      	ldr	r1, [pc, #64]	@ (10010e3c <MXC_SYS_ClockEnable+0x48>)
10010dfa:	3840      	subs	r0, #64	@ 0x40
10010dfc:	68cb      	ldr	r3, [r1, #12]
10010dfe:	b2c0      	uxtb	r0, r0
10010e00:	2201      	movs	r2, #1
10010e02:	fa02 f000 	lsl.w	r0, r2, r0
10010e06:	ea23 0000 	bic.w	r0, r3, r0
10010e0a:	60c8      	str	r0, [r1, #12]
10010e0c:	4770      	bx	lr
10010e0e:	281f      	cmp	r0, #31
10010e10:	f04f 4180 	mov.w	r1, #1073741824	@ 0x40000000
10010e14:	d909      	bls.n	10010e2a <MXC_SYS_ClockEnable+0x36>
10010e16:	3820      	subs	r0, #32
10010e18:	6c8b      	ldr	r3, [r1, #72]	@ 0x48
10010e1a:	b2c0      	uxtb	r0, r0
10010e1c:	2201      	movs	r2, #1
10010e1e:	fa02 f000 	lsl.w	r0, r2, r0
10010e22:	ea23 0000 	bic.w	r0, r3, r0
10010e26:	6488      	str	r0, [r1, #72]	@ 0x48
10010e28:	4770      	bx	lr
10010e2a:	6a4b      	ldr	r3, [r1, #36]	@ 0x24
10010e2c:	2201      	movs	r2, #1
10010e2e:	fa02 f000 	lsl.w	r0, r2, r0
10010e32:	ea23 0000 	bic.w	r0, r3, r0
10010e36:	6248      	str	r0, [r1, #36]	@ 0x24
10010e38:	4770      	bx	lr
10010e3a:	bf00      	nop
10010e3c:	40080000 	.word	0x40080000

10010e40 <MXC_SYS_ClockSourceEnable>:
10010e40:	b510      	push	{r4, lr}
10010e42:	2807      	cmp	r0, #7
10010e44:	d80a      	bhi.n	10010e5c <MXC_SYS_ClockSourceEnable+0x1c>
10010e46:	e8df f000 	tbb	[pc, r0]
10010e4a:	090c      	.short	0x090c
10010e4c:	47332309 	.word	0x47332309
10010e50:	045b      	.short	0x045b
10010e52:	e8bd 4010 	ldmia.w	sp!, {r4, lr}
10010e56:	4836      	ldr	r0, [pc, #216]	@ (10010f30 <MXC_SYS_ClockSourceEnable+0xf0>)
10010e58:	f000 b8b4 	b.w	10010fc4 <MXC_GPIO_Config>
10010e5c:	f06f 0002 	mvn.w	r0, #2
10010e60:	bd10      	pop	{r4, pc}
10010e62:	f04f 4480 	mov.w	r4, #1073741824	@ 0x40000000
10010e66:	2100      	movs	r1, #0
10010e68:	68a3      	ldr	r3, [r4, #8]
10010e6a:	f443 2380 	orr.w	r3, r3, #262144	@ 0x40000
10010e6e:	60a3      	str	r3, [r4, #8]
10010e70:	f44f 707a 	mov.w	r0, #1000	@ 0x3e8
10010e74:	f7ff feca 	bl	10010c0c <MXC_DelayAsync>
10010e78:	e003      	b.n	10010e82 <MXC_SYS_ClockSourceEnable+0x42>
10010e7a:	f7ff fee5 	bl	10010c48 <MXC_DelayCheck>
10010e7e:	3006      	adds	r0, #6
10010e80:	d152      	bne.n	10010f28 <MXC_SYS_ClockSourceEnable+0xe8>
10010e82:	68a3      	ldr	r3, [r4, #8]
10010e84:	0159      	lsls	r1, r3, #5
10010e86:	d5f8      	bpl.n	10010e7a <MXC_SYS_ClockSourceEnable+0x3a>
10010e88:	f7ff ff16 	bl	10010cb8 <MXC_DelayAbort>
10010e8c:	2000      	movs	r0, #0
10010e8e:	bd10      	pop	{r4, pc}
10010e90:	2100      	movs	r1, #0
10010e92:	f44f 707a 	mov.w	r0, #1000	@ 0x3e8
10010e96:	f7ff feb9 	bl	10010c0c <MXC_DelayAsync>
10010e9a:	f04f 4480 	mov.w	r4, #1073741824	@ 0x40000000
10010e9e:	e003      	b.n	10010ea8 <MXC_SYS_ClockSourceEnable+0x68>
10010ea0:	f7ff fed2 	bl	10010c48 <MXC_DelayCheck>
10010ea4:	3006      	adds	r0, #6
10010ea6:	d13f      	bne.n	10010f28 <MXC_SYS_ClockSourceEnable+0xe8>
10010ea8:	68a3      	ldr	r3, [r4, #8]
10010eaa:	009a      	lsls	r2, r3, #2
10010eac:	d4ec      	bmi.n	10010e88 <MXC_SYS_ClockSourceEnable+0x48>
10010eae:	e7f7      	b.n	10010ea0 <MXC_SYS_ClockSourceEnable+0x60>
10010eb0:	f04f 4480 	mov.w	r4, #1073741824	@ 0x40000000
10010eb4:	2100      	movs	r1, #0
10010eb6:	68a3      	ldr	r3, [r4, #8]
10010eb8:	f443 2300 	orr.w	r3, r3, #524288	@ 0x80000
10010ebc:	60a3      	str	r3, [r4, #8]
10010ebe:	f44f 707a 	mov.w	r0, #1000	@ 0x3e8
10010ec2:	f7ff fea3 	bl	10010c0c <MXC_DelayAsync>
10010ec6:	e003      	b.n	10010ed0 <MXC_SYS_ClockSourceEnable+0x90>
10010ec8:	f7ff febe 	bl	10010c48 <MXC_DelayCheck>
10010ecc:	3006      	adds	r0, #6
10010ece:	d12b      	bne.n	10010f28 <MXC_SYS_ClockSourceEnable+0xe8>
10010ed0:	68a3      	ldr	r3, [r4, #8]
10010ed2:	011b      	lsls	r3, r3, #4
10010ed4:	d5f8      	bpl.n	10010ec8 <MXC_SYS_ClockSourceEnable+0x88>
10010ed6:	e7d7      	b.n	10010e88 <MXC_SYS_ClockSourceEnable+0x48>
10010ed8:	f04f 4480 	mov.w	r4, #1073741824	@ 0x40000000
10010edc:	2100      	movs	r1, #0
10010ede:	68a3      	ldr	r3, [r4, #8]
10010ee0:	f443 1380 	orr.w	r3, r3, #1048576	@ 0x100000
10010ee4:	60a3      	str	r3, [r4, #8]
10010ee6:	f44f 707a 	mov.w	r0, #1000	@ 0x3e8
10010eea:	f7ff fe8f 	bl	10010c0c <MXC_DelayAsync>
10010eee:	e003      	b.n	10010ef8 <MXC_SYS_ClockSourceEnable+0xb8>
10010ef0:	f7ff feaa 	bl	10010c48 <MXC_DelayCheck>
10010ef4:	3006      	adds	r0, #6
10010ef6:	d117      	bne.n	10010f28 <MXC_SYS_ClockSourceEnable+0xe8>
10010ef8:	68a3      	ldr	r3, [r4, #8]
10010efa:	00d8      	lsls	r0, r3, #3
10010efc:	d4c4      	bmi.n	10010e88 <MXC_SYS_ClockSourceEnable+0x48>
10010efe:	e7f7      	b.n	10010ef0 <MXC_SYS_ClockSourceEnable+0xb0>
10010f00:	f04f 4480 	mov.w	r4, #1073741824	@ 0x40000000
10010f04:	2100      	movs	r1, #0
10010f06:	68a3      	ldr	r3, [r4, #8]
10010f08:	f443 3300 	orr.w	r3, r3, #131072	@ 0x20000
10010f0c:	60a3      	str	r3, [r4, #8]
10010f0e:	f44f 707a 	mov.w	r0, #1000	@ 0x3e8
10010f12:	f7ff fe7b 	bl	10010c0c <MXC_DelayAsync>
10010f16:	e003      	b.n	10010f20 <MXC_SYS_ClockSourceEnable+0xe0>
10010f18:	f7ff fe96 	bl	10010c48 <MXC_DelayCheck>
10010f1c:	3006      	adds	r0, #6
10010f1e:	d103      	bne.n	10010f28 <MXC_SYS_ClockSourceEnable+0xe8>
10010f20:	68a3      	ldr	r3, [r4, #8]
10010f22:	019b      	lsls	r3, r3, #6
10010f24:	d4b0      	bmi.n	10010e88 <MXC_SYS_ClockSourceEnable+0x48>
10010f26:	e7f7      	b.n	10010f18 <MXC_SYS_ClockSourceEnable+0xd8>
10010f28:	f06f 0009 	mvn.w	r0, #9
10010f2c:	bd10      	pop	{r4, pc}
10010f2e:	bf00      	nop
10010f30:	1001b0b4 	.word	0x1001b0b4

10010f34 <MXC_SYS_Reset_Periph>:
10010f34:	283f      	cmp	r0, #63	@ 0x3f
10010f36:	d90a      	bls.n	10010f4e <MXC_SYS_Reset_Periph+0x1a>
10010f38:	3840      	subs	r0, #64	@ 0x40
10010f3a:	4a11      	ldr	r2, [pc, #68]	@ (10010f80 <MXC_SYS_Reset_Periph+0x4c>)
10010f3c:	b2c0      	uxtb	r0, r0
10010f3e:	2301      	movs	r3, #1
10010f40:	fa03 f000 	lsl.w	r0, r3, r0
10010f44:	6090      	str	r0, [r2, #8]
10010f46:	6893      	ldr	r3, [r2, #8]
10010f48:	4218      	tst	r0, r3
10010f4a:	d1fc      	bne.n	10010f46 <MXC_SYS_Reset_Periph+0x12>
10010f4c:	4770      	bx	lr
10010f4e:	281f      	cmp	r0, #31
10010f50:	d90b      	bls.n	10010f6a <MXC_SYS_Reset_Periph+0x36>
10010f52:	3820      	subs	r0, #32
10010f54:	b2c0      	uxtb	r0, r0
10010f56:	2301      	movs	r3, #1
10010f58:	f04f 4280 	mov.w	r2, #1073741824	@ 0x40000000
10010f5c:	fa03 f000 	lsl.w	r0, r3, r0
10010f60:	6450      	str	r0, [r2, #68]	@ 0x44
10010f62:	6c53      	ldr	r3, [r2, #68]	@ 0x44
10010f64:	4218      	tst	r0, r3
10010f66:	d1fc      	bne.n	10010f62 <MXC_SYS_Reset_Periph+0x2e>
10010f68:	4770      	bx	lr
10010f6a:	2301      	movs	r3, #1
10010f6c:	f04f 4280 	mov.w	r2, #1073741824	@ 0x40000000
10010f70:	fa03 f000 	lsl.w	r0, r3, r0
10010f74:	6050      	str	r0, [r2, #4]
10010f76:	6853      	ldr	r3, [r2, #4]
10010f78:	4218      	tst	r0, r3
10010f7a:	d1fc      	bne.n	10010f76 <MXC_SYS_Reset_Periph+0x42>
10010f7c:	4770      	bx	lr
10010f7e:	bf00      	nop
10010f80:	40080000 	.word	0x40080000

10010f84 <MXC_GPIO_Init>:
10010f84:	07c1      	lsls	r1, r0, #31
10010f86:	b510      	push	{r4, lr}
10010f88:	4604      	mov	r4, r0
10010f8a:	d408      	bmi.n	10010f9e <MXC_GPIO_Init+0x1a>
10010f8c:	07a2      	lsls	r2, r4, #30
10010f8e:	d40b      	bmi.n	10010fa8 <MXC_GPIO_Init+0x24>
10010f90:	0763      	lsls	r3, r4, #29
10010f92:	d40e      	bmi.n	10010fb2 <MXC_GPIO_Init+0x2e>
10010f94:	4620      	mov	r0, r4
10010f96:	e8bd 4010 	ldmia.w	sp!, {r4, lr}
10010f9a:	f000 bf4d 	b.w	10011e38 <MXC_GPIO_Common_Init>
10010f9e:	2000      	movs	r0, #0
10010fa0:	f7ff ff28 	bl	10010df4 <MXC_SYS_ClockEnable>
10010fa4:	07a2      	lsls	r2, r4, #30
10010fa6:	d5f3      	bpl.n	10010f90 <MXC_GPIO_Init+0xc>
10010fa8:	2001      	movs	r0, #1
10010faa:	f7ff ff23 	bl	10010df4 <MXC_SYS_ClockEnable>
10010fae:	0763      	lsls	r3, r4, #29
10010fb0:	d5f0      	bpl.n	10010f94 <MXC_GPIO_Init+0x10>
10010fb2:	2040      	movs	r0, #64	@ 0x40
10010fb4:	f7ff ff1e 	bl	10010df4 <MXC_SYS_ClockEnable>
10010fb8:	4620      	mov	r0, r4
10010fba:	e8bd 4010 	ldmia.w	sp!, {r4, lr}
10010fbe:	f000 bf3b 	b.w	10011e38 <MXC_GPIO_Common_Init>
10010fc2:	bf00      	nop

10010fc4 <MXC_GPIO_Config>:
10010fc4:	b538      	push	{r3, r4, r5, lr}
10010fc6:	4b7a      	ldr	r3, [pc, #488]	@ (100111b0 <MXC_GPIO_Config+0x1ec>)
10010fc8:	6805      	ldr	r5, [r0, #0]
10010fca:	429d      	cmp	r5, r3
10010fcc:	4604      	mov	r4, r0
10010fce:	d059      	beq.n	10011084 <MXC_GPIO_Config+0xc0>
10010fd0:	f503 5380 	add.w	r3, r3, #4096	@ 0x1000
10010fd4:	429d      	cmp	r5, r3
10010fd6:	d01c      	beq.n	10011012 <MXC_GPIO_Config+0x4e>
10010fd8:	f503 23ee 	add.w	r3, r3, #487424	@ 0x77000
10010fdc:	f503 6380 	add.w	r3, r3, #1024	@ 0x400
10010fe0:	429d      	cmp	r5, r3
10010fe2:	f000 80a6 	beq.w	10011132 <MXC_GPIO_Config+0x16e>
10010fe6:	f503 7300 	add.w	r3, r3, #512	@ 0x200
10010fea:	429d      	cmp	r5, r3
10010fec:	d013      	beq.n	10011016 <MXC_GPIO_Config+0x52>
10010fee:	2000      	movs	r0, #0
10010ff0:	f7ff ffc8 	bl	10010f84 <MXC_GPIO_Init>
10010ff4:	6862      	ldr	r2, [r4, #4]
10010ff6:	7a21      	ldrb	r1, [r4, #8]
10010ff8:	4628      	mov	r0, r5
10010ffa:	f000 f937 	bl	1001126c <MXC_GPIO_RevA_SetAF>
10010ffe:	b9a0      	cbnz	r0, 1001102a <MXC_GPIO_Config+0x66>
10011000:	7a63      	ldrb	r3, [r4, #9]
10011002:	2b04      	cmp	r3, #4
10011004:	f200 80d1 	bhi.w	100111aa <MXC_GPIO_Config+0x1e6>
10011008:	e8df f003 	tbb	[pc, r3]
1001100c:	5e6d7b89 	.word	0x5e6d7b89
10011010:	4a          	.byte	0x4a
10011011:	00          	.byte	0x00
10011012:	2002      	movs	r0, #2
10011014:	e7ec      	b.n	10010ff0 <MXC_GPIO_Config+0x2c>
10011016:	6840      	ldr	r0, [r0, #4]
10011018:	07c3      	lsls	r3, r0, #31
1001101a:	d519      	bpl.n	10011050 <MXC_GPIO_Config+0x8c>
1001101c:	7a23      	ldrb	r3, [r4, #8]
1001101e:	2b00      	cmp	r3, #0
10011020:	d032      	beq.n	10011088 <MXC_GPIO_Config+0xc4>
10011022:	2b01      	cmp	r3, #1
10011024:	d002      	beq.n	1001102c <MXC_GPIO_Config+0x68>
10011026:	f06f 0010 	mvn.w	r0, #16
1001102a:	bd38      	pop	{r3, r4, r5, pc}
1001102c:	4a61      	ldr	r2, [pc, #388]	@ (100111b4 <MXC_GPIO_Config+0x1f0>)
1001102e:	6a13      	ldr	r3, [r2, #32]
10011030:	f043 0302 	orr.w	r3, r3, #2
10011034:	6213      	str	r3, [r2, #32]
10011036:	7a63      	ldrb	r3, [r4, #9]
10011038:	2b01      	cmp	r3, #1
1001103a:	d07c      	beq.n	10011136 <MXC_GPIO_Config+0x172>
1001103c:	2b02      	cmp	r3, #2
1001103e:	f000 8088 	beq.w	10011152 <MXC_GPIO_Config+0x18e>
10011042:	2b00      	cmp	r3, #0
10011044:	d1ef      	bne.n	10011026 <MXC_GPIO_Config+0x62>
10011046:	4a5b      	ldr	r2, [pc, #364]	@ (100111b4 <MXC_GPIO_Config+0x1f0>)
10011048:	6a13      	ldr	r3, [r2, #32]
1001104a:	f043 0304 	orr.w	r3, r3, #4
1001104e:	6213      	str	r3, [r2, #32]
10011050:	f010 0002 	ands.w	r0, r0, #2
10011054:	d0e9      	beq.n	1001102a <MXC_GPIO_Config+0x66>
10011056:	7a23      	ldrb	r3, [r4, #8]
10011058:	b1e3      	cbz	r3, 10011094 <MXC_GPIO_Config+0xd0>
1001105a:	2b01      	cmp	r3, #1
1001105c:	d1e3      	bne.n	10011026 <MXC_GPIO_Config+0x62>
1001105e:	4a55      	ldr	r2, [pc, #340]	@ (100111b4 <MXC_GPIO_Config+0x1f0>)
10011060:	6a13      	ldr	r3, [r2, #32]
10011062:	f043 0320 	orr.w	r3, r3, #32
10011066:	6213      	str	r3, [r2, #32]
10011068:	7a60      	ldrb	r0, [r4, #9]
1001106a:	2801      	cmp	r0, #1
1001106c:	d07f      	beq.n	1001116e <MXC_GPIO_Config+0x1aa>
1001106e:	2802      	cmp	r0, #2
10011070:	f000 808c 	beq.w	1001118c <MXC_GPIO_Config+0x1c8>
10011074:	2800      	cmp	r0, #0
10011076:	d1d6      	bne.n	10011026 <MXC_GPIO_Config+0x62>
10011078:	4a4e      	ldr	r2, [pc, #312]	@ (100111b4 <MXC_GPIO_Config+0x1f0>)
1001107a:	6a13      	ldr	r3, [r2, #32]
1001107c:	f043 0340 	orr.w	r3, r3, #64	@ 0x40
10011080:	6213      	str	r3, [r2, #32]
10011082:	bd38      	pop	{r3, r4, r5, pc}
10011084:	2001      	movs	r0, #1
10011086:	e7b3      	b.n	10010ff0 <MXC_GPIO_Config+0x2c>
10011088:	4a4a      	ldr	r2, [pc, #296]	@ (100111b4 <MXC_GPIO_Config+0x1f0>)
1001108a:	6a13      	ldr	r3, [r2, #32]
1001108c:	f023 0302 	bic.w	r3, r3, #2
10011090:	6213      	str	r3, [r2, #32]
10011092:	e7d0      	b.n	10011036 <MXC_GPIO_Config+0x72>
10011094:	4a47      	ldr	r2, [pc, #284]	@ (100111b4 <MXC_GPIO_Config+0x1f0>)
10011096:	6a13      	ldr	r3, [r2, #32]
10011098:	f023 0320 	bic.w	r3, r3, #32
1001109c:	6213      	str	r3, [r2, #32]
1001109e:	e7e3      	b.n	10011068 <MXC_GPIO_Config+0xa4>
100110a0:	6e2b      	ldr	r3, [r5, #96]	@ 0x60
100110a2:	6862      	ldr	r2, [r4, #4]
100110a4:	ea23 0302 	bic.w	r3, r3, r2
100110a8:	662b      	str	r3, [r5, #96]	@ 0x60
100110aa:	6e6b      	ldr	r3, [r5, #100]	@ 0x64
100110ac:	4313      	orrs	r3, r2
100110ae:	666b      	str	r3, [r5, #100]	@ 0x64
100110b0:	f8d5 30b8 	ldr.w	r3, [r5, #184]	@ 0xb8
100110b4:	ea23 0302 	bic.w	r3, r3, r2
100110b8:	f8c5 30b8 	str.w	r3, [r5, #184]	@ 0xb8
100110bc:	7aa1      	ldrb	r1, [r4, #10]
100110be:	4628      	mov	r0, r5
100110c0:	e8bd 4038 	ldmia.w	sp!, {r3, r4, r5, lr}
100110c4:	f000 b8ba 	b.w	1001123c <MXC_GPIO_RevA_SetVSSEL>
100110c8:	6e2b      	ldr	r3, [r5, #96]	@ 0x60
100110ca:	6862      	ldr	r2, [r4, #4]
100110cc:	4313      	orrs	r3, r2
100110ce:	662b      	str	r3, [r5, #96]	@ 0x60
100110d0:	6e6b      	ldr	r3, [r5, #100]	@ 0x64
100110d2:	ea23 0302 	bic.w	r3, r3, r2
100110d6:	666b      	str	r3, [r5, #100]	@ 0x64
100110d8:	f8d5 30b8 	ldr.w	r3, [r5, #184]	@ 0xb8
100110dc:	ea23 0302 	bic.w	r3, r3, r2
100110e0:	f8c5 30b8 	str.w	r3, [r5, #184]	@ 0xb8
100110e4:	e7ea      	b.n	100110bc <MXC_GPIO_Config+0xf8>
100110e6:	6e2b      	ldr	r3, [r5, #96]	@ 0x60
100110e8:	6862      	ldr	r2, [r4, #4]
100110ea:	ea23 0302 	bic.w	r3, r3, r2
100110ee:	662b      	str	r3, [r5, #96]	@ 0x60
100110f0:	6e6b      	ldr	r3, [r5, #100]	@ 0x64
100110f2:	4313      	orrs	r3, r2
100110f4:	666b      	str	r3, [r5, #100]	@ 0x64
100110f6:	f8d5 30b8 	ldr.w	r3, [r5, #184]	@ 0xb8
100110fa:	4313      	orrs	r3, r2
100110fc:	f8c5 30b8 	str.w	r3, [r5, #184]	@ 0xb8
10011100:	e7dc      	b.n	100110bc <MXC_GPIO_Config+0xf8>
10011102:	6e2b      	ldr	r3, [r5, #96]	@ 0x60
10011104:	6862      	ldr	r2, [r4, #4]
10011106:	4313      	orrs	r3, r2
10011108:	662b      	str	r3, [r5, #96]	@ 0x60
1001110a:	6e6b      	ldr	r3, [r5, #100]	@ 0x64
1001110c:	ea23 0302 	bic.w	r3, r3, r2
10011110:	666b      	str	r3, [r5, #100]	@ 0x64
10011112:	f8d5 30b8 	ldr.w	r3, [r5, #184]	@ 0xb8
10011116:	4313      	orrs	r3, r2
10011118:	f8c5 30b8 	str.w	r3, [r5, #184]	@ 0xb8
1001111c:	e7ce      	b.n	100110bc <MXC_GPIO_Config+0xf8>
1001111e:	6e2b      	ldr	r3, [r5, #96]	@ 0x60
10011120:	6862      	ldr	r2, [r4, #4]
10011122:	ea23 0302 	bic.w	r3, r3, r2
10011126:	662b      	str	r3, [r5, #96]	@ 0x60
10011128:	6e6b      	ldr	r3, [r5, #100]	@ 0x64
1001112a:	ea23 0302 	bic.w	r3, r3, r2
1001112e:	666b      	str	r3, [r5, #100]	@ 0x64
10011130:	e7c4      	b.n	100110bc <MXC_GPIO_Config+0xf8>
10011132:	2004      	movs	r0, #4
10011134:	e75c      	b.n	10010ff0 <MXC_GPIO_Config+0x2c>
10011136:	4b1f      	ldr	r3, [pc, #124]	@ (100111b4 <MXC_GPIO_Config+0x1f0>)
10011138:	6a1a      	ldr	r2, [r3, #32]
1001113a:	f022 0204 	bic.w	r2, r2, #4
1001113e:	621a      	str	r2, [r3, #32]
10011140:	6a1a      	ldr	r2, [r3, #32]
10011142:	f022 0202 	bic.w	r2, r2, #2
10011146:	621a      	str	r2, [r3, #32]
10011148:	6a1a      	ldr	r2, [r3, #32]
1001114a:	f042 0201 	orr.w	r2, r2, #1
1001114e:	621a      	str	r2, [r3, #32]
10011150:	e77e      	b.n	10011050 <MXC_GPIO_Config+0x8c>
10011152:	4b18      	ldr	r3, [pc, #96]	@ (100111b4 <MXC_GPIO_Config+0x1f0>)
10011154:	6a1a      	ldr	r2, [r3, #32]
10011156:	f022 0204 	bic.w	r2, r2, #4
1001115a:	621a      	str	r2, [r3, #32]
1001115c:	6a1a      	ldr	r2, [r3, #32]
1001115e:	f022 0202 	bic.w	r2, r2, #2
10011162:	621a      	str	r2, [r3, #32]
10011164:	6a1a      	ldr	r2, [r3, #32]
10011166:	f022 0201 	bic.w	r2, r2, #1
1001116a:	621a      	str	r2, [r3, #32]
1001116c:	e770      	b.n	10011050 <MXC_GPIO_Config+0x8c>
1001116e:	4b11      	ldr	r3, [pc, #68]	@ (100111b4 <MXC_GPIO_Config+0x1f0>)
10011170:	6a1a      	ldr	r2, [r3, #32]
10011172:	f022 0240 	bic.w	r2, r2, #64	@ 0x40
10011176:	621a      	str	r2, [r3, #32]
10011178:	6a1a      	ldr	r2, [r3, #32]
1001117a:	f022 0220 	bic.w	r2, r2, #32
1001117e:	621a      	str	r2, [r3, #32]
10011180:	6a1a      	ldr	r2, [r3, #32]
10011182:	f042 0210 	orr.w	r2, r2, #16
10011186:	2000      	movs	r0, #0
10011188:	621a      	str	r2, [r3, #32]
1001118a:	bd38      	pop	{r3, r4, r5, pc}
1001118c:	4b09      	ldr	r3, [pc, #36]	@ (100111b4 <MXC_GPIO_Config+0x1f0>)
1001118e:	6a1a      	ldr	r2, [r3, #32]
10011190:	f022 0240 	bic.w	r2, r2, #64	@ 0x40
10011194:	621a      	str	r2, [r3, #32]
10011196:	6a1a      	ldr	r2, [r3, #32]
10011198:	f022 0220 	bic.w	r2, r2, #32
1001119c:	621a      	str	r2, [r3, #32]
1001119e:	6a1a      	ldr	r2, [r3, #32]
100111a0:	f022 0210 	bic.w	r2, r2, #16
100111a4:	2000      	movs	r0, #0
100111a6:	621a      	str	r2, [r3, #32]
100111a8:	bd38      	pop	{r3, r4, r5, pc}
100111aa:	f06f 0002 	mvn.w	r0, #2
100111ae:	bd38      	pop	{r3, r4, r5, pc}
100111b0:	40008000 	.word	0x40008000
100111b4:	40006c00 	.word	0x40006c00

100111b8 <MXC_GPIO_OutSet>:
100111b8:	4a0a      	ldr	r2, [pc, #40]	@ (100111e4 <MXC_GPIO_OutSet+0x2c>)
100111ba:	4290      	cmp	r0, r2
100111bc:	460b      	mov	r3, r1
100111be:	d001      	beq.n	100111c4 <MXC_GPIO_OutSet+0xc>
100111c0:	f000 b834 	b.w	1001122c <MXC_GPIO_RevA_OutSet>
100111c4:	07ca      	lsls	r2, r1, #31
100111c6:	d504      	bpl.n	100111d2 <MXC_GPIO_OutSet+0x1a>
100111c8:	4907      	ldr	r1, [pc, #28]	@ (100111e8 <MXC_GPIO_OutSet+0x30>)
100111ca:	6a0a      	ldr	r2, [r1, #32]
100111cc:	f042 0201 	orr.w	r2, r2, #1
100111d0:	620a      	str	r2, [r1, #32]
100111d2:	079b      	lsls	r3, r3, #30
100111d4:	d505      	bpl.n	100111e2 <MXC_GPIO_OutSet+0x2a>
100111d6:	4a04      	ldr	r2, [pc, #16]	@ (100111e8 <MXC_GPIO_OutSet+0x30>)
100111d8:	6a13      	ldr	r3, [r2, #32]
100111da:	f043 0310 	orr.w	r3, r3, #16
100111de:	6213      	str	r3, [r2, #32]
100111e0:	4770      	bx	lr
100111e2:	4770      	bx	lr
100111e4:	40080600 	.word	0x40080600
100111e8:	40006c00 	.word	0x40006c00

100111ec <MXC_GPIO_OutClr>:
100111ec:	4a0a      	ldr	r2, [pc, #40]	@ (10011218 <MXC_GPIO_OutClr+0x2c>)
100111ee:	4290      	cmp	r0, r2
100111f0:	460b      	mov	r3, r1
100111f2:	d001      	beq.n	100111f8 <MXC_GPIO_OutClr+0xc>
100111f4:	f000 b81c 	b.w	10011230 <MXC_GPIO_RevA_OutClr>
100111f8:	07ca      	lsls	r2, r1, #31
100111fa:	d504      	bpl.n	10011206 <MXC_GPIO_OutClr+0x1a>
100111fc:	4907      	ldr	r1, [pc, #28]	@ (1001121c <MXC_GPIO_OutClr+0x30>)
100111fe:	6a0a      	ldr	r2, [r1, #32]
10011200:	f022 0201 	bic.w	r2, r2, #1
10011204:	620a      	str	r2, [r1, #32]
10011206:	079b      	lsls	r3, r3, #30
10011208:	d505      	bpl.n	10011216 <MXC_GPIO_OutClr+0x2a>
1001120a:	4a04      	ldr	r2, [pc, #16]	@ (1001121c <MXC_GPIO_OutClr+0x30>)
1001120c:	6a13      	ldr	r3, [r2, #32]
1001120e:	f023 0310 	bic.w	r3, r3, #16
10011212:	6213      	str	r3, [r2, #32]
10011214:	4770      	bx	lr
10011216:	4770      	bx	lr
10011218:	40080600 	.word	0x40080600
1001121c:	40006c00 	.word	0x40006c00

10011220 <MXC_GPIO_Handler>:
10011220:	f000 be1c 	b.w	10011e5c <MXC_GPIO_Common_Handler>

10011224 <MXC_GPIO_ClearFlags>:
10011224:	f000 b806 	b.w	10011234 <MXC_GPIO_RevA_ClearFlags>

10011228 <MXC_GPIO_GetFlags>:
10011228:	f000 b806 	b.w	10011238 <MXC_GPIO_RevA_GetFlags>

1001122c <MXC_GPIO_RevA_OutSet>:
1001122c:	61c1      	str	r1, [r0, #28]
1001122e:	4770      	bx	lr

10011230 <MXC_GPIO_RevA_OutClr>:
10011230:	6201      	str	r1, [r0, #32]
10011232:	4770      	bx	lr

10011234 <MXC_GPIO_RevA_ClearFlags>:
10011234:	6481      	str	r1, [r0, #72]	@ 0x48
10011236:	4770      	bx	lr

10011238 <MXC_GPIO_RevA_GetFlags>:
10011238:	6c00      	ldr	r0, [r0, #64]	@ 0x40
1001123a:	4770      	bx	lr

1001123c <MXC_GPIO_RevA_SetVSSEL>:
1001123c:	b169      	cbz	r1, 1001125a <MXC_GPIO_RevA_SetVSSEL+0x1e>
1001123e:	2901      	cmp	r1, #1
10011240:	d107      	bne.n	10011252 <MXC_GPIO_RevA_SetVSSEL+0x16>
10011242:	f8d0 30c0 	ldr.w	r3, [r0, #192]	@ 0xc0
10011246:	2100      	movs	r1, #0
10011248:	431a      	orrs	r2, r3
1001124a:	f8c0 20c0 	str.w	r2, [r0, #192]	@ 0xc0
1001124e:	4608      	mov	r0, r1
10011250:	4770      	bx	lr
10011252:	f06f 0102 	mvn.w	r1, #2
10011256:	4608      	mov	r0, r1
10011258:	4770      	bx	lr
1001125a:	f8d0 30c0 	ldr.w	r3, [r0, #192]	@ 0xc0
1001125e:	ea23 0202 	bic.w	r2, r3, r2
10011262:	f8c0 20c0 	str.w	r2, [r0, #192]	@ 0xc0
10011266:	4608      	mov	r0, r1
10011268:	4770      	bx	lr
1001126a:	bf00      	nop

1001126c <MXC_GPIO_RevA_SetAF>:
1001126c:	4603      	mov	r3, r0
1001126e:	6b00      	ldr	r0, [r0, #48]	@ 0x30
10011270:	4310      	orrs	r0, r2
10011272:	6318      	str	r0, [r3, #48]	@ 0x30
10011274:	605a      	str	r2, [r3, #4]
10011276:	2905      	cmp	r1, #5
10011278:	d82a      	bhi.n	100112d0 <MXC_GPIO_RevA_SetAF+0x64>
1001127a:	e8df f001 	tbb	[pc, r1]
1001127e:	120a      	.short	0x120a
10011280:	03221b14 	.word	0x03221b14
10011284:	f8c3 2088 	str.w	r2, [r3, #136]	@ 0x88
10011288:	2000      	movs	r0, #0
1001128a:	679a      	str	r2, [r3, #120]	@ 0x78
1001128c:	66da      	str	r2, [r3, #108]	@ 0x6c
1001128e:	609a      	str	r2, [r3, #8]
10011290:	4770      	bx	lr
10011292:	615a      	str	r2, [r3, #20]
10011294:	605a      	str	r2, [r3, #4]
10011296:	2000      	movs	r0, #0
10011298:	671a      	str	r2, [r3, #112]	@ 0x70
1001129a:	67da      	str	r2, [r3, #124]	@ 0x7c
1001129c:	f8c3 2088 	str.w	r2, [r3, #136]	@ 0x88
100112a0:	4770      	bx	lr
100112a2:	611a      	str	r2, [r3, #16]
100112a4:	e7f6      	b.n	10011294 <MXC_GPIO_RevA_SetAF+0x28>
100112a6:	f8c3 2088 	str.w	r2, [r3, #136]	@ 0x88
100112aa:	2000      	movs	r0, #0
100112ac:	67da      	str	r2, [r3, #124]	@ 0x7c
100112ae:	671a      	str	r2, [r3, #112]	@ 0x70
100112b0:	609a      	str	r2, [r3, #8]
100112b2:	4770      	bx	lr
100112b4:	f8c3 2088 	str.w	r2, [r3, #136]	@ 0x88
100112b8:	2000      	movs	r0, #0
100112ba:	67da      	str	r2, [r3, #124]	@ 0x7c
100112bc:	66da      	str	r2, [r3, #108]	@ 0x6c
100112be:	609a      	str	r2, [r3, #8]
100112c0:	4770      	bx	lr
100112c2:	f8c3 2088 	str.w	r2, [r3, #136]	@ 0x88
100112c6:	2000      	movs	r0, #0
100112c8:	679a      	str	r2, [r3, #120]	@ 0x78
100112ca:	671a      	str	r2, [r3, #112]	@ 0x70
100112cc:	609a      	str	r2, [r3, #8]
100112ce:	4770      	bx	lr
100112d0:	f06f 0002 	mvn.w	r0, #2
100112d4:	4770      	bx	lr
100112d6:	bf00      	nop

100112d8 <MXC_I2C_SetSlaveAddr>:
100112d8:	f000 b902 	b.w	100114e0 <MXC_I2C_RevA_SetSlaveAddr>

100112dc <MXC_I2C_Shutdown>:
100112dc:	b508      	push	{r3, lr}
100112de:	4b12      	ldr	r3, [pc, #72]	@ (10011328 <MXC_I2C_Shutdown+0x4c>)
100112e0:	4298      	cmp	r0, r3
100112e2:	d00d      	beq.n	10011300 <MXC_I2C_Shutdown+0x24>
100112e4:	4b11      	ldr	r3, [pc, #68]	@ (1001132c <MXC_I2C_Shutdown+0x50>)
100112e6:	4298      	cmp	r0, r3
100112e8:	d012      	beq.n	10011310 <MXC_I2C_Shutdown+0x34>
100112ea:	4b11      	ldr	r3, [pc, #68]	@ (10011330 <MXC_I2C_Shutdown+0x54>)
100112ec:	4298      	cmp	r0, r3
100112ee:	d117      	bne.n	10011320 <MXC_I2C_Shutdown+0x44>
100112f0:	2038      	movs	r0, #56	@ 0x38
100112f2:	f7ff fd5d 	bl	10010db0 <MXC_SYS_ClockDisable>
100112f6:	2034      	movs	r0, #52	@ 0x34
100112f8:	f7ff fe1c 	bl	10010f34 <MXC_SYS_Reset_Periph>
100112fc:	2000      	movs	r0, #0
100112fe:	bd08      	pop	{r3, pc}
10011300:	200d      	movs	r0, #13
10011302:	f7ff fd55 	bl	10010db0 <MXC_SYS_ClockDisable>
10011306:	2010      	movs	r0, #16
10011308:	f7ff fe14 	bl	10010f34 <MXC_SYS_Reset_Periph>
1001130c:	2000      	movs	r0, #0
1001130e:	bd08      	pop	{r3, pc}
10011310:	201c      	movs	r0, #28
10011312:	f7ff fd4d 	bl	10010db0 <MXC_SYS_ClockDisable>
10011316:	2020      	movs	r0, #32
10011318:	f7ff fe0c 	bl	10010f34 <MXC_SYS_Reset_Periph>
1001131c:	2000      	movs	r0, #0
1001131e:	bd08      	pop	{r3, pc}
10011320:	f06f 0001 	mvn.w	r0, #1
10011324:	bd08      	pop	{r3, pc}
10011326:	bf00      	nop
10011328:	4001d000 	.word	0x4001d000
1001132c:	4001e000 	.word	0x4001e000
10011330:	4001f000 	.word	0x4001f000

10011334 <MXC_I2C_Init>:
10011334:	b3c0      	cbz	r0, 100113a8 <MXC_I2C_Init+0x74>
10011336:	b570      	push	{r4, r5, r6, lr}
10011338:	4604      	mov	r4, r0
1001133a:	460d      	mov	r5, r1
1001133c:	4616      	mov	r6, r2
1001133e:	f7ff ffcd 	bl	100112dc <MXC_I2C_Shutdown>
10011342:	4b1b      	ldr	r3, [pc, #108]	@ (100113b0 <MXC_I2C_Init+0x7c>)
10011344:	429c      	cmp	r4, r3
10011346:	d012      	beq.n	1001136e <MXC_I2C_Init+0x3a>
10011348:	4b1a      	ldr	r3, [pc, #104]	@ (100113b4 <MXC_I2C_Init+0x80>)
1001134a:	429c      	cmp	r4, r3
1001134c:	d01c      	beq.n	10011388 <MXC_I2C_Init+0x54>
1001134e:	4b1a      	ldr	r3, [pc, #104]	@ (100113b8 <MXC_I2C_Init+0x84>)
10011350:	429c      	cmp	r4, r3
10011352:	d126      	bne.n	100113a2 <MXC_I2C_Init+0x6e>
10011354:	2038      	movs	r0, #56	@ 0x38
10011356:	f7ff fd4d 	bl	10010df4 <MXC_SYS_ClockEnable>
1001135a:	4818      	ldr	r0, [pc, #96]	@ (100113bc <MXC_I2C_Init+0x88>)
1001135c:	f7ff fe32 	bl	10010fc4 <MXC_GPIO_Config>
10011360:	4632      	mov	r2, r6
10011362:	4629      	mov	r1, r5
10011364:	4620      	mov	r0, r4
10011366:	e8bd 4070 	ldmia.w	sp!, {r4, r5, r6, lr}
1001136a:	f000 b851 	b.w	10011410 <MXC_I2C_RevA_Init>
1001136e:	200d      	movs	r0, #13
10011370:	f7ff fd40 	bl	10010df4 <MXC_SYS_ClockEnable>
10011374:	4812      	ldr	r0, [pc, #72]	@ (100113c0 <MXC_I2C_Init+0x8c>)
10011376:	f7ff fe25 	bl	10010fc4 <MXC_GPIO_Config>
1001137a:	4632      	mov	r2, r6
1001137c:	4629      	mov	r1, r5
1001137e:	4620      	mov	r0, r4
10011380:	e8bd 4070 	ldmia.w	sp!, {r4, r5, r6, lr}
10011384:	f000 b844 	b.w	10011410 <MXC_I2C_RevA_Init>
10011388:	201c      	movs	r0, #28
1001138a:	f7ff fd33 	bl	10010df4 <MXC_SYS_ClockEnable>
1001138e:	480d      	ldr	r0, [pc, #52]	@ (100113c4 <MXC_I2C_Init+0x90>)
10011390:	f7ff fe18 	bl	10010fc4 <MXC_GPIO_Config>
10011394:	4632      	mov	r2, r6
10011396:	4629      	mov	r1, r5
10011398:	4620      	mov	r0, r4
1001139a:	e8bd 4070 	ldmia.w	sp!, {r4, r5, r6, lr}
1001139e:	f000 b837 	b.w	10011410 <MXC_I2C_RevA_Init>
100113a2:	f06f 0001 	mvn.w	r0, #1
100113a6:	bd70      	pop	{r4, r5, r6, pc}
100113a8:	f04f 30ff 	mov.w	r0, #4294967295	@ 0xffffffff
100113ac:	4770      	bx	lr
100113ae:	bf00      	nop
100113b0:	4001d000 	.word	0x4001d000
100113b4:	4001e000 	.word	0x4001e000
100113b8:	4001f000 	.word	0x4001f000
100113bc:	1001b0d8 	.word	0x1001b0d8
100113c0:	1001b0c0 	.word	0x1001b0c0
100113c4:	1001b0cc 	.word	0x1001b0cc

100113c8 <MXC_I2C_SetFrequency>:
100113c8:	4b03      	ldr	r3, [pc, #12]	@ (100113d8 <MXC_I2C_SetFrequency+0x10>)
100113ca:	4299      	cmp	r1, r3
100113cc:	d801      	bhi.n	100113d2 <MXC_I2C_SetFrequency+0xa>
100113ce:	f000 b8a1 	b.w	10011514 <MXC_I2C_RevA_SetFrequency>
100113d2:	f06f 0010 	mvn.w	r0, #16
100113d6:	4770      	bx	lr
100113d8:	0033e140 	.word	0x0033e140

100113dc <MXC_I2C_GetFrequency>:
100113dc:	f000 b8ec 	b.w	100115b8 <MXC_I2C_RevA_GetFrequency>

100113e0 <MXC_I2C_ReadRXFIFO>:
100113e0:	f000 b8fa 	b.w	100115d8 <MXC_I2C_RevA_ReadRXFIFO>

100113e4 <MXC_I2C_GetRXFIFOAvailable>:
100113e4:	f000 b910 	b.w	10011608 <MXC_I2C_RevA_GetRXFIFOAvailable>

100113e8 <MXC_I2C_WriteTXFIFO>:
100113e8:	f000 b916 	b.w	10011618 <MXC_I2C_RevA_WriteTXFIFO>

100113ec <MXC_I2C_GetTXFIFOAvailable>:
100113ec:	f000 b92c 	b.w	10011648 <MXC_I2C_RevA_GetTXFIFOAvailable>

100113f0 <MXC_I2C_ClearRXFIFO>:
100113f0:	f000 b936 	b.w	10011660 <MXC_I2C_RevA_ClearRXFIFO>

100113f4 <MXC_I2C_ClearTXFIFO>:
100113f4:	f000 b93c 	b.w	10011670 <MXC_I2C_RevA_ClearTXFIFO>

100113f8 <MXC_I2C_ClearFlags>:
100113f8:	f000 b942 	b.w	10011680 <MXC_I2C_RevA_ClearFlags>

100113fc <MXC_I2C_EnableInt>:
100113fc:	f000 b944 	b.w	10011688 <MXC_I2C_RevA_EnableInt>

10011400 <MXC_I2C_DisableInt>:
10011400:	f000 b94c 	b.w	1001169c <MXC_I2C_RevA_DisableInt>

10011404 <MXC_I2C_Recover>:
10011404:	f000 b956 	b.w	100116b4 <MXC_I2C_RevA_Recover>

10011408 <MXC_I2C_SetRXThreshold>:
10011408:	f000 b9c0 	b.w	1001178c <MXC_I2C_RevA_SetRXThreshold>

1001140c <MXC_I2C_SetTXThreshold>:
1001140c:	f000 b9ce 	b.w	100117ac <MXC_I2C_RevA_SetTXThreshold>

10011410 <MXC_I2C_RevA_Init>:
10011410:	b5f8      	push	{r3, r4, r5, r6, r7, lr}
10011412:	2800      	cmp	r0, #0
10011414:	d058      	beq.n	100114c8 <MXC_I2C_RevA_Init+0xb8>
10011416:	460f      	mov	r7, r1
10011418:	2110      	movs	r1, #16
1001141a:	4615      	mov	r5, r2
1001141c:	4604      	mov	r4, r0
1001141e:	f7ff fff1 	bl	10011404 <MXC_I2C_Recover>
10011422:	4606      	mov	r6, r0
10011424:	b108      	cbz	r0, 1001142a <MXC_I2C_RevA_Init+0x1a>
10011426:	4630      	mov	r0, r6
10011428:	bdf8      	pop	{r3, r4, r5, r6, r7, pc}
1001142a:	6823      	ldr	r3, [r4, #0]
1001142c:	f043 0301 	orr.w	r3, r3, #1
10011430:	6023      	str	r3, [r4, #0]
10011432:	4620      	mov	r0, r4
10011434:	f7ff ffdc 	bl	100113f0 <MXC_I2C_ClearRXFIFO>
10011438:	4620      	mov	r0, r4
1001143a:	f7ff ffdb 	bl	100113f4 <MXC_I2C_ClearTXFIFO>
1001143e:	2102      	movs	r1, #2
10011440:	4620      	mov	r0, r4
10011442:	f7ff ffe3 	bl	1001140c <MXC_I2C_SetTXThreshold>
10011446:	2106      	movs	r1, #6
10011448:	4620      	mov	r0, r4
1001144a:	f7ff ffdd 	bl	10011408 <MXC_I2C_SetRXThreshold>
1001144e:	b1d7      	cbz	r7, 10011486 <MXC_I2C_RevA_Init+0x76>
10011450:	6823      	ldr	r3, [r4, #0]
10011452:	4a1f      	ldr	r2, [pc, #124]	@ (100114d0 <MXC_I2C_RevA_Init+0xc0>)
10011454:	f043 0302 	orr.w	r3, r3, #2
10011458:	4294      	cmp	r4, r2
1001145a:	6023      	str	r3, [r4, #0]
1001145c:	d02e      	beq.n	100114bc <MXC_I2C_RevA_Init+0xac>
1001145e:	4b1d      	ldr	r3, [pc, #116]	@ (100114d4 <MXC_I2C_RevA_Init+0xc4>)
10011460:	429c      	cmp	r4, r3
10011462:	d00e      	beq.n	10011482 <MXC_I2C_RevA_Init+0x72>
10011464:	481c      	ldr	r0, [pc, #112]	@ (100114d8 <MXC_I2C_RevA_Init+0xc8>)
10011466:	4284      	cmp	r4, r0
10011468:	bf0c      	ite	eq
1001146a:	2402      	moveq	r4, #2
1001146c:	f04f 34ff 	movne.w	r4, #4294967295	@ 0xffffffff
10011470:	4b1a      	ldr	r3, [pc, #104]	@ (100114dc <MXC_I2C_RevA_Init+0xcc>)
10011472:	eb04 0444 	add.w	r4, r4, r4, lsl #1
10011476:	eb03 04c4 	add.w	r4, r3, r4, lsl #3
1001147a:	2301      	movs	r3, #1
1001147c:	6063      	str	r3, [r4, #4]
1001147e:	4630      	mov	r0, r6
10011480:	bdf8      	pop	{r3, r4, r5, r6, r7, pc}
10011482:	2401      	movs	r4, #1
10011484:	e7f4      	b.n	10011470 <MXC_I2C_RevA_Init+0x60>
10011486:	463a      	mov	r2, r7
10011488:	4629      	mov	r1, r5
1001148a:	4620      	mov	r0, r4
1001148c:	f7ff ff24 	bl	100112d8 <MXC_I2C_SetSlaveAddr>
10011490:	4b0f      	ldr	r3, [pc, #60]	@ (100114d0 <MXC_I2C_RevA_Init+0xc0>)
10011492:	429c      	cmp	r4, r3
10011494:	d014      	beq.n	100114c0 <MXC_I2C_RevA_Init+0xb0>
10011496:	f503 5380 	add.w	r3, r3, #4096	@ 0x1000
1001149a:	429c      	cmp	r4, r3
1001149c:	d012      	beq.n	100114c4 <MXC_I2C_RevA_Init+0xb4>
1001149e:	490e      	ldr	r1, [pc, #56]	@ (100114d8 <MXC_I2C_RevA_Init+0xc8>)
100114a0:	428c      	cmp	r4, r1
100114a2:	bf0c      	ite	eq
100114a4:	2102      	moveq	r1, #2
100114a6:	f04f 31ff 	movne.w	r1, #4294967295	@ 0xffffffff
100114aa:	4b0c      	ldr	r3, [pc, #48]	@ (100114dc <MXC_I2C_RevA_Init+0xcc>)
100114ac:	eb01 0441 	add.w	r4, r1, r1, lsl #1
100114b0:	eb03 04c4 	add.w	r4, r3, r4, lsl #3
100114b4:	2600      	movs	r6, #0
100114b6:	6066      	str	r6, [r4, #4]
100114b8:	4630      	mov	r0, r6
100114ba:	bdf8      	pop	{r3, r4, r5, r6, r7, pc}
100114bc:	4634      	mov	r4, r6
100114be:	e7d7      	b.n	10011470 <MXC_I2C_RevA_Init+0x60>
100114c0:	4639      	mov	r1, r7
100114c2:	e7f2      	b.n	100114aa <MXC_I2C_RevA_Init+0x9a>
100114c4:	2101      	movs	r1, #1
100114c6:	e7f0      	b.n	100114aa <MXC_I2C_RevA_Init+0x9a>
100114c8:	f04f 36ff 	mov.w	r6, #4294967295	@ 0xffffffff
100114cc:	e7ab      	b.n	10011426 <MXC_I2C_RevA_Init+0x16>
100114ce:	bf00      	nop
100114d0:	4001d000 	.word	0x4001d000
100114d4:	4001e000 	.word	0x4001e000
100114d8:	4001f000 	.word	0x4001f000
100114dc:	20000fe0 	.word	0x20000fe0

100114e0 <MXC_I2C_RevA_SetSlaveAddr>:
100114e0:	4603      	mov	r3, r0
100114e2:	b1a0      	cbz	r0, 1001150e <MXC_I2C_RevA_SetSlaveAddr+0x2e>
100114e4:	b96a      	cbnz	r2, 10011502 <MXC_I2C_RevA_SetSlaveAddr+0x22>
100114e6:	f5b1 6f80 	cmp.w	r1, #1024	@ 0x400
100114ea:	d20d      	bcs.n	10011508 <MXC_I2C_RevA_SetSlaveAddr+0x28>
100114ec:	297f      	cmp	r1, #127	@ 0x7f
100114ee:	64c2      	str	r2, [r0, #76]	@ 0x4c
100114f0:	bf84      	itt	hi
100114f2:	f44f 4200 	movhi.w	r2, #32768	@ 0x8000
100114f6:	64c2      	strhi	r2, [r0, #76]	@ 0x4c
100114f8:	6cc2      	ldr	r2, [r0, #76]	@ 0x4c
100114fa:	4311      	orrs	r1, r2
100114fc:	2000      	movs	r0, #0
100114fe:	64d9      	str	r1, [r3, #76]	@ 0x4c
10011500:	4770      	bx	lr
10011502:	f06f 0010 	mvn.w	r0, #16
10011506:	4770      	bx	lr
10011508:	f06f 0002 	mvn.w	r0, #2
1001150c:	4770      	bx	lr
1001150e:	f04f 30ff 	mov.w	r0, #4294967295	@ 0xffffffff
10011512:	4770      	bx	lr

10011514 <MXC_I2C_RevA_SetFrequency>:
10011514:	2800      	cmp	r0, #0
10011516:	d041      	beq.n	1001159c <MXC_I2C_RevA_SetFrequency+0x88>
10011518:	b410      	push	{r4}
1001151a:	4a22      	ldr	r2, [pc, #136]	@ (100115a4 <MXC_I2C_RevA_SetFrequency+0x90>)
1001151c:	f5a1 2374 	sub.w	r3, r1, #999424	@ 0xf4000
10011520:	f46f 7410 	mvn.w	r4, #576	@ 0x240
10011524:	4423      	add	r3, r4
10011526:	4293      	cmp	r3, r2
10011528:	d314      	bcc.n	10011554 <MXC_I2C_RevA_SetFrequency+0x40>
1001152a:	4b1f      	ldr	r3, [pc, #124]	@ (100115a8 <MXC_I2C_RevA_SetFrequency+0x94>)
1001152c:	4299      	cmp	r1, r3
1001152e:	d830      	bhi.n	10011592 <MXC_I2C_RevA_SetFrequency+0x7e>
10011530:	4b1e      	ldr	r3, [pc, #120]	@ (100115ac <MXC_I2C_RevA_SetFrequency+0x98>)
10011532:	681b      	ldr	r3, [r3, #0]
10011534:	085b      	lsrs	r3, r3, #1
10011536:	fbb3 f1f1 	udiv	r1, r3, r1
1001153a:	0849      	lsrs	r1, r1, #1
1001153c:	1e8b      	subs	r3, r1, #2
1001153e:	f5b3 7fff 	cmp.w	r3, #510	@ 0x1fe
10011542:	f101 31ff 	add.w	r1, r1, #4294967295	@ 0xffffffff
10011546:	d824      	bhi.n	10011592 <MXC_I2C_RevA_SetFrequency+0x7e>
10011548:	6341      	str	r1, [r0, #52]	@ 0x34
1001154a:	f85d 4b04 	ldr.w	r4, [sp], #4
1001154e:	6381      	str	r1, [r0, #56]	@ 0x38
10011550:	f7ff bf44 	b.w	100113dc <MXC_I2C_GetFrequency>
10011554:	4b15      	ldr	r3, [pc, #84]	@ (100115ac <MXC_I2C_RevA_SetFrequency+0x98>)
10011556:	4c16      	ldr	r4, [pc, #88]	@ (100115b0 <MXC_I2C_RevA_SetFrequency+0x9c>)
10011558:	681b      	ldr	r3, [r3, #0]
1001155a:	085b      	lsrs	r3, r3, #1
1001155c:	fbb3 f1f1 	udiv	r1, r3, r1
10011560:	004a      	lsls	r2, r1, #1
10011562:	fba4 c101 	umull	ip, r1, r4, r1
10011566:	0849      	lsrs	r1, r1, #1
10011568:	fba4 4202 	umull	r4, r2, r4, r2
1001156c:	3901      	subs	r1, #1
1001156e:	0852      	lsrs	r2, r2, #1
10011570:	290f      	cmp	r1, #15
10011572:	f102 32ff 	add.w	r2, r2, #4294967295	@ 0xffffffff
10011576:	dc0c      	bgt.n	10011592 <MXC_I2C_RevA_SetFrequency+0x7e>
10011578:	2a0f      	cmp	r2, #15
1001157a:	dc0a      	bgt.n	10011592 <MXC_I2C_RevA_SetFrequency+0x7e>
1001157c:	0209      	lsls	r1, r1, #8
1001157e:	b2d2      	uxtb	r2, r2
10011580:	b289      	uxth	r1, r1
10011582:	4311      	orrs	r1, r2
10011584:	63c1      	str	r1, [r0, #60]	@ 0x3c
10011586:	6802      	ldr	r2, [r0, #0]
10011588:	490a      	ldr	r1, [pc, #40]	@ (100115b4 <MXC_I2C_RevA_SetFrequency+0xa0>)
1001158a:	f442 4200 	orr.w	r2, r2, #32768	@ 0x8000
1001158e:	6002      	str	r2, [r0, #0]
10011590:	e7d1      	b.n	10011536 <MXC_I2C_RevA_SetFrequency+0x22>
10011592:	f06f 0002 	mvn.w	r0, #2
10011596:	f85d 4b04 	ldr.w	r4, [sp], #4
1001159a:	4770      	bx	lr
1001159c:	f04f 30ff 	mov.w	r0, #4294967295	@ 0xffffffff
100115a0:	4770      	bx	lr
100115a2:	bf00      	nop
100115a4:	00249f00 	.word	0x00249f00
100115a8:	0033e140 	.word	0x0033e140
100115ac:	20001740 	.word	0x20001740
100115b0:	aaaaaaab 	.word	0xaaaaaaab
100115b4:	00061a80 	.word	0x00061a80

100115b8 <MXC_I2C_RevA_GetFrequency>:
100115b8:	4906      	ldr	r1, [pc, #24]	@ (100115d4 <MXC_I2C_RevA_GetFrequency+0x1c>)
100115ba:	6b43      	ldr	r3, [r0, #52]	@ 0x34
100115bc:	6b82      	ldr	r2, [r0, #56]	@ 0x38
100115be:	6808      	ldr	r0, [r1, #0]
100115c0:	f3c2 0208 	ubfx	r2, r2, #0, #9
100115c4:	f3c3 0308 	ubfx	r3, r3, #0, #9
100115c8:	4413      	add	r3, r2
100115ca:	0840      	lsrs	r0, r0, #1
100115cc:	fbb0 f0f3 	udiv	r0, r0, r3
100115d0:	4770      	bx	lr
100115d2:	bf00      	nop
100115d4:	20001740 	.word	0x20001740

100115d8 <MXC_I2C_RevA_ReadRXFIFO>:
100115d8:	b198      	cbz	r0, 10011602 <MXC_I2C_RevA_ReadRXFIFO+0x2a>
100115da:	b191      	cbz	r1, 10011602 <MXC_I2C_RevA_ReadRXFIFO+0x2a>
100115dc:	b17a      	cbz	r2, 100115fe <MXC_I2C_RevA_ReadRXFIFO+0x26>
100115de:	2300      	movs	r3, #0
100115e0:	f101 3cff 	add.w	ip, r1, #4294967295	@ 0xffffffff
100115e4:	e006      	b.n	100115f4 <MXC_I2C_RevA_ReadRXFIFO+0x1c>
100115e6:	6ac1      	ldr	r1, [r0, #44]	@ 0x2c
100115e8:	3301      	adds	r3, #1
100115ea:	b2c9      	uxtb	r1, r1
100115ec:	429a      	cmp	r2, r3
100115ee:	f80c 1003 	strb.w	r1, [ip, r3]
100115f2:	d004      	beq.n	100115fe <MXC_I2C_RevA_ReadRXFIFO+0x26>
100115f4:	6841      	ldr	r1, [r0, #4]
100115f6:	0789      	lsls	r1, r1, #30
100115f8:	d5f5      	bpl.n	100115e6 <MXC_I2C_RevA_ReadRXFIFO+0xe>
100115fa:	4618      	mov	r0, r3
100115fc:	4770      	bx	lr
100115fe:	4610      	mov	r0, r2
10011600:	4770      	bx	lr
10011602:	f04f 30ff 	mov.w	r0, #4294967295	@ 0xffffffff
10011606:	4770      	bx	lr

10011608 <MXC_I2C_RevA_GetRXFIFOAvailable>:
10011608:	b118      	cbz	r0, 10011612 <MXC_I2C_RevA_GetRXFIFOAvailable+0xa>
1001160a:	6a00      	ldr	r0, [r0, #32]
1001160c:	f3c0 2003 	ubfx	r0, r0, #8, #4
10011610:	4770      	bx	lr
10011612:	f04f 30ff 	mov.w	r0, #4294967295	@ 0xffffffff
10011616:	4770      	bx	lr

10011618 <MXC_I2C_RevA_WriteTXFIFO>:
10011618:	b198      	cbz	r0, 10011642 <MXC_I2C_RevA_WriteTXFIFO+0x2a>
1001161a:	b191      	cbz	r1, 10011642 <MXC_I2C_RevA_WriteTXFIFO+0x2a>
1001161c:	b17a      	cbz	r2, 1001163e <MXC_I2C_RevA_WriteTXFIFO+0x26>
1001161e:	2300      	movs	r3, #0
10011620:	f101 3cff 	add.w	ip, r1, #4294967295	@ 0xffffffff
10011624:	e006      	b.n	10011634 <MXC_I2C_RevA_WriteTXFIFO+0x1c>
10011626:	3301      	adds	r3, #1
10011628:	429a      	cmp	r2, r3
1001162a:	f81c 1003 	ldrb.w	r1, [ip, r3]
1001162e:	b2c9      	uxtb	r1, r1
10011630:	62c1      	str	r1, [r0, #44]	@ 0x2c
10011632:	d004      	beq.n	1001163e <MXC_I2C_RevA_WriteTXFIFO+0x26>
10011634:	6841      	ldr	r1, [r0, #4]
10011636:	06c9      	lsls	r1, r1, #27
10011638:	d5f5      	bpl.n	10011626 <MXC_I2C_RevA_WriteTXFIFO+0xe>
1001163a:	4618      	mov	r0, r3
1001163c:	4770      	bx	lr
1001163e:	4610      	mov	r0, r2
10011640:	4770      	bx	lr
10011642:	f04f 30ff 	mov.w	r0, #4294967295	@ 0xffffffff
10011646:	4770      	bx	lr

10011648 <MXC_I2C_RevA_GetTXFIFOAvailable>:
10011648:	b138      	cbz	r0, 1001165a <MXC_I2C_RevA_GetTXFIFOAvailable+0x12>
1001164a:	6983      	ldr	r3, [r0, #24]
1001164c:	6a82      	ldr	r2, [r0, #40]	@ 0x28
1001164e:	f3c3 2007 	ubfx	r0, r3, #8, #8
10011652:	f3c2 2303 	ubfx	r3, r2, #8, #4
10011656:	1ac0      	subs	r0, r0, r3
10011658:	4770      	bx	lr
1001165a:	f04f 30ff 	mov.w	r0, #4294967295	@ 0xffffffff
1001165e:	4770      	bx	lr

10011660 <MXC_I2C_RevA_ClearRXFIFO>:
10011660:	69c3      	ldr	r3, [r0, #28]
10011662:	f043 0380 	orr.w	r3, r3, #128	@ 0x80
10011666:	61c3      	str	r3, [r0, #28]
10011668:	69c3      	ldr	r3, [r0, #28]
1001166a:	061b      	lsls	r3, r3, #24
1001166c:	d4fc      	bmi.n	10011668 <MXC_I2C_RevA_ClearRXFIFO+0x8>
1001166e:	4770      	bx	lr

10011670 <MXC_I2C_RevA_ClearTXFIFO>:
10011670:	6a43      	ldr	r3, [r0, #36]	@ 0x24
10011672:	f043 0380 	orr.w	r3, r3, #128	@ 0x80
10011676:	6243      	str	r3, [r0, #36]	@ 0x24
10011678:	6a43      	ldr	r3, [r0, #36]	@ 0x24
1001167a:	061b      	lsls	r3, r3, #24
1001167c:	d4fc      	bmi.n	10011678 <MXC_I2C_RevA_ClearTXFIFO+0x8>
1001167e:	4770      	bx	lr

10011680 <MXC_I2C_RevA_ClearFlags>:
10011680:	6081      	str	r1, [r0, #8]
10011682:	6102      	str	r2, [r0, #16]
10011684:	4770      	bx	lr
10011686:	bf00      	nop

10011688 <MXC_I2C_RevA_EnableInt>:
10011688:	b410      	push	{r4}
1001168a:	68c4      	ldr	r4, [r0, #12]
1001168c:	4321      	orrs	r1, r4
1001168e:	60c1      	str	r1, [r0, #12]
10011690:	6943      	ldr	r3, [r0, #20]
10011692:	f85d 4b04 	ldr.w	r4, [sp], #4
10011696:	431a      	orrs	r2, r3
10011698:	6142      	str	r2, [r0, #20]
1001169a:	4770      	bx	lr

1001169c <MXC_I2C_RevA_DisableInt>:
1001169c:	b410      	push	{r4}
1001169e:	68c4      	ldr	r4, [r0, #12]
100116a0:	ea24 0101 	bic.w	r1, r4, r1
100116a4:	60c1      	str	r1, [r0, #12]
100116a6:	6943      	ldr	r3, [r0, #20]
100116a8:	f85d 4b04 	ldr.w	r4, [sp], #4
100116ac:	ea23 0202 	bic.w	r2, r3, r2
100116b0:	6142      	str	r2, [r0, #20]
100116b2:	4770      	bx	lr

100116b4 <MXC_I2C_RevA_Recover>:
100116b4:	2800      	cmp	r0, #0
100116b6:	d065      	beq.n	10011784 <MXC_I2C_RevA_Recover+0xd0>
100116b8:	6803      	ldr	r3, [r0, #0]
100116ba:	f043 0301 	orr.w	r3, r3, #1
100116be:	e92d 41f0 	stmdb	sp!, {r4, r5, r6, r7, r8, lr}
100116c2:	6003      	str	r3, [r0, #0]
100116c4:	6807      	ldr	r7, [r0, #0]
100116c6:	6803      	ldr	r3, [r0, #0]
100116c8:	f443 6380 	orr.w	r3, r3, #1024	@ 0x400
100116cc:	460e      	mov	r6, r1
100116ce:	4604      	mov	r4, r0
100116d0:	f407 6780 	and.w	r7, r7, #1024	@ 0x400
100116d4:	6003      	str	r3, [r0, #0]
100116d6:	2900      	cmp	r1, #0
100116d8:	d043      	beq.n	10011762 <MXC_I2C_RevA_Recover+0xae>
100116da:	2500      	movs	r5, #0
100116dc:	e02b      	b.n	10011736 <MXC_I2C_RevA_Recover+0x82>
100116de:	f7ff fb05 	bl	10010cec <MXC_Delay>
100116e2:	6823      	ldr	r3, [r4, #0]
100116e4:	f023 0380 	bic.w	r3, r3, #128	@ 0x80
100116e8:	6023      	str	r3, [r4, #0]
100116ea:	200a      	movs	r0, #10
100116ec:	f7ff fafe 	bl	10010cec <MXC_Delay>
100116f0:	6823      	ldr	r3, [r4, #0]
100116f2:	f413 7800 	ands.w	r8, r3, #512	@ 0x200
100116f6:	f04f 000a 	mov.w	r0, #10
100116fa:	d12b      	bne.n	10011754 <MXC_I2C_RevA_Recover+0xa0>
100116fc:	f7ff faf6 	bl	10010cec <MXC_Delay>
10011700:	6823      	ldr	r3, [r4, #0]
10011702:	f043 0380 	orr.w	r3, r3, #128	@ 0x80
10011706:	6023      	str	r3, [r4, #0]
10011708:	200a      	movs	r0, #10
1001170a:	f7ff faef 	bl	10010cec <MXC_Delay>
1001170e:	6823      	ldr	r3, [r4, #0]
10011710:	059a      	lsls	r2, r3, #22
10011712:	f04f 000a 	mov.w	r0, #10
10011716:	d51d      	bpl.n	10011754 <MXC_I2C_RevA_Recover+0xa0>
10011718:	f7ff fae8 	bl	10010cec <MXC_Delay>
1001171c:	6823      	ldr	r3, [r4, #0]
1001171e:	f043 0340 	orr.w	r3, r3, #64	@ 0x40
10011722:	6023      	str	r3, [r4, #0]
10011724:	200a      	movs	r0, #10
10011726:	f7ff fae1 	bl	10010cec <MXC_Delay>
1001172a:	6823      	ldr	r3, [r4, #0]
1001172c:	05db      	lsls	r3, r3, #23
1001172e:	d425      	bmi.n	1001177c <MXC_I2C_RevA_Recover+0xc8>
10011730:	3501      	adds	r5, #1
10011732:	42ae      	cmp	r6, r5
10011734:	d015      	beq.n	10011762 <MXC_I2C_RevA_Recover+0xae>
10011736:	200a      	movs	r0, #10
10011738:	f7ff fad8 	bl	10010cec <MXC_Delay>
1001173c:	6823      	ldr	r3, [r4, #0]
1001173e:	f023 0340 	bic.w	r3, r3, #64	@ 0x40
10011742:	6023      	str	r3, [r4, #0]
10011744:	200a      	movs	r0, #10
10011746:	f7ff fad1 	bl	10010cec <MXC_Delay>
1001174a:	6823      	ldr	r3, [r4, #0]
1001174c:	05d9      	lsls	r1, r3, #23
1001174e:	f04f 000a 	mov.w	r0, #10
10011752:	d5c4      	bpl.n	100116de <MXC_I2C_RevA_Recover+0x2a>
10011754:	6823      	ldr	r3, [r4, #0]
10011756:	3501      	adds	r5, #1
10011758:	f043 03c0 	orr.w	r3, r3, #192	@ 0xc0
1001175c:	42ae      	cmp	r6, r5
1001175e:	6023      	str	r3, [r4, #0]
10011760:	d1e9      	bne.n	10011736 <MXC_I2C_RevA_Recover+0x82>
10011762:	f06f 0008 	mvn.w	r0, #8
10011766:	b91f      	cbnz	r7, 10011770 <MXC_I2C_RevA_Recover+0xbc>
10011768:	6823      	ldr	r3, [r4, #0]
1001176a:	f423 6380 	bic.w	r3, r3, #1024	@ 0x400
1001176e:	6023      	str	r3, [r4, #0]
10011770:	6823      	ldr	r3, [r4, #0]
10011772:	f023 0301 	bic.w	r3, r3, #1
10011776:	6023      	str	r3, [r4, #0]
10011778:	e8bd 81f0 	ldmia.w	sp!, {r4, r5, r6, r7, r8, pc}
1001177c:	4640      	mov	r0, r8
1001177e:	2f00      	cmp	r7, #0
10011780:	d1f6      	bne.n	10011770 <MXC_I2C_RevA_Recover+0xbc>
10011782:	e7f1      	b.n	10011768 <MXC_I2C_RevA_Recover+0xb4>
10011784:	f04f 30ff 	mov.w	r0, #4294967295	@ 0xffffffff
10011788:	4770      	bx	lr
1001178a:	bf00      	nop

1001178c <MXC_I2C_RevA_SetRXThreshold>:
1001178c:	6982      	ldr	r2, [r0, #24]
1001178e:	b2d2      	uxtb	r2, r2
10011790:	428a      	cmp	r2, r1
10011792:	4603      	mov	r3, r0
10011794:	d307      	bcc.n	100117a6 <MXC_I2C_RevA_SetRXThreshold+0x1a>
10011796:	69c2      	ldr	r2, [r0, #28]
10011798:	f422 6270 	bic.w	r2, r2, #3840	@ 0xf00
1001179c:	ea42 2101 	orr.w	r1, r2, r1, lsl #8
100117a0:	2000      	movs	r0, #0
100117a2:	61d9      	str	r1, [r3, #28]
100117a4:	4770      	bx	lr
100117a6:	f06f 0002 	mvn.w	r0, #2
100117aa:	4770      	bx	lr

100117ac <MXC_I2C_RevA_SetTXThreshold>:
100117ac:	6982      	ldr	r2, [r0, #24]
100117ae:	f3c2 2207 	ubfx	r2, r2, #8, #8
100117b2:	428a      	cmp	r2, r1
100117b4:	4603      	mov	r3, r0
100117b6:	d307      	bcc.n	100117c8 <MXC_I2C_RevA_SetTXThreshold+0x1c>
100117b8:	6a42      	ldr	r2, [r0, #36]	@ 0x24
100117ba:	f422 6270 	bic.w	r2, r2, #3840	@ 0xf00
100117be:	ea42 2101 	orr.w	r1, r2, r1, lsl #8
100117c2:	2000      	movs	r0, #0
100117c4:	6259      	str	r1, [r3, #36]	@ 0x24
100117c6:	4770      	bx	lr
100117c8:	f06f 0002 	mvn.w	r0, #2
100117cc:	4770      	bx	lr
100117ce:	bf00      	nop

100117d0 <MXC_ICC_Enable>:
100117d0:	f000 b800 	b.w	100117d4 <MXC_ICC_RevA_Enable>

100117d4 <MXC_ICC_RevA_Enable>:
100117d4:	f8d0 3100 	ldr.w	r3, [r0, #256]	@ 0x100
100117d8:	2201      	movs	r2, #1
100117da:	f023 0301 	bic.w	r3, r3, #1
100117de:	f8c0 3100 	str.w	r3, [r0, #256]	@ 0x100
100117e2:	f8c0 2700 	str.w	r2, [r0, #1792]	@ 0x700
100117e6:	f8d0 3100 	ldr.w	r3, [r0, #256]	@ 0x100
100117ea:	03da      	lsls	r2, r3, #15
100117ec:	d5fb      	bpl.n	100117e6 <MXC_ICC_RevA_Enable+0x12>
100117ee:	f8d0 3100 	ldr.w	r3, [r0, #256]	@ 0x100
100117f2:	f043 0301 	orr.w	r3, r3, #1
100117f6:	f8c0 3100 	str.w	r3, [r0, #256]	@ 0x100
100117fa:	f8d0 3100 	ldr.w	r3, [r0, #256]	@ 0x100
100117fe:	03db      	lsls	r3, r3, #15
10011800:	d5fb      	bpl.n	100117fa <MXC_ICC_RevA_Enable+0x26>
10011802:	4770      	bx	lr

10011804 <MXC_UART_Shutdown>:
10011804:	b508      	push	{r3, lr}
10011806:	4b17      	ldr	r3, [pc, #92]	@ (10011864 <MXC_UART_Shutdown+0x60>)
10011808:	4298      	cmp	r0, r3
1001180a:	d010      	beq.n	1001182e <MXC_UART_Shutdown+0x2a>
1001180c:	4b16      	ldr	r3, [pc, #88]	@ (10011868 <MXC_UART_Shutdown+0x64>)
1001180e:	4298      	cmp	r0, r3
10011810:	d015      	beq.n	1001183e <MXC_UART_Shutdown+0x3a>
10011812:	4b16      	ldr	r3, [pc, #88]	@ (1001186c <MXC_UART_Shutdown+0x68>)
10011814:	4298      	cmp	r0, r3
10011816:	d01a      	beq.n	1001184e <MXC_UART_Shutdown+0x4a>
10011818:	4b15      	ldr	r3, [pc, #84]	@ (10011870 <MXC_UART_Shutdown+0x6c>)
1001181a:	4298      	cmp	r0, r3
1001181c:	d11f      	bne.n	1001185e <MXC_UART_Shutdown+0x5a>
1001181e:	2044      	movs	r0, #68	@ 0x44
10011820:	f7ff fb88 	bl	10010f34 <MXC_SYS_Reset_Periph>
10011824:	2044      	movs	r0, #68	@ 0x44
10011826:	f7ff fac3 	bl	10010db0 <MXC_SYS_ClockDisable>
1001182a:	2000      	movs	r0, #0
1001182c:	bd08      	pop	{r3, pc}
1001182e:	200b      	movs	r0, #11
10011830:	f7ff fb80 	bl	10010f34 <MXC_SYS_Reset_Periph>
10011834:	2009      	movs	r0, #9
10011836:	f7ff fabb 	bl	10010db0 <MXC_SYS_ClockDisable>
1001183a:	2000      	movs	r0, #0
1001183c:	bd08      	pop	{r3, pc}
1001183e:	200c      	movs	r0, #12
10011840:	f7ff fb78 	bl	10010f34 <MXC_SYS_Reset_Periph>
10011844:	200a      	movs	r0, #10
10011846:	f7ff fab3 	bl	10010db0 <MXC_SYS_ClockDisable>
1001184a:	2000      	movs	r0, #0
1001184c:	bd08      	pop	{r3, pc}
1001184e:	201c      	movs	r0, #28
10011850:	f7ff fb70 	bl	10010f34 <MXC_SYS_Reset_Periph>
10011854:	2021      	movs	r0, #33	@ 0x21
10011856:	f7ff faab 	bl	10010db0 <MXC_SYS_ClockDisable>
1001185a:	2000      	movs	r0, #0
1001185c:	bd08      	pop	{r3, pc}
1001185e:	f06f 0002 	mvn.w	r0, #2
10011862:	bd08      	pop	{r3, pc}
10011864:	40042000 	.word	0x40042000
10011868:	40043000 	.word	0x40043000
1001186c:	40044000 	.word	0x40044000
10011870:	40081400 	.word	0x40081400

10011874 <MXC_UART_Init>:
10011874:	b570      	push	{r4, r5, r6, lr}
10011876:	4604      	mov	r4, r0
10011878:	460e      	mov	r6, r1
1001187a:	4615      	mov	r5, r2
1001187c:	f7ff ffc2 	bl	10011804 <MXC_UART_Shutdown>
10011880:	bba8      	cbnz	r0, 100118ee <MXC_UART_Init+0x7a>
10011882:	2d02      	cmp	r5, #2
10011884:	d02d      	beq.n	100118e2 <MXC_UART_Init+0x6e>
10011886:	2d04      	cmp	r5, #4
10011888:	d018      	beq.n	100118bc <MXC_UART_Init+0x48>
1001188a:	4b20      	ldr	r3, [pc, #128]	@ (1001190c <MXC_UART_Init+0x98>)
1001188c:	429c      	cmp	r4, r3
1001188e:	d01b      	beq.n	100118c8 <MXC_UART_Init+0x54>
10011890:	4b1f      	ldr	r3, [pc, #124]	@ (10011910 <MXC_UART_Init+0x9c>)
10011892:	429c      	cmp	r4, r3
10011894:	d02c      	beq.n	100118f0 <MXC_UART_Init+0x7c>
10011896:	4b1f      	ldr	r3, [pc, #124]	@ (10011914 <MXC_UART_Init+0xa0>)
10011898:	429c      	cmp	r4, r3
1001189a:	d030      	beq.n	100118fe <MXC_UART_Init+0x8a>
1001189c:	4b1e      	ldr	r3, [pc, #120]	@ (10011918 <MXC_UART_Init+0xa4>)
1001189e:	429c      	cmp	r4, r3
100118a0:	d123      	bne.n	100118ea <MXC_UART_Init+0x76>
100118a2:	481e      	ldr	r0, [pc, #120]	@ (1001191c <MXC_UART_Init+0xa8>)
100118a4:	f7ff fb8e 	bl	10010fc4 <MXC_GPIO_Config>
100118a8:	2044      	movs	r0, #68	@ 0x44
100118aa:	f7ff faa3 	bl	10010df4 <MXC_SYS_ClockEnable>
100118ae:	462a      	mov	r2, r5
100118b0:	4631      	mov	r1, r6
100118b2:	4620      	mov	r0, r4
100118b4:	e8bd 4070 	ldmia.w	sp!, {r4, r5, r6, lr}
100118b8:	f000 b8f6 	b.w	10011aa8 <MXC_UART_RevB_Init>
100118bc:	2006      	movs	r0, #6
100118be:	f7ff fabf 	bl	10010e40 <MXC_SYS_ClockSourceEnable>
100118c2:	4b12      	ldr	r3, [pc, #72]	@ (1001190c <MXC_UART_Init+0x98>)
100118c4:	429c      	cmp	r4, r3
100118c6:	d1e3      	bne.n	10011890 <MXC_UART_Init+0x1c>
100118c8:	4815      	ldr	r0, [pc, #84]	@ (10011920 <MXC_UART_Init+0xac>)
100118ca:	f7ff fb7b 	bl	10010fc4 <MXC_GPIO_Config>
100118ce:	2009      	movs	r0, #9
100118d0:	f7ff fa90 	bl	10010df4 <MXC_SYS_ClockEnable>
100118d4:	462a      	mov	r2, r5
100118d6:	4631      	mov	r1, r6
100118d8:	4620      	mov	r0, r4
100118da:	e8bd 4070 	ldmia.w	sp!, {r4, r5, r6, lr}
100118de:	f000 b8e3 	b.w	10011aa8 <MXC_UART_RevB_Init>
100118e2:	2005      	movs	r0, #5
100118e4:	f7ff faac 	bl	10010e40 <MXC_SYS_ClockSourceEnable>
100118e8:	e7cf      	b.n	1001188a <MXC_UART_Init+0x16>
100118ea:	f06f 0002 	mvn.w	r0, #2
100118ee:	bd70      	pop	{r4, r5, r6, pc}
100118f0:	480c      	ldr	r0, [pc, #48]	@ (10011924 <MXC_UART_Init+0xb0>)
100118f2:	f7ff fb67 	bl	10010fc4 <MXC_GPIO_Config>
100118f6:	200a      	movs	r0, #10
100118f8:	f7ff fa7c 	bl	10010df4 <MXC_SYS_ClockEnable>
100118fc:	e7d7      	b.n	100118ae <MXC_UART_Init+0x3a>
100118fe:	480a      	ldr	r0, [pc, #40]	@ (10011928 <MXC_UART_Init+0xb4>)
10011900:	f7ff fb60 	bl	10010fc4 <MXC_GPIO_Config>
10011904:	2021      	movs	r0, #33	@ 0x21
10011906:	f7ff fa75 	bl	10010df4 <MXC_SYS_ClockEnable>
1001190a:	e7d0      	b.n	100118ae <MXC_UART_Init+0x3a>
1001190c:	40042000 	.word	0x40042000
10011910:	40043000 	.word	0x40043000
10011914:	40044000 	.word	0x40044000
10011918:	40081400 	.word	0x40081400
1001191c:	1001b108 	.word	0x1001b108
10011920:	1001b0e4 	.word	0x1001b0e4
10011924:	1001b0f0 	.word	0x1001b0f0
10011928:	1001b0fc 	.word	0x1001b0fc

1001192c <MXC_UART_SetFrequency>:
1001192c:	4b30      	ldr	r3, [pc, #192]	@ (100119f0 <MXC_UART_SetFrequency+0xc4>)
1001192e:	4298      	cmp	r0, r3
10011930:	b510      	push	{r4, lr}
10011932:	4604      	mov	r4, r0
10011934:	d016      	beq.n	10011964 <MXC_UART_SetFrequency+0x38>
10011936:	f503 5380 	add.w	r3, r3, #4096	@ 0x1000
1001193a:	4298      	cmp	r0, r3
1001193c:	d012      	beq.n	10011964 <MXC_UART_SetFrequency+0x38>
1001193e:	f503 5380 	add.w	r3, r3, #4096	@ 0x1000
10011942:	4298      	cmp	r0, r3
10011944:	d00e      	beq.n	10011964 <MXC_UART_SetFrequency+0x38>
10011946:	f503 3375 	add.w	r3, r3, #250880	@ 0x3d400
1001194a:	4298      	cmp	r0, r3
1001194c:	d107      	bne.n	1001195e <MXC_UART_SetFrequency+0x32>
1001194e:	2305      	movs	r3, #5
10011950:	2a02      	cmp	r2, #2
10011952:	6143      	str	r3, [r0, #20]
10011954:	d043      	beq.n	100119de <MXC_UART_SetFrequency+0xb2>
10011956:	2a04      	cmp	r2, #4
10011958:	d013      	beq.n	10011982 <MXC_UART_SetFrequency+0x56>
1001195a:	2a00      	cmp	r2, #0
1001195c:	d03f      	beq.n	100119de <MXC_UART_SetFrequency+0xb2>
1001195e:	f06f 0002 	mvn.w	r0, #2
10011962:	bd10      	pop	{r4, pc}
10011964:	2a04      	cmp	r2, #4
10011966:	d0fa      	beq.n	1001195e <MXC_UART_SetFrequency+0x32>
10011968:	4620      	mov	r0, r4
1001196a:	f000 f8d5 	bl	10011b18 <MXC_UART_RevB_SetFrequency>
1001196e:	2800      	cmp	r0, #0
10011970:	ddf7      	ble.n	10011962 <MXC_UART_SetFrequency+0x36>
10011972:	6823      	ldr	r3, [r4, #0]
10011974:	f443 4300 	orr.w	r3, r3, #32768	@ 0x8000
10011978:	6023      	str	r3, [r4, #0]
1001197a:	6823      	ldr	r3, [r4, #0]
1001197c:	031b      	lsls	r3, r3, #12
1001197e:	d5fc      	bpl.n	1001197a <MXC_UART_SetFrequency+0x4e>
10011980:	bd10      	pop	{r4, pc}
10011982:	6802      	ldr	r2, [r0, #0]
10011984:	f44f 3380 	mov.w	r3, #65536	@ 0x10000
10011988:	431a      	orrs	r2, r3
1001198a:	6002      	str	r2, [r0, #0]
1001198c:	6800      	ldr	r0, [r0, #0]
1001198e:	fbb3 f3f1 	udiv	r3, r3, r1
10011992:	f440 1000 	orr.w	r0, r0, #2097152	@ 0x200000
10011996:	f5b1 6f16 	cmp.w	r1, #2400	@ 0x960
1001199a:	6020      	str	r0, [r4, #0]
1001199c:	fb01 f203 	mul.w	r2, r1, r3
100119a0:	bf8c      	ite	hi
100119a2:	2000      	movhi	r0, #0
100119a4:	2001      	movls	r0, #1
100119a6:	f5c2 3280 	rsb	r2, r2, #65536	@ 0x10000
100119aa:	6160      	str	r0, [r4, #20]
100119ac:	b1ab      	cbz	r3, 100119da <MXC_UART_SetFrequency+0xae>
100119ae:	ebb2 0f51 	cmp.w	r2, r1, lsr #1
100119b2:	d812      	bhi.n	100119da <MXC_UART_SetFrequency+0xae>
100119b4:	4a0f      	ldr	r2, [pc, #60]	@ (100119f4 <MXC_UART_SetFrequency+0xc8>)
100119b6:	6113      	str	r3, [r2, #16]
100119b8:	6810      	ldr	r0, [r2, #0]
100119ba:	f400 3040 	and.w	r0, r0, #196608	@ 0x30000
100119be:	f5b0 3f80 	cmp.w	r0, #65536	@ 0x10000
100119c2:	d005      	beq.n	100119d0 <MXC_UART_SetFrequency+0xa4>
100119c4:	6813      	ldr	r3, [r2, #0]
100119c6:	f413 3f40 	tst.w	r3, #196608	@ 0x30000
100119ca:	d1c8      	bne.n	1001195e <MXC_UART_SetFrequency+0x32>
100119cc:	f44f 00e1 	mov.w	r0, #7372800	@ 0x708000
100119d0:	4b08      	ldr	r3, [pc, #32]	@ (100119f4 <MXC_UART_SetFrequency+0xc8>)
100119d2:	691b      	ldr	r3, [r3, #16]
100119d4:	fbb0 f0f3 	udiv	r0, r0, r3
100119d8:	e7c9      	b.n	1001196e <MXC_UART_SetFrequency+0x42>
100119da:	3301      	adds	r3, #1
100119dc:	e7ea      	b.n	100119b4 <MXC_UART_SetFrequency+0x88>
100119de:	f44f 03e1 	mov.w	r3, #7372800	@ 0x708000
100119e2:	fbb3 f3f1 	udiv	r3, r3, r1
100119e6:	fb01 f203 	mul.w	r2, r1, r3
100119ea:	f5c2 02e1 	rsb	r2, r2, #7372800	@ 0x708000
100119ee:	e7dd      	b.n	100119ac <MXC_UART_SetFrequency+0x80>
100119f0:	40042000 	.word	0x40042000
100119f4:	40081400 	.word	0x40081400

100119f8 <MXC_UART_GetFrequency>:
100119f8:	4b12      	ldr	r3, [pc, #72]	@ (10011a44 <MXC_UART_GetFrequency+0x4c>)
100119fa:	4298      	cmp	r0, r3
100119fc:	d01c      	beq.n	10011a38 <MXC_UART_GetFrequency+0x40>
100119fe:	f503 5380 	add.w	r3, r3, #4096	@ 0x1000
10011a02:	4298      	cmp	r0, r3
10011a04:	d018      	beq.n	10011a38 <MXC_UART_GetFrequency+0x40>
10011a06:	f503 5380 	add.w	r3, r3, #4096	@ 0x1000
10011a0a:	4298      	cmp	r0, r3
10011a0c:	d014      	beq.n	10011a38 <MXC_UART_GetFrequency+0x40>
10011a0e:	f503 3375 	add.w	r3, r3, #250880	@ 0x3d400
10011a12:	4298      	cmp	r0, r3
10011a14:	d112      	bne.n	10011a3c <MXC_UART_GetFrequency+0x44>
10011a16:	6803      	ldr	r3, [r0, #0]
10011a18:	f403 3340 	and.w	r3, r3, #196608	@ 0x30000
10011a1c:	f5b3 3f80 	cmp.w	r3, #65536	@ 0x10000
10011a20:	d005      	beq.n	10011a2e <MXC_UART_GetFrequency+0x36>
10011a22:	6803      	ldr	r3, [r0, #0]
10011a24:	f413 3f40 	tst.w	r3, #196608	@ 0x30000
10011a28:	d108      	bne.n	10011a3c <MXC_UART_GetFrequency+0x44>
10011a2a:	f44f 03e1 	mov.w	r3, #7372800	@ 0x708000
10011a2e:	4a06      	ldr	r2, [pc, #24]	@ (10011a48 <MXC_UART_GetFrequency+0x50>)
10011a30:	6910      	ldr	r0, [r2, #16]
10011a32:	fbb3 f0f0 	udiv	r0, r3, r0
10011a36:	4770      	bx	lr
10011a38:	f000 b8bc 	b.w	10011bb4 <MXC_UART_RevB_GetFrequency>
10011a3c:	f06f 0002 	mvn.w	r0, #2
10011a40:	4770      	bx	lr
10011a42:	bf00      	nop
10011a44:	40042000 	.word	0x40042000
10011a48:	40081400 	.word	0x40081400

10011a4c <MXC_UART_SetDataSize>:
10011a4c:	f000 b8f0 	b.w	10011c30 <MXC_UART_RevB_SetDataSize>

10011a50 <MXC_UART_SetStopBits>:
10011a50:	f000 b90e 	b.w	10011c70 <MXC_UART_RevB_SetStopBits>

10011a54 <MXC_UART_SetParity>:
10011a54:	f000 b932 	b.w	10011cbc <MXC_UART_RevB_SetParity>

10011a58 <MXC_UART_ReadCharacterRaw>:
10011a58:	f000 b98a 	b.w	10011d70 <MXC_UART_RevB_ReadCharacterRaw>

10011a5c <MXC_UART_WriteCharacterRaw>:
10011a5c:	f000 b9a4 	b.w	10011da8 <MXC_UART_RevB_WriteCharacterRaw>

10011a60 <MXC_UART_ReadCharacter>:
10011a60:	f000 b808 	b.w	10011a74 <MXC_UART_Common_ReadCharacter>

10011a64 <MXC_UART_WriteCharacter>:
10011a64:	f000 b812 	b.w	10011a8c <MXC_UART_Common_WriteCharacter>

10011a68 <MXC_UART_GetRXFIFOAvailable>:
10011a68:	f000 b9bc 	b.w	10011de4 <MXC_UART_RevB_GetRXFIFOAvailable>

10011a6c <MXC_UART_GetTXFIFOAvailable>:
10011a6c:	f000 b9be 	b.w	10011dec <MXC_UART_RevB_GetTXFIFOAvailable>

10011a70 <MXC_UART_SetRXThreshold>:
10011a70:	f000 b9c2 	b.w	10011df8 <MXC_UART_RevB_SetRXThreshold>

10011a74 <MXC_UART_Common_ReadCharacter>:
10011a74:	b510      	push	{r4, lr}
10011a76:	4604      	mov	r4, r0
10011a78:	4620      	mov	r0, r4
10011a7a:	f7ff fff5 	bl	10011a68 <MXC_UART_GetRXFIFOAvailable>
10011a7e:	2800      	cmp	r0, #0
10011a80:	d0fa      	beq.n	10011a78 <MXC_UART_Common_ReadCharacter+0x4>
10011a82:	4620      	mov	r0, r4
10011a84:	e8bd 4010 	ldmia.w	sp!, {r4, lr}
10011a88:	f7ff bfe6 	b.w	10011a58 <MXC_UART_ReadCharacterRaw>

10011a8c <MXC_UART_Common_WriteCharacter>:
10011a8c:	b538      	push	{r3, r4, r5, lr}
10011a8e:	4604      	mov	r4, r0
10011a90:	460d      	mov	r5, r1
10011a92:	4620      	mov	r0, r4
10011a94:	f7ff ffea 	bl	10011a6c <MXC_UART_GetTXFIFOAvailable>
10011a98:	2800      	cmp	r0, #0
10011a9a:	d0fa      	beq.n	10011a92 <MXC_UART_Common_WriteCharacter+0x6>
10011a9c:	4629      	mov	r1, r5
10011a9e:	4620      	mov	r0, r4
10011aa0:	e8bd 4038 	ldmia.w	sp!, {r3, r4, r5, lr}
10011aa4:	f7ff bfda 	b.w	10011a5c <MXC_UART_WriteCharacterRaw>

10011aa8 <MXC_UART_RevB_Init>:
10011aa8:	4b1a      	ldr	r3, [pc, #104]	@ (10011b14 <MXC_UART_RevB_Init+0x6c>)
10011aaa:	4298      	cmp	r0, r3
10011aac:	b570      	push	{r4, r5, r6, lr}
10011aae:	4604      	mov	r4, r0
10011ab0:	460d      	mov	r5, r1
10011ab2:	4616      	mov	r6, r2
10011ab4:	d00b      	beq.n	10011ace <MXC_UART_RevB_Init+0x26>
10011ab6:	f503 5380 	add.w	r3, r3, #4096	@ 0x1000
10011aba:	4298      	cmp	r0, r3
10011abc:	d007      	beq.n	10011ace <MXC_UART_RevB_Init+0x26>
10011abe:	f503 5380 	add.w	r3, r3, #4096	@ 0x1000
10011ac2:	4298      	cmp	r0, r3
10011ac4:	d003      	beq.n	10011ace <MXC_UART_RevB_Init+0x26>
10011ac6:	f503 3375 	add.w	r3, r3, #250880	@ 0x3d400
10011aca:	4298      	cmp	r0, r3
10011acc:	d11f      	bne.n	10011b0e <MXC_UART_RevB_Init+0x66>
10011ace:	2101      	movs	r1, #1
10011ad0:	4620      	mov	r0, r4
10011ad2:	f7ff ffcd 	bl	10011a70 <MXC_UART_SetRXThreshold>
10011ad6:	b100      	cbz	r0, 10011ada <MXC_UART_RevB_Init+0x32>
10011ad8:	bd70      	pop	{r4, r5, r6, pc}
10011ada:	2108      	movs	r1, #8
10011adc:	4620      	mov	r0, r4
10011ade:	f7ff ffb5 	bl	10011a4c <MXC_UART_SetDataSize>
10011ae2:	2800      	cmp	r0, #0
10011ae4:	d1f8      	bne.n	10011ad8 <MXC_UART_RevB_Init+0x30>
10011ae6:	4601      	mov	r1, r0
10011ae8:	4620      	mov	r0, r4
10011aea:	f7ff ffb3 	bl	10011a54 <MXC_UART_SetParity>
10011aee:	2800      	cmp	r0, #0
10011af0:	d1f2      	bne.n	10011ad8 <MXC_UART_RevB_Init+0x30>
10011af2:	4601      	mov	r1, r0
10011af4:	4620      	mov	r0, r4
10011af6:	f7ff ffab 	bl	10011a50 <MXC_UART_SetStopBits>
10011afa:	2800      	cmp	r0, #0
10011afc:	d1ec      	bne.n	10011ad8 <MXC_UART_RevB_Init+0x30>
10011afe:	4632      	mov	r2, r6
10011b00:	4629      	mov	r1, r5
10011b02:	4620      	mov	r0, r4
10011b04:	f7ff ff12 	bl	1001192c <MXC_UART_SetFrequency>
10011b08:	ea00 70e0 	and.w	r0, r0, r0, asr #31
10011b0c:	bd70      	pop	{r4, r5, r6, pc}
10011b0e:	f06f 0002 	mvn.w	r0, #2
10011b12:	bd70      	pop	{r4, r5, r6, pc}
10011b14:	40042000 	.word	0x40042000

10011b18 <MXC_UART_RevB_SetFrequency>:
10011b18:	4b23      	ldr	r3, [pc, #140]	@ (10011ba8 <MXC_UART_RevB_SetFrequency+0x90>)
10011b1a:	4298      	cmp	r0, r3
10011b1c:	d00b      	beq.n	10011b36 <MXC_UART_RevB_SetFrequency+0x1e>
10011b1e:	f503 5380 	add.w	r3, r3, #4096	@ 0x1000
10011b22:	4298      	cmp	r0, r3
10011b24:	d007      	beq.n	10011b36 <MXC_UART_RevB_SetFrequency+0x1e>
10011b26:	f503 5380 	add.w	r3, r3, #4096	@ 0x1000
10011b2a:	4298      	cmp	r0, r3
10011b2c:	d003      	beq.n	10011b36 <MXC_UART_RevB_SetFrequency+0x1e>
10011b2e:	f503 3375 	add.w	r3, r3, #250880	@ 0x3d400
10011b32:	4298      	cmp	r0, r3
10011b34:	d134      	bne.n	10011ba0 <MXC_UART_RevB_SetFrequency+0x88>
10011b36:	2305      	movs	r3, #5
10011b38:	2a01      	cmp	r2, #1
10011b3a:	b410      	push	{r4}
10011b3c:	6143      	str	r3, [r0, #20]
10011b3e:	d025      	beq.n	10011b8c <MXC_UART_RevB_SetFrequency+0x74>
10011b40:	2a02      	cmp	r2, #2
10011b42:	d016      	beq.n	10011b72 <MXC_UART_RevB_SetFrequency+0x5a>
10011b44:	b122      	cbz	r2, 10011b50 <MXC_UART_RevB_SetFrequency+0x38>
10011b46:	f06f 0002 	mvn.w	r0, #2
10011b4a:	f85d 4b04 	ldr.w	r4, [sp], #4
10011b4e:	4770      	bx	lr
10011b50:	4b16      	ldr	r3, [pc, #88]	@ (10011bac <MXC_UART_RevB_SetFrequency+0x94>)
10011b52:	681a      	ldr	r2, [r3, #0]
10011b54:	0852      	lsrs	r2, r2, #1
10011b56:	fbb2 f3f1 	udiv	r3, r2, r1
10011b5a:	fb01 2213 	mls	r2, r1, r3, r2
10011b5e:	b113      	cbz	r3, 10011b66 <MXC_UART_RevB_SetFrequency+0x4e>
10011b60:	ebb2 0f51 	cmp.w	r2, r1, lsr #1
10011b64:	d900      	bls.n	10011b68 <MXC_UART_RevB_SetFrequency+0x50>
10011b66:	3301      	adds	r3, #1
10011b68:	f85d 4b04 	ldr.w	r4, [sp], #4
10011b6c:	6103      	str	r3, [r0, #16]
10011b6e:	f7ff bf43 	b.w	100119f8 <MXC_UART_GetFrequency>
10011b72:	6804      	ldr	r4, [r0, #0]
10011b74:	f44f 03e1 	mov.w	r3, #7372800	@ 0x708000
10011b78:	f444 3400 	orr.w	r4, r4, #131072	@ 0x20000
10011b7c:	fbb3 f3f1 	udiv	r3, r3, r1
10011b80:	fb01 f203 	mul.w	r2, r1, r3
10011b84:	f5c2 02e1 	rsb	r2, r2, #7372800	@ 0x708000
10011b88:	6004      	str	r4, [r0, #0]
10011b8a:	e7e8      	b.n	10011b5e <MXC_UART_RevB_SetFrequency+0x46>
10011b8c:	6804      	ldr	r4, [r0, #0]
10011b8e:	4a08      	ldr	r2, [pc, #32]	@ (10011bb0 <MXC_UART_RevB_SetFrequency+0x98>)
10011b90:	fbb2 f3f1 	udiv	r3, r2, r1
10011b94:	f444 3480 	orr.w	r4, r4, #65536	@ 0x10000
10011b98:	6004      	str	r4, [r0, #0]
10011b9a:	fb01 2213 	mls	r2, r1, r3, r2
10011b9e:	e7de      	b.n	10011b5e <MXC_UART_RevB_SetFrequency+0x46>
10011ba0:	f06f 0002 	mvn.w	r0, #2
10011ba4:	4770      	bx	lr
10011ba6:	bf00      	nop
10011ba8:	40042000 	.word	0x40042000
10011bac:	20001740 	.word	0x20001740
10011bb0:	047868c0 	.word	0x047868c0

10011bb4 <MXC_UART_RevB_GetFrequency>:
10011bb4:	4b1b      	ldr	r3, [pc, #108]	@ (10011c24 <MXC_UART_RevB_GetFrequency+0x70>)
10011bb6:	4298      	cmp	r0, r3
10011bb8:	d00b      	beq.n	10011bd2 <MXC_UART_RevB_GetFrequency+0x1e>
10011bba:	f503 5380 	add.w	r3, r3, #4096	@ 0x1000
10011bbe:	4298      	cmp	r0, r3
10011bc0:	d007      	beq.n	10011bd2 <MXC_UART_RevB_GetFrequency+0x1e>
10011bc2:	f503 5380 	add.w	r3, r3, #4096	@ 0x1000
10011bc6:	4298      	cmp	r0, r3
10011bc8:	d003      	beq.n	10011bd2 <MXC_UART_RevB_GetFrequency+0x1e>
10011bca:	f503 3375 	add.w	r3, r3, #250880	@ 0x3d400
10011bce:	4298      	cmp	r0, r3
10011bd0:	d125      	bne.n	10011c1e <MXC_UART_RevB_GetFrequency+0x6a>
10011bd2:	6803      	ldr	r3, [r0, #0]
10011bd4:	f403 3340 	and.w	r3, r3, #196608	@ 0x30000
10011bd8:	f5b3 3f80 	cmp.w	r3, #65536	@ 0x10000
10011bdc:	d014      	beq.n	10011c08 <MXC_UART_RevB_GetFrequency+0x54>
10011bde:	6803      	ldr	r3, [r0, #0]
10011be0:	f413 3f40 	tst.w	r3, #196608	@ 0x30000
10011be4:	d106      	bne.n	10011bf4 <MXC_UART_RevB_GetFrequency+0x40>
10011be6:	4b10      	ldr	r3, [pc, #64]	@ (10011c28 <MXC_UART_RevB_GetFrequency+0x74>)
10011be8:	6900      	ldr	r0, [r0, #16]
10011bea:	681b      	ldr	r3, [r3, #0]
10011bec:	085b      	lsrs	r3, r3, #1
10011bee:	fbb3 f0f0 	udiv	r0, r3, r0
10011bf2:	4770      	bx	lr
10011bf4:	6803      	ldr	r3, [r0, #0]
10011bf6:	f403 3340 	and.w	r3, r3, #196608	@ 0x30000
10011bfa:	f5b3 3f00 	cmp.w	r3, #131072	@ 0x20000
10011bfe:	d008      	beq.n	10011c12 <MXC_UART_RevB_GetFrequency+0x5e>
10011c00:	6803      	ldr	r3, [r0, #0]
10011c02:	f06f 0002 	mvn.w	r0, #2
10011c06:	4770      	bx	lr
10011c08:	4b08      	ldr	r3, [pc, #32]	@ (10011c2c <MXC_UART_RevB_GetFrequency+0x78>)
10011c0a:	6900      	ldr	r0, [r0, #16]
10011c0c:	fbb3 f0f0 	udiv	r0, r3, r0
10011c10:	4770      	bx	lr
10011c12:	6900      	ldr	r0, [r0, #16]
10011c14:	f44f 03e1 	mov.w	r3, #7372800	@ 0x708000
10011c18:	fbb3 f0f0 	udiv	r0, r3, r0
10011c1c:	4770      	bx	lr
10011c1e:	f06f 0002 	mvn.w	r0, #2
10011c22:	4770      	bx	lr
10011c24:	40042000 	.word	0x40042000
10011c28:	20001740 	.word	0x20001740
10011c2c:	047868c0 	.word	0x047868c0

10011c30 <MXC_UART_RevB_SetDataSize>:
10011c30:	4a0e      	ldr	r2, [pc, #56]	@ (10011c6c <MXC_UART_RevB_SetDataSize+0x3c>)
10011c32:	4290      	cmp	r0, r2
10011c34:	4603      	mov	r3, r0
10011c36:	d00b      	beq.n	10011c50 <MXC_UART_RevB_SetDataSize+0x20>
10011c38:	f502 5280 	add.w	r2, r2, #4096	@ 0x1000
10011c3c:	4290      	cmp	r0, r2
10011c3e:	d007      	beq.n	10011c50 <MXC_UART_RevB_SetDataSize+0x20>
10011c40:	f502 5280 	add.w	r2, r2, #4096	@ 0x1000
10011c44:	4290      	cmp	r0, r2
10011c46:	d003      	beq.n	10011c50 <MXC_UART_RevB_SetDataSize+0x20>
10011c48:	f502 3275 	add.w	r2, r2, #250880	@ 0x3d400
10011c4c:	4290      	cmp	r0, r2
10011c4e:	d10a      	bne.n	10011c66 <MXC_UART_RevB_SetDataSize+0x36>
10011c50:	3905      	subs	r1, #5
10011c52:	2903      	cmp	r1, #3
10011c54:	d807      	bhi.n	10011c66 <MXC_UART_RevB_SetDataSize+0x36>
10011c56:	681a      	ldr	r2, [r3, #0]
10011c58:	f422 6240 	bic.w	r2, r2, #3072	@ 0xc00
10011c5c:	ea42 2181 	orr.w	r1, r2, r1, lsl #10
10011c60:	2000      	movs	r0, #0
10011c62:	6019      	str	r1, [r3, #0]
10011c64:	4770      	bx	lr
10011c66:	f06f 0002 	mvn.w	r0, #2
10011c6a:	4770      	bx	lr
10011c6c:	40042000 	.word	0x40042000

10011c70 <MXC_UART_RevB_SetStopBits>:
10011c70:	4b11      	ldr	r3, [pc, #68]	@ (10011cb8 <MXC_UART_RevB_SetStopBits+0x48>)
10011c72:	4298      	cmp	r0, r3
10011c74:	d00b      	beq.n	10011c8e <MXC_UART_RevB_SetStopBits+0x1e>
10011c76:	f503 5380 	add.w	r3, r3, #4096	@ 0x1000
10011c7a:	4298      	cmp	r0, r3
10011c7c:	d007      	beq.n	10011c8e <MXC_UART_RevB_SetStopBits+0x1e>
10011c7e:	f503 5380 	add.w	r3, r3, #4096	@ 0x1000
10011c82:	4298      	cmp	r0, r3
10011c84:	d003      	beq.n	10011c8e <MXC_UART_RevB_SetStopBits+0x1e>
10011c86:	f503 3375 	add.w	r3, r3, #250880	@ 0x3d400
10011c8a:	4298      	cmp	r0, r3
10011c8c:	d102      	bne.n	10011c94 <MXC_UART_RevB_SetStopBits+0x24>
10011c8e:	b161      	cbz	r1, 10011caa <MXC_UART_RevB_SetStopBits+0x3a>
10011c90:	2901      	cmp	r1, #1
10011c92:	d003      	beq.n	10011c9c <MXC_UART_RevB_SetStopBits+0x2c>
10011c94:	f06f 0102 	mvn.w	r1, #2
10011c98:	4608      	mov	r0, r1
10011c9a:	4770      	bx	lr
10011c9c:	6803      	ldr	r3, [r0, #0]
10011c9e:	2100      	movs	r1, #0
10011ca0:	f443 5380 	orr.w	r3, r3, #4096	@ 0x1000
10011ca4:	6003      	str	r3, [r0, #0]
10011ca6:	4608      	mov	r0, r1
10011ca8:	4770      	bx	lr
10011caa:	6803      	ldr	r3, [r0, #0]
10011cac:	f423 5380 	bic.w	r3, r3, #4096	@ 0x1000
10011cb0:	6003      	str	r3, [r0, #0]
10011cb2:	4608      	mov	r0, r1
10011cb4:	4770      	bx	lr
10011cb6:	bf00      	nop
10011cb8:	40042000 	.word	0x40042000

10011cbc <MXC_UART_RevB_SetParity>:
10011cbc:	4a2b      	ldr	r2, [pc, #172]	@ (10011d6c <MXC_UART_RevB_SetParity+0xb0>)
10011cbe:	4290      	cmp	r0, r2
10011cc0:	4603      	mov	r3, r0
10011cc2:	d00b      	beq.n	10011cdc <MXC_UART_RevB_SetParity+0x20>
10011cc4:	f502 5280 	add.w	r2, r2, #4096	@ 0x1000
10011cc8:	4290      	cmp	r0, r2
10011cca:	d007      	beq.n	10011cdc <MXC_UART_RevB_SetParity+0x20>
10011ccc:	f502 5280 	add.w	r2, r2, #4096	@ 0x1000
10011cd0:	4290      	cmp	r0, r2
10011cd2:	d003      	beq.n	10011cdc <MXC_UART_RevB_SetParity+0x20>
10011cd4:	f502 3275 	add.w	r2, r2, #250880	@ 0x3d400
10011cd8:	4290      	cmp	r0, r2
10011cda:	d144      	bne.n	10011d66 <MXC_UART_RevB_SetParity+0xaa>
10011cdc:	2904      	cmp	r1, #4
10011cde:	d842      	bhi.n	10011d66 <MXC_UART_RevB_SetParity+0xaa>
10011ce0:	e8df f001 	tbb	[pc, r1]
10011ce4:	33251711 	.word	0x33251711
10011ce8:	03          	.byte	0x03
10011ce9:	00          	.byte	0x00
10011cea:	681a      	ldr	r2, [r3, #0]
10011cec:	f042 0210 	orr.w	r2, r2, #16
10011cf0:	601a      	str	r2, [r3, #0]
10011cf2:	681a      	ldr	r2, [r3, #0]
10011cf4:	f042 0220 	orr.w	r2, r2, #32
10011cf8:	601a      	str	r2, [r3, #0]
10011cfa:	681a      	ldr	r2, [r3, #0]
10011cfc:	f042 0240 	orr.w	r2, r2, #64	@ 0x40
10011d00:	2000      	movs	r0, #0
10011d02:	601a      	str	r2, [r3, #0]
10011d04:	4770      	bx	lr
10011d06:	681a      	ldr	r2, [r3, #0]
10011d08:	f022 0210 	bic.w	r2, r2, #16
10011d0c:	2000      	movs	r0, #0
10011d0e:	601a      	str	r2, [r3, #0]
10011d10:	4770      	bx	lr
10011d12:	681a      	ldr	r2, [r3, #0]
10011d14:	f042 0210 	orr.w	r2, r2, #16
10011d18:	601a      	str	r2, [r3, #0]
10011d1a:	681a      	ldr	r2, [r3, #0]
10011d1c:	f022 0220 	bic.w	r2, r2, #32
10011d20:	601a      	str	r2, [r3, #0]
10011d22:	681a      	ldr	r2, [r3, #0]
10011d24:	f022 0240 	bic.w	r2, r2, #64	@ 0x40
10011d28:	2000      	movs	r0, #0
10011d2a:	601a      	str	r2, [r3, #0]
10011d2c:	4770      	bx	lr
10011d2e:	681a      	ldr	r2, [r3, #0]
10011d30:	f042 0210 	orr.w	r2, r2, #16
10011d34:	601a      	str	r2, [r3, #0]
10011d36:	681a      	ldr	r2, [r3, #0]
10011d38:	f022 0220 	bic.w	r2, r2, #32
10011d3c:	601a      	str	r2, [r3, #0]
10011d3e:	681a      	ldr	r2, [r3, #0]
10011d40:	f042 0240 	orr.w	r2, r2, #64	@ 0x40
10011d44:	2000      	movs	r0, #0
10011d46:	601a      	str	r2, [r3, #0]
10011d48:	4770      	bx	lr
10011d4a:	681a      	ldr	r2, [r3, #0]
10011d4c:	f042 0210 	orr.w	r2, r2, #16
10011d50:	601a      	str	r2, [r3, #0]
10011d52:	681a      	ldr	r2, [r3, #0]
10011d54:	f042 0220 	orr.w	r2, r2, #32
10011d58:	601a      	str	r2, [r3, #0]
10011d5a:	681a      	ldr	r2, [r3, #0]
10011d5c:	f022 0240 	bic.w	r2, r2, #64	@ 0x40
10011d60:	2000      	movs	r0, #0
10011d62:	601a      	str	r2, [r3, #0]
10011d64:	4770      	bx	lr
10011d66:	f06f 0002 	mvn.w	r0, #2
10011d6a:	4770      	bx	lr
10011d6c:	40042000 	.word	0x40042000

10011d70 <MXC_UART_RevB_ReadCharacterRaw>:
10011d70:	4b0c      	ldr	r3, [pc, #48]	@ (10011da4 <MXC_UART_RevB_ReadCharacterRaw+0x34>)
10011d72:	4298      	cmp	r0, r3
10011d74:	d00b      	beq.n	10011d8e <MXC_UART_RevB_ReadCharacterRaw+0x1e>
10011d76:	f503 5380 	add.w	r3, r3, #4096	@ 0x1000
10011d7a:	4298      	cmp	r0, r3
10011d7c:	d007      	beq.n	10011d8e <MXC_UART_RevB_ReadCharacterRaw+0x1e>
10011d7e:	f503 5380 	add.w	r3, r3, #4096	@ 0x1000
10011d82:	4298      	cmp	r0, r3
10011d84:	d003      	beq.n	10011d8e <MXC_UART_RevB_ReadCharacterRaw+0x1e>
10011d86:	f503 3375 	add.w	r3, r3, #250880	@ 0x3d400
10011d8a:	4298      	cmp	r0, r3
10011d8c:	d104      	bne.n	10011d98 <MXC_UART_RevB_ReadCharacterRaw+0x28>
10011d8e:	6843      	ldr	r3, [r0, #4]
10011d90:	06db      	lsls	r3, r3, #27
10011d92:	d404      	bmi.n	10011d9e <MXC_UART_RevB_ReadCharacterRaw+0x2e>
10011d94:	6a00      	ldr	r0, [r0, #32]
10011d96:	4770      	bx	lr
10011d98:	f06f 0002 	mvn.w	r0, #2
10011d9c:	4770      	bx	lr
10011d9e:	f06f 000c 	mvn.w	r0, #12
10011da2:	4770      	bx	lr
10011da4:	40042000 	.word	0x40042000

10011da8 <MXC_UART_RevB_WriteCharacterRaw>:
10011da8:	4b0d      	ldr	r3, [pc, #52]	@ (10011de0 <MXC_UART_RevB_WriteCharacterRaw+0x38>)
10011daa:	4298      	cmp	r0, r3
10011dac:	d00b      	beq.n	10011dc6 <MXC_UART_RevB_WriteCharacterRaw+0x1e>
10011dae:	f503 5380 	add.w	r3, r3, #4096	@ 0x1000
10011db2:	4298      	cmp	r0, r3
10011db4:	d007      	beq.n	10011dc6 <MXC_UART_RevB_WriteCharacterRaw+0x1e>
10011db6:	f503 5380 	add.w	r3, r3, #4096	@ 0x1000
10011dba:	4298      	cmp	r0, r3
10011dbc:	d003      	beq.n	10011dc6 <MXC_UART_RevB_WriteCharacterRaw+0x1e>
10011dbe:	f503 3375 	add.w	r3, r3, #250880	@ 0x3d400
10011dc2:	4298      	cmp	r0, r3
10011dc4:	d106      	bne.n	10011dd4 <MXC_UART_RevB_WriteCharacterRaw+0x2c>
10011dc6:	6843      	ldr	r3, [r0, #4]
10011dc8:	f013 0380 	ands.w	r3, r3, #128	@ 0x80
10011dcc:	d105      	bne.n	10011dda <MXC_UART_RevB_WriteCharacterRaw+0x32>
10011dce:	6201      	str	r1, [r0, #32]
10011dd0:	4618      	mov	r0, r3
10011dd2:	4770      	bx	lr
10011dd4:	f06f 0002 	mvn.w	r0, #2
10011dd8:	4770      	bx	lr
10011dda:	f06f 000b 	mvn.w	r0, #11
10011dde:	4770      	bx	lr
10011de0:	40042000 	.word	0x40042000

10011de4 <MXC_UART_RevB_GetRXFIFOAvailable>:
10011de4:	6840      	ldr	r0, [r0, #4]
10011de6:	f3c0 2003 	ubfx	r0, r0, #8, #4
10011dea:	4770      	bx	lr

10011dec <MXC_UART_RevB_GetTXFIFOAvailable>:
10011dec:	6840      	ldr	r0, [r0, #4]
10011dee:	f3c0 3003 	ubfx	r0, r0, #12, #4
10011df2:	f1c0 0008 	rsb	r0, r0, #8
10011df6:	4770      	bx	lr

10011df8 <MXC_UART_RevB_SetRXThreshold>:
10011df8:	4a0e      	ldr	r2, [pc, #56]	@ (10011e34 <MXC_UART_RevB_SetRXThreshold+0x3c>)
10011dfa:	4290      	cmp	r0, r2
10011dfc:	4603      	mov	r3, r0
10011dfe:	d00b      	beq.n	10011e18 <MXC_UART_RevB_SetRXThreshold+0x20>
10011e00:	f502 5280 	add.w	r2, r2, #4096	@ 0x1000
10011e04:	4290      	cmp	r0, r2
10011e06:	d007      	beq.n	10011e18 <MXC_UART_RevB_SetRXThreshold+0x20>
10011e08:	f502 5280 	add.w	r2, r2, #4096	@ 0x1000
10011e0c:	4290      	cmp	r0, r2
10011e0e:	d003      	beq.n	10011e18 <MXC_UART_RevB_SetRXThreshold+0x20>
10011e10:	f502 3275 	add.w	r2, r2, #250880	@ 0x3d400
10011e14:	4290      	cmp	r0, r2
10011e16:	d109      	bne.n	10011e2c <MXC_UART_RevB_SetRXThreshold+0x34>
10011e18:	1e4a      	subs	r2, r1, #1
10011e1a:	2a07      	cmp	r2, #7
10011e1c:	d806      	bhi.n	10011e2c <MXC_UART_RevB_SetRXThreshold+0x34>
10011e1e:	681a      	ldr	r2, [r3, #0]
10011e20:	f022 020f 	bic.w	r2, r2, #15
10011e24:	4311      	orrs	r1, r2
10011e26:	2000      	movs	r0, #0
10011e28:	6019      	str	r1, [r3, #0]
10011e2a:	4770      	bx	lr
10011e2c:	f06f 0002 	mvn.w	r0, #2
10011e30:	4770      	bx	lr
10011e32:	bf00      	nop
10011e34:	40042000 	.word	0x40042000

10011e38 <MXC_GPIO_Common_Init>:
10011e38:	b510      	push	{r4, lr}
10011e3a:	4c06      	ldr	r4, [pc, #24]	@ (10011e54 <MXC_GPIO_Common_Init+0x1c>)
10011e3c:	7821      	ldrb	r1, [r4, #0]
10011e3e:	b931      	cbnz	r1, 10011e4e <MXC_GPIO_Common_Init+0x16>
10011e40:	4805      	ldr	r0, [pc, #20]	@ (10011e58 <MXC_GPIO_Common_Init+0x20>)
10011e42:	f44f 7200 	mov.w	r2, #512	@ 0x200
10011e46:	f002 f907 	bl	10014058 <memset>
10011e4a:	2301      	movs	r3, #1
10011e4c:	7023      	strb	r3, [r4, #0]
10011e4e:	2000      	movs	r0, #0
10011e50:	bd10      	pop	{r4, pc}
10011e52:	bf00      	nop
10011e54:	20001428 	.word	0x20001428
10011e58:	20001028 	.word	0x20001028

10011e5c <MXC_GPIO_Common_Handler>:
10011e5c:	2803      	cmp	r0, #3
10011e5e:	b570      	push	{r4, r5, r6, lr}
10011e60:	4605      	mov	r5, r0
10011e62:	d825      	bhi.n	10011eb0 <MXC_GPIO_Common_Handler+0x54>
10011e64:	b9e0      	cbnz	r0, 10011ea0 <MXC_GPIO_Common_Handler+0x44>
10011e66:	4e17      	ldr	r6, [pc, #92]	@ (10011ec4 <MXC_GPIO_Common_Handler+0x68>)
10011e68:	4630      	mov	r0, r6
10011e6a:	f7ff f9dd 	bl	10011228 <MXC_GPIO_GetFlags>
10011e6e:	4604      	mov	r4, r0
10011e70:	4601      	mov	r1, r0
10011e72:	4630      	mov	r0, r6
10011e74:	f7ff f9d6 	bl	10011224 <MXC_GPIO_ClearFlags>
10011e78:	b18c      	cbz	r4, 10011e9e <MXC_GPIO_Common_Handler+0x42>
10011e7a:	4e13      	ldr	r6, [pc, #76]	@ (10011ec8 <MXC_GPIO_Common_Handler+0x6c>)
10011e7c:	4b13      	ldr	r3, [pc, #76]	@ (10011ecc <MXC_GPIO_Common_Handler+0x70>)
10011e7e:	eb06 16c5 	add.w	r6, r6, r5, lsl #7
10011e82:	eb03 15c5 	add.w	r5, r3, r5, lsl #7
10011e86:	07e3      	lsls	r3, r4, #31
10011e88:	d503      	bpl.n	10011e92 <MXC_GPIO_Common_Handler+0x36>
10011e8a:	682b      	ldr	r3, [r5, #0]
10011e8c:	b10b      	cbz	r3, 10011e92 <MXC_GPIO_Common_Handler+0x36>
10011e8e:	6830      	ldr	r0, [r6, #0]
10011e90:	4798      	blx	r3
10011e92:	0864      	lsrs	r4, r4, #1
10011e94:	f106 0604 	add.w	r6, r6, #4
10011e98:	f105 0504 	add.w	r5, r5, #4
10011e9c:	d1f3      	bne.n	10011e86 <MXC_GPIO_Common_Handler+0x2a>
10011e9e:	bd70      	pop	{r4, r5, r6, pc}
10011ea0:	2801      	cmp	r0, #1
10011ea2:	d00c      	beq.n	10011ebe <MXC_GPIO_Common_Handler+0x62>
10011ea4:	4e0a      	ldr	r6, [pc, #40]	@ (10011ed0 <MXC_GPIO_Common_Handler+0x74>)
10011ea6:	4b0b      	ldr	r3, [pc, #44]	@ (10011ed4 <MXC_GPIO_Common_Handler+0x78>)
10011ea8:	2802      	cmp	r0, #2
10011eaa:	bf18      	it	ne
10011eac:	461e      	movne	r6, r3
10011eae:	e7db      	b.n	10011e68 <MXC_GPIO_Common_Handler+0xc>
10011eb0:	4909      	ldr	r1, [pc, #36]	@ (10011ed8 <MXC_GPIO_Common_Handler+0x7c>)
10011eb2:	480a      	ldr	r0, [pc, #40]	@ (10011edc <MXC_GPIO_Common_Handler+0x80>)
10011eb4:	225a      	movs	r2, #90	@ 0x5a
10011eb6:	f7fe fc2b 	bl	10010710 <mxc_assert>
10011eba:	2600      	movs	r6, #0
10011ebc:	e7d4      	b.n	10011e68 <MXC_GPIO_Common_Handler+0xc>
10011ebe:	4e08      	ldr	r6, [pc, #32]	@ (10011ee0 <MXC_GPIO_Common_Handler+0x84>)
10011ec0:	e7d2      	b.n	10011e68 <MXC_GPIO_Common_Handler+0xc>
10011ec2:	bf00      	nop
10011ec4:	40008000 	.word	0x40008000
10011ec8:	20001228 	.word	0x20001228
10011ecc:	20001028 	.word	0x20001028
10011ed0:	40080400 	.word	0x40080400
10011ed4:	40080600 	.word	0x40080600
10011ed8:	1001b114 	.word	0x1001b114
10011edc:	1001b174 	.word	0x1001b174
10011ee0:	40009000 	.word	0x40009000

10011ee4 <sprintf>:
10011ee4:	b40e      	push	{r1, r2, r3}
10011ee6:	b510      	push	{r4, lr}
10011ee8:	b09d      	sub	sp, #116	@ 0x74
10011eea:	f06f 4100 	mvn.w	r1, #2147483648	@ 0x80000000
10011eee:	ab1f      	add	r3, sp, #124	@ 0x7c
10011ef0:	9104      	str	r1, [sp, #16]
10011ef2:	9107      	str	r1, [sp, #28]
10011ef4:	4909      	ldr	r1, [pc, #36]	@ (10011f1c <sprintf+0x38>)
10011ef6:	f853 2b04 	ldr.w	r2, [r3], #4
10011efa:	9002      	str	r0, [sp, #8]
10011efc:	9006      	str	r0, [sp, #24]
10011efe:	4c08      	ldr	r4, [pc, #32]	@ (10011f20 <sprintf+0x3c>)
10011f00:	6808      	ldr	r0, [r1, #0]
10011f02:	9301      	str	r3, [sp, #4]
10011f04:	a902      	add	r1, sp, #8
10011f06:	9405      	str	r4, [sp, #20]
10011f08:	f000 f812 	bl	10011f30 <_svfprintf_r>
10011f0c:	9b02      	ldr	r3, [sp, #8]
10011f0e:	2200      	movs	r2, #0
10011f10:	701a      	strb	r2, [r3, #0]
10011f12:	b01d      	add	sp, #116	@ 0x74
10011f14:	e8bd 4010 	ldmia.w	sp!, {r4, lr}
10011f18:	b003      	add	sp, #12
10011f1a:	4770      	bx	lr
10011f1c:	200005b8 	.word	0x200005b8
10011f20:	ffff0208 	.word	0xffff0208

10011f24 <__errno>:
10011f24:	4b01      	ldr	r3, [pc, #4]	@ (10011f2c <__errno+0x8>)
10011f26:	6818      	ldr	r0, [r3, #0]
10011f28:	4770      	bx	lr
10011f2a:	bf00      	nop
10011f2c:	200005b8 	.word	0x200005b8

10011f30 <_svfprintf_r>:
10011f30:	e92d 4ff0 	stmdb	sp!, {r4, r5, r6, r7, r8, r9, sl, fp, lr}
10011f34:	b0df      	sub	sp, #380	@ 0x17c
10011f36:	460c      	mov	r4, r1
10011f38:	9109      	str	r1, [sp, #36]	@ 0x24
10011f3a:	4691      	mov	r9, r2
10011f3c:	930d      	str	r3, [sp, #52]	@ 0x34
10011f3e:	4683      	mov	fp, r0
10011f40:	f002 f94c 	bl	100141dc <_localeconv_r>
10011f44:	6803      	ldr	r3, [r0, #0]
10011f46:	931a      	str	r3, [sp, #104]	@ 0x68
10011f48:	4618      	mov	r0, r3
10011f4a:	f003 fb59 	bl	10015600 <strlen>
10011f4e:	2208      	movs	r2, #8
10011f50:	9018      	str	r0, [sp, #96]	@ 0x60
10011f52:	2100      	movs	r1, #0
10011f54:	a82e      	add	r0, sp, #184	@ 0xb8
10011f56:	f002 f87f 	bl	10014058 <memset>
10011f5a:	89a3      	ldrh	r3, [r4, #12]
10011f5c:	061a      	lsls	r2, r3, #24
10011f5e:	d503      	bpl.n	10011f68 <_svfprintf_r+0x38>
10011f60:	6923      	ldr	r3, [r4, #16]
10011f62:	2b00      	cmp	r3, #0
10011f64:	f000 8790 	beq.w	10012e88 <_svfprintf_r+0xf58>
10011f68:	ed9f 7b7f 	vldr	d7, [pc, #508]	@ 10012168 <_svfprintf_r+0x238>
10011f6c:	2300      	movs	r3, #0
10011f6e:	e9cd 3333 	strd	r3, r3, [sp, #204]	@ 0xcc
10011f72:	e9cd 331b 	strd	r3, r3, [sp, #108]	@ 0x6c
10011f76:	e9cd 331d 	strd	r3, r3, [sp, #116]	@ 0x74
10011f7a:	ed8d 7b16 	vstr	d7, [sp, #88]	@ 0x58
10011f7e:	aa35      	add	r2, sp, #212	@ 0xd4
10011f80:	9313      	str	r3, [sp, #76]	@ 0x4c
10011f82:	9232      	str	r2, [sp, #200]	@ 0xc8
10011f84:	4690      	mov	r8, r2
10011f86:	9319      	str	r3, [sp, #100]	@ 0x64
10011f88:	930a      	str	r3, [sp, #40]	@ 0x28
10011f8a:	f8cd b01c 	str.w	fp, [sp, #28]
10011f8e:	464d      	mov	r5, r9
10011f90:	9f07      	ldr	r7, [sp, #28]
10011f92:	462e      	mov	r6, r5
10011f94:	4b76      	ldr	r3, [pc, #472]	@ (10012170 <_svfprintf_r+0x240>)
10011f96:	f8d3 40e4 	ldr.w	r4, [r3, #228]	@ 0xe4
10011f9a:	f002 f919 	bl	100141d0 <__locale_mb_cur_max>
10011f9e:	4603      	mov	r3, r0
10011fa0:	a82e      	add	r0, sp, #184	@ 0xb8
10011fa2:	9000      	str	r0, [sp, #0]
10011fa4:	4632      	mov	r2, r6
10011fa6:	a92a      	add	r1, sp, #168	@ 0xa8
10011fa8:	4638      	mov	r0, r7
10011faa:	47a0      	blx	r4
10011fac:	2800      	cmp	r0, #0
10011fae:	f000 80a9 	beq.w	10012104 <_svfprintf_r+0x1d4>
10011fb2:	f2c0 809f 	blt.w	100120f4 <_svfprintf_r+0x1c4>
10011fb6:	9a2a      	ldr	r2, [sp, #168]	@ 0xa8
10011fb8:	2a25      	cmp	r2, #37	@ 0x25
10011fba:	4603      	mov	r3, r0
10011fbc:	d001      	beq.n	10011fc2 <_svfprintf_r+0x92>
10011fbe:	441e      	add	r6, r3
10011fc0:	e7e8      	b.n	10011f94 <_svfprintf_r+0x64>
10011fc2:	1b77      	subs	r7, r6, r5
10011fc4:	4604      	mov	r4, r0
10011fc6:	f040 80a0 	bne.w	1001210a <_svfprintf_r+0x1da>
10011fca:	2300      	movs	r3, #0
10011fcc:	f88d 309f 	strb.w	r3, [sp, #159]	@ 0x9f
10011fd0:	4699      	mov	r9, r3
10011fd2:	930b      	str	r3, [sp, #44]	@ 0x2c
10011fd4:	f04f 32ff 	mov.w	r2, #4294967295	@ 0xffffffff
10011fd8:	7873      	ldrb	r3, [r6, #1]
10011fda:	9208      	str	r2, [sp, #32]
10011fdc:	1c74      	adds	r4, r6, #1
10011fde:	3401      	adds	r4, #1
10011fe0:	f1a3 0220 	sub.w	r2, r3, #32
10011fe4:	2a5a      	cmp	r2, #90	@ 0x5a
10011fe6:	f200 80c5 	bhi.w	10012174 <_svfprintf_r+0x244>
10011fea:	e8df f012 	tbh	[pc, r2, lsl #1]
10011fee:	02ee      	.short	0x02ee
10011ff0:	00c300c3 	.word	0x00c300c3
10011ff4:	00c302ea 	.word	0x00c302ea
10011ff8:	00c300c3 	.word	0x00c300c3
10011ffc:	00c3006a 	.word	0x00c3006a
10012000:	025100c3 	.word	0x025100c3
10012004:	00c30260 	.word	0x00c30260
10012008:	02fc025c 	.word	0x02fc025c
1001200c:	02f800c3 	.word	0x02f800c3
10012010:	005b005b 	.word	0x005b005b
10012014:	005b005b 	.word	0x005b005b
10012018:	005b005b 	.word	0x005b005b
1001201c:	005b005b 	.word	0x005b005b
10012020:	00c3005b 	.word	0x00c3005b
10012024:	00c300c3 	.word	0x00c300c3
10012028:	00c300c3 	.word	0x00c300c3
1001202c:	00c300c3 	.word	0x00c300c3
10012030:	00c30144 	.word	0x00c30144
10012034:	031601d0 	.word	0x031601d0
10012038:	01440144 	.word	0x01440144
1001203c:	00c30144 	.word	0x00c30144
10012040:	00c300c3 	.word	0x00c300c3
10012044:	02e600c3 	.word	0x02e600c3
10012048:	00c300c3 	.word	0x00c300c3
1001204c:	00c30265 	.word	0x00c30265
10012050:	00c300c3 	.word	0x00c300c3
10012054:	00c301fa 	.word	0x00c301fa
10012058:	00c302d3 	.word	0x00c302d3
1001205c:	070e00c3 	.word	0x070e00c3
10012060:	00c300c3 	.word	0x00c300c3
10012064:	00c300c3 	.word	0x00c300c3
10012068:	00c300c3 	.word	0x00c300c3
1001206c:	00c300c3 	.word	0x00c300c3
10012070:	00c30144 	.word	0x00c30144
10012074:	022c01d0 	.word	0x022c01d0
10012078:	01440144 	.word	0x01440144
1001207c:	02960144 	.word	0x02960144
10012080:	007f022c 	.word	0x007f022c
10012084:	02af00c3 	.word	0x02af00c3
10012088:	02a000c3 	.word	0x02a000c3
1001208c:	02c10703 	.word	0x02c10703
10012090:	00c3007f 	.word	0x00c3007f
10012094:	007d01fa 	.word	0x007d01fa
10012098:	00c30709 	.word	0x00c30709
1001209c:	073200c3 	.word	0x073200c3
100120a0:	007d00c3 	.word	0x007d00c3
100120a4:	f1a3 0230 	sub.w	r2, r3, #48	@ 0x30
100120a8:	2100      	movs	r1, #0
100120aa:	f814 3b01 	ldrb.w	r3, [r4], #1
100120ae:	eb01 0181 	add.w	r1, r1, r1, lsl #2
100120b2:	eb02 0141 	add.w	r1, r2, r1, lsl #1
100120b6:	f1a3 0230 	sub.w	r2, r3, #48	@ 0x30
100120ba:	2a09      	cmp	r2, #9
100120bc:	d9f5      	bls.n	100120aa <_svfprintf_r+0x17a>
100120be:	910b      	str	r1, [sp, #44]	@ 0x2c
100120c0:	e78e      	b.n	10011fe0 <_svfprintf_r+0xb0>
100120c2:	9f07      	ldr	r7, [sp, #28]
100120c4:	4638      	mov	r0, r7
100120c6:	f002 f889 	bl	100141dc <_localeconv_r>
100120ca:	6843      	ldr	r3, [r0, #4]
100120cc:	931d      	str	r3, [sp, #116]	@ 0x74
100120ce:	4618      	mov	r0, r3
100120d0:	f003 fa96 	bl	10015600 <strlen>
100120d4:	901e      	str	r0, [sp, #120]	@ 0x78
100120d6:	4606      	mov	r6, r0
100120d8:	4638      	mov	r0, r7
100120da:	f002 f87f 	bl	100141dc <_localeconv_r>
100120de:	6883      	ldr	r3, [r0, #8]
100120e0:	931b      	str	r3, [sp, #108]	@ 0x6c
100120e2:	2e00      	cmp	r6, #0
100120e4:	f040 861e 	bne.w	10012d24 <_svfprintf_r+0xdf4>
100120e8:	7823      	ldrb	r3, [r4, #0]
100120ea:	e778      	b.n	10011fde <_svfprintf_r+0xae>
100120ec:	7823      	ldrb	r3, [r4, #0]
100120ee:	f049 0920 	orr.w	r9, r9, #32
100120f2:	e774      	b.n	10011fde <_svfprintf_r+0xae>
100120f4:	2208      	movs	r2, #8
100120f6:	2100      	movs	r1, #0
100120f8:	a82e      	add	r0, sp, #184	@ 0xb8
100120fa:	f001 ffad 	bl	10014058 <memset>
100120fe:	2301      	movs	r3, #1
10012100:	441e      	add	r6, r3
10012102:	e747      	b.n	10011f94 <_svfprintf_r+0x64>
10012104:	1b77      	subs	r7, r6, r5
10012106:	4604      	mov	r4, r0
10012108:	d011      	beq.n	1001212e <_svfprintf_r+0x1fe>
1001210a:	9b34      	ldr	r3, [sp, #208]	@ 0xd0
1001210c:	443b      	add	r3, r7
1001210e:	9334      	str	r3, [sp, #208]	@ 0xd0
10012110:	9b33      	ldr	r3, [sp, #204]	@ 0xcc
10012112:	3301      	adds	r3, #1
10012114:	2b07      	cmp	r3, #7
10012116:	e9c8 5700 	strd	r5, r7, [r8]
1001211a:	9333      	str	r3, [sp, #204]	@ 0xcc
1001211c:	dc18      	bgt.n	10012150 <_svfprintf_r+0x220>
1001211e:	f108 0808 	add.w	r8, r8, #8
10012122:	9b0a      	ldr	r3, [sp, #40]	@ 0x28
10012124:	443b      	add	r3, r7
10012126:	930a      	str	r3, [sp, #40]	@ 0x28
10012128:	2c00      	cmp	r4, #0
1001212a:	f47f af4e 	bne.w	10011fca <_svfprintf_r+0x9a>
1001212e:	9b34      	ldr	r3, [sp, #208]	@ 0xd0
10012130:	f8dd b01c 	ldr.w	fp, [sp, #28]
10012134:	2b00      	cmp	r3, #0
10012136:	f041 81f3 	bne.w	10013520 <_svfprintf_r+0x15f0>
1001213a:	9b09      	ldr	r3, [sp, #36]	@ 0x24
1001213c:	899b      	ldrh	r3, [r3, #12]
1001213e:	f003 0340 	and.w	r3, r3, #64	@ 0x40
10012142:	2b00      	cmp	r3, #0
10012144:	f041 83c3 	bne.w	100138ce <_svfprintf_r+0x199e>
10012148:	980a      	ldr	r0, [sp, #40]	@ 0x28
1001214a:	b05f      	add	sp, #380	@ 0x17c
1001214c:	e8bd 8ff0 	ldmia.w	sp!, {r4, r5, r6, r7, r8, r9, sl, fp, pc}
10012150:	9909      	ldr	r1, [sp, #36]	@ 0x24
10012152:	9807      	ldr	r0, [sp, #28]
10012154:	aa32      	add	r2, sp, #200	@ 0xc8
10012156:	f003 fea7 	bl	10015ea8 <__ssprint_r>
1001215a:	2800      	cmp	r0, #0
1001215c:	d1ed      	bne.n	1001213a <_svfprintf_r+0x20a>
1001215e:	f10d 08d4 	add.w	r8, sp, #212	@ 0xd4
10012162:	e7de      	b.n	10012122 <_svfprintf_r+0x1f2>
10012164:	f3af 8000 	nop.w
	...
10012170:	2000044c 	.word	0x2000044c
10012174:	e9cd 340e 	strd	r3, r4, [sp, #56]	@ 0x38
10012178:	2b00      	cmp	r3, #0
1001217a:	d0d8      	beq.n	1001212e <_svfprintf_r+0x1fe>
1001217c:	2200      	movs	r2, #0
1001217e:	f88d 3114 	strb.w	r3, [sp, #276]	@ 0x114
10012182:	2301      	movs	r3, #1
10012184:	f88d 209f 	strb.w	r2, [sp, #159]	@ 0x9f
10012188:	9306      	str	r3, [sp, #24]
1001218a:	920c      	str	r2, [sp, #48]	@ 0x30
1001218c:	469b      	mov	fp, r3
1001218e:	9208      	str	r2, [sp, #32]
10012190:	9214      	str	r2, [sp, #80]	@ 0x50
10012192:	9210      	str	r2, [sp, #64]	@ 0x40
10012194:	9212      	str	r2, [sp, #72]	@ 0x48
10012196:	ad45      	add	r5, sp, #276	@ 0x114
10012198:	f019 0302 	ands.w	r3, r9, #2
1001219c:	d002      	beq.n	100121a4 <_svfprintf_r+0x274>
1001219e:	9906      	ldr	r1, [sp, #24]
100121a0:	3102      	adds	r1, #2
100121a2:	9106      	str	r1, [sp, #24]
100121a4:	f019 0784 	ands.w	r7, r9, #132	@ 0x84
100121a8:	9c34      	ldr	r4, [sp, #208]	@ 0xd0
100121aa:	d105      	bne.n	100121b8 <_svfprintf_r+0x288>
100121ac:	990b      	ldr	r1, [sp, #44]	@ 0x2c
100121ae:	9806      	ldr	r0, [sp, #24]
100121b0:	1a0e      	subs	r6, r1, r0
100121b2:	2e00      	cmp	r6, #0
100121b4:	f300 80aa 	bgt.w	1001230c <_svfprintf_r+0x3dc>
100121b8:	b182      	cbz	r2, 100121dc <_svfprintf_r+0x2ac>
100121ba:	2201      	movs	r2, #1
100121bc:	f8c8 2004 	str.w	r2, [r8, #4]
100121c0:	9a33      	ldr	r2, [sp, #204]	@ 0xcc
100121c2:	3201      	adds	r2, #1
100121c4:	3401      	adds	r4, #1
100121c6:	f10d 019f 	add.w	r1, sp, #159	@ 0x9f
100121ca:	2a07      	cmp	r2, #7
100121cc:	9434      	str	r4, [sp, #208]	@ 0xd0
100121ce:	9233      	str	r2, [sp, #204]	@ 0xcc
100121d0:	f8c8 1000 	str.w	r1, [r8]
100121d4:	f300 8405 	bgt.w	100129e2 <_svfprintf_r+0xab2>
100121d8:	f108 0808 	add.w	r8, r8, #8
100121dc:	b183      	cbz	r3, 10012200 <_svfprintf_r+0x2d0>
100121de:	9b33      	ldr	r3, [sp, #204]	@ 0xcc
100121e0:	aa28      	add	r2, sp, #160	@ 0xa0
100121e2:	3301      	adds	r3, #1
100121e4:	3402      	adds	r4, #2
100121e6:	f8c8 2000 	str.w	r2, [r8]
100121ea:	2b07      	cmp	r3, #7
100121ec:	f04f 0202 	mov.w	r2, #2
100121f0:	9434      	str	r4, [sp, #208]	@ 0xd0
100121f2:	9333      	str	r3, [sp, #204]	@ 0xcc
100121f4:	f8c8 2004 	str.w	r2, [r8, #4]
100121f8:	f300 83e7 	bgt.w	100129ca <_svfprintf_r+0xa9a>
100121fc:	f108 0808 	add.w	r8, r8, #8
10012200:	2f80      	cmp	r7, #128	@ 0x80
10012202:	f000 82c0 	beq.w	10012786 <_svfprintf_r+0x856>
10012206:	9b08      	ldr	r3, [sp, #32]
10012208:	eba3 060b 	sub.w	r6, r3, fp
1001220c:	2e00      	cmp	r6, #0
1001220e:	f300 82ff 	bgt.w	10012810 <_svfprintf_r+0x8e0>
10012212:	f419 7f80 	tst.w	r9, #256	@ 0x100
10012216:	f040 8219 	bne.w	1001264c <_svfprintf_r+0x71c>
1001221a:	9b33      	ldr	r3, [sp, #204]	@ 0xcc
1001221c:	f8c8 5000 	str.w	r5, [r8]
10012220:	3301      	adds	r3, #1
10012222:	445c      	add	r4, fp
10012224:	2b07      	cmp	r3, #7
10012226:	f8c8 b004 	str.w	fp, [r8, #4]
1001222a:	9434      	str	r4, [sp, #208]	@ 0xd0
1001222c:	9333      	str	r3, [sp, #204]	@ 0xcc
1001222e:	f300 836c 	bgt.w	1001290a <_svfprintf_r+0x9da>
10012232:	f108 0808 	add.w	r8, r8, #8
10012236:	f019 0f04 	tst.w	r9, #4
1001223a:	d005      	beq.n	10012248 <_svfprintf_r+0x318>
1001223c:	9b0b      	ldr	r3, [sp, #44]	@ 0x2c
1001223e:	9a06      	ldr	r2, [sp, #24]
10012240:	1a9d      	subs	r5, r3, r2
10012242:	2d00      	cmp	r5, #0
10012244:	f300 83dc 	bgt.w	10012a00 <_svfprintf_r+0xad0>
10012248:	e9dd 320a 	ldrd	r3, r2, [sp, #40]	@ 0x28
1001224c:	9906      	ldr	r1, [sp, #24]
1001224e:	428a      	cmp	r2, r1
10012250:	bfac      	ite	ge
10012252:	189b      	addge	r3, r3, r2
10012254:	185b      	addlt	r3, r3, r1
10012256:	930a      	str	r3, [sp, #40]	@ 0x28
10012258:	2c00      	cmp	r4, #0
1001225a:	f040 8318 	bne.w	1001288e <_svfprintf_r+0x95e>
1001225e:	2300      	movs	r3, #0
10012260:	9333      	str	r3, [sp, #204]	@ 0xcc
10012262:	9b0c      	ldr	r3, [sp, #48]	@ 0x30
10012264:	b11b      	cbz	r3, 1001226e <_svfprintf_r+0x33e>
10012266:	990c      	ldr	r1, [sp, #48]	@ 0x30
10012268:	9807      	ldr	r0, [sp, #28]
1001226a:	f003 fac9 	bl	10015800 <_free_r>
1001226e:	f10d 08d4 	add.w	r8, sp, #212	@ 0xd4
10012272:	9d0f      	ldr	r5, [sp, #60]	@ 0x3c
10012274:	e68c      	b.n	10011f90 <_svfprintf_r+0x60>
10012276:	e9cd 340e 	strd	r3, r4, [sp, #56]	@ 0x38
1001227a:	9b0d      	ldr	r3, [sp, #52]	@ 0x34
1001227c:	3307      	adds	r3, #7
1001227e:	f023 0307 	bic.w	r3, r3, #7
10012282:	ecb3 7b02 	vldmia	r3!, {d7}
10012286:	ec57 6b17 	vmov	r6, r7, d7
1001228a:	930d      	str	r3, [sp, #52]	@ 0x34
1001228c:	f027 4300 	bic.w	r3, r7, #2147483648	@ 0x80000000
10012290:	9323      	str	r3, [sp, #140]	@ 0x8c
10012292:	ed8d 7a22 	vstr	s14, [sp, #136]	@ 0x88
10012296:	e9dd ab22 	ldrd	sl, fp, [sp, #136]	@ 0x88
1001229a:	4bb1      	ldr	r3, [pc, #708]	@ (10012560 <_svfprintf_r+0x630>)
1001229c:	f04f 32ff 	mov.w	r2, #4294967295	@ 0xffffffff
100122a0:	4650      	mov	r0, sl
100122a2:	4659      	mov	r1, fp
100122a4:	ed8d 7b16 	vstr	d7, [sp, #88]	@ 0x58
100122a8:	f008 fc44 	bl	1001ab34 <__aeabi_dcmpun>
100122ac:	2800      	cmp	r0, #0
100122ae:	f040 8546 	bne.w	10012d3e <_svfprintf_r+0xe0e>
100122b2:	4bab      	ldr	r3, [pc, #684]	@ (10012560 <_svfprintf_r+0x630>)
100122b4:	f04f 32ff 	mov.w	r2, #4294967295	@ 0xffffffff
100122b8:	4650      	mov	r0, sl
100122ba:	4659      	mov	r1, fp
100122bc:	f008 fc1c 	bl	1001aaf8 <__aeabi_dcmple>
100122c0:	2800      	cmp	r0, #0
100122c2:	f040 853c 	bne.w	10012d3e <_svfprintf_r+0xe0e>
100122c6:	2200      	movs	r2, #0
100122c8:	2300      	movs	r3, #0
100122ca:	4630      	mov	r0, r6
100122cc:	4639      	mov	r1, r7
100122ce:	f008 fc09 	bl	1001aae4 <__aeabi_dcmplt>
100122d2:	2800      	cmp	r0, #0
100122d4:	f041 8051 	bne.w	1001337a <_svfprintf_r+0x144a>
100122d8:	f89d 209f 	ldrb.w	r2, [sp, #159]	@ 0x9f
100122dc:	4da1      	ldr	r5, [pc, #644]	@ (10012564 <_svfprintf_r+0x634>)
100122de:	4ba2      	ldr	r3, [pc, #648]	@ (10012568 <_svfprintf_r+0x638>)
100122e0:	f029 0980 	bic.w	r9, r9, #128	@ 0x80
100122e4:	990e      	ldr	r1, [sp, #56]	@ 0x38
100122e6:	2947      	cmp	r1, #71	@ 0x47
100122e8:	bfc8      	it	gt
100122ea:	461d      	movgt	r5, r3
100122ec:	2300      	movs	r3, #0
100122ee:	2103      	movs	r1, #3
100122f0:	930c      	str	r3, [sp, #48]	@ 0x30
100122f2:	9106      	str	r1, [sp, #24]
100122f4:	468b      	mov	fp, r1
100122f6:	9308      	str	r3, [sp, #32]
100122f8:	9314      	str	r3, [sp, #80]	@ 0x50
100122fa:	9310      	str	r3, [sp, #64]	@ 0x40
100122fc:	9312      	str	r3, [sp, #72]	@ 0x48
100122fe:	2a00      	cmp	r2, #0
10012300:	f43f af4a 	beq.w	10012198 <_svfprintf_r+0x268>
10012304:	9b06      	ldr	r3, [sp, #24]
10012306:	3301      	adds	r3, #1
10012308:	9306      	str	r3, [sp, #24]
1001230a:	e745      	b.n	10012198 <_svfprintf_r+0x268>
1001230c:	2e10      	cmp	r6, #16
1001230e:	9a33      	ldr	r2, [sp, #204]	@ 0xcc
10012310:	f341 8276 	ble.w	10013800 <_svfprintf_r+0x18d0>
10012314:	4895      	ldr	r0, [pc, #596]	@ (1001256c <_svfprintf_r+0x63c>)
10012316:	9521      	str	r5, [sp, #132]	@ 0x84
10012318:	e9cd 371f 	strd	r3, r7, [sp, #124]	@ 0x7c
1001231c:	4621      	mov	r1, r4
1001231e:	9d09      	ldr	r5, [sp, #36]	@ 0x24
10012320:	9c07      	ldr	r4, [sp, #28]
10012322:	9015      	str	r0, [sp, #84]	@ 0x54
10012324:	f04f 0a10 	mov.w	sl, #16
10012328:	4607      	mov	r7, r0
1001232a:	e004      	b.n	10012336 <_svfprintf_r+0x406>
1001232c:	3e10      	subs	r6, #16
1001232e:	2e10      	cmp	r6, #16
10012330:	f108 0808 	add.w	r8, r8, #8
10012334:	dd16      	ble.n	10012364 <_svfprintf_r+0x434>
10012336:	3201      	adds	r2, #1
10012338:	3110      	adds	r1, #16
1001233a:	2a07      	cmp	r2, #7
1001233c:	e9c8 7a00 	strd	r7, sl, [r8]
10012340:	e9cd 2133 	strd	r2, r1, [sp, #204]	@ 0xcc
10012344:	ddf2      	ble.n	1001232c <_svfprintf_r+0x3fc>
10012346:	aa32      	add	r2, sp, #200	@ 0xc8
10012348:	4629      	mov	r1, r5
1001234a:	4620      	mov	r0, r4
1001234c:	f10d 08d4 	add.w	r8, sp, #212	@ 0xd4
10012350:	f003 fdaa 	bl	10015ea8 <__ssprint_r>
10012354:	2800      	cmp	r0, #0
10012356:	f040 86f0 	bne.w	1001313a <_svfprintf_r+0x120a>
1001235a:	3e10      	subs	r6, #16
1001235c:	2e10      	cmp	r6, #16
1001235e:	e9dd 2133 	ldrd	r2, r1, [sp, #204]	@ 0xcc
10012362:	dce8      	bgt.n	10012336 <_svfprintf_r+0x406>
10012364:	e9dd 371f 	ldrd	r3, r7, [sp, #124]	@ 0x7c
10012368:	9d21      	ldr	r5, [sp, #132]	@ 0x84
1001236a:	460c      	mov	r4, r1
1001236c:	3201      	adds	r2, #1
1001236e:	9915      	ldr	r1, [sp, #84]	@ 0x54
10012370:	f8c8 1000 	str.w	r1, [r8]
10012374:	4434      	add	r4, r6
10012376:	2a07      	cmp	r2, #7
10012378:	e9cd 2433 	strd	r2, r4, [sp, #204]	@ 0xcc
1001237c:	f8c8 6004 	str.w	r6, [r8, #4]
10012380:	f300 86ca 	bgt.w	10013118 <_svfprintf_r+0x11e8>
10012384:	f89d 209f 	ldrb.w	r2, [sp, #159]	@ 0x9f
10012388:	f108 0808 	add.w	r8, r8, #8
1001238c:	e714      	b.n	100121b8 <_svfprintf_r+0x288>
1001238e:	9a0d      	ldr	r2, [sp, #52]	@ 0x34
10012390:	2b43      	cmp	r3, #67	@ 0x43
10012392:	e9cd 340e 	strd	r3, r4, [sp, #56]	@ 0x38
10012396:	f102 0404 	add.w	r4, r2, #4
1001239a:	d003      	beq.n	100123a4 <_svfprintf_r+0x474>
1001239c:	f019 0f10 	tst.w	r9, #16
100123a0:	f000 855c 	beq.w	10012e5c <_svfprintf_r+0xf2c>
100123a4:	2208      	movs	r2, #8
100123a6:	2100      	movs	r1, #0
100123a8:	a830      	add	r0, sp, #192	@ 0xc0
100123aa:	f001 fe55 	bl	10014058 <memset>
100123ae:	9b0d      	ldr	r3, [sp, #52]	@ 0x34
100123b0:	9807      	ldr	r0, [sp, #28]
100123b2:	681a      	ldr	r2, [r3, #0]
100123b4:	ad45      	add	r5, sp, #276	@ 0x114
100123b6:	ab30      	add	r3, sp, #192	@ 0xc0
100123b8:	4629      	mov	r1, r5
100123ba:	f001 fe9f 	bl	100140fc <_wcrtomb_r>
100123be:	f1b0 3fff 	cmp.w	r0, #4294967295	@ 0xffffffff
100123c2:	4683      	mov	fp, r0
100123c4:	f001 827e 	beq.w	100138c4 <_svfprintf_r+0x1994>
100123c8:	ea20 73e0 	bic.w	r3, r0, r0, asr #31
100123cc:	9306      	str	r3, [sp, #24]
100123ce:	2200      	movs	r2, #0
100123d0:	940d      	str	r4, [sp, #52]	@ 0x34
100123d2:	f88d 209f 	strb.w	r2, [sp, #159]	@ 0x9f
100123d6:	920c      	str	r2, [sp, #48]	@ 0x30
100123d8:	9208      	str	r2, [sp, #32]
100123da:	9214      	str	r2, [sp, #80]	@ 0x50
100123dc:	9210      	str	r2, [sp, #64]	@ 0x40
100123de:	9212      	str	r2, [sp, #72]	@ 0x48
100123e0:	e6da      	b.n	10012198 <_svfprintf_r+0x268>
100123e2:	9e0d      	ldr	r6, [sp, #52]	@ 0x34
100123e4:	f856 5b04 	ldr.w	r5, [r6], #4
100123e8:	e9cd 340e 	strd	r3, r4, [sp, #56]	@ 0x38
100123ec:	2300      	movs	r3, #0
100123ee:	f88d 309f 	strb.w	r3, [sp, #159]	@ 0x9f
100123f2:	2d00      	cmp	r5, #0
100123f4:	f000 8557 	beq.w	10012ea6 <_svfprintf_r+0xf76>
100123f8:	9b0e      	ldr	r3, [sp, #56]	@ 0x38
100123fa:	2b53      	cmp	r3, #83	@ 0x53
100123fc:	f000 86b9 	beq.w	10013172 <_svfprintf_r+0x1242>
10012400:	f019 0310 	ands.w	r3, r9, #16
10012404:	9312      	str	r3, [sp, #72]	@ 0x48
10012406:	f040 86b4 	bne.w	10013172 <_svfprintf_r+0x1242>
1001240a:	9b08      	ldr	r3, [sp, #32]
1001240c:	1c5a      	adds	r2, r3, #1
1001240e:	f001 8092 	beq.w	10013536 <_svfprintf_r+0x1606>
10012412:	9912      	ldr	r1, [sp, #72]	@ 0x48
10012414:	461a      	mov	r2, r3
10012416:	4628      	mov	r0, r5
10012418:	f003 f802 	bl	10015420 <memchr>
1001241c:	900c      	str	r0, [sp, #48]	@ 0x30
1001241e:	2800      	cmp	r0, #0
10012420:	f001 82ed 	beq.w	100139fe <_svfprintf_r+0x1ace>
10012424:	9b0c      	ldr	r3, [sp, #48]	@ 0x30
10012426:	960d      	str	r6, [sp, #52]	@ 0x34
10012428:	eba3 0b05 	sub.w	fp, r3, r5
1001242c:	9b12      	ldr	r3, [sp, #72]	@ 0x48
1001242e:	9308      	str	r3, [sp, #32]
10012430:	ea2b 71eb 	bic.w	r1, fp, fp, asr #31
10012434:	9314      	str	r3, [sp, #80]	@ 0x50
10012436:	9310      	str	r3, [sp, #64]	@ 0x40
10012438:	930c      	str	r3, [sp, #48]	@ 0x30
1001243a:	2373      	movs	r3, #115	@ 0x73
1001243c:	f89d 209f 	ldrb.w	r2, [sp, #159]	@ 0x9f
10012440:	9106      	str	r1, [sp, #24]
10012442:	930e      	str	r3, [sp, #56]	@ 0x38
10012444:	e75b      	b.n	100122fe <_svfprintf_r+0x3ce>
10012446:	f019 0f20 	tst.w	r9, #32
1001244a:	e9cd 340e 	strd	r3, r4, [sp, #56]	@ 0x38
1001244e:	f000 80ec 	beq.w	1001262a <_svfprintf_r+0x6fa>
10012452:	9b0d      	ldr	r3, [sp, #52]	@ 0x34
10012454:	3307      	adds	r3, #7
10012456:	f023 0307 	bic.w	r3, r3, #7
1001245a:	461a      	mov	r2, r3
1001245c:	6859      	ldr	r1, [r3, #4]
1001245e:	f852 3b08 	ldr.w	r3, [r2], #8
10012462:	920d      	str	r2, [sp, #52]	@ 0x34
10012464:	460a      	mov	r2, r1
10012466:	2900      	cmp	r1, #0
10012468:	f2c0 8419 	blt.w	10012c9e <_svfprintf_r+0xd6e>
1001246c:	9908      	ldr	r1, [sp, #32]
1001246e:	3101      	adds	r1, #1
10012470:	f000 829c 	beq.w	100129ac <_svfprintf_r+0xa7c>
10012474:	ea53 0102 	orrs.w	r1, r3, r2
10012478:	f029 0480 	bic.w	r4, r9, #128	@ 0x80
1001247c:	f040 8297 	bne.w	100129ae <_svfprintf_r+0xa7e>
10012480:	9a08      	ldr	r2, [sp, #32]
10012482:	2a00      	cmp	r2, #0
10012484:	f040 8298 	bne.w	100129b8 <_svfprintf_r+0xa88>
10012488:	46a1      	mov	r9, r4
1001248a:	4693      	mov	fp, r2
1001248c:	ad5e      	add	r5, sp, #376	@ 0x178
1001248e:	e151      	b.n	10012734 <_svfprintf_r+0x804>
10012490:	9b0d      	ldr	r3, [sp, #52]	@ 0x34
10012492:	f853 2b04 	ldr.w	r2, [r3], #4
10012496:	920b      	str	r2, [sp, #44]	@ 0x2c
10012498:	2a00      	cmp	r2, #0
1001249a:	f280 8424 	bge.w	10012ce6 <_svfprintf_r+0xdb6>
1001249e:	9a0b      	ldr	r2, [sp, #44]	@ 0x2c
100124a0:	930d      	str	r3, [sp, #52]	@ 0x34
100124a2:	4252      	negs	r2, r2
100124a4:	920b      	str	r2, [sp, #44]	@ 0x2c
100124a6:	7823      	ldrb	r3, [r4, #0]
100124a8:	f049 0904 	orr.w	r9, r9, #4
100124ac:	e597      	b.n	10011fde <_svfprintf_r+0xae>
100124ae:	232b      	movs	r3, #43	@ 0x2b
100124b0:	f88d 309f 	strb.w	r3, [sp, #159]	@ 0x9f
100124b4:	7823      	ldrb	r3, [r4, #0]
100124b6:	e592      	b.n	10011fde <_svfprintf_r+0xae>
100124b8:	e9cd 340e 	strd	r3, r4, [sp, #56]	@ 0x38
100124bc:	f049 0910 	orr.w	r9, r9, #16
100124c0:	f019 0220 	ands.w	r2, r9, #32
100124c4:	f000 83b4 	beq.w	10012c30 <_svfprintf_r+0xd00>
100124c8:	9b0d      	ldr	r3, [sp, #52]	@ 0x34
100124ca:	3307      	adds	r3, #7
100124cc:	f023 0307 	bic.w	r3, r3, #7
100124d0:	4619      	mov	r1, r3
100124d2:	685a      	ldr	r2, [r3, #4]
100124d4:	f851 3b08 	ldr.w	r3, [r1], #8
100124d8:	910d      	str	r1, [sp, #52]	@ 0x34
100124da:	f429 6480 	bic.w	r4, r9, #1024	@ 0x400
100124de:	2100      	movs	r1, #0
100124e0:	2000      	movs	r0, #0
100124e2:	9d08      	ldr	r5, [sp, #32]
100124e4:	f88d 009f 	strb.w	r0, [sp, #159]	@ 0x9f
100124e8:	1c6f      	adds	r7, r5, #1
100124ea:	f000 810c 	beq.w	10012706 <_svfprintf_r+0x7d6>
100124ee:	ea53 0002 	orrs.w	r0, r3, r2
100124f2:	f024 0980 	bic.w	r9, r4, #128	@ 0x80
100124f6:	f040 8105 	bne.w	10012704 <_svfprintf_r+0x7d4>
100124fa:	2d00      	cmp	r5, #0
100124fc:	f040 8627 	bne.w	1001314e <_svfprintf_r+0x121e>
10012500:	2900      	cmp	r1, #0
10012502:	f040 83c8 	bne.w	10012c96 <_svfprintf_r+0xd66>
10012506:	f014 0b01 	ands.w	fp, r4, #1
1001250a:	f000 83f0 	beq.w	10012cee <_svfprintf_r+0xdbe>
1001250e:	2330      	movs	r3, #48	@ 0x30
10012510:	f88d 3177 	strb.w	r3, [sp, #375]	@ 0x177
10012514:	f20d 1577 	addw	r5, sp, #375	@ 0x177
10012518:	e10c      	b.n	10012734 <_svfprintf_r+0x804>
1001251a:	7823      	ldrb	r3, [r4, #0]
1001251c:	2b68      	cmp	r3, #104	@ 0x68
1001251e:	bf03      	ittte	eq
10012520:	7863      	ldrbeq	r3, [r4, #1]
10012522:	f449 7900 	orreq.w	r9, r9, #512	@ 0x200
10012526:	3401      	addeq	r4, #1
10012528:	f049 0940 	orrne.w	r9, r9, #64	@ 0x40
1001252c:	e557      	b.n	10011fde <_svfprintf_r+0xae>
1001252e:	f019 0f20 	tst.w	r9, #32
10012532:	940f      	str	r4, [sp, #60]	@ 0x3c
10012534:	f000 83e5 	beq.w	10012d02 <_svfprintf_r+0xdd2>
10012538:	9b0d      	ldr	r3, [sp, #52]	@ 0x34
1001253a:	9a0a      	ldr	r2, [sp, #40]	@ 0x28
1001253c:	681b      	ldr	r3, [r3, #0]
1001253e:	601a      	str	r2, [r3, #0]
10012540:	17d2      	asrs	r2, r2, #31
10012542:	605a      	str	r2, [r3, #4]
10012544:	9b0d      	ldr	r3, [sp, #52]	@ 0x34
10012546:	3304      	adds	r3, #4
10012548:	930d      	str	r3, [sp, #52]	@ 0x34
1001254a:	e692      	b.n	10012272 <_svfprintf_r+0x342>
1001254c:	7823      	ldrb	r3, [r4, #0]
1001254e:	2b6c      	cmp	r3, #108	@ 0x6c
10012550:	bf03      	ittte	eq
10012552:	7863      	ldrbeq	r3, [r4, #1]
10012554:	f049 0920 	orreq.w	r9, r9, #32
10012558:	3401      	addeq	r4, #1
1001255a:	f049 0910 	orrne.w	r9, r9, #16
1001255e:	e53e      	b.n	10011fde <_svfprintf_r+0xae>
10012560:	7fefffff 	.word	0x7fefffff
10012564:	1001b194 	.word	0x1001b194
10012568:	1001b198 	.word	0x1001b198
1001256c:	1001b1e8 	.word	0x1001b1e8
10012570:	9a0d      	ldr	r2, [sp, #52]	@ 0x34
10012572:	940f      	str	r4, [sp, #60]	@ 0x3c
10012574:	f852 3b04 	ldr.w	r3, [r2], #4
10012578:	920d      	str	r2, [sp, #52]	@ 0x34
1001257a:	f647 0230 	movw	r2, #30768	@ 0x7830
1001257e:	f8ad 20a0 	strh.w	r2, [sp, #160]	@ 0xa0
10012582:	2078      	movs	r0, #120	@ 0x78
10012584:	4aa8      	ldr	r2, [pc, #672]	@ (10012828 <_svfprintf_r+0x8f8>)
10012586:	9219      	str	r2, [sp, #100]	@ 0x64
10012588:	f049 0402 	orr.w	r4, r9, #2
1001258c:	2200      	movs	r2, #0
1001258e:	2102      	movs	r1, #2
10012590:	900e      	str	r0, [sp, #56]	@ 0x38
10012592:	e7a5      	b.n	100124e0 <_svfprintf_r+0x5b0>
10012594:	e9cd 340e 	strd	r3, r4, [sp, #56]	@ 0x38
10012598:	f049 0410 	orr.w	r4, r9, #16
1001259c:	f014 0220 	ands.w	r2, r4, #32
100125a0:	f000 8355 	beq.w	10012c4e <_svfprintf_r+0xd1e>
100125a4:	9b0d      	ldr	r3, [sp, #52]	@ 0x34
100125a6:	3307      	adds	r3, #7
100125a8:	f023 0307 	bic.w	r3, r3, #7
100125ac:	4619      	mov	r1, r3
100125ae:	685a      	ldr	r2, [r3, #4]
100125b0:	f851 3b08 	ldr.w	r3, [r1], #8
100125b4:	910d      	str	r1, [sp, #52]	@ 0x34
100125b6:	2101      	movs	r1, #1
100125b8:	e792      	b.n	100124e0 <_svfprintf_r+0x5b0>
100125ba:	7823      	ldrb	r3, [r4, #0]
100125bc:	f049 0908 	orr.w	r9, r9, #8
100125c0:	e50d      	b.n	10011fde <_svfprintf_r+0xae>
100125c2:	7823      	ldrb	r3, [r4, #0]
100125c4:	f049 0901 	orr.w	r9, r9, #1
100125c8:	e509      	b.n	10011fde <_svfprintf_r+0xae>
100125ca:	f89d 209f 	ldrb.w	r2, [sp, #159]	@ 0x9f
100125ce:	7823      	ldrb	r3, [r4, #0]
100125d0:	2a00      	cmp	r2, #0
100125d2:	f47f ad04 	bne.w	10011fde <_svfprintf_r+0xae>
100125d6:	2220      	movs	r2, #32
100125d8:	f88d 209f 	strb.w	r2, [sp, #159]	@ 0x9f
100125dc:	e4ff      	b.n	10011fde <_svfprintf_r+0xae>
100125de:	7823      	ldrb	r3, [r4, #0]
100125e0:	f049 0980 	orr.w	r9, r9, #128	@ 0x80
100125e4:	e4fb      	b.n	10011fde <_svfprintf_r+0xae>
100125e6:	4621      	mov	r1, r4
100125e8:	f811 3b01 	ldrb.w	r3, [r1], #1
100125ec:	2b2a      	cmp	r3, #42	@ 0x2a
100125ee:	f001 8229 	beq.w	10013a44 <_svfprintf_r+0x1b14>
100125f2:	f1a3 0230 	sub.w	r2, r3, #48	@ 0x30
100125f6:	2a09      	cmp	r2, #9
100125f8:	460c      	mov	r4, r1
100125fa:	bf98      	it	ls
100125fc:	2100      	movls	r1, #0
100125fe:	f201 8130 	bhi.w	10013862 <_svfprintf_r+0x1932>
10012602:	f814 3b01 	ldrb.w	r3, [r4], #1
10012606:	eb01 0181 	add.w	r1, r1, r1, lsl #2
1001260a:	eb02 0141 	add.w	r1, r2, r1, lsl #1
1001260e:	f1a3 0230 	sub.w	r2, r3, #48	@ 0x30
10012612:	2a09      	cmp	r2, #9
10012614:	d9f5      	bls.n	10012602 <_svfprintf_r+0x6d2>
10012616:	9108      	str	r1, [sp, #32]
10012618:	e4e2      	b.n	10011fe0 <_svfprintf_r+0xb0>
1001261a:	f049 0910 	orr.w	r9, r9, #16
1001261e:	f019 0f20 	tst.w	r9, #32
10012622:	e9cd 340e 	strd	r3, r4, [sp, #56]	@ 0x38
10012626:	f47f af14 	bne.w	10012452 <_svfprintf_r+0x522>
1001262a:	9a0d      	ldr	r2, [sp, #52]	@ 0x34
1001262c:	f019 0f10 	tst.w	r9, #16
10012630:	f852 3b04 	ldr.w	r3, [r2], #4
10012634:	920d      	str	r2, [sp, #52]	@ 0x34
10012636:	f040 8360 	bne.w	10012cfa <_svfprintf_r+0xdca>
1001263a:	f019 0f40 	tst.w	r9, #64	@ 0x40
1001263e:	f000 8358 	beq.w	10012cf2 <_svfprintf_r+0xdc2>
10012642:	f343 32c0 	sbfx	r2, r3, #15, #1
10012646:	4611      	mov	r1, r2
10012648:	b21b      	sxth	r3, r3
1001264a:	e70c      	b.n	10012466 <_svfprintf_r+0x536>
1001264c:	9b0e      	ldr	r3, [sp, #56]	@ 0x38
1001264e:	2b65      	cmp	r3, #101	@ 0x65
10012650:	f340 8166 	ble.w	10012920 <_svfprintf_r+0x9f0>
10012654:	e9dd 0116 	ldrd	r0, r1, [sp, #88]	@ 0x58
10012658:	2200      	movs	r2, #0
1001265a:	2300      	movs	r3, #0
1001265c:	f008 fa38 	bl	1001aad0 <__aeabi_dcmpeq>
10012660:	2800      	cmp	r0, #0
10012662:	f000 8211 	beq.w	10012a88 <_svfprintf_r+0xb58>
10012666:	9b33      	ldr	r3, [sp, #204]	@ 0xcc
10012668:	4a70      	ldr	r2, [pc, #448]	@ (1001282c <_svfprintf_r+0x8fc>)
1001266a:	f8c8 2000 	str.w	r2, [r8]
1001266e:	3301      	adds	r3, #1
10012670:	3401      	adds	r4, #1
10012672:	2201      	movs	r2, #1
10012674:	2b07      	cmp	r3, #7
10012676:	9434      	str	r4, [sp, #208]	@ 0xd0
10012678:	9333      	str	r3, [sp, #204]	@ 0xcc
1001267a:	f8c8 2004 	str.w	r2, [r8, #4]
1001267e:	f300 856b 	bgt.w	10013158 <_svfprintf_r+0x1228>
10012682:	f108 0808 	add.w	r8, r8, #8
10012686:	9b29      	ldr	r3, [sp, #164]	@ 0xa4
10012688:	9a13      	ldr	r2, [sp, #76]	@ 0x4c
1001268a:	4293      	cmp	r3, r2
1001268c:	f280 8326 	bge.w	10012cdc <_svfprintf_r+0xdac>
10012690:	9b18      	ldr	r3, [sp, #96]	@ 0x60
10012692:	9a1a      	ldr	r2, [sp, #104]	@ 0x68
10012694:	441c      	add	r4, r3
10012696:	e9c8 2300 	strd	r2, r3, [r8]
1001269a:	9b33      	ldr	r3, [sp, #204]	@ 0xcc
1001269c:	9434      	str	r4, [sp, #208]	@ 0xd0
1001269e:	3301      	adds	r3, #1
100126a0:	2b07      	cmp	r3, #7
100126a2:	9333      	str	r3, [sp, #204]	@ 0xcc
100126a4:	f300 83e4 	bgt.w	10012e70 <_svfprintf_r+0xf40>
100126a8:	f108 0808 	add.w	r8, r8, #8
100126ac:	9b13      	ldr	r3, [sp, #76]	@ 0x4c
100126ae:	1e5d      	subs	r5, r3, #1
100126b0:	2d00      	cmp	r5, #0
100126b2:	f77f adc0 	ble.w	10012236 <_svfprintf_r+0x306>
100126b6:	2d10      	cmp	r5, #16
100126b8:	9b33      	ldr	r3, [sp, #204]	@ 0xcc
100126ba:	f340 85ad 	ble.w	10013218 <_svfprintf_r+0x12e8>
100126be:	4f5c      	ldr	r7, [pc, #368]	@ (10012830 <_svfprintf_r+0x900>)
100126c0:	f8dd b01c 	ldr.w	fp, [sp, #28]
100126c4:	f8dd a024 	ldr.w	sl, [sp, #36]	@ 0x24
100126c8:	9715      	str	r7, [sp, #84]	@ 0x54
100126ca:	2610      	movs	r6, #16
100126cc:	e005      	b.n	100126da <_svfprintf_r+0x7aa>
100126ce:	f108 0808 	add.w	r8, r8, #8
100126d2:	3d10      	subs	r5, #16
100126d4:	2d10      	cmp	r5, #16
100126d6:	f340 85a1 	ble.w	1001321c <_svfprintf_r+0x12ec>
100126da:	3301      	adds	r3, #1
100126dc:	3410      	adds	r4, #16
100126de:	2b07      	cmp	r3, #7
100126e0:	e9c8 7600 	strd	r7, r6, [r8]
100126e4:	e9cd 3433 	strd	r3, r4, [sp, #204]	@ 0xcc
100126e8:	ddf1      	ble.n	100126ce <_svfprintf_r+0x79e>
100126ea:	aa32      	add	r2, sp, #200	@ 0xc8
100126ec:	4651      	mov	r1, sl
100126ee:	4658      	mov	r0, fp
100126f0:	f003 fbda 	bl	10015ea8 <__ssprint_r>
100126f4:	2800      	cmp	r0, #0
100126f6:	f040 82c0 	bne.w	10012c7a <_svfprintf_r+0xd4a>
100126fa:	e9dd 3433 	ldrd	r3, r4, [sp, #204]	@ 0xcc
100126fe:	f10d 08d4 	add.w	r8, sp, #212	@ 0xd4
10012702:	e7e6      	b.n	100126d2 <_svfprintf_r+0x7a2>
10012704:	464c      	mov	r4, r9
10012706:	2901      	cmp	r1, #1
10012708:	f000 8151 	beq.w	100129ae <_svfprintf_r+0xa7e>
1001270c:	2902      	cmp	r1, #2
1001270e:	ad5e      	add	r5, sp, #376	@ 0x178
10012710:	d11e      	bne.n	10012750 <_svfprintf_r+0x820>
10012712:	9819      	ldr	r0, [sp, #100]	@ 0x64
10012714:	f003 010f 	and.w	r1, r3, #15
10012718:	091b      	lsrs	r3, r3, #4
1001271a:	5c41      	ldrb	r1, [r0, r1]
1001271c:	f805 1d01 	strb.w	r1, [r5, #-1]!
10012720:	ea43 7302 	orr.w	r3, r3, r2, lsl #28
10012724:	0912      	lsrs	r2, r2, #4
10012726:	ea53 0102 	orrs.w	r1, r3, r2
1001272a:	d1f3      	bne.n	10012714 <_svfprintf_r+0x7e4>
1001272c:	ab5e      	add	r3, sp, #376	@ 0x178
1001272e:	46a1      	mov	r9, r4
10012730:	eba3 0b05 	sub.w	fp, r3, r5
10012734:	9908      	ldr	r1, [sp, #32]
10012736:	f89d 209f 	ldrb.w	r2, [sp, #159]	@ 0x9f
1001273a:	4559      	cmp	r1, fp
1001273c:	f04f 0300 	mov.w	r3, #0
10012740:	bfb8      	it	lt
10012742:	4659      	movlt	r1, fp
10012744:	930c      	str	r3, [sp, #48]	@ 0x30
10012746:	9106      	str	r1, [sp, #24]
10012748:	9314      	str	r3, [sp, #80]	@ 0x50
1001274a:	9310      	str	r3, [sp, #64]	@ 0x40
1001274c:	9312      	str	r3, [sp, #72]	@ 0x48
1001274e:	e5d6      	b.n	100122fe <_svfprintf_r+0x3ce>
10012750:	f003 0107 	and.w	r1, r3, #7
10012754:	08db      	lsrs	r3, r3, #3
10012756:	ea43 7342 	orr.w	r3, r3, r2, lsl #29
1001275a:	08d2      	lsrs	r2, r2, #3
1001275c:	3130      	adds	r1, #48	@ 0x30
1001275e:	ea53 0602 	orrs.w	r6, r3, r2
10012762:	4628      	mov	r0, r5
10012764:	f805 1d01 	strb.w	r1, [r5, #-1]!
10012768:	d1f2      	bne.n	10012750 <_svfprintf_r+0x820>
1001276a:	07e6      	lsls	r6, r4, #31
1001276c:	d5de      	bpl.n	1001272c <_svfprintf_r+0x7fc>
1001276e:	2930      	cmp	r1, #48	@ 0x30
10012770:	d0dc      	beq.n	1001272c <_svfprintf_r+0x7fc>
10012772:	2330      	movs	r3, #48	@ 0x30
10012774:	3802      	subs	r0, #2
10012776:	f805 3c01 	strb.w	r3, [r5, #-1]
1001277a:	ab5e      	add	r3, sp, #376	@ 0x178
1001277c:	46a1      	mov	r9, r4
1001277e:	eba3 0b00 	sub.w	fp, r3, r0
10012782:	4605      	mov	r5, r0
10012784:	e7d6      	b.n	10012734 <_svfprintf_r+0x804>
10012786:	9b0b      	ldr	r3, [sp, #44]	@ 0x2c
10012788:	9a06      	ldr	r2, [sp, #24]
1001278a:	1a9e      	subs	r6, r3, r2
1001278c:	2e00      	cmp	r6, #0
1001278e:	f77f ad3a 	ble.w	10012206 <_svfprintf_r+0x2d6>
10012792:	2e10      	cmp	r6, #16
10012794:	9b33      	ldr	r3, [sp, #204]	@ 0xcc
10012796:	f341 809f 	ble.w	100138d8 <_svfprintf_r+0x19a8>
1001279a:	4825      	ldr	r0, [pc, #148]	@ (10012830 <_svfprintf_r+0x900>)
1001279c:	f8dd a01c 	ldr.w	sl, [sp, #28]
100127a0:	9015      	str	r0, [sp, #84]	@ 0x54
100127a2:	4621      	mov	r1, r4
100127a4:	2710      	movs	r7, #16
100127a6:	461a      	mov	r2, r3
100127a8:	4604      	mov	r4, r0
100127aa:	e004      	b.n	100127b6 <_svfprintf_r+0x886>
100127ac:	3e10      	subs	r6, #16
100127ae:	2e10      	cmp	r6, #16
100127b0:	f108 0808 	add.w	r8, r8, #8
100127b4:	dd16      	ble.n	100127e4 <_svfprintf_r+0x8b4>
100127b6:	3201      	adds	r2, #1
100127b8:	3110      	adds	r1, #16
100127ba:	2a07      	cmp	r2, #7
100127bc:	e9c8 4700 	strd	r4, r7, [r8]
100127c0:	e9cd 2133 	strd	r2, r1, [sp, #204]	@ 0xcc
100127c4:	ddf2      	ble.n	100127ac <_svfprintf_r+0x87c>
100127c6:	9909      	ldr	r1, [sp, #36]	@ 0x24
100127c8:	aa32      	add	r2, sp, #200	@ 0xc8
100127ca:	4650      	mov	r0, sl
100127cc:	f10d 08d4 	add.w	r8, sp, #212	@ 0xd4
100127d0:	f003 fb6a 	bl	10015ea8 <__ssprint_r>
100127d4:	2800      	cmp	r0, #0
100127d6:	f040 84b2 	bne.w	1001313e <_svfprintf_r+0x120e>
100127da:	3e10      	subs	r6, #16
100127dc:	2e10      	cmp	r6, #16
100127de:	e9dd 2133 	ldrd	r2, r1, [sp, #204]	@ 0xcc
100127e2:	dce8      	bgt.n	100127b6 <_svfprintf_r+0x886>
100127e4:	460c      	mov	r4, r1
100127e6:	4613      	mov	r3, r2
100127e8:	3301      	adds	r3, #1
100127ea:	9a15      	ldr	r2, [sp, #84]	@ 0x54
100127ec:	f8c8 2000 	str.w	r2, [r8]
100127f0:	4434      	add	r4, r6
100127f2:	2b07      	cmp	r3, #7
100127f4:	e9cd 3433 	strd	r3, r4, [sp, #204]	@ 0xcc
100127f8:	f8c8 6004 	str.w	r6, [r8, #4]
100127fc:	f300 851c 	bgt.w	10013238 <_svfprintf_r+0x1308>
10012800:	9b08      	ldr	r3, [sp, #32]
10012802:	eba3 060b 	sub.w	r6, r3, fp
10012806:	2e00      	cmp	r6, #0
10012808:	f108 0808 	add.w	r8, r8, #8
1001280c:	f77f ad01 	ble.w	10012212 <_svfprintf_r+0x2e2>
10012810:	4a07      	ldr	r2, [pc, #28]	@ (10012830 <_svfprintf_r+0x900>)
10012812:	9b33      	ldr	r3, [sp, #204]	@ 0xcc
10012814:	9215      	str	r2, [sp, #84]	@ 0x54
10012816:	2e10      	cmp	r6, #16
10012818:	dd2a      	ble.n	10012870 <_svfprintf_r+0x940>
1001281a:	4622      	mov	r2, r4
1001281c:	9f07      	ldr	r7, [sp, #28]
1001281e:	9c09      	ldr	r4, [sp, #36]	@ 0x24
10012820:	f04f 0a10 	mov.w	sl, #16
10012824:	e00b      	b.n	1001283e <_svfprintf_r+0x90e>
10012826:	bf00      	nop
10012828:	1001b1a4 	.word	0x1001b1a4
1001282c:	1001b1d4 	.word	0x1001b1d4
10012830:	1001b1d8 	.word	0x1001b1d8
10012834:	3e10      	subs	r6, #16
10012836:	2e10      	cmp	r6, #16
10012838:	f108 0808 	add.w	r8, r8, #8
1001283c:	dd17      	ble.n	1001286e <_svfprintf_r+0x93e>
1001283e:	3301      	adds	r3, #1
10012840:	498e      	ldr	r1, [pc, #568]	@ (10012a7c <_svfprintf_r+0xb4c>)
10012842:	3210      	adds	r2, #16
10012844:	2b07      	cmp	r3, #7
10012846:	e9c8 1a00 	strd	r1, sl, [r8]
1001284a:	e9cd 3233 	strd	r3, r2, [sp, #204]	@ 0xcc
1001284e:	ddf1      	ble.n	10012834 <_svfprintf_r+0x904>
10012850:	aa32      	add	r2, sp, #200	@ 0xc8
10012852:	4621      	mov	r1, r4
10012854:	4638      	mov	r0, r7
10012856:	f003 fb27 	bl	10015ea8 <__ssprint_r>
1001285a:	2800      	cmp	r0, #0
1001285c:	f040 820c 	bne.w	10012c78 <_svfprintf_r+0xd48>
10012860:	3e10      	subs	r6, #16
10012862:	2e10      	cmp	r6, #16
10012864:	e9dd 3233 	ldrd	r3, r2, [sp, #204]	@ 0xcc
10012868:	f10d 08d4 	add.w	r8, sp, #212	@ 0xd4
1001286c:	dce7      	bgt.n	1001283e <_svfprintf_r+0x90e>
1001286e:	4614      	mov	r4, r2
10012870:	3301      	adds	r3, #1
10012872:	9a15      	ldr	r2, [sp, #84]	@ 0x54
10012874:	f8c8 2000 	str.w	r2, [r8]
10012878:	4434      	add	r4, r6
1001287a:	2b07      	cmp	r3, #7
1001287c:	e9cd 3433 	strd	r3, r4, [sp, #204]	@ 0xcc
10012880:	f8c8 6004 	str.w	r6, [r8, #4]
10012884:	f300 81c7 	bgt.w	10012c16 <_svfprintf_r+0xce6>
10012888:	f108 0808 	add.w	r8, r8, #8
1001288c:	e4c1      	b.n	10012212 <_svfprintf_r+0x2e2>
1001288e:	9909      	ldr	r1, [sp, #36]	@ 0x24
10012890:	9807      	ldr	r0, [sp, #28]
10012892:	aa32      	add	r2, sp, #200	@ 0xc8
10012894:	f003 fb08 	bl	10015ea8 <__ssprint_r>
10012898:	2800      	cmp	r0, #0
1001289a:	f43f ace0 	beq.w	1001225e <_svfprintf_r+0x32e>
1001289e:	f8dd b01c 	ldr.w	fp, [sp, #28]
100128a2:	e1ea      	b.n	10012c7a <_svfprintf_r+0xd4a>
100128a4:	9b33      	ldr	r3, [sp, #204]	@ 0xcc
100128a6:	4976      	ldr	r1, [pc, #472]	@ (10012a80 <_svfprintf_r+0xb50>)
100128a8:	f8c8 1000 	str.w	r1, [r8]
100128ac:	3301      	adds	r3, #1
100128ae:	3401      	adds	r4, #1
100128b0:	2101      	movs	r1, #1
100128b2:	2b07      	cmp	r3, #7
100128b4:	9434      	str	r4, [sp, #208]	@ 0xd0
100128b6:	9333      	str	r3, [sp, #204]	@ 0xcc
100128b8:	f8c8 1004 	str.w	r1, [r8, #4]
100128bc:	f300 8573 	bgt.w	100133a6 <_svfprintf_r+0x1476>
100128c0:	f108 0808 	add.w	r8, r8, #8
100128c4:	2a00      	cmp	r2, #0
100128c6:	f040 84e5 	bne.w	10013294 <_svfprintf_r+0x1364>
100128ca:	9a13      	ldr	r2, [sp, #76]	@ 0x4c
100128cc:	f009 0301 	and.w	r3, r9, #1
100128d0:	4313      	orrs	r3, r2
100128d2:	f43f acb0 	beq.w	10012236 <_svfprintf_r+0x306>
100128d6:	9b18      	ldr	r3, [sp, #96]	@ 0x60
100128d8:	9a1a      	ldr	r2, [sp, #104]	@ 0x68
100128da:	441c      	add	r4, r3
100128dc:	e9c8 2300 	strd	r2, r3, [r8]
100128e0:	9b33      	ldr	r3, [sp, #204]	@ 0xcc
100128e2:	9434      	str	r4, [sp, #208]	@ 0xd0
100128e4:	3301      	adds	r3, #1
100128e6:	2b07      	cmp	r3, #7
100128e8:	9333      	str	r3, [sp, #204]	@ 0xcc
100128ea:	f300 8643 	bgt.w	10013574 <_svfprintf_r+0x1644>
100128ee:	f108 0808 	add.w	r8, r8, #8
100128f2:	9a13      	ldr	r2, [sp, #76]	@ 0x4c
100128f4:	f8c8 5000 	str.w	r5, [r8]
100128f8:	3301      	adds	r3, #1
100128fa:	4414      	add	r4, r2
100128fc:	2b07      	cmp	r3, #7
100128fe:	e9cd 3433 	strd	r3, r4, [sp, #204]	@ 0xcc
10012902:	f8c8 2004 	str.w	r2, [r8, #4]
10012906:	f77f ac94 	ble.w	10012232 <_svfprintf_r+0x302>
1001290a:	9909      	ldr	r1, [sp, #36]	@ 0x24
1001290c:	9807      	ldr	r0, [sp, #28]
1001290e:	aa32      	add	r2, sp, #200	@ 0xc8
10012910:	f003 faca 	bl	10015ea8 <__ssprint_r>
10012914:	2800      	cmp	r0, #0
10012916:	d1c2      	bne.n	1001289e <_svfprintf_r+0x96e>
10012918:	9c34      	ldr	r4, [sp, #208]	@ 0xd0
1001291a:	f10d 08d4 	add.w	r8, sp, #212	@ 0xd4
1001291e:	e48a      	b.n	10012236 <_svfprintf_r+0x306>
10012920:	9b13      	ldr	r3, [sp, #76]	@ 0x4c
10012922:	9e33      	ldr	r6, [sp, #204]	@ 0xcc
10012924:	2b01      	cmp	r3, #1
10012926:	f104 0401 	add.w	r4, r4, #1
1001292a:	f106 0601 	add.w	r6, r6, #1
1001292e:	f108 0708 	add.w	r7, r8, #8
10012932:	f340 8129 	ble.w	10012b88 <_svfprintf_r+0xc58>
10012936:	2301      	movs	r3, #1
10012938:	2e07      	cmp	r6, #7
1001293a:	e9cd 6433 	strd	r6, r4, [sp, #204]	@ 0xcc
1001293e:	f8c8 5000 	str.w	r5, [r8]
10012942:	f8c8 3004 	str.w	r3, [r8, #4]
10012946:	f300 81b1 	bgt.w	10012cac <_svfprintf_r+0xd7c>
1001294a:	9b18      	ldr	r3, [sp, #96]	@ 0x60
1001294c:	9a1a      	ldr	r2, [sp, #104]	@ 0x68
1001294e:	3601      	adds	r6, #1
10012950:	441c      	add	r4, r3
10012952:	2e07      	cmp	r6, #7
10012954:	e9c7 2300 	strd	r2, r3, [r7]
10012958:	e9cd 6433 	strd	r6, r4, [sp, #204]	@ 0xcc
1001295c:	f300 81b2 	bgt.w	10012cc4 <_svfprintf_r+0xd94>
10012960:	3708      	adds	r7, #8
10012962:	9b13      	ldr	r3, [sp, #76]	@ 0x4c
10012964:	e9dd 0116 	ldrd	r0, r1, [sp, #88]	@ 0x58
10012968:	f103 38ff 	add.w	r8, r3, #4294967295	@ 0xffffffff
1001296c:	2200      	movs	r2, #0
1001296e:	2300      	movs	r3, #0
10012970:	f008 f8ae 	bl	1001aad0 <__aeabi_dcmpeq>
10012974:	2800      	cmp	r0, #0
10012976:	f040 8121 	bne.w	10012bbc <_svfprintf_r+0xc8c>
1001297a:	3601      	adds	r6, #1
1001297c:	3501      	adds	r5, #1
1001297e:	4444      	add	r4, r8
10012980:	2e07      	cmp	r6, #7
10012982:	e9cd 6433 	strd	r6, r4, [sp, #204]	@ 0xcc
10012986:	603d      	str	r5, [r7, #0]
10012988:	f8c7 8004 	str.w	r8, [r7, #4]
1001298c:	f300 810a 	bgt.w	10012ba4 <_svfprintf_r+0xc74>
10012990:	3708      	adds	r7, #8
10012992:	9b1c      	ldr	r3, [sp, #112]	@ 0x70
10012994:	607b      	str	r3, [r7, #4]
10012996:	3601      	adds	r6, #1
10012998:	441c      	add	r4, r3
1001299a:	2e07      	cmp	r6, #7
1001299c:	ab2c      	add	r3, sp, #176	@ 0xb0
1001299e:	e9cd 6433 	strd	r6, r4, [sp, #204]	@ 0xcc
100129a2:	603b      	str	r3, [r7, #0]
100129a4:	dcb1      	bgt.n	1001290a <_svfprintf_r+0x9da>
100129a6:	f107 0808 	add.w	r8, r7, #8
100129aa:	e444      	b.n	10012236 <_svfprintf_r+0x306>
100129ac:	464c      	mov	r4, r9
100129ae:	2b0a      	cmp	r3, #10
100129b0:	f172 0100 	sbcs.w	r1, r2, #0
100129b4:	f080 8353 	bcs.w	1001305e <_svfprintf_r+0x112e>
100129b8:	3330      	adds	r3, #48	@ 0x30
100129ba:	f88d 3177 	strb.w	r3, [sp, #375]	@ 0x177
100129be:	46a1      	mov	r9, r4
100129c0:	f04f 0b01 	mov.w	fp, #1
100129c4:	f20d 1577 	addw	r5, sp, #375	@ 0x177
100129c8:	e6b4      	b.n	10012734 <_svfprintf_r+0x804>
100129ca:	9909      	ldr	r1, [sp, #36]	@ 0x24
100129cc:	9807      	ldr	r0, [sp, #28]
100129ce:	aa32      	add	r2, sp, #200	@ 0xc8
100129d0:	f003 fa6a 	bl	10015ea8 <__ssprint_r>
100129d4:	2800      	cmp	r0, #0
100129d6:	f47f af62 	bne.w	1001289e <_svfprintf_r+0x96e>
100129da:	9c34      	ldr	r4, [sp, #208]	@ 0xd0
100129dc:	f10d 08d4 	add.w	r8, sp, #212	@ 0xd4
100129e0:	e40e      	b.n	10012200 <_svfprintf_r+0x2d0>
100129e2:	9909      	ldr	r1, [sp, #36]	@ 0x24
100129e4:	9807      	ldr	r0, [sp, #28]
100129e6:	9315      	str	r3, [sp, #84]	@ 0x54
100129e8:	aa32      	add	r2, sp, #200	@ 0xc8
100129ea:	f003 fa5d 	bl	10015ea8 <__ssprint_r>
100129ee:	2800      	cmp	r0, #0
100129f0:	f47f af55 	bne.w	1001289e <_svfprintf_r+0x96e>
100129f4:	9c34      	ldr	r4, [sp, #208]	@ 0xd0
100129f6:	9b15      	ldr	r3, [sp, #84]	@ 0x54
100129f8:	f10d 08d4 	add.w	r8, sp, #212	@ 0xd4
100129fc:	f7ff bbee 	b.w	100121dc <_svfprintf_r+0x2ac>
10012a00:	2d10      	cmp	r5, #16
10012a02:	9b33      	ldr	r3, [sp, #204]	@ 0xcc
10012a04:	f340 8731 	ble.w	1001386a <_svfprintf_r+0x193a>
10012a08:	4f1e      	ldr	r7, [pc, #120]	@ (10012a84 <_svfprintf_r+0xb54>)
10012a0a:	f8dd 901c 	ldr.w	r9, [sp, #28]
10012a0e:	f8dd a024 	ldr.w	sl, [sp, #36]	@ 0x24
10012a12:	9715      	str	r7, [sp, #84]	@ 0x54
10012a14:	2610      	movs	r6, #16
10012a16:	e004      	b.n	10012a22 <_svfprintf_r+0xaf2>
10012a18:	3d10      	subs	r5, #16
10012a1a:	2d10      	cmp	r5, #16
10012a1c:	f108 0808 	add.w	r8, r8, #8
10012a20:	dd16      	ble.n	10012a50 <_svfprintf_r+0xb20>
10012a22:	3301      	adds	r3, #1
10012a24:	3410      	adds	r4, #16
10012a26:	2b07      	cmp	r3, #7
10012a28:	e9c8 7600 	strd	r7, r6, [r8]
10012a2c:	e9cd 3433 	strd	r3, r4, [sp, #204]	@ 0xcc
10012a30:	ddf2      	ble.n	10012a18 <_svfprintf_r+0xae8>
10012a32:	aa32      	add	r2, sp, #200	@ 0xc8
10012a34:	4651      	mov	r1, sl
10012a36:	4648      	mov	r0, r9
10012a38:	f10d 08d4 	add.w	r8, sp, #212	@ 0xd4
10012a3c:	f003 fa34 	bl	10015ea8 <__ssprint_r>
10012a40:	2800      	cmp	r0, #0
10012a42:	f040 83e7 	bne.w	10013214 <_svfprintf_r+0x12e4>
10012a46:	3d10      	subs	r5, #16
10012a48:	2d10      	cmp	r5, #16
10012a4a:	e9dd 3433 	ldrd	r3, r4, [sp, #204]	@ 0xcc
10012a4e:	dce8      	bgt.n	10012a22 <_svfprintf_r+0xaf2>
10012a50:	3301      	adds	r3, #1
10012a52:	9a15      	ldr	r2, [sp, #84]	@ 0x54
10012a54:	442c      	add	r4, r5
10012a56:	2b07      	cmp	r3, #7
10012a58:	e9c8 2500 	strd	r2, r5, [r8]
10012a5c:	e9cd 3433 	strd	r3, r4, [sp, #204]	@ 0xcc
10012a60:	f77f abf2 	ble.w	10012248 <_svfprintf_r+0x318>
10012a64:	9909      	ldr	r1, [sp, #36]	@ 0x24
10012a66:	9807      	ldr	r0, [sp, #28]
10012a68:	aa32      	add	r2, sp, #200	@ 0xc8
10012a6a:	f003 fa1d 	bl	10015ea8 <__ssprint_r>
10012a6e:	2800      	cmp	r0, #0
10012a70:	f47f af15 	bne.w	1001289e <_svfprintf_r+0x96e>
10012a74:	9c34      	ldr	r4, [sp, #208]	@ 0xd0
10012a76:	f7ff bbe7 	b.w	10012248 <_svfprintf_r+0x318>
10012a7a:	bf00      	nop
10012a7c:	1001b1d8 	.word	0x1001b1d8
10012a80:	1001b1d4 	.word	0x1001b1d4
10012a84:	1001b1e8 	.word	0x1001b1e8
10012a88:	9a29      	ldr	r2, [sp, #164]	@ 0xa4
10012a8a:	2a00      	cmp	r2, #0
10012a8c:	f77f af0a 	ble.w	100128a4 <_svfprintf_r+0x974>
10012a90:	e9dd 7312 	ldrd	r7, r3, [sp, #72]	@ 0x48
10012a94:	429f      	cmp	r7, r3
10012a96:	bfa8      	it	ge
10012a98:	461f      	movge	r7, r3
10012a9a:	2f00      	cmp	r7, #0
10012a9c:	eb05 0b03 	add.w	fp, r5, r3
10012aa0:	dd0b      	ble.n	10012aba <_svfprintf_r+0xb8a>
10012aa2:	9b33      	ldr	r3, [sp, #204]	@ 0xcc
10012aa4:	3301      	adds	r3, #1
10012aa6:	443c      	add	r4, r7
10012aa8:	2b07      	cmp	r3, #7
10012aaa:	e9c8 5700 	strd	r5, r7, [r8]
10012aae:	9434      	str	r4, [sp, #208]	@ 0xd0
10012ab0:	9333      	str	r3, [sp, #204]	@ 0xcc
10012ab2:	f300 8640 	bgt.w	10013736 <_svfprintf_r+0x1806>
10012ab6:	f108 0808 	add.w	r8, r8, #8
10012aba:	9e12      	ldr	r6, [sp, #72]	@ 0x48
10012abc:	2f00      	cmp	r7, #0
10012abe:	bfa8      	it	ge
10012ac0:	1bf6      	subge	r6, r6, r7
10012ac2:	2e00      	cmp	r6, #0
10012ac4:	f300 8200 	bgt.w	10012ec8 <_svfprintf_r+0xf98>
10012ac8:	9b12      	ldr	r3, [sp, #72]	@ 0x48
10012aca:	f419 6f80 	tst.w	r9, #1024	@ 0x400
10012ace:	442b      	add	r3, r5
10012ad0:	469a      	mov	sl, r3
10012ad2:	f040 8221 	bne.w	10012f18 <_svfprintf_r+0xfe8>
10012ad6:	9d29      	ldr	r5, [sp, #164]	@ 0xa4
10012ad8:	9b13      	ldr	r3, [sp, #76]	@ 0x4c
10012ada:	429d      	cmp	r5, r3
10012adc:	db03      	blt.n	10012ae6 <_svfprintf_r+0xbb6>
10012ade:	f019 0f01 	tst.w	r9, #1
10012ae2:	f000 846e 	beq.w	100133c2 <_svfprintf_r+0x1492>
10012ae6:	9b18      	ldr	r3, [sp, #96]	@ 0x60
10012ae8:	9a1a      	ldr	r2, [sp, #104]	@ 0x68
10012aea:	441c      	add	r4, r3
10012aec:	e9c8 2300 	strd	r2, r3, [r8]
10012af0:	9b33      	ldr	r3, [sp, #204]	@ 0xcc
10012af2:	9434      	str	r4, [sp, #208]	@ 0xd0
10012af4:	3301      	adds	r3, #1
10012af6:	2b07      	cmp	r3, #7
10012af8:	9333      	str	r3, [sp, #204]	@ 0xcc
10012afa:	f300 8673 	bgt.w	100137e4 <_svfprintf_r+0x18b4>
10012afe:	f108 0808 	add.w	r8, r8, #8
10012b02:	9b13      	ldr	r3, [sp, #76]	@ 0x4c
10012b04:	ebab 060a 	sub.w	r6, fp, sl
10012b08:	1b5d      	subs	r5, r3, r5
10012b0a:	42ae      	cmp	r6, r5
10012b0c:	bfa8      	it	ge
10012b0e:	462e      	movge	r6, r5
10012b10:	2e00      	cmp	r6, #0
10012b12:	dd0d      	ble.n	10012b30 <_svfprintf_r+0xc00>
10012b14:	9b33      	ldr	r3, [sp, #204]	@ 0xcc
10012b16:	f8c8 a000 	str.w	sl, [r8]
10012b1a:	3301      	adds	r3, #1
10012b1c:	4434      	add	r4, r6
10012b1e:	2b07      	cmp	r3, #7
10012b20:	f8c8 6004 	str.w	r6, [r8, #4]
10012b24:	9434      	str	r4, [sp, #208]	@ 0xd0
10012b26:	9333      	str	r3, [sp, #204]	@ 0xcc
10012b28:	f300 866e 	bgt.w	10013808 <_svfprintf_r+0x18d8>
10012b2c:	f108 0808 	add.w	r8, r8, #8
10012b30:	2e00      	cmp	r6, #0
10012b32:	bfa8      	it	ge
10012b34:	1bad      	subge	r5, r5, r6
10012b36:	2d00      	cmp	r5, #0
10012b38:	f77f ab7d 	ble.w	10012236 <_svfprintf_r+0x306>
10012b3c:	2d10      	cmp	r5, #16
10012b3e:	9b33      	ldr	r3, [sp, #204]	@ 0xcc
10012b40:	f340 836a 	ble.w	10013218 <_svfprintf_r+0x12e8>
10012b44:	4fad      	ldr	r7, [pc, #692]	@ (10012dfc <_svfprintf_r+0xecc>)
10012b46:	f8dd b01c 	ldr.w	fp, [sp, #28]
10012b4a:	f8dd a024 	ldr.w	sl, [sp, #36]	@ 0x24
10012b4e:	9715      	str	r7, [sp, #84]	@ 0x54
10012b50:	2610      	movs	r6, #16
10012b52:	e005      	b.n	10012b60 <_svfprintf_r+0xc30>
10012b54:	f108 0808 	add.w	r8, r8, #8
10012b58:	3d10      	subs	r5, #16
10012b5a:	2d10      	cmp	r5, #16
10012b5c:	f340 835e 	ble.w	1001321c <_svfprintf_r+0x12ec>
10012b60:	3301      	adds	r3, #1
10012b62:	3410      	adds	r4, #16
10012b64:	2b07      	cmp	r3, #7
10012b66:	e9c8 7600 	strd	r7, r6, [r8]
10012b6a:	e9cd 3433 	strd	r3, r4, [sp, #204]	@ 0xcc
10012b6e:	ddf1      	ble.n	10012b54 <_svfprintf_r+0xc24>
10012b70:	aa32      	add	r2, sp, #200	@ 0xc8
10012b72:	4651      	mov	r1, sl
10012b74:	4658      	mov	r0, fp
10012b76:	f003 f997 	bl	10015ea8 <__ssprint_r>
10012b7a:	2800      	cmp	r0, #0
10012b7c:	d17d      	bne.n	10012c7a <_svfprintf_r+0xd4a>
10012b7e:	e9dd 3433 	ldrd	r3, r4, [sp, #204]	@ 0xcc
10012b82:	f10d 08d4 	add.w	r8, sp, #212	@ 0xd4
10012b86:	e7e7      	b.n	10012b58 <_svfprintf_r+0xc28>
10012b88:	f019 0f01 	tst.w	r9, #1
10012b8c:	f47f aed3 	bne.w	10012936 <_svfprintf_r+0xa06>
10012b90:	2301      	movs	r3, #1
10012b92:	2e07      	cmp	r6, #7
10012b94:	e9cd 6433 	strd	r6, r4, [sp, #204]	@ 0xcc
10012b98:	f8c8 5000 	str.w	r5, [r8]
10012b9c:	f8c8 3004 	str.w	r3, [r8, #4]
10012ba0:	f77f aef7 	ble.w	10012992 <_svfprintf_r+0xa62>
10012ba4:	9909      	ldr	r1, [sp, #36]	@ 0x24
10012ba6:	9807      	ldr	r0, [sp, #28]
10012ba8:	aa32      	add	r2, sp, #200	@ 0xc8
10012baa:	f003 f97d 	bl	10015ea8 <__ssprint_r>
10012bae:	2800      	cmp	r0, #0
10012bb0:	f47f ae75 	bne.w	1001289e <_svfprintf_r+0x96e>
10012bb4:	e9dd 6433 	ldrd	r6, r4, [sp, #204]	@ 0xcc
10012bb8:	af35      	add	r7, sp, #212	@ 0xd4
10012bba:	e6ea      	b.n	10012992 <_svfprintf_r+0xa62>
10012bbc:	9b13      	ldr	r3, [sp, #76]	@ 0x4c
10012bbe:	2b01      	cmp	r3, #1
10012bc0:	f77f aee7 	ble.w	10012992 <_svfprintf_r+0xa62>
10012bc4:	2b11      	cmp	r3, #17
10012bc6:	4b8d      	ldr	r3, [pc, #564]	@ (10012dfc <_svfprintf_r+0xecc>)
10012bc8:	9315      	str	r3, [sp, #84]	@ 0x54
10012bca:	f340 8357 	ble.w	1001327c <_svfprintf_r+0x134c>
10012bce:	f8cd 9020 	str.w	r9, [sp, #32]
10012bd2:	f8dd a01c 	ldr.w	sl, [sp, #28]
10012bd6:	f8dd b024 	ldr.w	fp, [sp, #36]	@ 0x24
10012bda:	2510      	movs	r5, #16
10012bdc:	4699      	mov	r9, r3
10012bde:	e006      	b.n	10012bee <_svfprintf_r+0xcbe>
10012be0:	3708      	adds	r7, #8
10012be2:	f1a8 0810 	sub.w	r8, r8, #16
10012be6:	f1b8 0f10 	cmp.w	r8, #16
10012bea:	f340 8345 	ble.w	10013278 <_svfprintf_r+0x1348>
10012bee:	3601      	adds	r6, #1
10012bf0:	3410      	adds	r4, #16
10012bf2:	2e07      	cmp	r6, #7
10012bf4:	e9c7 9500 	strd	r9, r5, [r7]
10012bf8:	e9cd 6433 	strd	r6, r4, [sp, #204]	@ 0xcc
10012bfc:	ddf0      	ble.n	10012be0 <_svfprintf_r+0xcb0>
10012bfe:	aa32      	add	r2, sp, #200	@ 0xc8
10012c00:	4659      	mov	r1, fp
10012c02:	4650      	mov	r0, sl
10012c04:	f003 f950 	bl	10015ea8 <__ssprint_r>
10012c08:	2800      	cmp	r0, #0
10012c0a:	f040 8298 	bne.w	1001313e <_svfprintf_r+0x120e>
10012c0e:	e9dd 6433 	ldrd	r6, r4, [sp, #204]	@ 0xcc
10012c12:	af35      	add	r7, sp, #212	@ 0xd4
10012c14:	e7e5      	b.n	10012be2 <_svfprintf_r+0xcb2>
10012c16:	9909      	ldr	r1, [sp, #36]	@ 0x24
10012c18:	9807      	ldr	r0, [sp, #28]
10012c1a:	aa32      	add	r2, sp, #200	@ 0xc8
10012c1c:	f003 f944 	bl	10015ea8 <__ssprint_r>
10012c20:	2800      	cmp	r0, #0
10012c22:	f47f ae3c 	bne.w	1001289e <_svfprintf_r+0x96e>
10012c26:	9c34      	ldr	r4, [sp, #208]	@ 0xd0
10012c28:	f10d 08d4 	add.w	r8, sp, #212	@ 0xd4
10012c2c:	f7ff baf1 	b.w	10012212 <_svfprintf_r+0x2e2>
10012c30:	990d      	ldr	r1, [sp, #52]	@ 0x34
10012c32:	f851 3b04 	ldr.w	r3, [r1], #4
10012c36:	910d      	str	r1, [sp, #52]	@ 0x34
10012c38:	f019 0110 	ands.w	r1, r9, #16
10012c3c:	f47f ac4d 	bne.w	100124da <_svfprintf_r+0x5aa>
10012c40:	f019 0040 	ands.w	r0, r9, #64	@ 0x40
10012c44:	f000 8362 	beq.w	1001330c <_svfprintf_r+0x13dc>
10012c48:	b29b      	uxth	r3, r3
10012c4a:	460a      	mov	r2, r1
10012c4c:	e445      	b.n	100124da <_svfprintf_r+0x5aa>
10012c4e:	990d      	ldr	r1, [sp, #52]	@ 0x34
10012c50:	f851 3b04 	ldr.w	r3, [r1], #4
10012c54:	910d      	str	r1, [sp, #52]	@ 0x34
10012c56:	f014 0110 	ands.w	r1, r4, #16
10012c5a:	d10b      	bne.n	10012c74 <_svfprintf_r+0xd44>
10012c5c:	f014 0040 	ands.w	r0, r4, #64	@ 0x40
10012c60:	d003      	beq.n	10012c6a <_svfprintf_r+0xd3a>
10012c62:	460a      	mov	r2, r1
10012c64:	b29b      	uxth	r3, r3
10012c66:	2101      	movs	r1, #1
10012c68:	e43a      	b.n	100124e0 <_svfprintf_r+0x5b0>
10012c6a:	f414 7200 	ands.w	r2, r4, #512	@ 0x200
10012c6e:	bf1c      	itt	ne
10012c70:	b2db      	uxtbne	r3, r3
10012c72:	4602      	movne	r2, r0
10012c74:	2101      	movs	r1, #1
10012c76:	e433      	b.n	100124e0 <_svfprintf_r+0x5b0>
10012c78:	46bb      	mov	fp, r7
10012c7a:	9b0c      	ldr	r3, [sp, #48]	@ 0x30
10012c7c:	2b00      	cmp	r3, #0
10012c7e:	f43f aa5c 	beq.w	1001213a <_svfprintf_r+0x20a>
10012c82:	990c      	ldr	r1, [sp, #48]	@ 0x30
10012c84:	4658      	mov	r0, fp
10012c86:	f002 fdbb 	bl	10015800 <_free_r>
10012c8a:	9b09      	ldr	r3, [sp, #36]	@ 0x24
10012c8c:	899b      	ldrh	r3, [r3, #12]
10012c8e:	f003 0340 	and.w	r3, r3, #64	@ 0x40
10012c92:	f7ff ba56 	b.w	10012142 <_svfprintf_r+0x212>
10012c96:	f8dd b020 	ldr.w	fp, [sp, #32]
10012c9a:	ad5e      	add	r5, sp, #376	@ 0x178
10012c9c:	e54a      	b.n	10012734 <_svfprintf_r+0x804>
10012c9e:	425b      	negs	r3, r3
10012ca0:	eb62 0242 	sbc.w	r2, r2, r2, lsl #1
10012ca4:	464c      	mov	r4, r9
10012ca6:	202d      	movs	r0, #45	@ 0x2d
10012ca8:	2101      	movs	r1, #1
10012caa:	e41a      	b.n	100124e2 <_svfprintf_r+0x5b2>
10012cac:	9909      	ldr	r1, [sp, #36]	@ 0x24
10012cae:	9807      	ldr	r0, [sp, #28]
10012cb0:	aa32      	add	r2, sp, #200	@ 0xc8
10012cb2:	f003 f8f9 	bl	10015ea8 <__ssprint_r>
10012cb6:	2800      	cmp	r0, #0
10012cb8:	f47f adf1 	bne.w	1001289e <_svfprintf_r+0x96e>
10012cbc:	e9dd 6433 	ldrd	r6, r4, [sp, #204]	@ 0xcc
10012cc0:	af35      	add	r7, sp, #212	@ 0xd4
10012cc2:	e642      	b.n	1001294a <_svfprintf_r+0xa1a>
10012cc4:	9909      	ldr	r1, [sp, #36]	@ 0x24
10012cc6:	9807      	ldr	r0, [sp, #28]
10012cc8:	aa32      	add	r2, sp, #200	@ 0xc8
10012cca:	f003 f8ed 	bl	10015ea8 <__ssprint_r>
10012cce:	2800      	cmp	r0, #0
10012cd0:	f47f ade5 	bne.w	1001289e <_svfprintf_r+0x96e>
10012cd4:	e9dd 6433 	ldrd	r6, r4, [sp, #204]	@ 0xcc
10012cd8:	af35      	add	r7, sp, #212	@ 0xd4
10012cda:	e642      	b.n	10012962 <_svfprintf_r+0xa32>
10012cdc:	f019 0f01 	tst.w	r9, #1
10012ce0:	f43f aaa9 	beq.w	10012236 <_svfprintf_r+0x306>
10012ce4:	e4d4      	b.n	10012690 <_svfprintf_r+0x760>
10012ce6:	930d      	str	r3, [sp, #52]	@ 0x34
10012ce8:	7823      	ldrb	r3, [r4, #0]
10012cea:	f7ff b978 	b.w	10011fde <_svfprintf_r+0xae>
10012cee:	ad5e      	add	r5, sp, #376	@ 0x178
10012cf0:	e520      	b.n	10012734 <_svfprintf_r+0x804>
10012cf2:	f419 7f00 	tst.w	r9, #512	@ 0x200
10012cf6:	f040 8373 	bne.w	100133e0 <_svfprintf_r+0x14b0>
10012cfa:	17da      	asrs	r2, r3, #31
10012cfc:	4611      	mov	r1, r2
10012cfe:	f7ff bbb2 	b.w	10012466 <_svfprintf_r+0x536>
10012d02:	f019 0f10 	tst.w	r9, #16
10012d06:	f040 82b1 	bne.w	1001326c <_svfprintf_r+0x133c>
10012d0a:	f019 0f40 	tst.w	r9, #64	@ 0x40
10012d0e:	f040 8361 	bne.w	100133d4 <_svfprintf_r+0x14a4>
10012d12:	f419 7f00 	tst.w	r9, #512	@ 0x200
10012d16:	f000 82a9 	beq.w	1001326c <_svfprintf_r+0x133c>
10012d1a:	9b0d      	ldr	r3, [sp, #52]	@ 0x34
10012d1c:	9a0a      	ldr	r2, [sp, #40]	@ 0x28
10012d1e:	681b      	ldr	r3, [r3, #0]
10012d20:	701a      	strb	r2, [r3, #0]
10012d22:	e40f      	b.n	10012544 <_svfprintf_r+0x614>
10012d24:	9a1b      	ldr	r2, [sp, #108]	@ 0x6c
10012d26:	7823      	ldrb	r3, [r4, #0]
10012d28:	2a00      	cmp	r2, #0
10012d2a:	f43f a958 	beq.w	10011fde <_svfprintf_r+0xae>
10012d2e:	7812      	ldrb	r2, [r2, #0]
10012d30:	2a00      	cmp	r2, #0
10012d32:	f43f a954 	beq.w	10011fde <_svfprintf_r+0xae>
10012d36:	f449 6980 	orr.w	r9, r9, #1024	@ 0x400
10012d3a:	f7ff b950 	b.w	10011fde <_svfprintf_r+0xae>
10012d3e:	e9dd 0116 	ldrd	r0, r1, [sp, #88]	@ 0x58
10012d42:	4602      	mov	r2, r0
10012d44:	460b      	mov	r3, r1
10012d46:	f007 fef5 	bl	1001ab34 <__aeabi_dcmpun>
10012d4a:	2800      	cmp	r0, #0
10012d4c:	f040 860d 	bne.w	1001396a <_svfprintf_r+0x1a3a>
10012d50:	9b0e      	ldr	r3, [sp, #56]	@ 0x38
10012d52:	2b61      	cmp	r3, #97	@ 0x61
10012d54:	f000 8504 	beq.w	10013760 <_svfprintf_r+0x1830>
10012d58:	2b41      	cmp	r3, #65	@ 0x41
10012d5a:	f000 8580 	beq.w	1001385e <_svfprintf_r+0x192e>
10012d5e:	9b08      	ldr	r3, [sp, #32]
10012d60:	3301      	adds	r3, #1
10012d62:	f000 8415 	beq.w	10013590 <_svfprintf_r+0x1660>
10012d66:	9b0e      	ldr	r3, [sp, #56]	@ 0x38
10012d68:	f023 0320 	bic.w	r3, r3, #32
10012d6c:	2b47      	cmp	r3, #71	@ 0x47
10012d6e:	d104      	bne.n	10012d7a <_svfprintf_r+0xe4a>
10012d70:	9b08      	ldr	r3, [sp, #32]
10012d72:	2b00      	cmp	r3, #0
10012d74:	bf08      	it	eq
10012d76:	2301      	moveq	r3, #1
10012d78:	9308      	str	r3, [sp, #32]
10012d7a:	e9dd 0116 	ldrd	r0, r1, [sp, #88]	@ 0x58
10012d7e:	f449 7280 	orr.w	r2, r9, #256	@ 0x100
10012d82:	2900      	cmp	r1, #0
10012d84:	9215      	str	r2, [sp, #84]	@ 0x54
10012d86:	f8cd 9018 	str.w	r9, [sp, #24]
10012d8a:	f04f 0300 	mov.w	r3, #0
10012d8e:	f2c0 851f 	blt.w	100137d0 <_svfprintf_r+0x18a0>
10012d92:	e9cd 0124 	strd	r0, r1, [sp, #144]	@ 0x90
10012d96:	931f      	str	r3, [sp, #124]	@ 0x7c
10012d98:	930c      	str	r3, [sp, #48]	@ 0x30
10012d9a:	9b0e      	ldr	r3, [sp, #56]	@ 0x38
10012d9c:	3b41      	subs	r3, #65	@ 0x41
10012d9e:	2b25      	cmp	r3, #37	@ 0x25
10012da0:	f200 8326 	bhi.w	100133f0 <_svfprintf_r+0x14c0>
10012da4:	e8df f013 	tbh	[pc, r3, lsl #1]
10012da8:	032403ff 	.word	0x032403ff
10012dac:	03240324 	.word	0x03240324
10012db0:	03fc03f8 	.word	0x03fc03f8
10012db4:	03240324 	.word	0x03240324
10012db8:	03240324 	.word	0x03240324
10012dbc:	03240324 	.word	0x03240324
10012dc0:	03240324 	.word	0x03240324
10012dc4:	03240324 	.word	0x03240324
10012dc8:	03240324 	.word	0x03240324
10012dcc:	03240324 	.word	0x03240324
10012dd0:	03240324 	.word	0x03240324
10012dd4:	03240324 	.word	0x03240324
10012dd8:	03240324 	.word	0x03240324
10012ddc:	03240324 	.word	0x03240324
10012de0:	03240324 	.word	0x03240324
10012de4:	03240324 	.word	0x03240324
10012de8:	03240324 	.word	0x03240324
10012dec:	03240324 	.word	0x03240324
10012df0:	03fc03f8 	.word	0x03fc03f8
10012df4:	e9cd 340e 	strd	r3, r4, [sp, #56]	@ 0x38
10012df8:	f7ff bb62 	b.w	100124c0 <_svfprintf_r+0x590>
10012dfc:	1001b1d8 	.word	0x1001b1d8
10012e00:	e9cd 340e 	strd	r3, r4, [sp, #56]	@ 0x38
10012e04:	464c      	mov	r4, r9
10012e06:	f7ff bbc9 	b.w	1001259c <_svfprintf_r+0x66c>
10012e0a:	e9cd 340e 	strd	r3, r4, [sp, #56]	@ 0x38
10012e0e:	4bbd      	ldr	r3, [pc, #756]	@ (10013104 <_svfprintf_r+0x11d4>)
10012e10:	9319      	str	r3, [sp, #100]	@ 0x64
10012e12:	f019 0220 	ands.w	r2, r9, #32
10012e16:	f000 8108 	beq.w	1001302a <_svfprintf_r+0x10fa>
10012e1a:	9b0d      	ldr	r3, [sp, #52]	@ 0x34
10012e1c:	3307      	adds	r3, #7
10012e1e:	f023 0307 	bic.w	r3, r3, #7
10012e22:	4619      	mov	r1, r3
10012e24:	685a      	ldr	r2, [r3, #4]
10012e26:	f851 3b08 	ldr.w	r3, [r1], #8
10012e2a:	910d      	str	r1, [sp, #52]	@ 0x34
10012e2c:	f019 0f01 	tst.w	r9, #1
10012e30:	d00a      	beq.n	10012e48 <_svfprintf_r+0xf18>
10012e32:	ea53 0102 	orrs.w	r1, r3, r2
10012e36:	d007      	beq.n	10012e48 <_svfprintf_r+0xf18>
10012e38:	990e      	ldr	r1, [sp, #56]	@ 0x38
10012e3a:	f88d 10a1 	strb.w	r1, [sp, #161]	@ 0xa1
10012e3e:	2130      	movs	r1, #48	@ 0x30
10012e40:	f049 0902 	orr.w	r9, r9, #2
10012e44:	f88d 10a0 	strb.w	r1, [sp, #160]	@ 0xa0
10012e48:	f429 6480 	bic.w	r4, r9, #1024	@ 0x400
10012e4c:	2102      	movs	r1, #2
10012e4e:	f7ff bb47 	b.w	100124e0 <_svfprintf_r+0x5b0>
10012e52:	e9cd 340e 	strd	r3, r4, [sp, #56]	@ 0x38
10012e56:	4bac      	ldr	r3, [pc, #688]	@ (10013108 <_svfprintf_r+0x11d8>)
10012e58:	9319      	str	r3, [sp, #100]	@ 0x64
10012e5a:	e7da      	b.n	10012e12 <_svfprintf_r+0xee2>
10012e5c:	9b0d      	ldr	r3, [sp, #52]	@ 0x34
10012e5e:	681b      	ldr	r3, [r3, #0]
10012e60:	f88d 3114 	strb.w	r3, [sp, #276]	@ 0x114
10012e64:	2301      	movs	r3, #1
10012e66:	9306      	str	r3, [sp, #24]
10012e68:	469b      	mov	fp, r3
10012e6a:	ad45      	add	r5, sp, #276	@ 0x114
10012e6c:	f7ff baaf 	b.w	100123ce <_svfprintf_r+0x49e>
10012e70:	9909      	ldr	r1, [sp, #36]	@ 0x24
10012e72:	9807      	ldr	r0, [sp, #28]
10012e74:	aa32      	add	r2, sp, #200	@ 0xc8
10012e76:	f003 f817 	bl	10015ea8 <__ssprint_r>
10012e7a:	2800      	cmp	r0, #0
10012e7c:	f47f ad0f 	bne.w	1001289e <_svfprintf_r+0x96e>
10012e80:	9c34      	ldr	r4, [sp, #208]	@ 0xd0
10012e82:	f10d 08d4 	add.w	r8, sp, #212	@ 0xd4
10012e86:	e411      	b.n	100126ac <_svfprintf_r+0x77c>
10012e88:	2140      	movs	r1, #64	@ 0x40
10012e8a:	4658      	mov	r0, fp
10012e8c:	f000 fe20 	bl	10013ad0 <_malloc_r>
10012e90:	9b09      	ldr	r3, [sp, #36]	@ 0x24
10012e92:	6018      	str	r0, [r3, #0]
10012e94:	6118      	str	r0, [r3, #16]
10012e96:	2800      	cmp	r0, #0
10012e98:	f000 8610 	beq.w	10013abc <_svfprintf_r+0x1b8c>
10012e9c:	9a09      	ldr	r2, [sp, #36]	@ 0x24
10012e9e:	2340      	movs	r3, #64	@ 0x40
10012ea0:	6153      	str	r3, [r2, #20]
10012ea2:	f7ff b861 	b.w	10011f68 <_svfprintf_r+0x38>
10012ea6:	9b08      	ldr	r3, [sp, #32]
10012ea8:	950c      	str	r5, [sp, #48]	@ 0x30
10012eaa:	2b06      	cmp	r3, #6
10012eac:	4629      	mov	r1, r5
10012eae:	bf28      	it	cs
10012eb0:	2306      	movcs	r3, #6
10012eb2:	9508      	str	r5, [sp, #32]
10012eb4:	462a      	mov	r2, r5
10012eb6:	9306      	str	r3, [sp, #24]
10012eb8:	4d94      	ldr	r5, [pc, #592]	@ (1001310c <_svfprintf_r+0x11dc>)
10012eba:	960d      	str	r6, [sp, #52]	@ 0x34
10012ebc:	469b      	mov	fp, r3
10012ebe:	9114      	str	r1, [sp, #80]	@ 0x50
10012ec0:	9110      	str	r1, [sp, #64]	@ 0x40
10012ec2:	9112      	str	r1, [sp, #72]	@ 0x48
10012ec4:	f7ff ba1b 	b.w	100122fe <_svfprintf_r+0x3ce>
10012ec8:	2e10      	cmp	r6, #16
10012eca:	9b33      	ldr	r3, [sp, #204]	@ 0xcc
10012ecc:	f340 85e7 	ble.w	10013a9e <_svfprintf_r+0x1b6e>
10012ed0:	488f      	ldr	r0, [pc, #572]	@ (10013110 <_svfprintf_r+0x11e0>)
10012ed2:	f8dd a01c 	ldr.w	sl, [sp, #28]
10012ed6:	9015      	str	r0, [sp, #84]	@ 0x54
10012ed8:	4642      	mov	r2, r8
10012eda:	4621      	mov	r1, r4
10012edc:	46a8      	mov	r8, r5
10012ede:	9c09      	ldr	r4, [sp, #36]	@ 0x24
10012ee0:	2710      	movs	r7, #16
10012ee2:	4605      	mov	r5, r0
10012ee4:	e004      	b.n	10012ef0 <_svfprintf_r+0xfc0>
10012ee6:	3208      	adds	r2, #8
10012ee8:	3e10      	subs	r6, #16
10012eea:	2e10      	cmp	r6, #16
10012eec:	f340 8223 	ble.w	10013336 <_svfprintf_r+0x1406>
10012ef0:	3301      	adds	r3, #1
10012ef2:	3110      	adds	r1, #16
10012ef4:	2b07      	cmp	r3, #7
10012ef6:	e9c2 5700 	strd	r5, r7, [r2]
10012efa:	e9cd 3133 	strd	r3, r1, [sp, #204]	@ 0xcc
10012efe:	ddf2      	ble.n	10012ee6 <_svfprintf_r+0xfb6>
10012f00:	aa32      	add	r2, sp, #200	@ 0xc8
10012f02:	4621      	mov	r1, r4
10012f04:	4650      	mov	r0, sl
10012f06:	f002 ffcf 	bl	10015ea8 <__ssprint_r>
10012f0a:	2800      	cmp	r0, #0
10012f0c:	f040 8117 	bne.w	1001313e <_svfprintf_r+0x120e>
10012f10:	e9dd 3133 	ldrd	r3, r1, [sp, #204]	@ 0xcc
10012f14:	aa35      	add	r2, sp, #212	@ 0xd4
10012f16:	e7e7      	b.n	10012ee8 <_svfprintf_r+0xfb8>
10012f18:	4621      	mov	r1, r4
10012f1a:	461c      	mov	r4, r3
10012f1c:	9b10      	ldr	r3, [sp, #64]	@ 0x40
10012f1e:	f8cd b020 	str.w	fp, [sp, #32]
10012f22:	f8cd 9038 	str.w	r9, [sp, #56]	@ 0x38
10012f26:	4642      	mov	r2, r8
10012f28:	4f79      	ldr	r7, [pc, #484]	@ (10013110 <_svfprintf_r+0x11e0>)
10012f2a:	f8dd 9050 	ldr.w	r9, [sp, #80]	@ 0x50
10012f2e:	f8dd 8078 	ldr.w	r8, [sp, #120]	@ 0x78
10012f32:	f8dd a06c 	ldr.w	sl, [sp, #108]	@ 0x6c
10012f36:	f8dd b01c 	ldr.w	fp, [sp, #28]
10012f3a:	b383      	cbz	r3, 10012f9e <_svfprintf_r+0x106e>
10012f3c:	f1b9 0f00 	cmp.w	r9, #0
10012f40:	f000 80ff 	beq.w	10013142 <_svfprintf_r+0x1212>
10012f44:	f109 39ff 	add.w	r9, r9, #4294967295	@ 0xffffffff
10012f48:	9833      	ldr	r0, [sp, #204]	@ 0xcc
10012f4a:	9b1d      	ldr	r3, [sp, #116]	@ 0x74
10012f4c:	3001      	adds	r0, #1
10012f4e:	4441      	add	r1, r8
10012f50:	2807      	cmp	r0, #7
10012f52:	e9c2 3800 	strd	r3, r8, [r2]
10012f56:	9134      	str	r1, [sp, #208]	@ 0xd0
10012f58:	9033      	str	r0, [sp, #204]	@ 0xcc
10012f5a:	dc75      	bgt.n	10013048 <_svfprintf_r+0x1118>
10012f5c:	3208      	adds	r2, #8
10012f5e:	9b08      	ldr	r3, [sp, #32]
10012f60:	f89a 0000 	ldrb.w	r0, [sl]
10012f64:	1b1e      	subs	r6, r3, r4
10012f66:	4286      	cmp	r6, r0
10012f68:	bfa8      	it	ge
10012f6a:	4606      	movge	r6, r0
10012f6c:	2e00      	cmp	r6, #0
10012f6e:	dd0c      	ble.n	10012f8a <_svfprintf_r+0x105a>
10012f70:	9833      	ldr	r0, [sp, #204]	@ 0xcc
10012f72:	3001      	adds	r0, #1
10012f74:	4431      	add	r1, r6
10012f76:	2807      	cmp	r0, #7
10012f78:	e9c2 4600 	strd	r4, r6, [r2]
10012f7c:	9134      	str	r1, [sp, #208]	@ 0xd0
10012f7e:	9033      	str	r0, [sp, #204]	@ 0xcc
10012f80:	f300 8167 	bgt.w	10013252 <_svfprintf_r+0x1322>
10012f84:	f89a 0000 	ldrb.w	r0, [sl]
10012f88:	3208      	adds	r2, #8
10012f8a:	2e00      	cmp	r6, #0
10012f8c:	bfac      	ite	ge
10012f8e:	1b85      	subge	r5, r0, r6
10012f90:	4605      	movlt	r5, r0
10012f92:	2d00      	cmp	r5, #0
10012f94:	dc13      	bgt.n	10012fbe <_svfprintf_r+0x108e>
10012f96:	4404      	add	r4, r0
10012f98:	9b10      	ldr	r3, [sp, #64]	@ 0x40
10012f9a:	2b00      	cmp	r3, #0
10012f9c:	d1ce      	bne.n	10012f3c <_svfprintf_r+0x100c>
10012f9e:	f1b9 0f00 	cmp.w	r9, #0
10012fa2:	d1cf      	bne.n	10012f44 <_svfprintf_r+0x1014>
10012fa4:	f8dd b020 	ldr.w	fp, [sp, #32]
10012fa8:	f8cd a06c 	str.w	sl, [sp, #108]	@ 0x6c
10012fac:	46a2      	mov	sl, r4
10012fae:	45da      	cmp	sl, fp
10012fb0:	f8dd 9038 	ldr.w	r9, [sp, #56]	@ 0x38
10012fb4:	4690      	mov	r8, r2
10012fb6:	460c      	mov	r4, r1
10012fb8:	bf28      	it	cs
10012fba:	46da      	movcs	sl, fp
10012fbc:	e58b      	b.n	10012ad6 <_svfprintf_r+0xba6>
10012fbe:	2d10      	cmp	r5, #16
10012fc0:	9833      	ldr	r0, [sp, #204]	@ 0xcc
10012fc2:	f340 853c 	ble.w	10013a3e <_svfprintf_r+0x1b0e>
10012fc6:	4623      	mov	r3, r4
10012fc8:	463e      	mov	r6, r7
10012fca:	462c      	mov	r4, r5
10012fcc:	461d      	mov	r5, r3
10012fce:	e004      	b.n	10012fda <_svfprintf_r+0x10aa>
10012fd0:	3c10      	subs	r4, #16
10012fd2:	2c10      	cmp	r4, #16
10012fd4:	f102 0208 	add.w	r2, r2, #8
10012fd8:	dd16      	ble.n	10013008 <_svfprintf_r+0x10d8>
10012fda:	3001      	adds	r0, #1
10012fdc:	3110      	adds	r1, #16
10012fde:	2310      	movs	r3, #16
10012fe0:	2807      	cmp	r0, #7
10012fe2:	e9cd 0133 	strd	r0, r1, [sp, #204]	@ 0xcc
10012fe6:	6017      	str	r7, [r2, #0]
10012fe8:	6053      	str	r3, [r2, #4]
10012fea:	ddf1      	ble.n	10012fd0 <_svfprintf_r+0x10a0>
10012fec:	9909      	ldr	r1, [sp, #36]	@ 0x24
10012fee:	aa32      	add	r2, sp, #200	@ 0xc8
10012ff0:	4658      	mov	r0, fp
10012ff2:	f002 ff59 	bl	10015ea8 <__ssprint_r>
10012ff6:	2800      	cmp	r0, #0
10012ff8:	f47f ae3f 	bne.w	10012c7a <_svfprintf_r+0xd4a>
10012ffc:	3c10      	subs	r4, #16
10012ffe:	2c10      	cmp	r4, #16
10013000:	e9dd 0133 	ldrd	r0, r1, [sp, #204]	@ 0xcc
10013004:	aa35      	add	r2, sp, #212	@ 0xd4
10013006:	dce8      	bgt.n	10012fda <_svfprintf_r+0x10aa>
10013008:	462b      	mov	r3, r5
1001300a:	4625      	mov	r5, r4
1001300c:	461c      	mov	r4, r3
1001300e:	3001      	adds	r0, #1
10013010:	4429      	add	r1, r5
10013012:	2807      	cmp	r0, #7
10013014:	e9cd 0133 	strd	r0, r1, [sp, #204]	@ 0xcc
10013018:	6016      	str	r6, [r2, #0]
1001301a:	6055      	str	r5, [r2, #4]
1001301c:	f300 837d 	bgt.w	1001371a <_svfprintf_r+0x17ea>
10013020:	f89a 0000 	ldrb.w	r0, [sl]
10013024:	3208      	adds	r2, #8
10013026:	4404      	add	r4, r0
10013028:	e7b6      	b.n	10012f98 <_svfprintf_r+0x1068>
1001302a:	990d      	ldr	r1, [sp, #52]	@ 0x34
1001302c:	f851 3b04 	ldr.w	r3, [r1], #4
10013030:	910d      	str	r1, [sp, #52]	@ 0x34
10013032:	f019 0110 	ands.w	r1, r9, #16
10013036:	f47f aef9 	bne.w	10012e2c <_svfprintf_r+0xefc>
1001303a:	f019 0040 	ands.w	r0, r9, #64	@ 0x40
1001303e:	f000 815f 	beq.w	10013300 <_svfprintf_r+0x13d0>
10013042:	b29b      	uxth	r3, r3
10013044:	460a      	mov	r2, r1
10013046:	e6f1      	b.n	10012e2c <_svfprintf_r+0xefc>
10013048:	9909      	ldr	r1, [sp, #36]	@ 0x24
1001304a:	aa32      	add	r2, sp, #200	@ 0xc8
1001304c:	4658      	mov	r0, fp
1001304e:	f002 ff2b 	bl	10015ea8 <__ssprint_r>
10013052:	2800      	cmp	r0, #0
10013054:	f47f ae11 	bne.w	10012c7a <_svfprintf_r+0xd4a>
10013058:	9934      	ldr	r1, [sp, #208]	@ 0xd0
1001305a:	aa35      	add	r2, sp, #212	@ 0xd4
1001305c:	e77f      	b.n	10012f5e <_svfprintf_r+0x102e>
1001305e:	f404 6b80 	and.w	fp, r4, #1024	@ 0x400
10013062:	2100      	movs	r1, #0
10013064:	f8cd 8030 	str.w	r8, [sp, #48]	@ 0x30
10013068:	f8df 90a8 	ldr.w	r9, [pc, #168]	@ 10013114 <_svfprintf_r+0x11e4>
1001306c:	f8dd 806c 	ldr.w	r8, [sp, #108]	@ 0x6c
10013070:	9406      	str	r4, [sp, #24]
10013072:	ad5e      	add	r5, sp, #376	@ 0x178
10013074:	f04f 3acc 	mov.w	sl, #3435973836	@ 0xcccccccc
10013078:	2705      	movs	r7, #5
1001307a:	468c      	mov	ip, r1
1001307c:	465e      	mov	r6, fp
1001307e:	e005      	b.n	1001308c <_svfprintf_r+0x115c>
10013080:	2b0a      	cmp	r3, #10
10013082:	f172 0200 	sbcs.w	r2, r2, #0
10013086:	d333      	bcc.n	100130f0 <_svfprintf_r+0x11c0>
10013088:	465b      	mov	r3, fp
1001308a:	4622      	mov	r2, r4
1001308c:	1899      	adds	r1, r3, r2
1001308e:	f141 0100 	adc.w	r1, r1, #0
10013092:	fba9 0401 	umull	r0, r4, r9, r1
10013096:	f024 0003 	bic.w	r0, r4, #3
1001309a:	eb00 0094 	add.w	r0, r0, r4, lsr #2
1001309e:	1a09      	subs	r1, r1, r0
100130a0:	1a58      	subs	r0, r3, r1
100130a2:	f162 0e00 	sbc.w	lr, r2, #0
100130a6:	fb0a f400 	mul.w	r4, sl, r0
100130aa:	fba0 b009 	umull	fp, r0, r0, r9
100130ae:	fb09 440e 	mla	r4, r9, lr, r4
100130b2:	f00b 0e01 	and.w	lr, fp, #1
100130b6:	4404      	add	r4, r0
100130b8:	fbae 0e07 	umull	r0, lr, lr, r7
100130bc:	1840      	adds	r0, r0, r1
100130be:	ea4f 0b5b 	mov.w	fp, fp, lsr #1
100130c2:	3030      	adds	r0, #48	@ 0x30
100130c4:	f805 0c01 	strb.w	r0, [r5, #-1]
100130c8:	ea4b 7bc4 	orr.w	fp, fp, r4, lsl #31
100130cc:	f10c 0c01 	add.w	ip, ip, #1
100130d0:	3d01      	subs	r5, #1
100130d2:	0864      	lsrs	r4, r4, #1
100130d4:	2e00      	cmp	r6, #0
100130d6:	d0d3      	beq.n	10013080 <_svfprintf_r+0x1150>
100130d8:	f898 1000 	ldrb.w	r1, [r8]
100130dc:	458c      	cmp	ip, r1
100130de:	d1cf      	bne.n	10013080 <_svfprintf_r+0x1150>
100130e0:	f1bc 0fff 	cmp.w	ip, #255	@ 0xff
100130e4:	d0cc      	beq.n	10013080 <_svfprintf_r+0x1150>
100130e6:	2b0a      	cmp	r3, #10
100130e8:	f172 0200 	sbcs.w	r2, r2, #0
100130ec:	f080 8136 	bcs.w	1001335c <_svfprintf_r+0x142c>
100130f0:	f8cd 806c 	str.w	r8, [sp, #108]	@ 0x6c
100130f4:	9c06      	ldr	r4, [sp, #24]
100130f6:	f8dd 8030 	ldr.w	r8, [sp, #48]	@ 0x30
100130fa:	f8cd c04c 	str.w	ip, [sp, #76]	@ 0x4c
100130fe:	f7ff bb15 	b.w	1001272c <_svfprintf_r+0x7fc>
10013102:	bf00      	nop
10013104:	1001b1b8 	.word	0x1001b1b8
10013108:	1001b1a4 	.word	0x1001b1a4
1001310c:	1001b1cc 	.word	0x1001b1cc
10013110:	1001b1d8 	.word	0x1001b1d8
10013114:	cccccccd 	.word	0xcccccccd
10013118:	9909      	ldr	r1, [sp, #36]	@ 0x24
1001311a:	9807      	ldr	r0, [sp, #28]
1001311c:	9315      	str	r3, [sp, #84]	@ 0x54
1001311e:	aa32      	add	r2, sp, #200	@ 0xc8
10013120:	f002 fec2 	bl	10015ea8 <__ssprint_r>
10013124:	2800      	cmp	r0, #0
10013126:	f47f abba 	bne.w	1001289e <_svfprintf_r+0x96e>
1001312a:	f89d 209f 	ldrb.w	r2, [sp, #159]	@ 0x9f
1001312e:	9c34      	ldr	r4, [sp, #208]	@ 0xd0
10013130:	9b15      	ldr	r3, [sp, #84]	@ 0x54
10013132:	f10d 08d4 	add.w	r8, sp, #212	@ 0xd4
10013136:	f7ff b83f 	b.w	100121b8 <_svfprintf_r+0x288>
1001313a:	46a3      	mov	fp, r4
1001313c:	e59d      	b.n	10012c7a <_svfprintf_r+0xd4a>
1001313e:	46d3      	mov	fp, sl
10013140:	e59b      	b.n	10012c7a <_svfprintf_r+0xd4a>
10013142:	9b10      	ldr	r3, [sp, #64]	@ 0x40
10013144:	3b01      	subs	r3, #1
10013146:	f10a 3aff 	add.w	sl, sl, #4294967295	@ 0xffffffff
1001314a:	9310      	str	r3, [sp, #64]	@ 0x40
1001314c:	e6fc      	b.n	10012f48 <_svfprintf_r+0x1018>
1001314e:	2901      	cmp	r1, #1
10013150:	464c      	mov	r4, r9
10013152:	f47f aadb 	bne.w	1001270c <_svfprintf_r+0x7dc>
10013156:	e42f      	b.n	100129b8 <_svfprintf_r+0xa88>
10013158:	9909      	ldr	r1, [sp, #36]	@ 0x24
1001315a:	9807      	ldr	r0, [sp, #28]
1001315c:	aa32      	add	r2, sp, #200	@ 0xc8
1001315e:	f002 fea3 	bl	10015ea8 <__ssprint_r>
10013162:	2800      	cmp	r0, #0
10013164:	f47f ab9b 	bne.w	1001289e <_svfprintf_r+0x96e>
10013168:	9c34      	ldr	r4, [sp, #208]	@ 0xd0
1001316a:	f10d 08d4 	add.w	r8, sp, #212	@ 0xd4
1001316e:	f7ff ba8a 	b.w	10012686 <_svfprintf_r+0x756>
10013172:	af30      	add	r7, sp, #192	@ 0xc0
10013174:	2208      	movs	r2, #8
10013176:	2100      	movs	r1, #0
10013178:	4638      	mov	r0, r7
1001317a:	952b      	str	r5, [sp, #172]	@ 0xac
1001317c:	f000 ff6c 	bl	10014058 <memset>
10013180:	9b08      	ldr	r3, [sp, #32]
10013182:	1c58      	adds	r0, r3, #1
10013184:	f000 80c9 	beq.w	1001331a <_svfprintf_r+0x13ea>
10013188:	2400      	movs	r4, #0
1001318a:	f8cd 9018 	str.w	r9, [sp, #24]
1001318e:	46a3      	mov	fp, r4
10013190:	f8dd 901c 	ldr.w	r9, [sp, #28]
10013194:	469a      	mov	sl, r3
10013196:	e00c      	b.n	100131b2 <_svfprintf_r+0x1282>
10013198:	a945      	add	r1, sp, #276	@ 0x114
1001319a:	4648      	mov	r0, r9
1001319c:	f000 ffae 	bl	100140fc <_wcrtomb_r>
100131a0:	1c41      	adds	r1, r0, #1
100131a2:	4458      	add	r0, fp
100131a4:	f000 838e 	beq.w	100138c4 <_svfprintf_r+0x1994>
100131a8:	4550      	cmp	r0, sl
100131aa:	dc08      	bgt.n	100131be <_svfprintf_r+0x128e>
100131ac:	f000 8441 	beq.w	10013a32 <_svfprintf_r+0x1b02>
100131b0:	4683      	mov	fp, r0
100131b2:	9a2b      	ldr	r2, [sp, #172]	@ 0xac
100131b4:	5912      	ldr	r2, [r2, r4]
100131b6:	463b      	mov	r3, r7
100131b8:	3404      	adds	r4, #4
100131ba:	2a00      	cmp	r2, #0
100131bc:	d1ec      	bne.n	10013198 <_svfprintf_r+0x1268>
100131be:	f8dd 9018 	ldr.w	r9, [sp, #24]
100131c2:	f1bb 0f00 	cmp.w	fp, #0
100131c6:	f000 80dd 	beq.w	10013384 <_svfprintf_r+0x1454>
100131ca:	f1bb 0f63 	cmp.w	fp, #99	@ 0x63
100131ce:	f300 81b9 	bgt.w	10013544 <_svfprintf_r+0x1614>
100131d2:	2300      	movs	r3, #0
100131d4:	930c      	str	r3, [sp, #48]	@ 0x30
100131d6:	ad45      	add	r5, sp, #276	@ 0x114
100131d8:	2208      	movs	r2, #8
100131da:	2100      	movs	r1, #0
100131dc:	4638      	mov	r0, r7
100131de:	f000 ff3b 	bl	10014058 <memset>
100131e2:	9807      	ldr	r0, [sp, #28]
100131e4:	9700      	str	r7, [sp, #0]
100131e6:	465b      	mov	r3, fp
100131e8:	aa2b      	add	r2, sp, #172	@ 0xac
100131ea:	4629      	mov	r1, r5
100131ec:	f001 f882 	bl	100142f4 <_wcsrtombs_r>
100131f0:	4583      	cmp	fp, r0
100131f2:	f040 845a 	bne.w	10013aaa <_svfprintf_r+0x1b7a>
100131f6:	2300      	movs	r3, #0
100131f8:	f805 300b 	strb.w	r3, [r5, fp]
100131fc:	ea2b 71eb 	bic.w	r1, fp, fp, asr #31
10013200:	f89d 209f 	ldrb.w	r2, [sp, #159]	@ 0x9f
10013204:	960d      	str	r6, [sp, #52]	@ 0x34
10013206:	9308      	str	r3, [sp, #32]
10013208:	9106      	str	r1, [sp, #24]
1001320a:	9314      	str	r3, [sp, #80]	@ 0x50
1001320c:	9310      	str	r3, [sp, #64]	@ 0x40
1001320e:	9312      	str	r3, [sp, #72]	@ 0x48
10013210:	f7ff b875 	b.w	100122fe <_svfprintf_r+0x3ce>
10013214:	46cb      	mov	fp, r9
10013216:	e530      	b.n	10012c7a <_svfprintf_r+0xd4a>
10013218:	4a74      	ldr	r2, [pc, #464]	@ (100133ec <_svfprintf_r+0x14bc>)
1001321a:	9215      	str	r2, [sp, #84]	@ 0x54
1001321c:	3301      	adds	r3, #1
1001321e:	9a15      	ldr	r2, [sp, #84]	@ 0x54
10013220:	f8c8 2000 	str.w	r2, [r8]
10013224:	442c      	add	r4, r5
10013226:	2b07      	cmp	r3, #7
10013228:	f8c8 5004 	str.w	r5, [r8, #4]
1001322c:	e9cd 3433 	strd	r3, r4, [sp, #204]	@ 0xcc
10013230:	f77e afff 	ble.w	10012232 <_svfprintf_r+0x302>
10013234:	f7ff bb69 	b.w	1001290a <_svfprintf_r+0x9da>
10013238:	9909      	ldr	r1, [sp, #36]	@ 0x24
1001323a:	9807      	ldr	r0, [sp, #28]
1001323c:	aa32      	add	r2, sp, #200	@ 0xc8
1001323e:	f002 fe33 	bl	10015ea8 <__ssprint_r>
10013242:	2800      	cmp	r0, #0
10013244:	f47f ab2b 	bne.w	1001289e <_svfprintf_r+0x96e>
10013248:	9c34      	ldr	r4, [sp, #208]	@ 0xd0
1001324a:	f10d 08d4 	add.w	r8, sp, #212	@ 0xd4
1001324e:	f7fe bfda 	b.w	10012206 <_svfprintf_r+0x2d6>
10013252:	9909      	ldr	r1, [sp, #36]	@ 0x24
10013254:	aa32      	add	r2, sp, #200	@ 0xc8
10013256:	4658      	mov	r0, fp
10013258:	f002 fe26 	bl	10015ea8 <__ssprint_r>
1001325c:	2800      	cmp	r0, #0
1001325e:	f47f ad0c 	bne.w	10012c7a <_svfprintf_r+0xd4a>
10013262:	f89a 0000 	ldrb.w	r0, [sl]
10013266:	9934      	ldr	r1, [sp, #208]	@ 0xd0
10013268:	aa35      	add	r2, sp, #212	@ 0xd4
1001326a:	e68e      	b.n	10012f8a <_svfprintf_r+0x105a>
1001326c:	9b0d      	ldr	r3, [sp, #52]	@ 0x34
1001326e:	9a0a      	ldr	r2, [sp, #40]	@ 0x28
10013270:	681b      	ldr	r3, [r3, #0]
10013272:	601a      	str	r2, [r3, #0]
10013274:	f7ff b966 	b.w	10012544 <_svfprintf_r+0x614>
10013278:	f8dd 9020 	ldr.w	r9, [sp, #32]
1001327c:	9b15      	ldr	r3, [sp, #84]	@ 0x54
1001327e:	603b      	str	r3, [r7, #0]
10013280:	3601      	adds	r6, #1
10013282:	4444      	add	r4, r8
10013284:	2e07      	cmp	r6, #7
10013286:	e9cd 6433 	strd	r6, r4, [sp, #204]	@ 0xcc
1001328a:	f8c7 8004 	str.w	r8, [r7, #4]
1001328e:	f77f ab7f 	ble.w	10012990 <_svfprintf_r+0xa60>
10013292:	e487      	b.n	10012ba4 <_svfprintf_r+0xc74>
10013294:	9b18      	ldr	r3, [sp, #96]	@ 0x60
10013296:	991a      	ldr	r1, [sp, #104]	@ 0x68
10013298:	441c      	add	r4, r3
1001329a:	e9c8 1300 	strd	r1, r3, [r8]
1001329e:	9b33      	ldr	r3, [sp, #204]	@ 0xcc
100132a0:	9434      	str	r4, [sp, #208]	@ 0xd0
100132a2:	3301      	adds	r3, #1
100132a4:	2b07      	cmp	r3, #7
100132a6:	9333      	str	r3, [sp, #204]	@ 0xcc
100132a8:	f300 8164 	bgt.w	10013574 <_svfprintf_r+0x1644>
100132ac:	f108 0808 	add.w	r8, r8, #8
100132b0:	2a00      	cmp	r2, #0
100132b2:	f6bf ab1e 	bge.w	100128f2 <_svfprintf_r+0x9c2>
100132b6:	4256      	negs	r6, r2
100132b8:	3210      	adds	r2, #16
100132ba:	4a4c      	ldr	r2, [pc, #304]	@ (100133ec <_svfprintf_r+0x14bc>)
100132bc:	9215      	str	r2, [sp, #84]	@ 0x54
100132be:	f280 82e7 	bge.w	10013890 <_svfprintf_r+0x1960>
100132c2:	46aa      	mov	sl, r5
100132c4:	2710      	movs	r7, #16
100132c6:	4615      	mov	r5, r2
100132c8:	e005      	b.n	100132d6 <_svfprintf_r+0x13a6>
100132ca:	f108 0808 	add.w	r8, r8, #8
100132ce:	3e10      	subs	r6, #16
100132d0:	2e10      	cmp	r6, #16
100132d2:	f340 82dc 	ble.w	1001388e <_svfprintf_r+0x195e>
100132d6:	3301      	adds	r3, #1
100132d8:	3410      	adds	r4, #16
100132da:	2b07      	cmp	r3, #7
100132dc:	e9c8 5700 	strd	r5, r7, [r8]
100132e0:	e9cd 3433 	strd	r3, r4, [sp, #204]	@ 0xcc
100132e4:	ddf1      	ble.n	100132ca <_svfprintf_r+0x139a>
100132e6:	9909      	ldr	r1, [sp, #36]	@ 0x24
100132e8:	9807      	ldr	r0, [sp, #28]
100132ea:	aa32      	add	r2, sp, #200	@ 0xc8
100132ec:	f002 fddc 	bl	10015ea8 <__ssprint_r>
100132f0:	2800      	cmp	r0, #0
100132f2:	f47f aad4 	bne.w	1001289e <_svfprintf_r+0x96e>
100132f6:	e9dd 3433 	ldrd	r3, r4, [sp, #204]	@ 0xcc
100132fa:	f10d 08d4 	add.w	r8, sp, #212	@ 0xd4
100132fe:	e7e6      	b.n	100132ce <_svfprintf_r+0x139e>
10013300:	f419 7200 	ands.w	r2, r9, #512	@ 0x200
10013304:	bf1c      	itt	ne
10013306:	b2db      	uxtbne	r3, r3
10013308:	4602      	movne	r2, r0
1001330a:	e58f      	b.n	10012e2c <_svfprintf_r+0xefc>
1001330c:	f419 7200 	ands.w	r2, r9, #512	@ 0x200
10013310:	bf1c      	itt	ne
10013312:	b2db      	uxtbne	r3, r3
10013314:	4602      	movne	r2, r0
10013316:	f7ff b8e0 	b.w	100124da <_svfprintf_r+0x5aa>
1001331a:	2300      	movs	r3, #0
1001331c:	9807      	ldr	r0, [sp, #28]
1001331e:	9700      	str	r7, [sp, #0]
10013320:	aa2b      	add	r2, sp, #172	@ 0xac
10013322:	4619      	mov	r1, r3
10013324:	f000 ffe6 	bl	100142f4 <_wcsrtombs_r>
10013328:	f1b0 3fff 	cmp.w	r0, #4294967295	@ 0xffffffff
1001332c:	4683      	mov	fp, r0
1001332e:	f000 82c9 	beq.w	100138c4 <_svfprintf_r+0x1994>
10013332:	952b      	str	r5, [sp, #172]	@ 0xac
10013334:	e745      	b.n	100131c2 <_svfprintf_r+0x1292>
10013336:	4645      	mov	r5, r8
10013338:	460c      	mov	r4, r1
1001333a:	4690      	mov	r8, r2
1001333c:	3301      	adds	r3, #1
1001333e:	9a15      	ldr	r2, [sp, #84]	@ 0x54
10013340:	f8c8 2000 	str.w	r2, [r8]
10013344:	4434      	add	r4, r6
10013346:	2b07      	cmp	r3, #7
10013348:	e9cd 3433 	strd	r3, r4, [sp, #204]	@ 0xcc
1001334c:	f8c8 6004 	str.w	r6, [r8, #4]
10013350:	f300 8103 	bgt.w	1001355a <_svfprintf_r+0x162a>
10013354:	f108 0808 	add.w	r8, r8, #8
10013358:	f7ff bbb6 	b.w	10012ac8 <_svfprintf_r+0xb98>
1001335c:	9b1e      	ldr	r3, [sp, #120]	@ 0x78
1001335e:	991d      	ldr	r1, [sp, #116]	@ 0x74
10013360:	1aed      	subs	r5, r5, r3
10013362:	461a      	mov	r2, r3
10013364:	4628      	mov	r0, r5
10013366:	f002 fb49 	bl	100159fc <strncpy>
1001336a:	f898 3001 	ldrb.w	r3, [r8, #1]
1001336e:	b10b      	cbz	r3, 10013374 <_svfprintf_r+0x1444>
10013370:	f108 0801 	add.w	r8, r8, #1
10013374:	f04f 0c00 	mov.w	ip, #0
10013378:	e686      	b.n	10013088 <_svfprintf_r+0x1158>
1001337a:	222d      	movs	r2, #45	@ 0x2d
1001337c:	f88d 209f 	strb.w	r2, [sp, #159]	@ 0x9f
10013380:	f7fe bfac 	b.w	100122dc <_svfprintf_r+0x3ac>
10013384:	f89d 209f 	ldrb.w	r2, [sp, #159]	@ 0x9f
10013388:	960d      	str	r6, [sp, #52]	@ 0x34
1001338a:	f8cd b018 	str.w	fp, [sp, #24]
1001338e:	f8cd b020 	str.w	fp, [sp, #32]
10013392:	f8cd b050 	str.w	fp, [sp, #80]	@ 0x50
10013396:	f8cd b040 	str.w	fp, [sp, #64]	@ 0x40
1001339a:	f8cd b048 	str.w	fp, [sp, #72]	@ 0x48
1001339e:	f8cd b030 	str.w	fp, [sp, #48]	@ 0x30
100133a2:	f7fe bfac 	b.w	100122fe <_svfprintf_r+0x3ce>
100133a6:	9909      	ldr	r1, [sp, #36]	@ 0x24
100133a8:	9807      	ldr	r0, [sp, #28]
100133aa:	aa32      	add	r2, sp, #200	@ 0xc8
100133ac:	f002 fd7c 	bl	10015ea8 <__ssprint_r>
100133b0:	2800      	cmp	r0, #0
100133b2:	f47f aa74 	bne.w	1001289e <_svfprintf_r+0x96e>
100133b6:	9a29      	ldr	r2, [sp, #164]	@ 0xa4
100133b8:	9c34      	ldr	r4, [sp, #208]	@ 0xd0
100133ba:	f10d 08d4 	add.w	r8, sp, #212	@ 0xd4
100133be:	f7ff ba81 	b.w	100128c4 <_svfprintf_r+0x994>
100133c2:	9b13      	ldr	r3, [sp, #76]	@ 0x4c
100133c4:	ebab 060a 	sub.w	r6, fp, sl
100133c8:	1b5d      	subs	r5, r3, r5
100133ca:	42ae      	cmp	r6, r5
100133cc:	bfa8      	it	ge
100133ce:	462e      	movge	r6, r5
100133d0:	f7ff bbae 	b.w	10012b30 <_svfprintf_r+0xc00>
100133d4:	9b0d      	ldr	r3, [sp, #52]	@ 0x34
100133d6:	9a0a      	ldr	r2, [sp, #40]	@ 0x28
100133d8:	681b      	ldr	r3, [r3, #0]
100133da:	801a      	strh	r2, [r3, #0]
100133dc:	f7ff b8b2 	b.w	10012544 <_svfprintf_r+0x614>
100133e0:	f343 12c0 	sbfx	r2, r3, #7, #1
100133e4:	4611      	mov	r1, r2
100133e6:	b25b      	sxtb	r3, r3
100133e8:	f7ff b83d 	b.w	10012466 <_svfprintf_r+0x536>
100133ec:	1001b1d8 	.word	0x1001b1d8
100133f0:	9e08      	ldr	r6, [sp, #32]
100133f2:	2302      	movs	r3, #2
100133f4:	e9cd 3600 	strd	r3, r6, [sp]
100133f8:	ab30      	add	r3, sp, #192	@ 0xc0
100133fa:	9304      	str	r3, [sp, #16]
100133fc:	ab2b      	add	r3, sp, #172	@ 0xac
100133fe:	9303      	str	r3, [sp, #12]
10013400:	ab29      	add	r3, sp, #164	@ 0xa4
10013402:	9302      	str	r3, [sp, #8]
10013404:	9807      	ldr	r0, [sp, #28]
10013406:	e9dd 2324 	ldrd	r2, r3, [sp, #144]	@ 0x90
1001340a:	f001 f815 	bl	10014438 <_dtoa_r>
1001340e:	9b0e      	ldr	r3, [sp, #56]	@ 0x38
10013410:	2b67      	cmp	r3, #103	@ 0x67
10013412:	4605      	mov	r5, r0
10013414:	f000 813b 	beq.w	1001368e <_svfprintf_r+0x175e>
10013418:	9b0e      	ldr	r3, [sp, #56]	@ 0x38
1001341a:	2b47      	cmp	r3, #71	@ 0x47
1001341c:	f000 8137 	beq.w	1001368e <_svfprintf_r+0x175e>
10013420:	9b0e      	ldr	r3, [sp, #56]	@ 0x38
10013422:	f023 0720 	bic.w	r7, r3, #32
10013426:	2f46      	cmp	r7, #70	@ 0x46
10013428:	eb00 0406 	add.w	r4, r0, r6
1001342c:	d105      	bne.n	1001343a <_svfprintf_r+0x150a>
1001342e:	7803      	ldrb	r3, [r0, #0]
10013430:	2b30      	cmp	r3, #48	@ 0x30
10013432:	f000 82f1 	beq.w	10013a18 <_svfprintf_r+0x1ae8>
10013436:	9e29      	ldr	r6, [sp, #164]	@ 0xa4
10013438:	4434      	add	r4, r6
1001343a:	e9dd 0124 	ldrd	r0, r1, [sp, #144]	@ 0x90
1001343e:	2200      	movs	r2, #0
10013440:	2300      	movs	r3, #0
10013442:	f007 fb45 	bl	1001aad0 <__aeabi_dcmpeq>
10013446:	2800      	cmp	r0, #0
10013448:	f000 813f 	beq.w	100136ca <_svfprintf_r+0x179a>
1001344c:	4623      	mov	r3, r4
1001344e:	1b5b      	subs	r3, r3, r5
10013450:	9313      	str	r3, [sp, #76]	@ 0x4c
10013452:	9a29      	ldr	r2, [sp, #164]	@ 0xa4
10013454:	9212      	str	r2, [sp, #72]	@ 0x48
10013456:	2f47      	cmp	r7, #71	@ 0x47
10013458:	f000 8121 	beq.w	1001369e <_svfprintf_r+0x176e>
1001345c:	2f46      	cmp	r7, #70	@ 0x46
1001345e:	f000 81e3 	beq.w	10013828 <_svfprintf_r+0x18f8>
10013462:	990e      	ldr	r1, [sp, #56]	@ 0x38
10013464:	1e53      	subs	r3, r2, #1
10013466:	2961      	cmp	r1, #97	@ 0x61
10013468:	9329      	str	r3, [sp, #164]	@ 0xa4
1001346a:	f000 8316 	beq.w	10013a9a <_svfprintf_r+0x1b6a>
1001346e:	2941      	cmp	r1, #65	@ 0x41
10013470:	f040 8120 	bne.w	100136b4 <_svfprintf_r+0x1784>
10013474:	2150      	movs	r1, #80	@ 0x50
10013476:	2001      	movs	r0, #1
10013478:	2b00      	cmp	r3, #0
1001347a:	bfb6      	itet	lt
1001347c:	f1c2 0301 	rsblt	r3, r2, #1
10013480:	222b      	movge	r2, #43	@ 0x2b
10013482:	222d      	movlt	r2, #45	@ 0x2d
10013484:	2b09      	cmp	r3, #9
10013486:	f88d 10b0 	strb.w	r1, [sp, #176]	@ 0xb0
1001348a:	f88d 20b1 	strb.w	r2, [sp, #177]	@ 0xb1
1001348e:	f340 8227 	ble.w	100138e0 <_svfprintf_r+0x19b0>
10013492:	f10d 04c7 	add.w	r4, sp, #199	@ 0xc7
10013496:	4eae      	ldr	r6, [pc, #696]	@ (10013750 <_svfprintf_r+0x1820>)
10013498:	4622      	mov	r2, r4
1001349a:	4610      	mov	r0, r2
1001349c:	fba6 1203 	umull	r1, r2, r6, r3
100134a0:	08d2      	lsrs	r2, r2, #3
100134a2:	eb02 0182 	add.w	r1, r2, r2, lsl #2
100134a6:	eba3 0141 	sub.w	r1, r3, r1, lsl #1
100134aa:	3130      	adds	r1, #48	@ 0x30
100134ac:	f800 1c01 	strb.w	r1, [r0, #-1]
100134b0:	4619      	mov	r1, r3
100134b2:	2963      	cmp	r1, #99	@ 0x63
100134b4:	4613      	mov	r3, r2
100134b6:	f100 32ff 	add.w	r2, r0, #4294967295	@ 0xffffffff
100134ba:	dcee      	bgt.n	1001349a <_svfprintf_r+0x156a>
100134bc:	3330      	adds	r3, #48	@ 0x30
100134be:	f802 3c01 	strb.w	r3, [r2, #-1]
100134c2:	1e83      	subs	r3, r0, #2
100134c4:	42a3      	cmp	r3, r4
100134c6:	f080 82ed 	bcs.w	10013aa4 <_svfprintf_r+0x1b74>
100134ca:	f10d 02b1 	add.w	r2, sp, #177	@ 0xb1
100134ce:	f813 1b01 	ldrb.w	r1, [r3], #1
100134d2:	f802 1f01 	strb.w	r1, [r2, #1]!
100134d6:	42a3      	cmp	r3, r4
100134d8:	d1f9      	bne.n	100134ce <_svfprintf_r+0x159e>
100134da:	ab5e      	add	r3, sp, #376	@ 0x178
100134dc:	1a18      	subs	r0, r3, r0
100134de:	f1a0 03ad 	sub.w	r3, r0, #173	@ 0xad
100134e2:	931c      	str	r3, [sp, #112]	@ 0x70
100134e4:	9b13      	ldr	r3, [sp, #76]	@ 0x4c
100134e6:	9a1c      	ldr	r2, [sp, #112]	@ 0x70
100134e8:	2b01      	cmp	r3, #1
100134ea:	eb03 0b02 	add.w	fp, r3, r2
100134ee:	f340 822a 	ble.w	10013946 <_svfprintf_r+0x1a16>
100134f2:	9b18      	ldr	r3, [sp, #96]	@ 0x60
100134f4:	449b      	add	fp, r3
100134f6:	9b06      	ldr	r3, [sp, #24]
100134f8:	f423 6380 	bic.w	r3, r3, #1024	@ 0x400
100134fc:	f443 7980 	orr.w	r9, r3, #256	@ 0x100
10013500:	ea2b 72eb 	bic.w	r2, fp, fp, asr #31
10013504:	2300      	movs	r3, #0
10013506:	9314      	str	r3, [sp, #80]	@ 0x50
10013508:	9206      	str	r2, [sp, #24]
1001350a:	9310      	str	r3, [sp, #64]	@ 0x40
1001350c:	9312      	str	r3, [sp, #72]	@ 0x48
1001350e:	9b1f      	ldr	r3, [sp, #124]	@ 0x7c
10013510:	2b00      	cmp	r3, #0
10013512:	f040 80d3 	bne.w	100136bc <_svfprintf_r+0x178c>
10013516:	f89d 209f 	ldrb.w	r2, [sp, #159]	@ 0x9f
1001351a:	9308      	str	r3, [sp, #32]
1001351c:	f7fe beef 	b.w	100122fe <_svfprintf_r+0x3ce>
10013520:	9c09      	ldr	r4, [sp, #36]	@ 0x24
10013522:	aa32      	add	r2, sp, #200	@ 0xc8
10013524:	4621      	mov	r1, r4
10013526:	4658      	mov	r0, fp
10013528:	f002 fcbe 	bl	10015ea8 <__ssprint_r>
1001352c:	89a3      	ldrh	r3, [r4, #12]
1001352e:	f003 0340 	and.w	r3, r3, #64	@ 0x40
10013532:	f7fe be06 	b.w	10012142 <_svfprintf_r+0x212>
10013536:	4628      	mov	r0, r5
10013538:	960d      	str	r6, [sp, #52]	@ 0x34
1001353a:	f002 f861 	bl	10015600 <strlen>
1001353e:	4683      	mov	fp, r0
10013540:	f7fe bf74 	b.w	1001242c <_svfprintf_r+0x4fc>
10013544:	9807      	ldr	r0, [sp, #28]
10013546:	f10b 0101 	add.w	r1, fp, #1
1001354a:	f000 fac1 	bl	10013ad0 <_malloc_r>
1001354e:	4605      	mov	r5, r0
10013550:	2800      	cmp	r0, #0
10013552:	f000 81b7 	beq.w	100138c4 <_svfprintf_r+0x1994>
10013556:	900c      	str	r0, [sp, #48]	@ 0x30
10013558:	e63e      	b.n	100131d8 <_svfprintf_r+0x12a8>
1001355a:	9909      	ldr	r1, [sp, #36]	@ 0x24
1001355c:	9807      	ldr	r0, [sp, #28]
1001355e:	aa32      	add	r2, sp, #200	@ 0xc8
10013560:	f002 fca2 	bl	10015ea8 <__ssprint_r>
10013564:	2800      	cmp	r0, #0
10013566:	f47f a99a 	bne.w	1001289e <_svfprintf_r+0x96e>
1001356a:	9c34      	ldr	r4, [sp, #208]	@ 0xd0
1001356c:	f10d 08d4 	add.w	r8, sp, #212	@ 0xd4
10013570:	f7ff baaa 	b.w	10012ac8 <_svfprintf_r+0xb98>
10013574:	9909      	ldr	r1, [sp, #36]	@ 0x24
10013576:	9807      	ldr	r0, [sp, #28]
10013578:	aa32      	add	r2, sp, #200	@ 0xc8
1001357a:	f002 fc95 	bl	10015ea8 <__ssprint_r>
1001357e:	2800      	cmp	r0, #0
10013580:	f47f a98d 	bne.w	1001289e <_svfprintf_r+0x96e>
10013584:	e9dd 3433 	ldrd	r3, r4, [sp, #204]	@ 0xcc
10013588:	9a29      	ldr	r2, [sp, #164]	@ 0xa4
1001358a:	f10d 08d4 	add.w	r8, sp, #212	@ 0xd4
1001358e:	e68f      	b.n	100132b0 <_svfprintf_r+0x1380>
10013590:	2306      	movs	r3, #6
10013592:	9308      	str	r3, [sp, #32]
10013594:	f7ff bbf1 	b.w	10012d7a <_svfprintf_r+0xe4a>
10013598:	9b08      	ldr	r3, [sp, #32]
1001359a:	1c5e      	adds	r6, r3, #1
1001359c:	2302      	movs	r3, #2
1001359e:	e729      	b.n	100133f4 <_svfprintf_r+0x14c4>
100135a0:	9e08      	ldr	r6, [sp, #32]
100135a2:	2303      	movs	r3, #3
100135a4:	e726      	b.n	100133f4 <_svfprintf_r+0x14c4>
100135a6:	aa29      	add	r2, sp, #164	@ 0xa4
100135a8:	e9dd 0124 	ldrd	r0, r1, [sp, #144]	@ 0x90
100135ac:	f002 f894 	bl	100156d8 <frexp>
100135b0:	2200      	movs	r2, #0
100135b2:	f04f 537f 	mov.w	r3, #1069547520	@ 0x3fc00000
100135b6:	f007 f823 	bl	1001a600 <__aeabi_dmul>
100135ba:	4602      	mov	r2, r0
100135bc:	460b      	mov	r3, r1
100135be:	e9cd 2310 	strd	r2, r3, [sp, #64]	@ 0x40
100135c2:	2200      	movs	r2, #0
100135c4:	2300      	movs	r3, #0
100135c6:	f007 fa83 	bl	1001aad0 <__aeabi_dcmpeq>
100135ca:	2800      	cmp	r0, #0
100135cc:	f040 81c0 	bne.w	10013950 <_svfprintf_r+0x1a20>
100135d0:	4b60      	ldr	r3, [pc, #384]	@ (10013754 <_svfprintf_r+0x1824>)
100135d2:	9312      	str	r3, [sp, #72]	@ 0x48
100135d4:	9b08      	ldr	r3, [sp, #32]
100135d6:	f8cd 804c 	str.w	r8, [sp, #76]	@ 0x4c
100135da:	f103 39ff 	add.w	r9, r3, #4294967295	@ 0xffffffff
100135de:	462e      	mov	r6, r5
100135e0:	9514      	str	r5, [sp, #80]	@ 0x50
100135e2:	f8dd b048 	ldr.w	fp, [sp, #72]	@ 0x48
100135e6:	464d      	mov	r5, r9
100135e8:	e9dd 8910 	ldrd	r8, r9, [sp, #64]	@ 0x40
100135ec:	e005      	b.n	100135fa <_svfprintf_r+0x16ca>
100135ee:	2200      	movs	r2, #0
100135f0:	2300      	movs	r3, #0
100135f2:	f007 fa6d 	bl	1001aad0 <__aeabi_dcmpeq>
100135f6:	b9f0      	cbnz	r0, 10013636 <_svfprintf_r+0x1706>
100135f8:	463d      	mov	r5, r7
100135fa:	4b57      	ldr	r3, [pc, #348]	@ (10013758 <_svfprintf_r+0x1828>)
100135fc:	2200      	movs	r2, #0
100135fe:	4640      	mov	r0, r8
10013600:	4649      	mov	r1, r9
10013602:	f006 fffd 	bl	1001a600 <__aeabi_dmul>
10013606:	4689      	mov	r9, r1
10013608:	4680      	mov	r8, r0
1001360a:	f007 faa9 	bl	1001ab60 <__aeabi_d2iz>
1001360e:	4604      	mov	r4, r0
10013610:	f006 ff8c 	bl	1001a52c <__aeabi_i2d>
10013614:	460b      	mov	r3, r1
10013616:	4602      	mov	r2, r0
10013618:	4649      	mov	r1, r9
1001361a:	4640      	mov	r0, r8
1001361c:	f006 fe38 	bl	1001a290 <__aeabi_dsub>
10013620:	f81b 3004 	ldrb.w	r3, [fp, r4]
10013624:	46b2      	mov	sl, r6
10013626:	f806 3b01 	strb.w	r3, [r6], #1
1001362a:	1c6b      	adds	r3, r5, #1
1001362c:	f105 37ff 	add.w	r7, r5, #4294967295	@ 0xffffffff
10013630:	4680      	mov	r8, r0
10013632:	4689      	mov	r9, r1
10013634:	d1db      	bne.n	100135ee <_svfprintf_r+0x16be>
10013636:	46cb      	mov	fp, r9
10013638:	4657      	mov	r7, sl
1001363a:	46c2      	mov	sl, r8
1001363c:	4b47      	ldr	r3, [pc, #284]	@ (1001375c <_svfprintf_r+0x182c>)
1001363e:	f8dd 804c 	ldr.w	r8, [sp, #76]	@ 0x4c
10013642:	2200      	movs	r2, #0
10013644:	4650      	mov	r0, sl
10013646:	4659      	mov	r1, fp
10013648:	46a9      	mov	r9, r5
1001364a:	9d14      	ldr	r5, [sp, #80]	@ 0x50
1001364c:	f007 fa68 	bl	1001ab20 <__aeabi_dcmpgt>
10013650:	2800      	cmp	r0, #0
10013652:	f040 8153 	bne.w	100138fc <_svfprintf_r+0x19cc>
10013656:	4b41      	ldr	r3, [pc, #260]	@ (1001375c <_svfprintf_r+0x182c>)
10013658:	4650      	mov	r0, sl
1001365a:	4659      	mov	r1, fp
1001365c:	2200      	movs	r2, #0
1001365e:	f007 fa37 	bl	1001aad0 <__aeabi_dcmpeq>
10013662:	b110      	cbz	r0, 1001366a <_svfprintf_r+0x173a>
10013664:	07e2      	lsls	r2, r4, #31
10013666:	f100 8149 	bmi.w	100138fc <_svfprintf_r+0x19cc>
1001366a:	f1b9 0f00 	cmp.w	r9, #0
1001366e:	f2c0 815f 	blt.w	10013930 <_svfprintf_r+0x1a00>
10013672:	f109 0301 	add.w	r3, r9, #1
10013676:	4433      	add	r3, r6
10013678:	2230      	movs	r2, #48	@ 0x30
1001367a:	f806 2b01 	strb.w	r2, [r6], #1
1001367e:	42b3      	cmp	r3, r6
10013680:	d1fb      	bne.n	1001367a <_svfprintf_r+0x174a>
10013682:	1b5b      	subs	r3, r3, r5
10013684:	9313      	str	r3, [sp, #76]	@ 0x4c
10013686:	9b0e      	ldr	r3, [sp, #56]	@ 0x38
10013688:	f023 0720 	bic.w	r7, r3, #32
1001368c:	e6e1      	b.n	10013452 <_svfprintf_r+0x1522>
1001368e:	9b06      	ldr	r3, [sp, #24]
10013690:	07db      	lsls	r3, r3, #31
10013692:	f100 80f9 	bmi.w	10013888 <_svfprintf_r+0x1958>
10013696:	9b30      	ldr	r3, [sp, #192]	@ 0xc0
10013698:	9a29      	ldr	r2, [sp, #164]	@ 0xa4
1001369a:	1b5b      	subs	r3, r3, r5
1001369c:	9313      	str	r3, [sp, #76]	@ 0x4c
1001369e:	1cd3      	adds	r3, r2, #3
100136a0:	9212      	str	r2, [sp, #72]	@ 0x48
100136a2:	db02      	blt.n	100136aa <_svfprintf_r+0x177a>
100136a4:	9b08      	ldr	r3, [sp, #32]
100136a6:	4293      	cmp	r3, r2
100136a8:	da1b      	bge.n	100136e2 <_svfprintf_r+0x17b2>
100136aa:	9b0e      	ldr	r3, [sp, #56]	@ 0x38
100136ac:	3b02      	subs	r3, #2
100136ae:	930e      	str	r3, [sp, #56]	@ 0x38
100136b0:	1e53      	subs	r3, r2, #1
100136b2:	9329      	str	r3, [sp, #164]	@ 0xa4
100136b4:	f89d 1038 	ldrb.w	r1, [sp, #56]	@ 0x38
100136b8:	2000      	movs	r0, #0
100136ba:	e6dd      	b.n	10013478 <_svfprintf_r+0x1548>
100136bc:	222d      	movs	r2, #45	@ 0x2d
100136be:	2300      	movs	r3, #0
100136c0:	f88d 209f 	strb.w	r2, [sp, #159]	@ 0x9f
100136c4:	9308      	str	r3, [sp, #32]
100136c6:	f7fe be1d 	b.w	10012304 <_svfprintf_r+0x3d4>
100136ca:	9b30      	ldr	r3, [sp, #192]	@ 0xc0
100136cc:	42a3      	cmp	r3, r4
100136ce:	f4bf aebe 	bcs.w	1001344e <_svfprintf_r+0x151e>
100136d2:	2130      	movs	r1, #48	@ 0x30
100136d4:	1c5a      	adds	r2, r3, #1
100136d6:	9230      	str	r2, [sp, #192]	@ 0xc0
100136d8:	7019      	strb	r1, [r3, #0]
100136da:	9b30      	ldr	r3, [sp, #192]	@ 0xc0
100136dc:	429c      	cmp	r4, r3
100136de:	d8f9      	bhi.n	100136d4 <_svfprintf_r+0x17a4>
100136e0:	e6b5      	b.n	1001344e <_svfprintf_r+0x151e>
100136e2:	9913      	ldr	r1, [sp, #76]	@ 0x4c
100136e4:	428a      	cmp	r2, r1
100136e6:	f2c0 80c4 	blt.w	10013872 <_svfprintf_r+0x1942>
100136ea:	9b06      	ldr	r3, [sp, #24]
100136ec:	07de      	lsls	r6, r3, #31
100136ee:	f140 8184 	bpl.w	100139fa <_svfprintf_r+0x1aca>
100136f2:	9b18      	ldr	r3, [sp, #96]	@ 0x60
100136f4:	eb02 0b03 	add.w	fp, r2, r3
100136f8:	9b06      	ldr	r3, [sp, #24]
100136fa:	055c      	lsls	r4, r3, #21
100136fc:	d502      	bpl.n	10013704 <_svfprintf_r+0x17d4>
100136fe:	2a00      	cmp	r2, #0
10013700:	f300 814d 	bgt.w	1001399e <_svfprintf_r+0x1a6e>
10013704:	ea2b 73eb 	bic.w	r3, fp, fp, asr #31
10013708:	9306      	str	r3, [sp, #24]
1001370a:	f8dd 9054 	ldr.w	r9, [sp, #84]	@ 0x54
1001370e:	2367      	movs	r3, #103	@ 0x67
10013710:	930e      	str	r3, [sp, #56]	@ 0x38
10013712:	2300      	movs	r3, #0
10013714:	9314      	str	r3, [sp, #80]	@ 0x50
10013716:	9310      	str	r3, [sp, #64]	@ 0x40
10013718:	e6f9      	b.n	1001350e <_svfprintf_r+0x15de>
1001371a:	9909      	ldr	r1, [sp, #36]	@ 0x24
1001371c:	aa32      	add	r2, sp, #200	@ 0xc8
1001371e:	4658      	mov	r0, fp
10013720:	f002 fbc2 	bl	10015ea8 <__ssprint_r>
10013724:	2800      	cmp	r0, #0
10013726:	f47f aaa8 	bne.w	10012c7a <_svfprintf_r+0xd4a>
1001372a:	f89a 0000 	ldrb.w	r0, [sl]
1001372e:	9934      	ldr	r1, [sp, #208]	@ 0xd0
10013730:	aa35      	add	r2, sp, #212	@ 0xd4
10013732:	4404      	add	r4, r0
10013734:	e430      	b.n	10012f98 <_svfprintf_r+0x1068>
10013736:	9909      	ldr	r1, [sp, #36]	@ 0x24
10013738:	9807      	ldr	r0, [sp, #28]
1001373a:	aa32      	add	r2, sp, #200	@ 0xc8
1001373c:	f002 fbb4 	bl	10015ea8 <__ssprint_r>
10013740:	2800      	cmp	r0, #0
10013742:	f47f a8ac 	bne.w	1001289e <_svfprintf_r+0x96e>
10013746:	9c34      	ldr	r4, [sp, #208]	@ 0xd0
10013748:	f10d 08d4 	add.w	r8, sp, #212	@ 0xd4
1001374c:	f7ff b9b5 	b.w	10012aba <_svfprintf_r+0xb8a>
10013750:	cccccccd 	.word	0xcccccccd
10013754:	1001b1b8 	.word	0x1001b1b8
10013758:	40300000 	.word	0x40300000
1001375c:	3fe00000 	.word	0x3fe00000
10013760:	2378      	movs	r3, #120	@ 0x78
10013762:	f88d 30a1 	strb.w	r3, [sp, #161]	@ 0xa1
10013766:	2330      	movs	r3, #48	@ 0x30
10013768:	f88d 30a0 	strb.w	r3, [sp, #160]	@ 0xa0
1001376c:	f049 0302 	orr.w	r3, r9, #2
10013770:	9306      	str	r3, [sp, #24]
10013772:	9b08      	ldr	r3, [sp, #32]
10013774:	2b63      	cmp	r3, #99	@ 0x63
10013776:	f300 80dd 	bgt.w	10013934 <_svfprintf_r+0x1a04>
1001377a:	2300      	movs	r3, #0
1001377c:	930c      	str	r3, [sp, #48]	@ 0x30
1001377e:	ad45      	add	r5, sp, #276	@ 0x114
10013780:	f449 7381 	orr.w	r3, r9, #258	@ 0x102
10013784:	9315      	str	r3, [sp, #84]	@ 0x54
10013786:	9b17      	ldr	r3, [sp, #92]	@ 0x5c
10013788:	2b00      	cmp	r3, #0
1001378a:	db22      	blt.n	100137d2 <_svfprintf_r+0x18a2>
1001378c:	ed9d 7b16 	vldr	d7, [sp, #88]	@ 0x58
10013790:	ed8d 7b24 	vstr	d7, [sp, #144]	@ 0x90
10013794:	2300      	movs	r3, #0
10013796:	931f      	str	r3, [sp, #124]	@ 0x7c
10013798:	9b0e      	ldr	r3, [sp, #56]	@ 0x38
1001379a:	2b61      	cmp	r3, #97	@ 0x61
1001379c:	f47f aafd 	bne.w	10012d9a <_svfprintf_r+0xe6a>
100137a0:	aa29      	add	r2, sp, #164	@ 0xa4
100137a2:	e9dd 0124 	ldrd	r0, r1, [sp, #144]	@ 0x90
100137a6:	f001 ff97 	bl	100156d8 <frexp>
100137aa:	2200      	movs	r2, #0
100137ac:	f04f 537f 	mov.w	r3, #1069547520	@ 0x3fc00000
100137b0:	f006 ff26 	bl	1001a600 <__aeabi_dmul>
100137b4:	4602      	mov	r2, r0
100137b6:	460b      	mov	r3, r1
100137b8:	e9cd 2310 	strd	r2, r3, [sp, #64]	@ 0x40
100137bc:	2200      	movs	r2, #0
100137be:	2300      	movs	r3, #0
100137c0:	f007 f986 	bl	1001aad0 <__aeabi_dcmpeq>
100137c4:	2800      	cmp	r0, #0
100137c6:	f040 80c3 	bne.w	10013950 <_svfprintf_r+0x1a20>
100137ca:	4ba8      	ldr	r3, [pc, #672]	@ (10013a6c <_svfprintf_r+0x1b3c>)
100137cc:	9312      	str	r3, [sp, #72]	@ 0x48
100137ce:	e701      	b.n	100135d4 <_svfprintf_r+0x16a4>
100137d0:	930c      	str	r3, [sp, #48]	@ 0x30
100137d2:	e9dd 1216 	ldrd	r1, r2, [sp, #88]	@ 0x58
100137d6:	f102 4300 	add.w	r3, r2, #2147483648	@ 0x80000000
100137da:	9325      	str	r3, [sp, #148]	@ 0x94
100137dc:	232d      	movs	r3, #45	@ 0x2d
100137de:	9124      	str	r1, [sp, #144]	@ 0x90
100137e0:	931f      	str	r3, [sp, #124]	@ 0x7c
100137e2:	e7d9      	b.n	10013798 <_svfprintf_r+0x1868>
100137e4:	9909      	ldr	r1, [sp, #36]	@ 0x24
100137e6:	9807      	ldr	r0, [sp, #28]
100137e8:	aa32      	add	r2, sp, #200	@ 0xc8
100137ea:	f002 fb5d 	bl	10015ea8 <__ssprint_r>
100137ee:	2800      	cmp	r0, #0
100137f0:	f47f a855 	bne.w	1001289e <_svfprintf_r+0x96e>
100137f4:	9d29      	ldr	r5, [sp, #164]	@ 0xa4
100137f6:	9c34      	ldr	r4, [sp, #208]	@ 0xd0
100137f8:	f10d 08d4 	add.w	r8, sp, #212	@ 0xd4
100137fc:	f7ff b981 	b.w	10012b02 <_svfprintf_r+0xbd2>
10013800:	499b      	ldr	r1, [pc, #620]	@ (10013a70 <_svfprintf_r+0x1b40>)
10013802:	9115      	str	r1, [sp, #84]	@ 0x54
10013804:	f7fe bdb2 	b.w	1001236c <_svfprintf_r+0x43c>
10013808:	9909      	ldr	r1, [sp, #36]	@ 0x24
1001380a:	9807      	ldr	r0, [sp, #28]
1001380c:	aa32      	add	r2, sp, #200	@ 0xc8
1001380e:	f002 fb4b 	bl	10015ea8 <__ssprint_r>
10013812:	2800      	cmp	r0, #0
10013814:	f47f a843 	bne.w	1001289e <_svfprintf_r+0x96e>
10013818:	9d29      	ldr	r5, [sp, #164]	@ 0xa4
1001381a:	9b13      	ldr	r3, [sp, #76]	@ 0x4c
1001381c:	9c34      	ldr	r4, [sp, #208]	@ 0xd0
1001381e:	1b5d      	subs	r5, r3, r5
10013820:	f10d 08d4 	add.w	r8, sp, #212	@ 0xd4
10013824:	f7ff b984 	b.w	10012b30 <_svfprintf_r+0xc00>
10013828:	9b06      	ldr	r3, [sp, #24]
1001382a:	9912      	ldr	r1, [sp, #72]	@ 0x48
1001382c:	9a08      	ldr	r2, [sp, #32]
1001382e:	f003 0301 	and.w	r3, r3, #1
10013832:	2900      	cmp	r1, #0
10013834:	ea43 0302 	orr.w	r3, r3, r2
10013838:	f340 810f 	ble.w	10013a5a <_svfprintf_r+0x1b2a>
1001383c:	2b00      	cmp	r3, #0
1001383e:	f040 80d5 	bne.w	100139ec <_svfprintf_r+0x1abc>
10013842:	2366      	movs	r3, #102	@ 0x66
10013844:	f8dd b048 	ldr.w	fp, [sp, #72]	@ 0x48
10013848:	930e      	str	r3, [sp, #56]	@ 0x38
1001384a:	9b06      	ldr	r3, [sp, #24]
1001384c:	055a      	lsls	r2, r3, #21
1001384e:	f100 80a8 	bmi.w	100139a2 <_svfprintf_r+0x1a72>
10013852:	ea2b 73eb 	bic.w	r3, fp, fp, asr #31
10013856:	f8dd 9054 	ldr.w	r9, [sp, #84]	@ 0x54
1001385a:	9306      	str	r3, [sp, #24]
1001385c:	e759      	b.n	10013712 <_svfprintf_r+0x17e2>
1001385e:	2358      	movs	r3, #88	@ 0x58
10013860:	e77f      	b.n	10013762 <_svfprintf_r+0x1832>
10013862:	2200      	movs	r2, #0
10013864:	9208      	str	r2, [sp, #32]
10013866:	f7fe bbbb 	b.w	10011fe0 <_svfprintf_r+0xb0>
1001386a:	4a81      	ldr	r2, [pc, #516]	@ (10013a70 <_svfprintf_r+0x1b40>)
1001386c:	9215      	str	r2, [sp, #84]	@ 0x54
1001386e:	f7ff b8ef 	b.w	10012a50 <_svfprintf_r+0xb20>
10013872:	9b13      	ldr	r3, [sp, #76]	@ 0x4c
10013874:	9a18      	ldr	r2, [sp, #96]	@ 0x60
10013876:	eb03 0b02 	add.w	fp, r3, r2
1001387a:	9b12      	ldr	r3, [sp, #72]	@ 0x48
1001387c:	2b00      	cmp	r3, #0
1001387e:	f340 8083 	ble.w	10013988 <_svfprintf_r+0x1a58>
10013882:	2367      	movs	r3, #103	@ 0x67
10013884:	930e      	str	r3, [sp, #56]	@ 0x38
10013886:	e7e0      	b.n	1001384a <_svfprintf_r+0x191a>
10013888:	19ac      	adds	r4, r5, r6
1001388a:	2747      	movs	r7, #71	@ 0x47
1001388c:	e5d5      	b.n	1001343a <_svfprintf_r+0x150a>
1001388e:	4655      	mov	r5, sl
10013890:	3301      	adds	r3, #1
10013892:	9a15      	ldr	r2, [sp, #84]	@ 0x54
10013894:	f8c8 2000 	str.w	r2, [r8]
10013898:	4434      	add	r4, r6
1001389a:	2b07      	cmp	r3, #7
1001389c:	e9cd 3433 	strd	r3, r4, [sp, #204]	@ 0xcc
100138a0:	f8c8 6004 	str.w	r6, [r8, #4]
100138a4:	f77f a823 	ble.w	100128ee <_svfprintf_r+0x9be>
100138a8:	9909      	ldr	r1, [sp, #36]	@ 0x24
100138aa:	9807      	ldr	r0, [sp, #28]
100138ac:	aa32      	add	r2, sp, #200	@ 0xc8
100138ae:	f002 fafb 	bl	10015ea8 <__ssprint_r>
100138b2:	2800      	cmp	r0, #0
100138b4:	f47e aff3 	bne.w	1001289e <_svfprintf_r+0x96e>
100138b8:	e9dd 3433 	ldrd	r3, r4, [sp, #204]	@ 0xcc
100138bc:	f10d 08d4 	add.w	r8, sp, #212	@ 0xd4
100138c0:	f7ff b817 	b.w	100128f2 <_svfprintf_r+0x9c2>
100138c4:	9a09      	ldr	r2, [sp, #36]	@ 0x24
100138c6:	8993      	ldrh	r3, [r2, #12]
100138c8:	f043 0340 	orr.w	r3, r3, #64	@ 0x40
100138cc:	8193      	strh	r3, [r2, #12]
100138ce:	f04f 33ff 	mov.w	r3, #4294967295	@ 0xffffffff
100138d2:	930a      	str	r3, [sp, #40]	@ 0x28
100138d4:	f7fe bc38 	b.w	10012148 <_svfprintf_r+0x218>
100138d8:	4a66      	ldr	r2, [pc, #408]	@ (10013a74 <_svfprintf_r+0x1b44>)
100138da:	9215      	str	r2, [sp, #84]	@ 0x54
100138dc:	f7fe bf84 	b.w	100127e8 <_svfprintf_r+0x8b8>
100138e0:	2800      	cmp	r0, #0
100138e2:	d13f      	bne.n	10013964 <_svfprintf_r+0x1a34>
100138e4:	2230      	movs	r2, #48	@ 0x30
100138e6:	f88d 20b2 	strb.w	r2, [sp, #178]	@ 0xb2
100138ea:	f10d 02b3 	add.w	r2, sp, #179	@ 0xb3
100138ee:	3330      	adds	r3, #48	@ 0x30
100138f0:	f802 3b01 	strb.w	r3, [r2], #1
100138f4:	ab2c      	add	r3, sp, #176	@ 0xb0
100138f6:	1ad3      	subs	r3, r2, r3
100138f8:	931c      	str	r3, [sp, #112]	@ 0x70
100138fa:	e5f3      	b.n	100134e4 <_svfprintf_r+0x15b4>
100138fc:	9b12      	ldr	r3, [sp, #72]	@ 0x48
100138fe:	9730      	str	r7, [sp, #192]	@ 0xc0
10013900:	7bd9      	ldrb	r1, [r3, #15]
10013902:	f816 2c01 	ldrb.w	r2, [r6, #-1]
10013906:	428a      	cmp	r2, r1
10013908:	4633      	mov	r3, r6
1001390a:	d109      	bne.n	10013920 <_svfprintf_r+0x19f0>
1001390c:	2030      	movs	r0, #48	@ 0x30
1001390e:	f803 0c01 	strb.w	r0, [r3, #-1]
10013912:	9b30      	ldr	r3, [sp, #192]	@ 0xc0
10013914:	1e5a      	subs	r2, r3, #1
10013916:	9230      	str	r2, [sp, #192]	@ 0xc0
10013918:	f813 2c01 	ldrb.w	r2, [r3, #-1]
1001391c:	4291      	cmp	r1, r2
1001391e:	d0f6      	beq.n	1001390e <_svfprintf_r+0x19de>
10013920:	2a39      	cmp	r2, #57	@ 0x39
10013922:	bf0b      	itete	eq
10013924:	9a12      	ldreq	r2, [sp, #72]	@ 0x48
10013926:	3201      	addne	r2, #1
10013928:	7a92      	ldrbeq	r2, [r2, #10]
1001392a:	b2d2      	uxtbne	r2, r2
1001392c:	f803 2c01 	strb.w	r2, [r3, #-1]
10013930:	4633      	mov	r3, r6
10013932:	e6a6      	b.n	10013682 <_svfprintf_r+0x1752>
10013934:	9807      	ldr	r0, [sp, #28]
10013936:	1c59      	adds	r1, r3, #1
10013938:	f000 f8ca 	bl	10013ad0 <_malloc_r>
1001393c:	4605      	mov	r5, r0
1001393e:	2800      	cmp	r0, #0
10013940:	d0c0      	beq.n	100138c4 <_svfprintf_r+0x1994>
10013942:	900c      	str	r0, [sp, #48]	@ 0x30
10013944:	e71c      	b.n	10013780 <_svfprintf_r+0x1850>
10013946:	9b06      	ldr	r3, [sp, #24]
10013948:	07df      	lsls	r7, r3, #31
1001394a:	f57f add4 	bpl.w	100134f6 <_svfprintf_r+0x15c6>
1001394e:	e5d0      	b.n	100134f2 <_svfprintf_r+0x15c2>
10013950:	4b49      	ldr	r3, [pc, #292]	@ (10013a78 <_svfprintf_r+0x1b48>)
10013952:	4a46      	ldr	r2, [pc, #280]	@ (10013a6c <_svfprintf_r+0x1b3c>)
10013954:	990e      	ldr	r1, [sp, #56]	@ 0x38
10013956:	2961      	cmp	r1, #97	@ 0x61
10013958:	bf18      	it	ne
1001395a:	461a      	movne	r2, r3
1001395c:	2301      	movs	r3, #1
1001395e:	9212      	str	r2, [sp, #72]	@ 0x48
10013960:	9329      	str	r3, [sp, #164]	@ 0xa4
10013962:	e637      	b.n	100135d4 <_svfprintf_r+0x16a4>
10013964:	f10d 02b2 	add.w	r2, sp, #178	@ 0xb2
10013968:	e7c1      	b.n	100138ee <_svfprintf_r+0x19be>
1001396a:	9b17      	ldr	r3, [sp, #92]	@ 0x5c
1001396c:	4d43      	ldr	r5, [pc, #268]	@ (10013a7c <_svfprintf_r+0x1b4c>)
1001396e:	2b00      	cmp	r3, #0
10013970:	bfb4      	ite	lt
10013972:	222d      	movlt	r2, #45	@ 0x2d
10013974:	f89d 209f 	ldrbge.w	r2, [sp, #159]	@ 0x9f
10013978:	4b41      	ldr	r3, [pc, #260]	@ (10013a80 <_svfprintf_r+0x1b50>)
1001397a:	bfb8      	it	lt
1001397c:	f88d 209f 	strblt.w	r2, [sp, #159]	@ 0x9f
10013980:	f029 0980 	bic.w	r9, r9, #128	@ 0x80
10013984:	f7fe bcae 	b.w	100122e4 <_svfprintf_r+0x3b4>
10013988:	f1c3 0301 	rsb	r3, r3, #1
1001398c:	449b      	add	fp, r3
1001398e:	ea2b 73eb 	bic.w	r3, fp, fp, asr #31
10013992:	9306      	str	r3, [sp, #24]
10013994:	2367      	movs	r3, #103	@ 0x67
10013996:	f8dd 9054 	ldr.w	r9, [sp, #84]	@ 0x54
1001399a:	930e      	str	r3, [sp, #56]	@ 0x38
1001399c:	e6b9      	b.n	10013712 <_svfprintf_r+0x17e2>
1001399e:	2367      	movs	r3, #103	@ 0x67
100139a0:	930e      	str	r3, [sp, #56]	@ 0x38
100139a2:	991b      	ldr	r1, [sp, #108]	@ 0x6c
100139a4:	780b      	ldrb	r3, [r1, #0]
100139a6:	2bff      	cmp	r3, #255	@ 0xff
100139a8:	f000 808c 	beq.w	10013ac4 <_svfprintf_r+0x1b94>
100139ac:	2400      	movs	r4, #0
100139ae:	9a12      	ldr	r2, [sp, #72]	@ 0x48
100139b0:	4620      	mov	r0, r4
100139b2:	e003      	b.n	100139bc <_svfprintf_r+0x1a8c>
100139b4:	3001      	adds	r0, #1
100139b6:	3101      	adds	r1, #1
100139b8:	2bff      	cmp	r3, #255	@ 0xff
100139ba:	d008      	beq.n	100139ce <_svfprintf_r+0x1a9e>
100139bc:	4293      	cmp	r3, r2
100139be:	da06      	bge.n	100139ce <_svfprintf_r+0x1a9e>
100139c0:	1ad2      	subs	r2, r2, r3
100139c2:	784b      	ldrb	r3, [r1, #1]
100139c4:	2b00      	cmp	r3, #0
100139c6:	d1f5      	bne.n	100139b4 <_svfprintf_r+0x1a84>
100139c8:	780b      	ldrb	r3, [r1, #0]
100139ca:	3401      	adds	r4, #1
100139cc:	e7f4      	b.n	100139b8 <_svfprintf_r+0x1a88>
100139ce:	911b      	str	r1, [sp, #108]	@ 0x6c
100139d0:	9010      	str	r0, [sp, #64]	@ 0x40
100139d2:	9414      	str	r4, [sp, #80]	@ 0x50
100139d4:	9212      	str	r2, [sp, #72]	@ 0x48
100139d6:	e9dd 3914 	ldrd	r3, r9, [sp, #80]	@ 0x50
100139da:	9a10      	ldr	r2, [sp, #64]	@ 0x40
100139dc:	4413      	add	r3, r2
100139de:	9a1e      	ldr	r2, [sp, #120]	@ 0x78
100139e0:	fb02 bb03 	mla	fp, r2, r3, fp
100139e4:	ea2b 73eb 	bic.w	r3, fp, fp, asr #31
100139e8:	9306      	str	r3, [sp, #24]
100139ea:	e590      	b.n	1001350e <_svfprintf_r+0x15de>
100139ec:	9b18      	ldr	r3, [sp, #96]	@ 0x60
100139ee:	18cf      	adds	r7, r1, r3
100139f0:	443a      	add	r2, r7
100139f2:	2366      	movs	r3, #102	@ 0x66
100139f4:	4693      	mov	fp, r2
100139f6:	930e      	str	r3, [sp, #56]	@ 0x38
100139f8:	e727      	b.n	1001384a <_svfprintf_r+0x191a>
100139fa:	4693      	mov	fp, r2
100139fc:	e67c      	b.n	100136f8 <_svfprintf_r+0x17c8>
100139fe:	9b08      	ldr	r3, [sp, #32]
10013a00:	9306      	str	r3, [sp, #24]
10013a02:	469b      	mov	fp, r3
10013a04:	2373      	movs	r3, #115	@ 0x73
10013a06:	f89d 209f 	ldrb.w	r2, [sp, #159]	@ 0x9f
10013a0a:	960d      	str	r6, [sp, #52]	@ 0x34
10013a0c:	9008      	str	r0, [sp, #32]
10013a0e:	9014      	str	r0, [sp, #80]	@ 0x50
10013a10:	9010      	str	r0, [sp, #64]	@ 0x40
10013a12:	930e      	str	r3, [sp, #56]	@ 0x38
10013a14:	f7fe bc73 	b.w	100122fe <_svfprintf_r+0x3ce>
10013a18:	e9dd 0124 	ldrd	r0, r1, [sp, #144]	@ 0x90
10013a1c:	2200      	movs	r2, #0
10013a1e:	2300      	movs	r3, #0
10013a20:	f007 f856 	bl	1001aad0 <__aeabi_dcmpeq>
10013a24:	2800      	cmp	r0, #0
10013a26:	f47f ad06 	bne.w	10013436 <_svfprintf_r+0x1506>
10013a2a:	f1c6 0601 	rsb	r6, r6, #1
10013a2e:	9629      	str	r6, [sp, #164]	@ 0xa4
10013a30:	e502      	b.n	10013438 <_svfprintf_r+0x1508>
10013a32:	f8dd 9018 	ldr.w	r9, [sp, #24]
10013a36:	f8dd b020 	ldr.w	fp, [sp, #32]
10013a3a:	f7ff bbc2 	b.w	100131c2 <_svfprintf_r+0x1292>
10013a3e:	4e0d      	ldr	r6, [pc, #52]	@ (10013a74 <_svfprintf_r+0x1b44>)
10013a40:	f7ff bae5 	b.w	1001300e <_svfprintf_r+0x10de>
10013a44:	9a0d      	ldr	r2, [sp, #52]	@ 0x34
10013a46:	7863      	ldrb	r3, [r4, #1]
10013a48:	460c      	mov	r4, r1
10013a4a:	f852 1b04 	ldr.w	r1, [r2], #4
10013a4e:	920d      	str	r2, [sp, #52]	@ 0x34
10013a50:	ea41 71e1 	orr.w	r1, r1, r1, asr #31
10013a54:	9108      	str	r1, [sp, #32]
10013a56:	f7fe bac2 	b.w	10011fde <_svfprintf_r+0xae>
10013a5a:	f8dd 9054 	ldr.w	r9, [sp, #84]	@ 0x54
10013a5e:	b98b      	cbnz	r3, 10013a84 <_svfprintf_r+0x1b54>
10013a60:	2301      	movs	r3, #1
10013a62:	2266      	movs	r2, #102	@ 0x66
10013a64:	9306      	str	r3, [sp, #24]
10013a66:	920e      	str	r2, [sp, #56]	@ 0x38
10013a68:	469b      	mov	fp, r3
10013a6a:	e652      	b.n	10013712 <_svfprintf_r+0x17e2>
10013a6c:	1001b1a4 	.word	0x1001b1a4
10013a70:	1001b1e8 	.word	0x1001b1e8
10013a74:	1001b1d8 	.word	0x1001b1d8
10013a78:	1001b1b8 	.word	0x1001b1b8
10013a7c:	1001b19c 	.word	0x1001b19c
10013a80:	1001b1a0 	.word	0x1001b1a0
10013a84:	9b18      	ldr	r3, [sp, #96]	@ 0x60
10013a86:	1c5f      	adds	r7, r3, #1
10013a88:	9b08      	ldr	r3, [sp, #32]
10013a8a:	443b      	add	r3, r7
10013a8c:	469b      	mov	fp, r3
10013a8e:	ea23 73e3 	bic.w	r3, r3, r3, asr #31
10013a92:	9306      	str	r3, [sp, #24]
10013a94:	2366      	movs	r3, #102	@ 0x66
10013a96:	930e      	str	r3, [sp, #56]	@ 0x38
10013a98:	e63b      	b.n	10013712 <_svfprintf_r+0x17e2>
10013a9a:	2170      	movs	r1, #112	@ 0x70
10013a9c:	e4eb      	b.n	10013476 <_svfprintf_r+0x1546>
10013a9e:	4a0b      	ldr	r2, [pc, #44]	@ (10013acc <_svfprintf_r+0x1b9c>)
10013aa0:	9215      	str	r2, [sp, #84]	@ 0x54
10013aa2:	e44b      	b.n	1001333c <_svfprintf_r+0x140c>
10013aa4:	2302      	movs	r3, #2
10013aa6:	931c      	str	r3, [sp, #112]	@ 0x70
10013aa8:	e51c      	b.n	100134e4 <_svfprintf_r+0x15b4>
10013aaa:	9a09      	ldr	r2, [sp, #36]	@ 0x24
10013aac:	f8dd b01c 	ldr.w	fp, [sp, #28]
10013ab0:	8993      	ldrh	r3, [r2, #12]
10013ab2:	f043 0340 	orr.w	r3, r3, #64	@ 0x40
10013ab6:	8193      	strh	r3, [r2, #12]
10013ab8:	f7ff b8df 	b.w	10012c7a <_svfprintf_r+0xd4a>
10013abc:	230c      	movs	r3, #12
10013abe:	f8cb 3000 	str.w	r3, [fp]
10013ac2:	e704      	b.n	100138ce <_svfprintf_r+0x199e>
10013ac4:	2300      	movs	r3, #0
10013ac6:	9314      	str	r3, [sp, #80]	@ 0x50
10013ac8:	9310      	str	r3, [sp, #64]	@ 0x40
10013aca:	e784      	b.n	100139d6 <_svfprintf_r+0x1aa6>
10013acc:	1001b1d8 	.word	0x1001b1d8

10013ad0 <_malloc_r>:
10013ad0:	e92d 4ff0 	stmdb	sp!, {r4, r5, r6, r7, r8, r9, sl, fp, lr}
10013ad4:	f101 050b 	add.w	r5, r1, #11
10013ad8:	2d16      	cmp	r5, #22
10013ada:	b085      	sub	sp, #20
10013adc:	4606      	mov	r6, r0
10013ade:	d824      	bhi.n	10013b2a <_malloc_r+0x5a>
10013ae0:	2910      	cmp	r1, #16
10013ae2:	f200 80b1 	bhi.w	10013c48 <_malloc_r+0x178>
10013ae6:	f000 fbf3 	bl	100142d0 <__malloc_lock>
10013aea:	2510      	movs	r5, #16
10013aec:	2318      	movs	r3, #24
10013aee:	f04f 0c02 	mov.w	ip, #2
10013af2:	4fba      	ldr	r7, [pc, #744]	@ (10013ddc <_malloc_r+0x30c>)
10013af4:	443b      	add	r3, r7
10013af6:	f1a3 0208 	sub.w	r2, r3, #8
10013afa:	685c      	ldr	r4, [r3, #4]
10013afc:	4294      	cmp	r4, r2
10013afe:	f000 8122 	beq.w	10013d46 <_malloc_r+0x276>
10013b02:	6863      	ldr	r3, [r4, #4]
10013b04:	68e2      	ldr	r2, [r4, #12]
10013b06:	68a1      	ldr	r1, [r4, #8]
10013b08:	f023 0303 	bic.w	r3, r3, #3
10013b0c:	60ca      	str	r2, [r1, #12]
10013b0e:	4423      	add	r3, r4
10013b10:	4630      	mov	r0, r6
10013b12:	6091      	str	r1, [r2, #8]
10013b14:	685a      	ldr	r2, [r3, #4]
10013b16:	f042 0201 	orr.w	r2, r2, #1
10013b1a:	605a      	str	r2, [r3, #4]
10013b1c:	3408      	adds	r4, #8
10013b1e:	f000 fbdd 	bl	100142dc <__malloc_unlock>
10013b22:	4620      	mov	r0, r4
10013b24:	b005      	add	sp, #20
10013b26:	e8bd 8ff0 	ldmia.w	sp!, {r4, r5, r6, r7, r8, r9, sl, fp, pc}
10013b2a:	f035 0507 	bics.w	r5, r5, #7
10013b2e:	f100 808b 	bmi.w	10013c48 <_malloc_r+0x178>
10013b32:	42a9      	cmp	r1, r5
10013b34:	f200 8088 	bhi.w	10013c48 <_malloc_r+0x178>
10013b38:	f000 fbca 	bl	100142d0 <__malloc_lock>
10013b3c:	f5b5 7ffc 	cmp.w	r5, #504	@ 0x1f8
10013b40:	f0c0 8173 	bcc.w	10013e2a <_malloc_r+0x35a>
10013b44:	0a6b      	lsrs	r3, r5, #9
10013b46:	f000 8083 	beq.w	10013c50 <_malloc_r+0x180>
10013b4a:	2b04      	cmp	r3, #4
10013b4c:	f200 8122 	bhi.w	10013d94 <_malloc_r+0x2c4>
10013b50:	09ab      	lsrs	r3, r5, #6
10013b52:	f103 0c39 	add.w	ip, r3, #57	@ 0x39
10013b56:	f103 0e38 	add.w	lr, r3, #56	@ 0x38
10013b5a:	ea4f 03cc 	mov.w	r3, ip, lsl #3
10013b5e:	4f9f      	ldr	r7, [pc, #636]	@ (10013ddc <_malloc_r+0x30c>)
10013b60:	443b      	add	r3, r7
10013b62:	f1a3 0008 	sub.w	r0, r3, #8
10013b66:	685c      	ldr	r4, [r3, #4]
10013b68:	42a0      	cmp	r0, r4
10013b6a:	d107      	bne.n	10013b7c <_malloc_r+0xac>
10013b6c:	e00d      	b.n	10013b8a <_malloc_r+0xba>
10013b6e:	2a00      	cmp	r2, #0
10013b70:	68e1      	ldr	r1, [r4, #12]
10013b72:	f280 80e2 	bge.w	10013d3a <_malloc_r+0x26a>
10013b76:	4288      	cmp	r0, r1
10013b78:	d007      	beq.n	10013b8a <_malloc_r+0xba>
10013b7a:	460c      	mov	r4, r1
10013b7c:	6863      	ldr	r3, [r4, #4]
10013b7e:	f023 0303 	bic.w	r3, r3, #3
10013b82:	1b5a      	subs	r2, r3, r5
10013b84:	2a0f      	cmp	r2, #15
10013b86:	ddf2      	ble.n	10013b6e <_malloc_r+0x9e>
10013b88:	46f4      	mov	ip, lr
10013b8a:	f8df 8264 	ldr.w	r8, [pc, #612]	@ 10013df0 <_malloc_r+0x320>
10013b8e:	693c      	ldr	r4, [r7, #16]
10013b90:	4544      	cmp	r4, r8
10013b92:	f000 80bf 	beq.w	10013d14 <_malloc_r+0x244>
10013b96:	6863      	ldr	r3, [r4, #4]
10013b98:	f023 0903 	bic.w	r9, r3, #3
10013b9c:	eba9 0305 	sub.w	r3, r9, r5
10013ba0:	2b0f      	cmp	r3, #15
10013ba2:	f300 8147 	bgt.w	10013e34 <_malloc_r+0x364>
10013ba6:	2b00      	cmp	r3, #0
10013ba8:	e9c7 8804 	strd	r8, r8, [r7, #16]
10013bac:	f280 8131 	bge.w	10013e12 <_malloc_r+0x342>
10013bb0:	f5b9 7f00 	cmp.w	r9, #512	@ 0x200
10013bb4:	f8d7 e004 	ldr.w	lr, [r7, #4]
10013bb8:	f080 80cc 	bcs.w	10013d54 <_malloc_r+0x284>
10013bbc:	ea4f 01d9 	mov.w	r1, r9, lsr #3
10013bc0:	3101      	adds	r1, #1
10013bc2:	ea4f 1959 	mov.w	r9, r9, lsr #5
10013bc6:	2301      	movs	r3, #1
10013bc8:	fa03 f309 	lsl.w	r3, r3, r9
10013bcc:	f857 2031 	ldr.w	r2, [r7, r1, lsl #3]
10013bd0:	60a2      	str	r2, [r4, #8]
10013bd2:	ea4e 0e03 	orr.w	lr, lr, r3
10013bd6:	eb07 03c1 	add.w	r3, r7, r1, lsl #3
10013bda:	3b08      	subs	r3, #8
10013bdc:	60e3      	str	r3, [r4, #12]
10013bde:	f8c7 e004 	str.w	lr, [r7, #4]
10013be2:	f847 4031 	str.w	r4, [r7, r1, lsl #3]
10013be6:	60d4      	str	r4, [r2, #12]
10013be8:	ea4f 03ac 	mov.w	r3, ip, asr #2
10013bec:	2001      	movs	r0, #1
10013bee:	4098      	lsls	r0, r3
10013bf0:	4570      	cmp	r0, lr
10013bf2:	d834      	bhi.n	10013c5e <_malloc_r+0x18e>
10013bf4:	ea10 0f0e 	tst.w	r0, lr
10013bf8:	d107      	bne.n	10013c0a <_malloc_r+0x13a>
10013bfa:	f02c 0c03 	bic.w	ip, ip, #3
10013bfe:	0040      	lsls	r0, r0, #1
10013c00:	ea10 0f0e 	tst.w	r0, lr
10013c04:	f10c 0c04 	add.w	ip, ip, #4
10013c08:	d0f9      	beq.n	10013bfe <_malloc_r+0x12e>
10013c0a:	eb07 0acc 	add.w	sl, r7, ip, lsl #3
10013c0e:	4652      	mov	r2, sl
10013c10:	46e1      	mov	r9, ip
10013c12:	68d1      	ldr	r1, [r2, #12]
10013c14:	e00e      	b.n	10013c34 <_malloc_r+0x164>
10013c16:	684b      	ldr	r3, [r1, #4]
10013c18:	f023 0303 	bic.w	r3, r3, #3
10013c1c:	eba3 0e05 	sub.w	lr, r3, r5
10013c20:	f1be 0f0f 	cmp.w	lr, #15
10013c24:	460c      	mov	r4, r1
10013c26:	68c9      	ldr	r1, [r1, #12]
10013c28:	f300 80c1 	bgt.w	10013dae <_malloc_r+0x2de>
10013c2c:	f1be 0f00 	cmp.w	lr, #0
10013c30:	f280 80e2 	bge.w	10013df8 <_malloc_r+0x328>
10013c34:	428a      	cmp	r2, r1
10013c36:	d1ee      	bne.n	10013c16 <_malloc_r+0x146>
10013c38:	f109 0901 	add.w	r9, r9, #1
10013c3c:	f019 0f03 	tst.w	r9, #3
10013c40:	f102 0208 	add.w	r2, r2, #8
10013c44:	d1e5      	bne.n	10013c12 <_malloc_r+0x142>
10013c46:	e121      	b.n	10013e8c <_malloc_r+0x3bc>
10013c48:	230c      	movs	r3, #12
10013c4a:	6033      	str	r3, [r6, #0]
10013c4c:	2400      	movs	r4, #0
10013c4e:	e768      	b.n	10013b22 <_malloc_r+0x52>
10013c50:	f44f 7300 	mov.w	r3, #512	@ 0x200
10013c54:	f04f 0c40 	mov.w	ip, #64	@ 0x40
10013c58:	f04f 0e3f 	mov.w	lr, #63	@ 0x3f
10013c5c:	e77f      	b.n	10013b5e <_malloc_r+0x8e>
10013c5e:	68bc      	ldr	r4, [r7, #8]
10013c60:	6863      	ldr	r3, [r4, #4]
10013c62:	f023 0903 	bic.w	r9, r3, #3
10013c66:	45a9      	cmp	r9, r5
10013c68:	d303      	bcc.n	10013c72 <_malloc_r+0x1a2>
10013c6a:	eba9 0305 	sub.w	r3, r9, r5
10013c6e:	2b0f      	cmp	r3, #15
10013c70:	dc53      	bgt.n	10013d1a <_malloc_r+0x24a>
10013c72:	4b5b      	ldr	r3, [pc, #364]	@ (10013de0 <_malloc_r+0x310>)
10013c74:	f8df b17c 	ldr.w	fp, [pc, #380]	@ 10013df4 <_malloc_r+0x324>
10013c78:	681b      	ldr	r3, [r3, #0]
10013c7a:	2008      	movs	r0, #8
10013c7c:	f103 0810 	add.w	r8, r3, #16
10013c80:	f000 fab0 	bl	100141e4 <sysconf>
10013c84:	f8db 3000 	ldr.w	r3, [fp]
10013c88:	9001      	str	r0, [sp, #4]
10013c8a:	3301      	adds	r3, #1
10013c8c:	44a8      	add	r8, r5
10013c8e:	eb04 0209 	add.w	r2, r4, r9
10013c92:	d005      	beq.n	10013ca0 <_malloc_r+0x1d0>
10013c94:	f108 38ff 	add.w	r8, r8, #4294967295	@ 0xffffffff
10013c98:	4480      	add	r8, r0
10013c9a:	4243      	negs	r3, r0
10013c9c:	ea03 0808 	and.w	r8, r3, r8
10013ca0:	4641      	mov	r1, r8
10013ca2:	4630      	mov	r0, r6
10013ca4:	9202      	str	r2, [sp, #8]
10013ca6:	f001 ff33 	bl	10015b10 <_sbrk_r>
10013caa:	f1b0 3fff 	cmp.w	r0, #4294967295	@ 0xffffffff
10013cae:	9a02      	ldr	r2, [sp, #8]
10013cb0:	4682      	mov	sl, r0
10013cb2:	f000 80dc 	beq.w	10013e6e <_malloc_r+0x39e>
10013cb6:	4282      	cmp	r2, r0
10013cb8:	f200 80d7 	bhi.w	10013e6a <_malloc_r+0x39a>
10013cbc:	4b49      	ldr	r3, [pc, #292]	@ (10013de4 <_malloc_r+0x314>)
10013cbe:	9901      	ldr	r1, [sp, #4]
10013cc0:	6818      	ldr	r0, [r3, #0]
10013cc2:	4440      	add	r0, r8
10013cc4:	f101 31ff 	add.w	r1, r1, #4294967295	@ 0xffffffff
10013cc8:	6018      	str	r0, [r3, #0]
10013cca:	4684      	mov	ip, r0
10013ccc:	f040 80fc 	bne.w	10013ec8 <_malloc_r+0x3f8>
10013cd0:	ea1a 0f01 	tst.w	sl, r1
10013cd4:	f040 80f8 	bne.w	10013ec8 <_malloc_r+0x3f8>
10013cd8:	f8d7 a008 	ldr.w	sl, [r7, #8]
10013cdc:	44c8      	add	r8, r9
10013cde:	f048 0201 	orr.w	r2, r8, #1
10013ce2:	f8ca 2004 	str.w	r2, [sl, #4]
10013ce6:	4b40      	ldr	r3, [pc, #256]	@ (10013de8 <_malloc_r+0x318>)
10013ce8:	6819      	ldr	r1, [r3, #0]
10013cea:	4281      	cmp	r1, r0
10013cec:	bf38      	it	cc
10013cee:	6018      	strcc	r0, [r3, #0]
10013cf0:	4b3e      	ldr	r3, [pc, #248]	@ (10013dec <_malloc_r+0x31c>)
10013cf2:	6819      	ldr	r1, [r3, #0]
10013cf4:	4281      	cmp	r1, r0
10013cf6:	bf38      	it	cc
10013cf8:	6018      	strcc	r0, [r3, #0]
10013cfa:	4654      	mov	r4, sl
10013cfc:	f022 0803 	bic.w	r8, r2, #3
10013d00:	45a8      	cmp	r8, r5
10013d02:	eba8 0305 	sub.w	r3, r8, r5
10013d06:	d301      	bcc.n	10013d0c <_malloc_r+0x23c>
10013d08:	2b0f      	cmp	r3, #15
10013d0a:	dc06      	bgt.n	10013d1a <_malloc_r+0x24a>
10013d0c:	4630      	mov	r0, r6
10013d0e:	f000 fae5 	bl	100142dc <__malloc_unlock>
10013d12:	e79b      	b.n	10013c4c <_malloc_r+0x17c>
10013d14:	f8d7 e004 	ldr.w	lr, [r7, #4]
10013d18:	e766      	b.n	10013be8 <_malloc_r+0x118>
10013d1a:	1962      	adds	r2, r4, r5
10013d1c:	f043 0301 	orr.w	r3, r3, #1
10013d20:	f045 0501 	orr.w	r5, r5, #1
10013d24:	6065      	str	r5, [r4, #4]
10013d26:	4630      	mov	r0, r6
10013d28:	60ba      	str	r2, [r7, #8]
10013d2a:	6053      	str	r3, [r2, #4]
10013d2c:	f000 fad6 	bl	100142dc <__malloc_unlock>
10013d30:	3408      	adds	r4, #8
10013d32:	4620      	mov	r0, r4
10013d34:	b005      	add	sp, #20
10013d36:	e8bd 8ff0 	ldmia.w	sp!, {r4, r5, r6, r7, r8, r9, sl, fp, pc}
10013d3a:	68a2      	ldr	r2, [r4, #8]
10013d3c:	4423      	add	r3, r4
10013d3e:	60d1      	str	r1, [r2, #12]
10013d40:	4630      	mov	r0, r6
10013d42:	608a      	str	r2, [r1, #8]
10013d44:	e6e6      	b.n	10013b14 <_malloc_r+0x44>
10013d46:	68dc      	ldr	r4, [r3, #12]
10013d48:	42a3      	cmp	r3, r4
10013d4a:	f47f aeda 	bne.w	10013b02 <_malloc_r+0x32>
10013d4e:	f10c 0c02 	add.w	ip, ip, #2
10013d52:	e71a      	b.n	10013b8a <_malloc_r+0xba>
10013d54:	f5b9 6f20 	cmp.w	r9, #2560	@ 0xa00
10013d58:	ea4f 2259 	mov.w	r2, r9, lsr #9
10013d5c:	d37e      	bcc.n	10013e5c <_malloc_r+0x38c>
10013d5e:	2a14      	cmp	r2, #20
10013d60:	f200 8115 	bhi.w	10013f8e <_malloc_r+0x4be>
10013d64:	f102 035c 	add.w	r3, r2, #92	@ 0x5c
10013d68:	00db      	lsls	r3, r3, #3
10013d6a:	325b      	adds	r2, #91	@ 0x5b
10013d6c:	18f9      	adds	r1, r7, r3
10013d6e:	58fb      	ldr	r3, [r7, r3]
10013d70:	3908      	subs	r1, #8
10013d72:	4299      	cmp	r1, r3
10013d74:	d103      	bne.n	10013d7e <_malloc_r+0x2ae>
10013d76:	e0f0      	b.n	10013f5a <_malloc_r+0x48a>
10013d78:	689b      	ldr	r3, [r3, #8]
10013d7a:	4299      	cmp	r1, r3
10013d7c:	d004      	beq.n	10013d88 <_malloc_r+0x2b8>
10013d7e:	685a      	ldr	r2, [r3, #4]
10013d80:	f022 0203 	bic.w	r2, r2, #3
10013d84:	454a      	cmp	r2, r9
10013d86:	d8f7      	bhi.n	10013d78 <_malloc_r+0x2a8>
10013d88:	68d9      	ldr	r1, [r3, #12]
10013d8a:	e9c4 3102 	strd	r3, r1, [r4, #8]
10013d8e:	608c      	str	r4, [r1, #8]
10013d90:	60dc      	str	r4, [r3, #12]
10013d92:	e729      	b.n	10013be8 <_malloc_r+0x118>
10013d94:	2b14      	cmp	r3, #20
10013d96:	d96d      	bls.n	10013e74 <_malloc_r+0x3a4>
10013d98:	2b54      	cmp	r3, #84	@ 0x54
10013d9a:	f200 8101 	bhi.w	10013fa0 <_malloc_r+0x4d0>
10013d9e:	0b2b      	lsrs	r3, r5, #12
10013da0:	f103 0c6f 	add.w	ip, r3, #111	@ 0x6f
10013da4:	f103 0e6e 	add.w	lr, r3, #110	@ 0x6e
10013da8:	ea4f 03cc 	mov.w	r3, ip, lsl #3
10013dac:	e6d7      	b.n	10013b5e <_malloc_r+0x8e>
10013dae:	4630      	mov	r0, r6
10013db0:	68a6      	ldr	r6, [r4, #8]
10013db2:	1962      	adds	r2, r4, r5
10013db4:	f045 0501 	orr.w	r5, r5, #1
10013db8:	6065      	str	r5, [r4, #4]
10013dba:	60f1      	str	r1, [r6, #12]
10013dbc:	608e      	str	r6, [r1, #8]
10013dbe:	f04e 0101 	orr.w	r1, lr, #1
10013dc2:	e9c7 2204 	strd	r2, r2, [r7, #16]
10013dc6:	f8c2 8008 	str.w	r8, [r2, #8]
10013dca:	f8c2 800c 	str.w	r8, [r2, #12]
10013dce:	6051      	str	r1, [r2, #4]
10013dd0:	f844 e003 	str.w	lr, [r4, r3]
10013dd4:	f000 fa82 	bl	100142dc <__malloc_unlock>
10013dd8:	3408      	adds	r4, #8
10013dda:	e6a2      	b.n	10013b22 <_malloc_r+0x52>
10013ddc:	20000040 	.word	0x20000040
10013de0:	2000145c 	.word	0x2000145c
10013de4:	2000142c 	.word	0x2000142c
10013de8:	20001458 	.word	0x20001458
10013dec:	20001454 	.word	0x20001454
10013df0:	20000048 	.word	0x20000048
10013df4:	20000038 	.word	0x20000038
10013df8:	4423      	add	r3, r4
10013dfa:	4630      	mov	r0, r6
10013dfc:	685a      	ldr	r2, [r3, #4]
10013dfe:	f042 0201 	orr.w	r2, r2, #1
10013e02:	605a      	str	r2, [r3, #4]
10013e04:	f854 3f08 	ldr.w	r3, [r4, #8]!
10013e08:	60d9      	str	r1, [r3, #12]
10013e0a:	608b      	str	r3, [r1, #8]
10013e0c:	f000 fa66 	bl	100142dc <__malloc_unlock>
10013e10:	e687      	b.n	10013b22 <_malloc_r+0x52>
10013e12:	44a1      	add	r9, r4
10013e14:	4630      	mov	r0, r6
10013e16:	f8d9 3004 	ldr.w	r3, [r9, #4]
10013e1a:	f043 0301 	orr.w	r3, r3, #1
10013e1e:	f8c9 3004 	str.w	r3, [r9, #4]
10013e22:	3408      	adds	r4, #8
10013e24:	f000 fa5a 	bl	100142dc <__malloc_unlock>
10013e28:	e67b      	b.n	10013b22 <_malloc_r+0x52>
10013e2a:	ea4f 0cd5 	mov.w	ip, r5, lsr #3
10013e2e:	f105 0308 	add.w	r3, r5, #8
10013e32:	e65e      	b.n	10013af2 <_malloc_r+0x22>
10013e34:	1962      	adds	r2, r4, r5
10013e36:	f043 0101 	orr.w	r1, r3, #1
10013e3a:	f045 0501 	orr.w	r5, r5, #1
10013e3e:	6065      	str	r5, [r4, #4]
10013e40:	4630      	mov	r0, r6
10013e42:	e9c7 2204 	strd	r2, r2, [r7, #16]
10013e46:	f8c2 8008 	str.w	r8, [r2, #8]
10013e4a:	f8c2 800c 	str.w	r8, [r2, #12]
10013e4e:	6051      	str	r1, [r2, #4]
10013e50:	f844 3009 	str.w	r3, [r4, r9]
10013e54:	f000 fa42 	bl	100142dc <__malloc_unlock>
10013e58:	3408      	adds	r4, #8
10013e5a:	e662      	b.n	10013b22 <_malloc_r+0x52>
10013e5c:	ea4f 1299 	mov.w	r2, r9, lsr #6
10013e60:	f102 0339 	add.w	r3, r2, #57	@ 0x39
10013e64:	00db      	lsls	r3, r3, #3
10013e66:	3238      	adds	r2, #56	@ 0x38
10013e68:	e780      	b.n	10013d6c <_malloc_r+0x29c>
10013e6a:	42bc      	cmp	r4, r7
10013e6c:	d024      	beq.n	10013eb8 <_malloc_r+0x3e8>
10013e6e:	68bc      	ldr	r4, [r7, #8]
10013e70:	6862      	ldr	r2, [r4, #4]
10013e72:	e743      	b.n	10013cfc <_malloc_r+0x22c>
10013e74:	f103 0c5c 	add.w	ip, r3, #92	@ 0x5c
10013e78:	f103 0e5b 	add.w	lr, r3, #91	@ 0x5b
10013e7c:	ea4f 03cc 	mov.w	r3, ip, lsl #3
10013e80:	e66d      	b.n	10013b5e <_malloc_r+0x8e>
10013e82:	f85a 3908 	ldr.w	r3, [sl], #-8
10013e86:	4553      	cmp	r3, sl
10013e88:	f040 80d8 	bne.w	1001403c <_malloc_r+0x56c>
10013e8c:	f01c 0f03 	tst.w	ip, #3
10013e90:	f10c 3cff 	add.w	ip, ip, #4294967295	@ 0xffffffff
10013e94:	d1f5      	bne.n	10013e82 <_malloc_r+0x3b2>
10013e96:	687b      	ldr	r3, [r7, #4]
10013e98:	ea23 0300 	bic.w	r3, r3, r0
10013e9c:	607b      	str	r3, [r7, #4]
10013e9e:	0040      	lsls	r0, r0, #1
10013ea0:	4298      	cmp	r0, r3
10013ea2:	f63f aedc 	bhi.w	10013c5e <_malloc_r+0x18e>
10013ea6:	b918      	cbnz	r0, 10013eb0 <_malloc_r+0x3e0>
10013ea8:	e6d9      	b.n	10013c5e <_malloc_r+0x18e>
10013eaa:	0040      	lsls	r0, r0, #1
10013eac:	f109 0904 	add.w	r9, r9, #4
10013eb0:	4218      	tst	r0, r3
10013eb2:	d0fa      	beq.n	10013eaa <_malloc_r+0x3da>
10013eb4:	46cc      	mov	ip, r9
10013eb6:	e6a8      	b.n	10013c0a <_malloc_r+0x13a>
10013eb8:	4b61      	ldr	r3, [pc, #388]	@ (10014040 <_malloc_r+0x570>)
10013eba:	9901      	ldr	r1, [sp, #4]
10013ebc:	6818      	ldr	r0, [r3, #0]
10013ebe:	eb08 0c00 	add.w	ip, r8, r0
10013ec2:	3901      	subs	r1, #1
10013ec4:	f8c3 c000 	str.w	ip, [r3]
10013ec8:	f8db 0000 	ldr.w	r0, [fp]
10013ecc:	3001      	adds	r0, #1
10013ece:	bf1b      	ittet	ne
10013ed0:	ebaa 0202 	subne.w	r2, sl, r2
10013ed4:	4462      	addne	r2, ip
10013ed6:	f8cb a000 	streq.w	sl, [fp]
10013eda:	601a      	strne	r2, [r3, #0]
10013edc:	f01a 0207 	ands.w	r2, sl, #7
10013ee0:	e9cd 2302 	strd	r2, r3, [sp, #8]
10013ee4:	d042      	beq.n	10013f6c <_malloc_r+0x49c>
10013ee6:	f1c2 0208 	rsb	r2, r2, #8
10013eea:	9b01      	ldr	r3, [sp, #4]
10013eec:	4492      	add	sl, r2
10013eee:	44d0      	add	r8, sl
10013ef0:	4413      	add	r3, r2
10013ef2:	ea08 0001 	and.w	r0, r8, r1
10013ef6:	1a1a      	subs	r2, r3, r0
10013ef8:	ea02 0b01 	and.w	fp, r2, r1
10013efc:	4659      	mov	r1, fp
10013efe:	4630      	mov	r0, r6
10013f00:	f001 fe06 	bl	10015b10 <_sbrk_r>
10013f04:	1c42      	adds	r2, r0, #1
10013f06:	9b03      	ldr	r3, [sp, #12]
10013f08:	d07a      	beq.n	10014000 <_malloc_r+0x530>
10013f0a:	eba0 000a 	sub.w	r0, r0, sl
10013f0e:	eb00 080b 	add.w	r8, r0, fp
10013f12:	6818      	ldr	r0, [r3, #0]
10013f14:	f8c7 a008 	str.w	sl, [r7, #8]
10013f18:	f048 0201 	orr.w	r2, r8, #1
10013f1c:	4458      	add	r0, fp
10013f1e:	42bc      	cmp	r4, r7
10013f20:	f8ca 2004 	str.w	r2, [sl, #4]
10013f24:	6018      	str	r0, [r3, #0]
10013f26:	f43f aede 	beq.w	10013ce6 <_malloc_r+0x216>
10013f2a:	f1b9 0f0f 	cmp.w	r9, #15
10013f2e:	d942      	bls.n	10013fb6 <_malloc_r+0x4e6>
10013f30:	6861      	ldr	r1, [r4, #4]
10013f32:	f1a9 020c 	sub.w	r2, r9, #12
10013f36:	f022 0207 	bic.w	r2, r2, #7
10013f3a:	f001 0101 	and.w	r1, r1, #1
10013f3e:	4311      	orrs	r1, r2
10013f40:	6061      	str	r1, [r4, #4]
10013f42:	18a1      	adds	r1, r4, r2
10013f44:	f04f 0c05 	mov.w	ip, #5
10013f48:	2a0f      	cmp	r2, #15
10013f4a:	f8c1 c004 	str.w	ip, [r1, #4]
10013f4e:	f8c1 c008 	str.w	ip, [r1, #8]
10013f52:	d84a      	bhi.n	10013fea <_malloc_r+0x51a>
10013f54:	f8da 2004 	ldr.w	r2, [sl, #4]
10013f58:	e6c5      	b.n	10013ce6 <_malloc_r+0x216>
10013f5a:	1092      	asrs	r2, r2, #2
10013f5c:	2001      	movs	r0, #1
10013f5e:	fa00 f202 	lsl.w	r2, r0, r2
10013f62:	ea4e 0e02 	orr.w	lr, lr, r2
10013f66:	f8c7 e004 	str.w	lr, [r7, #4]
10013f6a:	e70e      	b.n	10013d8a <_malloc_r+0x2ba>
10013f6c:	9b01      	ldr	r3, [sp, #4]
10013f6e:	eb0a 0208 	add.w	r2, sl, r8
10013f72:	400a      	ands	r2, r1
10013f74:	1a9a      	subs	r2, r3, r2
10013f76:	ea02 0b01 	and.w	fp, r2, r1
10013f7a:	4659      	mov	r1, fp
10013f7c:	4630      	mov	r0, r6
10013f7e:	f001 fdc7 	bl	10015b10 <_sbrk_r>
10013f82:	1c43      	adds	r3, r0, #1
10013f84:	9b03      	ldr	r3, [sp, #12]
10013f86:	d1c0      	bne.n	10013f0a <_malloc_r+0x43a>
10013f88:	f8dd b008 	ldr.w	fp, [sp, #8]
10013f8c:	e7c1      	b.n	10013f12 <_malloc_r+0x442>
10013f8e:	2a54      	cmp	r2, #84	@ 0x54
10013f90:	d815      	bhi.n	10013fbe <_malloc_r+0x4ee>
10013f92:	ea4f 3219 	mov.w	r2, r9, lsr #12
10013f96:	f102 036f 	add.w	r3, r2, #111	@ 0x6f
10013f9a:	00db      	lsls	r3, r3, #3
10013f9c:	326e      	adds	r2, #110	@ 0x6e
10013f9e:	e6e5      	b.n	10013d6c <_malloc_r+0x29c>
10013fa0:	f5b3 7faa 	cmp.w	r3, #340	@ 0x154
10013fa4:	d815      	bhi.n	10013fd2 <_malloc_r+0x502>
10013fa6:	0beb      	lsrs	r3, r5, #15
10013fa8:	f103 0c78 	add.w	ip, r3, #120	@ 0x78
10013fac:	f103 0e77 	add.w	lr, r3, #119	@ 0x77
10013fb0:	ea4f 03cc 	mov.w	r3, ip, lsl #3
10013fb4:	e5d3      	b.n	10013b5e <_malloc_r+0x8e>
10013fb6:	2301      	movs	r3, #1
10013fb8:	f8ca 3004 	str.w	r3, [sl, #4]
10013fbc:	e6a6      	b.n	10013d0c <_malloc_r+0x23c>
10013fbe:	f5b2 7faa 	cmp.w	r2, #340	@ 0x154
10013fc2:	d825      	bhi.n	10014010 <_malloc_r+0x540>
10013fc4:	ea4f 32d9 	mov.w	r2, r9, lsr #15
10013fc8:	f102 0378 	add.w	r3, r2, #120	@ 0x78
10013fcc:	00db      	lsls	r3, r3, #3
10013fce:	3277      	adds	r2, #119	@ 0x77
10013fd0:	e6cc      	b.n	10013d6c <_malloc_r+0x29c>
10013fd2:	f240 5254 	movw	r2, #1364	@ 0x554
10013fd6:	4293      	cmp	r3, r2
10013fd8:	d825      	bhi.n	10014026 <_malloc_r+0x556>
10013fda:	0cab      	lsrs	r3, r5, #18
10013fdc:	f103 0c7d 	add.w	ip, r3, #125	@ 0x7d
10013fe0:	f103 0e7c 	add.w	lr, r3, #124	@ 0x7c
10013fe4:	ea4f 03cc 	mov.w	r3, ip, lsl #3
10013fe8:	e5b9      	b.n	10013b5e <_malloc_r+0x8e>
10013fea:	4630      	mov	r0, r6
10013fec:	f104 0108 	add.w	r1, r4, #8
10013ff0:	9301      	str	r3, [sp, #4]
10013ff2:	f001 fc05 	bl	10015800 <_free_r>
10013ff6:	9b01      	ldr	r3, [sp, #4]
10013ff8:	f8d7 a008 	ldr.w	sl, [r7, #8]
10013ffc:	6818      	ldr	r0, [r3, #0]
10013ffe:	e7a9      	b.n	10013f54 <_malloc_r+0x484>
10014000:	9a02      	ldr	r2, [sp, #8]
10014002:	3a08      	subs	r2, #8
10014004:	4490      	add	r8, r2
10014006:	eba8 080a 	sub.w	r8, r8, sl
1001400a:	f04f 0b00 	mov.w	fp, #0
1001400e:	e780      	b.n	10013f12 <_malloc_r+0x442>
10014010:	f240 5354 	movw	r3, #1364	@ 0x554
10014014:	429a      	cmp	r2, r3
10014016:	d80d      	bhi.n	10014034 <_malloc_r+0x564>
10014018:	ea4f 4299 	mov.w	r2, r9, lsr #18
1001401c:	f102 037d 	add.w	r3, r2, #125	@ 0x7d
10014020:	00db      	lsls	r3, r3, #3
10014022:	327c      	adds	r2, #124	@ 0x7c
10014024:	e6a2      	b.n	10013d6c <_malloc_r+0x29c>
10014026:	f44f 737e 	mov.w	r3, #1016	@ 0x3f8
1001402a:	f04f 0c7f 	mov.w	ip, #127	@ 0x7f
1001402e:	f04f 0e7e 	mov.w	lr, #126	@ 0x7e
10014032:	e594      	b.n	10013b5e <_malloc_r+0x8e>
10014034:	f44f 737e 	mov.w	r3, #1016	@ 0x3f8
10014038:	227e      	movs	r2, #126	@ 0x7e
1001403a:	e697      	b.n	10013d6c <_malloc_r+0x29c>
1001403c:	687b      	ldr	r3, [r7, #4]
1001403e:	e72e      	b.n	10013e9e <_malloc_r+0x3ce>
10014040:	2000142c 	.word	0x2000142c

10014044 <register_fini>:
10014044:	4b02      	ldr	r3, [pc, #8]	@ (10014050 <register_fini+0xc>)
10014046:	b113      	cbz	r3, 1001404e <register_fini+0xa>
10014048:	4802      	ldr	r0, [pc, #8]	@ (10014054 <register_fini+0x10>)
1001404a:	f000 b94d 	b.w	100142e8 <atexit>
1001404e:	4770      	bx	lr
10014050:	00000000 	.word	0x00000000
10014054:	10014199 	.word	0x10014199

10014058 <memset>:
10014058:	0783      	lsls	r3, r0, #30
1001405a:	b530      	push	{r4, r5, lr}
1001405c:	d047      	beq.n	100140ee <memset+0x96>
1001405e:	1e54      	subs	r4, r2, #1
10014060:	2a00      	cmp	r2, #0
10014062:	d03e      	beq.n	100140e2 <memset+0x8a>
10014064:	b2ca      	uxtb	r2, r1
10014066:	4603      	mov	r3, r0
10014068:	e001      	b.n	1001406e <memset+0x16>
1001406a:	3c01      	subs	r4, #1
1001406c:	d339      	bcc.n	100140e2 <memset+0x8a>
1001406e:	f803 2b01 	strb.w	r2, [r3], #1
10014072:	079d      	lsls	r5, r3, #30
10014074:	d1f9      	bne.n	1001406a <memset+0x12>
10014076:	2c03      	cmp	r4, #3
10014078:	d92c      	bls.n	100140d4 <memset+0x7c>
1001407a:	b2cd      	uxtb	r5, r1
1001407c:	eb05 2505 	add.w	r5, r5, r5, lsl #8
10014080:	2c0f      	cmp	r4, #15
10014082:	eb05 4505 	add.w	r5, r5, r5, lsl #16
10014086:	d935      	bls.n	100140f4 <memset+0x9c>
10014088:	f1a4 0210 	sub.w	r2, r4, #16
1001408c:	f022 0c0f 	bic.w	ip, r2, #15
10014090:	f103 0e10 	add.w	lr, r3, #16
10014094:	44e6      	add	lr, ip
10014096:	ea4f 1c12 	mov.w	ip, r2, lsr #4
1001409a:	461a      	mov	r2, r3
1001409c:	6015      	str	r5, [r2, #0]
1001409e:	6055      	str	r5, [r2, #4]
100140a0:	6095      	str	r5, [r2, #8]
100140a2:	60d5      	str	r5, [r2, #12]
100140a4:	3210      	adds	r2, #16
100140a6:	4572      	cmp	r2, lr
100140a8:	d1f8      	bne.n	1001409c <memset+0x44>
100140aa:	f10c 0201 	add.w	r2, ip, #1
100140ae:	f014 0f0c 	tst.w	r4, #12
100140b2:	eb03 1202 	add.w	r2, r3, r2, lsl #4
100140b6:	f004 0c0f 	and.w	ip, r4, #15
100140ba:	d013      	beq.n	100140e4 <memset+0x8c>
100140bc:	f1ac 0304 	sub.w	r3, ip, #4
100140c0:	f023 0303 	bic.w	r3, r3, #3
100140c4:	3304      	adds	r3, #4
100140c6:	4413      	add	r3, r2
100140c8:	f842 5b04 	str.w	r5, [r2], #4
100140cc:	429a      	cmp	r2, r3
100140ce:	d1fb      	bne.n	100140c8 <memset+0x70>
100140d0:	f00c 0403 	and.w	r4, ip, #3
100140d4:	b12c      	cbz	r4, 100140e2 <memset+0x8a>
100140d6:	b2c9      	uxtb	r1, r1
100140d8:	441c      	add	r4, r3
100140da:	f803 1b01 	strb.w	r1, [r3], #1
100140de:	429c      	cmp	r4, r3
100140e0:	d1fb      	bne.n	100140da <memset+0x82>
100140e2:	bd30      	pop	{r4, r5, pc}
100140e4:	4664      	mov	r4, ip
100140e6:	4613      	mov	r3, r2
100140e8:	2c00      	cmp	r4, #0
100140ea:	d1f4      	bne.n	100140d6 <memset+0x7e>
100140ec:	e7f9      	b.n	100140e2 <memset+0x8a>
100140ee:	4603      	mov	r3, r0
100140f0:	4614      	mov	r4, r2
100140f2:	e7c0      	b.n	10014076 <memset+0x1e>
100140f4:	461a      	mov	r2, r3
100140f6:	46a4      	mov	ip, r4
100140f8:	e7e0      	b.n	100140bc <memset+0x64>
100140fa:	bf00      	nop

100140fc <_wcrtomb_r>:
100140fc:	b570      	push	{r4, r5, r6, lr}
100140fe:	4605      	mov	r5, r0
10014100:	b084      	sub	sp, #16
10014102:	b15b      	cbz	r3, 1001411c <_wcrtomb_r+0x20>
10014104:	461c      	mov	r4, r3
10014106:	4b0f      	ldr	r3, [pc, #60]	@ (10014144 <_wcrtomb_r+0x48>)
10014108:	f8d3 60e0 	ldr.w	r6, [r3, #224]	@ 0xe0
1001410c:	4623      	mov	r3, r4
1001410e:	b169      	cbz	r1, 1001412c <_wcrtomb_r+0x30>
10014110:	4628      	mov	r0, r5
10014112:	47b0      	blx	r6
10014114:	1c43      	adds	r3, r0, #1
10014116:	d00f      	beq.n	10014138 <_wcrtomb_r+0x3c>
10014118:	b004      	add	sp, #16
1001411a:	bd70      	pop	{r4, r5, r6, pc}
1001411c:	4b09      	ldr	r3, [pc, #36]	@ (10014144 <_wcrtomb_r+0x48>)
1001411e:	f500 7482 	add.w	r4, r0, #260	@ 0x104
10014122:	f8d3 60e0 	ldr.w	r6, [r3, #224]	@ 0xe0
10014126:	4623      	mov	r3, r4
10014128:	2900      	cmp	r1, #0
1001412a:	d1f1      	bne.n	10014110 <_wcrtomb_r+0x14>
1001412c:	460a      	mov	r2, r1
1001412e:	4628      	mov	r0, r5
10014130:	a901      	add	r1, sp, #4
10014132:	47b0      	blx	r6
10014134:	1c43      	adds	r3, r0, #1
10014136:	d1ef      	bne.n	10014118 <_wcrtomb_r+0x1c>
10014138:	2200      	movs	r2, #0
1001413a:	238a      	movs	r3, #138	@ 0x8a
1001413c:	6022      	str	r2, [r4, #0]
1001413e:	602b      	str	r3, [r5, #0]
10014140:	b004      	add	sp, #16
10014142:	bd70      	pop	{r4, r5, r6, pc}
10014144:	2000044c 	.word	0x2000044c

10014148 <__libc_init_array>:
10014148:	b570      	push	{r4, r5, r6, lr}
1001414a:	4b0f      	ldr	r3, [pc, #60]	@ (10014188 <__libc_init_array+0x40>)
1001414c:	4d0f      	ldr	r5, [pc, #60]	@ (1001418c <__libc_init_array+0x44>)
1001414e:	42ab      	cmp	r3, r5
10014150:	eba3 0605 	sub.w	r6, r3, r5
10014154:	d007      	beq.n	10014166 <__libc_init_array+0x1e>
10014156:	10b6      	asrs	r6, r6, #2
10014158:	2400      	movs	r4, #0
1001415a:	f855 3b04 	ldr.w	r3, [r5], #4
1001415e:	3401      	adds	r4, #1
10014160:	4798      	blx	r3
10014162:	42a6      	cmp	r6, r4
10014164:	d8f9      	bhi.n	1001415a <__libc_init_array+0x12>
10014166:	f007 fa1b 	bl	1001b5a0 <_init>
1001416a:	4d09      	ldr	r5, [pc, #36]	@ (10014190 <__libc_init_array+0x48>)
1001416c:	4b09      	ldr	r3, [pc, #36]	@ (10014194 <__libc_init_array+0x4c>)
1001416e:	1b5e      	subs	r6, r3, r5
10014170:	42ab      	cmp	r3, r5
10014172:	ea4f 06a6 	mov.w	r6, r6, asr #2
10014176:	d006      	beq.n	10014186 <__libc_init_array+0x3e>
10014178:	2400      	movs	r4, #0
1001417a:	f855 3b04 	ldr.w	r3, [r5], #4
1001417e:	3401      	adds	r4, #1
10014180:	4798      	blx	r3
10014182:	42a6      	cmp	r6, r4
10014184:	d8f9      	bhi.n	1001417a <__libc_init_array+0x32>
10014186:	bd70      	pop	{r4, r5, r6, pc}
10014188:	200006ec 	.word	0x200006ec
1001418c:	200006ec 	.word	0x200006ec
10014190:	200006ec 	.word	0x200006ec
10014194:	200006f4 	.word	0x200006f4

10014198 <__libc_fini_array>:
10014198:	b538      	push	{r3, r4, r5, lr}
1001419a:	4d07      	ldr	r5, [pc, #28]	@ (100141b8 <__libc_fini_array+0x20>)
1001419c:	4c07      	ldr	r4, [pc, #28]	@ (100141bc <__libc_fini_array+0x24>)
1001419e:	1b2c      	subs	r4, r5, r4
100141a0:	10a4      	asrs	r4, r4, #2
100141a2:	d005      	beq.n	100141b0 <__libc_fini_array+0x18>
100141a4:	3c01      	subs	r4, #1
100141a6:	f855 3d04 	ldr.w	r3, [r5, #-4]!
100141aa:	4798      	blx	r3
100141ac:	2c00      	cmp	r4, #0
100141ae:	d1f9      	bne.n	100141a4 <__libc_fini_array+0xc>
100141b0:	e8bd 4038 	ldmia.w	sp!, {r3, r4, r5, lr}
100141b4:	f007 b9fa 	b.w	1001b5ac <_fini>
100141b8:	200006f8 	.word	0x200006f8
100141bc:	200006f4 	.word	0x200006f4

100141c0 <__retarget_lock_init_recursive>:
100141c0:	4770      	bx	lr
100141c2:	bf00      	nop

100141c4 <__retarget_lock_close_recursive>:
100141c4:	4770      	bx	lr
100141c6:	bf00      	nop

100141c8 <__retarget_lock_acquire_recursive>:
100141c8:	4770      	bx	lr
100141ca:	bf00      	nop

100141cc <__retarget_lock_release_recursive>:
100141cc:	4770      	bx	lr
100141ce:	bf00      	nop

100141d0 <__locale_mb_cur_max>:
100141d0:	4b01      	ldr	r3, [pc, #4]	@ (100141d8 <__locale_mb_cur_max+0x8>)
100141d2:	f893 0128 	ldrb.w	r0, [r3, #296]	@ 0x128
100141d6:	4770      	bx	lr
100141d8:	2000044c 	.word	0x2000044c

100141dc <_localeconv_r>:
100141dc:	4800      	ldr	r0, [pc, #0]	@ (100141e0 <_localeconv_r+0x4>)
100141de:	4770      	bx	lr
100141e0:	2000053c 	.word	0x2000053c

100141e4 <sysconf>:
100141e4:	2808      	cmp	r0, #8
100141e6:	d102      	bne.n	100141ee <sysconf+0xa>
100141e8:	f44f 5080 	mov.w	r0, #4096	@ 0x1000
100141ec:	4770      	bx	lr
100141ee:	b508      	push	{r3, lr}
100141f0:	f7fd fe98 	bl	10011f24 <__errno>
100141f4:	2316      	movs	r3, #22
100141f6:	6003      	str	r3, [r0, #0]
100141f8:	f04f 30ff 	mov.w	r0, #4294967295	@ 0xffffffff
100141fc:	bd08      	pop	{r3, pc}
100141fe:	bf00      	nop

10014200 <printf>:
10014200:	b40f      	push	{r0, r1, r2, r3}
10014202:	b500      	push	{lr}
10014204:	4907      	ldr	r1, [pc, #28]	@ (10014224 <printf+0x24>)
10014206:	b083      	sub	sp, #12
10014208:	ab04      	add	r3, sp, #16
1001420a:	6808      	ldr	r0, [r1, #0]
1001420c:	f853 2b04 	ldr.w	r2, [r3], #4
10014210:	6881      	ldr	r1, [r0, #8]
10014212:	9301      	str	r3, [sp, #4]
10014214:	f001 fecc 	bl	10015fb0 <_vfprintf_r>
10014218:	b003      	add	sp, #12
1001421a:	f85d eb04 	ldr.w	lr, [sp], #4
1001421e:	b004      	add	sp, #16
10014220:	4770      	bx	lr
10014222:	bf00      	nop
10014224:	200005b8 	.word	0x200005b8

10014228 <_puts_r>:
10014228:	b570      	push	{r4, r5, r6, lr}
1001422a:	4605      	mov	r5, r0
1001422c:	b088      	sub	sp, #32
1001422e:	4608      	mov	r0, r1
10014230:	460c      	mov	r4, r1
10014232:	f001 f9e5 	bl	10015600 <strlen>
10014236:	4e21      	ldr	r6, [pc, #132]	@ (100142bc <_puts_r+0x94>)
10014238:	6b6a      	ldr	r2, [r5, #52]	@ 0x34
1001423a:	9005      	str	r0, [sp, #20]
1001423c:	2101      	movs	r1, #1
1001423e:	1843      	adds	r3, r0, r1
10014240:	e9cd 6106 	strd	r6, r1, [sp, #24]
10014244:	a804      	add	r0, sp, #16
10014246:	2102      	movs	r1, #2
10014248:	9404      	str	r4, [sp, #16]
1001424a:	9303      	str	r3, [sp, #12]
1001424c:	68ac      	ldr	r4, [r5, #8]
1001424e:	9001      	str	r0, [sp, #4]
10014250:	9102      	str	r1, [sp, #8]
10014252:	2a00      	cmp	r2, #0
10014254:	d02e      	beq.n	100142b4 <_puts_r+0x8c>
10014256:	6e62      	ldr	r2, [r4, #100]	@ 0x64
10014258:	f9b4 300c 	ldrsh.w	r3, [r4, #12]
1001425c:	07d6      	lsls	r6, r2, #31
1001425e:	d401      	bmi.n	10014264 <_puts_r+0x3c>
10014260:	0598      	lsls	r0, r3, #22
10014262:	d521      	bpl.n	100142a8 <_puts_r+0x80>
10014264:	0499      	lsls	r1, r3, #18
10014266:	d406      	bmi.n	10014276 <_puts_r+0x4e>
10014268:	6e62      	ldr	r2, [r4, #100]	@ 0x64
1001426a:	f443 5300 	orr.w	r3, r3, #8192	@ 0x2000
1001426e:	f422 5200 	bic.w	r2, r2, #8192	@ 0x2000
10014272:	81a3      	strh	r3, [r4, #12]
10014274:	6662      	str	r2, [r4, #100]	@ 0x64
10014276:	4628      	mov	r0, r5
10014278:	aa01      	add	r2, sp, #4
1001427a:	4621      	mov	r1, r4
1001427c:	f001 fc5a 	bl	10015b34 <__sfvwrite_r>
10014280:	6e63      	ldr	r3, [r4, #100]	@ 0x64
10014282:	2800      	cmp	r0, #0
10014284:	bf0c      	ite	eq
10014286:	250a      	moveq	r5, #10
10014288:	f04f 35ff 	movne.w	r5, #4294967295	@ 0xffffffff
1001428c:	07da      	lsls	r2, r3, #31
1001428e:	d402      	bmi.n	10014296 <_puts_r+0x6e>
10014290:	89a3      	ldrh	r3, [r4, #12]
10014292:	059b      	lsls	r3, r3, #22
10014294:	d502      	bpl.n	1001429c <_puts_r+0x74>
10014296:	4628      	mov	r0, r5
10014298:	b008      	add	sp, #32
1001429a:	bd70      	pop	{r4, r5, r6, pc}
1001429c:	6da0      	ldr	r0, [r4, #88]	@ 0x58
1001429e:	f7ff ff95 	bl	100141cc <__retarget_lock_release_recursive>
100142a2:	4628      	mov	r0, r5
100142a4:	b008      	add	sp, #32
100142a6:	bd70      	pop	{r4, r5, r6, pc}
100142a8:	6da0      	ldr	r0, [r4, #88]	@ 0x58
100142aa:	f7ff ff8d 	bl	100141c8 <__retarget_lock_acquire_recursive>
100142ae:	f9b4 300c 	ldrsh.w	r3, [r4, #12]
100142b2:	e7d7      	b.n	10014264 <_puts_r+0x3c>
100142b4:	4628      	mov	r0, r5
100142b6:	f001 f885 	bl	100153c4 <__sinit>
100142ba:	e7cc      	b.n	10014256 <_puts_r+0x2e>
100142bc:	1001b23c 	.word	0x1001b23c

100142c0 <puts>:
100142c0:	4b02      	ldr	r3, [pc, #8]	@ (100142cc <puts+0xc>)
100142c2:	4601      	mov	r1, r0
100142c4:	6818      	ldr	r0, [r3, #0]
100142c6:	f7ff bfaf 	b.w	10014228 <_puts_r>
100142ca:	bf00      	nop
100142cc:	200005b8 	.word	0x200005b8

100142d0 <__malloc_lock>:
100142d0:	4801      	ldr	r0, [pc, #4]	@ (100142d8 <__malloc_lock+0x8>)
100142d2:	f7ff bf79 	b.w	100141c8 <__retarget_lock_acquire_recursive>
100142d6:	bf00      	nop
100142d8:	20001464 	.word	0x20001464

100142dc <__malloc_unlock>:
100142dc:	4801      	ldr	r0, [pc, #4]	@ (100142e4 <__malloc_unlock+0x8>)
100142de:	f7ff bf75 	b.w	100141cc <__retarget_lock_release_recursive>
100142e2:	bf00      	nop
100142e4:	20001464 	.word	0x20001464

100142e8 <atexit>:
100142e8:	2300      	movs	r3, #0
100142ea:	4601      	mov	r1, r0
100142ec:	461a      	mov	r2, r3
100142ee:	4618      	mov	r0, r3
100142f0:	f004 bd22 	b.w	10018d38 <__register_exitproc>

100142f4 <_wcsrtombs_r>:
100142f4:	b510      	push	{r4, lr}
100142f6:	b082      	sub	sp, #8
100142f8:	9c04      	ldr	r4, [sp, #16]
100142fa:	e9cd 3400 	strd	r3, r4, [sp]
100142fe:	f04f 33ff 	mov.w	r3, #4294967295	@ 0xffffffff
10014302:	f005 fbab 	bl	10019a5c <_wcsnrtombs_r>
10014306:	b002      	add	sp, #8
10014308:	bd10      	pop	{r4, pc}
1001430a:	bf00      	nop

1001430c <quorem>:
1001430c:	e92d 4ff0 	stmdb	sp!, {r4, r5, r6, r7, r8, r9, sl, fp, lr}
10014310:	6903      	ldr	r3, [r0, #16]
10014312:	690c      	ldr	r4, [r1, #16]
10014314:	42a3      	cmp	r3, r4
10014316:	b083      	sub	sp, #12
10014318:	f2c0 808a 	blt.w	10014430 <quorem+0x124>
1001431c:	3c01      	subs	r4, #1
1001431e:	f101 0514 	add.w	r5, r1, #20
10014322:	f100 0814 	add.w	r8, r0, #20
10014326:	f855 3024 	ldr.w	r3, [r5, r4, lsl #2]
1001432a:	f858 2024 	ldr.w	r2, [r8, r4, lsl #2]
1001432e:	3301      	adds	r3, #1
10014330:	429a      	cmp	r2, r3
10014332:	468e      	mov	lr, r1
10014334:	4681      	mov	r9, r0
10014336:	ea4f 0184 	mov.w	r1, r4, lsl #2
1001433a:	eb05 0784 	add.w	r7, r5, r4, lsl #2
1001433e:	eb08 0a84 	add.w	sl, r8, r4, lsl #2
10014342:	fbb2 f6f3 	udiv	r6, r2, r3
10014346:	d33a      	bcc.n	100143be <quorem+0xb2>
10014348:	e9cd 1500 	strd	r1, r5, [sp]
1001434c:	2200      	movs	r2, #0
1001434e:	46ac      	mov	ip, r5
10014350:	4640      	mov	r0, r8
10014352:	4613      	mov	r3, r2
10014354:	f85c 1b04 	ldr.w	r1, [ip], #4
10014358:	6805      	ldr	r5, [r0, #0]
1001435a:	fa1f fb81 	uxth.w	fp, r1
1001435e:	fb06 220b 	mla	r2, r6, fp, r2
10014362:	0c09      	lsrs	r1, r1, #16
10014364:	ea4f 4b12 	mov.w	fp, r2, lsr #16
10014368:	fb06 bb01 	mla	fp, r6, r1, fp
1001436c:	b292      	uxth	r2, r2
1001436e:	b2a9      	uxth	r1, r5
10014370:	1a89      	subs	r1, r1, r2
10014372:	4419      	add	r1, r3
10014374:	fa1f f38b 	uxth.w	r3, fp
10014378:	ebc3 4321 	rsb	r3, r3, r1, asr #16
1001437c:	eb03 4315 	add.w	r3, r3, r5, lsr #16
10014380:	b289      	uxth	r1, r1
10014382:	ea41 4103 	orr.w	r1, r1, r3, lsl #16
10014386:	4567      	cmp	r7, ip
10014388:	f840 1b04 	str.w	r1, [r0], #4
1001438c:	ea4f 421b 	mov.w	r2, fp, lsr #16
10014390:	ea4f 4323 	mov.w	r3, r3, asr #16
10014394:	d2de      	bcs.n	10014354 <quorem+0x48>
10014396:	e9dd 1500 	ldrd	r1, r5, [sp]
1001439a:	f858 3001 	ldr.w	r3, [r8, r1]
1001439e:	b973      	cbnz	r3, 100143be <quorem+0xb2>
100143a0:	f1aa 0a04 	sub.w	sl, sl, #4
100143a4:	45d0      	cmp	r8, sl
100143a6:	d304      	bcc.n	100143b2 <quorem+0xa6>
100143a8:	e007      	b.n	100143ba <quorem+0xae>
100143aa:	45d0      	cmp	r8, sl
100143ac:	f104 34ff 	add.w	r4, r4, #4294967295	@ 0xffffffff
100143b0:	d203      	bcs.n	100143ba <quorem+0xae>
100143b2:	f85a 3904 	ldr.w	r3, [sl], #-4
100143b6:	2b00      	cmp	r3, #0
100143b8:	d0f7      	beq.n	100143aa <quorem+0x9e>
100143ba:	f8c9 4010 	str.w	r4, [r9, #16]
100143be:	4671      	mov	r1, lr
100143c0:	4648      	mov	r0, r9
100143c2:	f005 f965 	bl	10019690 <__mcmp>
100143c6:	2800      	cmp	r0, #0
100143c8:	db2e      	blt.n	10014428 <quorem+0x11c>
100143ca:	4641      	mov	r1, r8
100143cc:	2200      	movs	r2, #0
100143ce:	f855 0b04 	ldr.w	r0, [r5], #4
100143d2:	f8d1 c000 	ldr.w	ip, [r1]
100143d6:	fa1f fe80 	uxth.w	lr, r0
100143da:	fa1f f38c 	uxth.w	r3, ip
100143de:	eba3 030e 	sub.w	r3, r3, lr
100143e2:	4413      	add	r3, r2
100143e4:	0c02      	lsrs	r2, r0, #16
100143e6:	ebc2 4223 	rsb	r2, r2, r3, asr #16
100143ea:	eb02 421c 	add.w	r2, r2, ip, lsr #16
100143ee:	b29b      	uxth	r3, r3
100143f0:	ea43 4302 	orr.w	r3, r3, r2, lsl #16
100143f4:	42af      	cmp	r7, r5
100143f6:	f841 3b04 	str.w	r3, [r1], #4
100143fa:	ea4f 4222 	mov.w	r2, r2, asr #16
100143fe:	d2e6      	bcs.n	100143ce <quorem+0xc2>
10014400:	f858 2024 	ldr.w	r2, [r8, r4, lsl #2]
10014404:	eb08 0384 	add.w	r3, r8, r4, lsl #2
10014408:	b96a      	cbnz	r2, 10014426 <quorem+0x11a>
1001440a:	3b04      	subs	r3, #4
1001440c:	4598      	cmp	r8, r3
1001440e:	d304      	bcc.n	1001441a <quorem+0x10e>
10014410:	e007      	b.n	10014422 <quorem+0x116>
10014412:	4598      	cmp	r8, r3
10014414:	f104 34ff 	add.w	r4, r4, #4294967295	@ 0xffffffff
10014418:	d203      	bcs.n	10014422 <quorem+0x116>
1001441a:	f853 2904 	ldr.w	r2, [r3], #-4
1001441e:	2a00      	cmp	r2, #0
10014420:	d0f7      	beq.n	10014412 <quorem+0x106>
10014422:	f8c9 4010 	str.w	r4, [r9, #16]
10014426:	3601      	adds	r6, #1
10014428:	4630      	mov	r0, r6
1001442a:	b003      	add	sp, #12
1001442c:	e8bd 8ff0 	ldmia.w	sp!, {r4, r5, r6, r7, r8, r9, sl, fp, pc}
10014430:	2000      	movs	r0, #0
10014432:	b003      	add	sp, #12
10014434:	e8bd 8ff0 	ldmia.w	sp!, {r4, r5, r6, r7, r8, r9, sl, fp, pc}

10014438 <_dtoa_r>:
10014438:	e92d 4ff0 	stmdb	sp!, {r4, r5, r6, r7, r8, r9, sl, fp, lr}
1001443c:	6b81      	ldr	r1, [r0, #56]	@ 0x38
1001443e:	b09d      	sub	sp, #116	@ 0x74
10014440:	4616      	mov	r6, r2
10014442:	461f      	mov	r7, r3
10014444:	e9cd 6704 	strd	r6, r7, [sp, #16]
10014448:	9d29      	ldr	r5, [sp, #164]	@ 0xa4
1001444a:	9002      	str	r0, [sp, #8]
1001444c:	b149      	cbz	r1, 10014462 <_dtoa_r+0x2a>
1001444e:	6bc2      	ldr	r2, [r0, #60]	@ 0x3c
10014450:	604a      	str	r2, [r1, #4]
10014452:	2301      	movs	r3, #1
10014454:	4093      	lsls	r3, r2
10014456:	4604      	mov	r4, r0
10014458:	608b      	str	r3, [r1, #8]
1001445a:	f004 feb7 	bl	100191cc <_Bfree>
1001445e:	2300      	movs	r3, #0
10014460:	63a3      	str	r3, [r4, #56]	@ 0x38
10014462:	f1b7 0900 	subs.w	r9, r7, #0
10014466:	bfb4      	ite	lt
10014468:	2301      	movlt	r3, #1
1001446a:	2300      	movge	r3, #0
1001446c:	602b      	str	r3, [r5, #0]
1001446e:	4b76      	ldr	r3, [pc, #472]	@ (10014648 <_dtoa_r+0x210>)
10014470:	bfbc      	itt	lt
10014472:	f029 4900 	biclt.w	r9, r9, #2147483648	@ 0x80000000
10014476:	f8cd 9014 	strlt.w	r9, [sp, #20]
1001447a:	ea33 0309 	bics.w	r3, r3, r9
1001447e:	f000 80aa 	beq.w	100145d6 <_dtoa_r+0x19e>
10014482:	ed9d 7b04 	vldr	d7, [sp, #16]
10014486:	2200      	movs	r2, #0
10014488:	ec51 0b17 	vmov	r0, r1, d7
1001448c:	2300      	movs	r3, #0
1001448e:	ed8d 7b06 	vstr	d7, [sp, #24]
10014492:	f006 fb1d 	bl	1001aad0 <__aeabi_dcmpeq>
10014496:	4680      	mov	r8, r0
10014498:	b168      	cbz	r0, 100144b6 <_dtoa_r+0x7e>
1001449a:	9a28      	ldr	r2, [sp, #160]	@ 0xa0
1001449c:	2301      	movs	r3, #1
1001449e:	6013      	str	r3, [r2, #0]
100144a0:	9b2a      	ldr	r3, [sp, #168]	@ 0xa8
100144a2:	b113      	cbz	r3, 100144aa <_dtoa_r+0x72>
100144a4:	9a2a      	ldr	r2, [sp, #168]	@ 0xa8
100144a6:	4b69      	ldr	r3, [pc, #420]	@ (1001464c <_dtoa_r+0x214>)
100144a8:	6013      	str	r3, [r2, #0]
100144aa:	4b69      	ldr	r3, [pc, #420]	@ (10014650 <_dtoa_r+0x218>)
100144ac:	9303      	str	r3, [sp, #12]
100144ae:	9803      	ldr	r0, [sp, #12]
100144b0:	b01d      	add	sp, #116	@ 0x74
100144b2:	e8bd 8ff0 	ldmia.w	sp!, {r4, r5, r6, r7, r8, r9, sl, fp, pc}
100144b6:	ab1a      	add	r3, sp, #104	@ 0x68
100144b8:	9301      	str	r3, [sp, #4]
100144ba:	ab1b      	add	r3, sp, #108	@ 0x6c
100144bc:	9300      	str	r3, [sp, #0]
100144be:	9802      	ldr	r0, [sp, #8]
100144c0:	e9dd 2306 	ldrd	r2, r3, [sp, #24]
100144c4:	f005 f9b8 	bl	10019838 <__d2b>
100144c8:	ea5f 5519 	movs.w	r5, r9, lsr #20
100144cc:	4682      	mov	sl, r0
100144ce:	f040 8098 	bne.w	10014602 <_dtoa_r+0x1ca>
100144d2:	e9dd 851a 	ldrd	r8, r5, [sp, #104]	@ 0x68
100144d6:	4445      	add	r5, r8
100144d8:	f205 4332 	addw	r3, r5, #1074	@ 0x432
100144dc:	2b20      	cmp	r3, #32
100144de:	f340 8381 	ble.w	10014be4 <_dtoa_r+0x7ac>
100144e2:	f1c3 0340 	rsb	r3, r3, #64	@ 0x40
100144e6:	fa09 f903 	lsl.w	r9, r9, r3
100144ea:	f205 4312 	addw	r3, r5, #1042	@ 0x412
100144ee:	fa26 f303 	lsr.w	r3, r6, r3
100144f2:	ea49 0003 	orr.w	r0, r9, r3
100144f6:	f006 f809 	bl	1001a50c <__aeabi_ui2d>
100144fa:	2301      	movs	r3, #1
100144fc:	3d01      	subs	r5, #1
100144fe:	930f      	str	r3, [sp, #60]	@ 0x3c
10014500:	f1a1 71f8 	sub.w	r1, r1, #32505856	@ 0x1f00000
10014504:	4b53      	ldr	r3, [pc, #332]	@ (10014654 <_dtoa_r+0x21c>)
10014506:	2200      	movs	r2, #0
10014508:	f005 fec2 	bl	1001a290 <__aeabi_dsub>
1001450c:	a348      	add	r3, pc, #288	@ (adr r3, 10014630 <_dtoa_r+0x1f8>)
1001450e:	e9d3 2300 	ldrd	r2, r3, [r3]
10014512:	f006 f875 	bl	1001a600 <__aeabi_dmul>
10014516:	a348      	add	r3, pc, #288	@ (adr r3, 10014638 <_dtoa_r+0x200>)
10014518:	e9d3 2300 	ldrd	r2, r3, [r3]
1001451c:	f005 feba 	bl	1001a294 <__adddf3>
10014520:	4606      	mov	r6, r0
10014522:	4628      	mov	r0, r5
10014524:	460f      	mov	r7, r1
10014526:	f006 f801 	bl	1001a52c <__aeabi_i2d>
1001452a:	a345      	add	r3, pc, #276	@ (adr r3, 10014640 <_dtoa_r+0x208>)
1001452c:	e9d3 2300 	ldrd	r2, r3, [r3]
10014530:	f006 f866 	bl	1001a600 <__aeabi_dmul>
10014534:	4602      	mov	r2, r0
10014536:	460b      	mov	r3, r1
10014538:	4630      	mov	r0, r6
1001453a:	4639      	mov	r1, r7
1001453c:	f005 feaa 	bl	1001a294 <__adddf3>
10014540:	4606      	mov	r6, r0
10014542:	460f      	mov	r7, r1
10014544:	f006 fb0c 	bl	1001ab60 <__aeabi_d2iz>
10014548:	2200      	movs	r2, #0
1001454a:	4683      	mov	fp, r0
1001454c:	2300      	movs	r3, #0
1001454e:	4630      	mov	r0, r6
10014550:	4639      	mov	r1, r7
10014552:	f006 fac7 	bl	1001aae4 <__aeabi_dcmplt>
10014556:	2800      	cmp	r0, #0
10014558:	f040 8318 	bne.w	10014b8c <_dtoa_r+0x754>
1001455c:	eba8 0805 	sub.w	r8, r8, r5
10014560:	f1bb 0f16 	cmp.w	fp, #22
10014564:	f108 34ff 	add.w	r4, r8, #4294967295	@ 0xffffffff
10014568:	f200 818a 	bhi.w	10014880 <_dtoa_r+0x448>
1001456c:	4d3a      	ldr	r5, [pc, #232]	@ (10014658 <_dtoa_r+0x220>)
1001456e:	eb05 05cb 	add.w	r5, r5, fp, lsl #3
10014572:	e9d5 2300 	ldrd	r2, r3, [r5]
10014576:	e9dd 0106 	ldrd	r0, r1, [sp, #24]
1001457a:	f006 fab3 	bl	1001aae4 <__aeabi_dcmplt>
1001457e:	2800      	cmp	r0, #0
10014580:	d070      	beq.n	10014664 <_dtoa_r+0x22c>
10014582:	2300      	movs	r3, #0
10014584:	2c00      	cmp	r4, #0
10014586:	f10b 3bff 	add.w	fp, fp, #4294967295	@ 0xffffffff
1001458a:	930e      	str	r3, [sp, #56]	@ 0x38
1001458c:	f2c0 817d 	blt.w	1001488a <_dtoa_r+0x452>
10014590:	2300      	movs	r3, #0
10014592:	9309      	str	r3, [sp, #36]	@ 0x24
10014594:	f1bb 0f00 	cmp.w	fp, #0
10014598:	da6a      	bge.n	10014670 <_dtoa_r+0x238>
1001459a:	9b09      	ldr	r3, [sp, #36]	@ 0x24
1001459c:	eba3 030b 	sub.w	r3, r3, fp
100145a0:	9309      	str	r3, [sp, #36]	@ 0x24
100145a2:	f1cb 0300 	rsb	r3, fp, #0
100145a6:	e9cd b30c 	strd	fp, r3, [sp, #48]	@ 0x30
100145aa:	9b26      	ldr	r3, [sp, #152]	@ 0x98
100145ac:	2b09      	cmp	r3, #9
100145ae:	f04f 0b00 	mov.w	fp, #0
100145b2:	d865      	bhi.n	10014680 <_dtoa_r+0x248>
100145b4:	2b05      	cmp	r3, #5
100145b6:	f340 831a 	ble.w	10014bee <_dtoa_r+0x7b6>
100145ba:	3b04      	subs	r3, #4
100145bc:	9326      	str	r3, [sp, #152]	@ 0x98
100145be:	2500      	movs	r5, #0
100145c0:	9b26      	ldr	r3, [sp, #152]	@ 0x98
100145c2:	3b02      	subs	r3, #2
100145c4:	2b03      	cmp	r3, #3
100145c6:	f200 8621 	bhi.w	1001520c <_dtoa_r+0xdd4>
100145ca:	e8df f013 	tbh	[pc, r3, lsl #1]
100145ce:	045e      	.short	0x045e
100145d0:	0452045b 	.word	0x0452045b
100145d4:	0436      	.short	0x0436
100145d6:	9a28      	ldr	r2, [sp, #160]	@ 0xa0
100145d8:	f3c9 0913 	ubfx	r9, r9, #0, #20
100145dc:	f242 730f 	movw	r3, #9999	@ 0x270f
100145e0:	ea59 0906 	orrs.w	r9, r9, r6
100145e4:	6013      	str	r3, [r2, #0]
100145e6:	d11c      	bne.n	10014622 <_dtoa_r+0x1ea>
100145e8:	9b2a      	ldr	r3, [sp, #168]	@ 0xa8
100145ea:	2b00      	cmp	r3, #0
100145ec:	f000 8629 	beq.w	10015242 <_dtoa_r+0xe0a>
100145f0:	4b1a      	ldr	r3, [pc, #104]	@ (1001465c <_dtoa_r+0x224>)
100145f2:	9303      	str	r3, [sp, #12]
100145f4:	3308      	adds	r3, #8
100145f6:	9a2a      	ldr	r2, [sp, #168]	@ 0xa8
100145f8:	9803      	ldr	r0, [sp, #12]
100145fa:	6013      	str	r3, [r2, #0]
100145fc:	b01d      	add	sp, #116	@ 0x74
100145fe:	e8bd 8ff0 	ldmia.w	sp!, {r4, r5, r6, r7, r8, r9, sl, fp, pc}
10014602:	e9dd 1206 	ldrd	r1, r2, [sp, #24]
10014606:	f3c2 0313 	ubfx	r3, r2, #0, #20
1001460a:	4608      	mov	r0, r1
1001460c:	f043 517f 	orr.w	r1, r3, #1069547520	@ 0x3fc00000
10014610:	f8cd 803c 	str.w	r8, [sp, #60]	@ 0x3c
10014614:	f2a5 35ff 	subw	r5, r5, #1023	@ 0x3ff
10014618:	f8dd 8068 	ldr.w	r8, [sp, #104]	@ 0x68
1001461c:	f441 1140 	orr.w	r1, r1, #3145728	@ 0x300000
10014620:	e770      	b.n	10014504 <_dtoa_r+0xcc>
10014622:	9b2a      	ldr	r3, [sp, #168]	@ 0xa8
10014624:	2b00      	cmp	r3, #0
10014626:	f040 83e5 	bne.w	10014df4 <_dtoa_r+0x9bc>
1001462a:	4b0d      	ldr	r3, [pc, #52]	@ (10014660 <_dtoa_r+0x228>)
1001462c:	9303      	str	r3, [sp, #12]
1001462e:	e73e      	b.n	100144ae <_dtoa_r+0x76>
10014630:	636f4361 	.word	0x636f4361
10014634:	3fd287a7 	.word	0x3fd287a7
10014638:	8b60c8b3 	.word	0x8b60c8b3
1001463c:	3fc68a28 	.word	0x3fc68a28
10014640:	509f79fb 	.word	0x509f79fb
10014644:	3fd34413 	.word	0x3fd34413
10014648:	7ff00000 	.word	0x7ff00000
1001464c:	1001b1d5 	.word	0x1001b1d5
10014650:	1001b1d4 	.word	0x1001b1d4
10014654:	3ff80000 	.word	0x3ff80000
10014658:	1001b4d8 	.word	0x1001b4d8
1001465c:	1001b240 	.word	0x1001b240
10014660:	1001b24c 	.word	0x1001b24c
10014664:	f1b8 0f00 	cmp.w	r8, #0
10014668:	f340 845e 	ble.w	10014f28 <_dtoa_r+0xaf0>
1001466c:	900e      	str	r0, [sp, #56]	@ 0x38
1001466e:	9009      	str	r0, [sp, #36]	@ 0x24
10014670:	2300      	movs	r3, #0
10014672:	930d      	str	r3, [sp, #52]	@ 0x34
10014674:	9b26      	ldr	r3, [sp, #152]	@ 0x98
10014676:	f8cd b030 	str.w	fp, [sp, #48]	@ 0x30
1001467a:	2b09      	cmp	r3, #9
1001467c:	445c      	add	r4, fp
1001467e:	d999      	bls.n	100145b4 <_dtoa_r+0x17c>
10014680:	2300      	movs	r3, #0
10014682:	e9cd 3326 	strd	r3, r3, [sp, #152]	@ 0x98
10014686:	2501      	movs	r5, #1
10014688:	f04f 33ff 	mov.w	r3, #4294967295	@ 0xffffffff
1001468c:	950a      	str	r5, [sp, #40]	@ 0x28
1001468e:	9308      	str	r3, [sp, #32]
10014690:	9b02      	ldr	r3, [sp, #8]
10014692:	2100      	movs	r1, #0
10014694:	63d9      	str	r1, [r3, #60]	@ 0x3c
10014696:	9b08      	ldr	r3, [sp, #32]
10014698:	9316      	str	r3, [sp, #88]	@ 0x58
1001469a:	9802      	ldr	r0, [sp, #8]
1001469c:	f004 fd70 	bl	10019180 <_Balloc>
100146a0:	9003      	str	r0, [sp, #12]
100146a2:	2800      	cmp	r0, #0
100146a4:	f000 85bb 	beq.w	1001521e <_dtoa_r+0xde6>
100146a8:	e9dd 3202 	ldrd	r3, r2, [sp, #8]
100146ac:	639a      	str	r2, [r3, #56]	@ 0x38
100146ae:	9b08      	ldr	r3, [sp, #32]
100146b0:	2b0e      	cmp	r3, #14
100146b2:	f200 8114 	bhi.w	100148de <_dtoa_r+0x4a6>
100146b6:	2d00      	cmp	r5, #0
100146b8:	f000 8111 	beq.w	100148de <_dtoa_r+0x4a6>
100146bc:	9a0c      	ldr	r2, [sp, #48]	@ 0x30
100146be:	2a00      	cmp	r2, #0
100146c0:	f340 8439 	ble.w	10014f36 <_dtoa_r+0xafe>
100146c4:	4db1      	ldr	r5, [pc, #708]	@ (1001498c <_dtoa_r+0x554>)
100146c6:	f002 030f 	and.w	r3, r2, #15
100146ca:	eb05 03c3 	add.w	r3, r5, r3, lsl #3
100146ce:	1115      	asrs	r5, r2, #4
100146d0:	05d2      	lsls	r2, r2, #23
100146d2:	e9d3 8900 	ldrd	r8, r9, [r3]
100146d6:	f140 83f9 	bpl.w	10014ecc <_dtoa_r+0xa94>
100146da:	4bad      	ldr	r3, [pc, #692]	@ (10014990 <_dtoa_r+0x558>)
100146dc:	e9dd 0106 	ldrd	r0, r1, [sp, #24]
100146e0:	e9d3 2308 	ldrd	r2, r3, [r3, #32]
100146e4:	f006 f8b6 	bl	1001a854 <__aeabi_ddiv>
100146e8:	e9cd 0110 	strd	r0, r1, [sp, #64]	@ 0x40
100146ec:	f005 050f 	and.w	r5, r5, #15
100146f0:	2703      	movs	r7, #3
100146f2:	b17d      	cbz	r5, 10014714 <_dtoa_r+0x2dc>
100146f4:	4ea6      	ldr	r6, [pc, #664]	@ (10014990 <_dtoa_r+0x558>)
100146f6:	07eb      	lsls	r3, r5, #31
100146f8:	d508      	bpl.n	1001470c <_dtoa_r+0x2d4>
100146fa:	4640      	mov	r0, r8
100146fc:	4649      	mov	r1, r9
100146fe:	e9d6 2300 	ldrd	r2, r3, [r6]
10014702:	f005 ff7d 	bl	1001a600 <__aeabi_dmul>
10014706:	3701      	adds	r7, #1
10014708:	4680      	mov	r8, r0
1001470a:	4689      	mov	r9, r1
1001470c:	106d      	asrs	r5, r5, #1
1001470e:	f106 0608 	add.w	r6, r6, #8
10014712:	d1f0      	bne.n	100146f6 <_dtoa_r+0x2be>
10014714:	4642      	mov	r2, r8
10014716:	464b      	mov	r3, r9
10014718:	e9dd 0110 	ldrd	r0, r1, [sp, #64]	@ 0x40
1001471c:	f006 f89a 	bl	1001a854 <__aeabi_ddiv>
10014720:	4680      	mov	r8, r0
10014722:	4689      	mov	r9, r1
10014724:	9b0e      	ldr	r3, [sp, #56]	@ 0x38
10014726:	b143      	cbz	r3, 1001473a <_dtoa_r+0x302>
10014728:	4b9a      	ldr	r3, [pc, #616]	@ (10014994 <_dtoa_r+0x55c>)
1001472a:	2200      	movs	r2, #0
1001472c:	4640      	mov	r0, r8
1001472e:	4649      	mov	r1, r9
10014730:	f006 f9d8 	bl	1001aae4 <__aeabi_dcmplt>
10014734:	2800      	cmp	r0, #0
10014736:	f040 84f0 	bne.w	1001511a <_dtoa_r+0xce2>
1001473a:	4638      	mov	r0, r7
1001473c:	f005 fef6 	bl	1001a52c <__aeabi_i2d>
10014740:	4642      	mov	r2, r8
10014742:	464b      	mov	r3, r9
10014744:	f005 ff5c 	bl	1001a600 <__aeabi_dmul>
10014748:	4b93      	ldr	r3, [pc, #588]	@ (10014998 <_dtoa_r+0x560>)
1001474a:	2200      	movs	r2, #0
1001474c:	f005 fda2 	bl	1001a294 <__adddf3>
10014750:	9b08      	ldr	r3, [sp, #32]
10014752:	4606      	mov	r6, r0
10014754:	f1a1 7750 	sub.w	r7, r1, #54525952	@ 0x3400000
10014758:	2b00      	cmp	r3, #0
1001475a:	f000 80a9 	beq.w	100148b0 <_dtoa_r+0x478>
1001475e:	9b0c      	ldr	r3, [sp, #48]	@ 0x30
10014760:	9317      	str	r3, [sp, #92]	@ 0x5c
10014762:	9b08      	ldr	r3, [sp, #32]
10014764:	9310      	str	r3, [sp, #64]	@ 0x40
10014766:	9b03      	ldr	r3, [sp, #12]
10014768:	4d88      	ldr	r5, [pc, #544]	@ (1001498c <_dtoa_r+0x554>)
1001476a:	4649      	mov	r1, r9
1001476c:	4640      	mov	r0, r8
1001476e:	e9cd 6712 	strd	r6, r7, [sp, #72]	@ 0x48
10014772:	1c5e      	adds	r6, r3, #1
10014774:	f006 f9f4 	bl	1001ab60 <__aeabi_d2iz>
10014778:	9910      	ldr	r1, [sp, #64]	@ 0x40
1001477a:	eb05 03c1 	add.w	r3, r5, r1, lsl #3
1001477e:	ed13 7b02 	vldr	d7, [r3, #-8]
10014782:	4607      	mov	r7, r0
10014784:	ed8d 7b14 	vstr	d7, [sp, #80]	@ 0x50
10014788:	f005 fed0 	bl	1001a52c <__aeabi_i2d>
1001478c:	4602      	mov	r2, r0
1001478e:	460b      	mov	r3, r1
10014790:	4640      	mov	r0, r8
10014792:	4649      	mov	r1, r9
10014794:	f005 fd7c 	bl	1001a290 <__aeabi_dsub>
10014798:	4689      	mov	r9, r1
1001479a:	990a      	ldr	r1, [sp, #40]	@ 0x28
1001479c:	3730      	adds	r7, #48	@ 0x30
1001479e:	e9dd 2314 	ldrd	r2, r3, [sp, #80]	@ 0x50
100147a2:	4680      	mov	r8, r0
100147a4:	b2ff      	uxtb	r7, r7
100147a6:	2900      	cmp	r1, #0
100147a8:	f000 8452 	beq.w	10015050 <_dtoa_r+0xc18>
100147ac:	497b      	ldr	r1, [pc, #492]	@ (1001499c <_dtoa_r+0x564>)
100147ae:	2000      	movs	r0, #0
100147b0:	f006 f850 	bl	1001a854 <__aeabi_ddiv>
100147b4:	e9dd 2312 	ldrd	r2, r3, [sp, #72]	@ 0x48
100147b8:	f005 fd6a 	bl	1001a290 <__aeabi_dsub>
100147bc:	9d03      	ldr	r5, [sp, #12]
100147be:	4602      	mov	r2, r0
100147c0:	460b      	mov	r3, r1
100147c2:	e9cd 2312 	strd	r2, r3, [sp, #72]	@ 0x48
100147c6:	702f      	strb	r7, [r5, #0]
100147c8:	4642      	mov	r2, r8
100147ca:	464b      	mov	r3, r9
100147cc:	f006 f9a8 	bl	1001ab20 <__aeabi_dcmpgt>
100147d0:	2800      	cmp	r0, #0
100147d2:	f040 8496 	bne.w	10015102 <_dtoa_r+0xcca>
100147d6:	e9cd b418 	strd	fp, r4, [sp, #96]	@ 0x60
100147da:	f8cd a050 	str.w	sl, [sp, #80]	@ 0x50
100147de:	9d10      	ldr	r5, [sp, #64]	@ 0x40
100147e0:	e9dd ab12 	ldrd	sl, fp, [sp, #72]	@ 0x48
100147e4:	2700      	movs	r7, #0
100147e6:	e02a      	b.n	1001483e <_dtoa_r+0x406>
100147e8:	3701      	adds	r7, #1
100147ea:	42af      	cmp	r7, r5
100147ec:	f280 84dd 	bge.w	100151aa <_dtoa_r+0xd72>
100147f0:	4b6b      	ldr	r3, [pc, #428]	@ (100149a0 <_dtoa_r+0x568>)
100147f2:	4650      	mov	r0, sl
100147f4:	4659      	mov	r1, fp
100147f6:	2200      	movs	r2, #0
100147f8:	f005 ff02 	bl	1001a600 <__aeabi_dmul>
100147fc:	4b68      	ldr	r3, [pc, #416]	@ (100149a0 <_dtoa_r+0x568>)
100147fe:	2200      	movs	r2, #0
10014800:	4682      	mov	sl, r0
10014802:	468b      	mov	fp, r1
10014804:	4640      	mov	r0, r8
10014806:	4649      	mov	r1, r9
10014808:	f005 fefa 	bl	1001a600 <__aeabi_dmul>
1001480c:	4689      	mov	r9, r1
1001480e:	4680      	mov	r8, r0
10014810:	f006 f9a6 	bl	1001ab60 <__aeabi_d2iz>
10014814:	4604      	mov	r4, r0
10014816:	f005 fe89 	bl	1001a52c <__aeabi_i2d>
1001481a:	4602      	mov	r2, r0
1001481c:	460b      	mov	r3, r1
1001481e:	4640      	mov	r0, r8
10014820:	4649      	mov	r1, r9
10014822:	f005 fd35 	bl	1001a290 <__aeabi_dsub>
10014826:	3430      	adds	r4, #48	@ 0x30
10014828:	f806 4b01 	strb.w	r4, [r6], #1
1001482c:	4652      	mov	r2, sl
1001482e:	465b      	mov	r3, fp
10014830:	4680      	mov	r8, r0
10014832:	4689      	mov	r9, r1
10014834:	f006 f956 	bl	1001aae4 <__aeabi_dcmplt>
10014838:	2800      	cmp	r0, #0
1001483a:	f040 84b3 	bne.w	100151a4 <_dtoa_r+0xd6c>
1001483e:	4642      	mov	r2, r8
10014840:	464b      	mov	r3, r9
10014842:	4954      	ldr	r1, [pc, #336]	@ (10014994 <_dtoa_r+0x55c>)
10014844:	2000      	movs	r0, #0
10014846:	f005 fd23 	bl	1001a290 <__aeabi_dsub>
1001484a:	4652      	mov	r2, sl
1001484c:	465b      	mov	r3, fp
1001484e:	f006 f949 	bl	1001aae4 <__aeabi_dcmplt>
10014852:	2800      	cmp	r0, #0
10014854:	d0c8      	beq.n	100147e8 <_dtoa_r+0x3b0>
10014856:	9b17      	ldr	r3, [sp, #92]	@ 0x5c
10014858:	f8dd a050 	ldr.w	sl, [sp, #80]	@ 0x50
1001485c:	9a03      	ldr	r2, [sp, #12]
1001485e:	4637      	mov	r7, r6
10014860:	f103 0801 	add.w	r8, r3, #1
10014864:	e002      	b.n	1001486c <_dtoa_r+0x434>
10014866:	4297      	cmp	r7, r2
10014868:	f000 847b 	beq.w	10015162 <_dtoa_r+0xd2a>
1001486c:	463e      	mov	r6, r7
1001486e:	f817 3d01 	ldrb.w	r3, [r7, #-1]!
10014872:	2b39      	cmp	r3, #57	@ 0x39
10014874:	d0f7      	beq.n	10014866 <_dtoa_r+0x42e>
10014876:	3301      	adds	r3, #1
10014878:	b2db      	uxtb	r3, r3
1001487a:	703b      	strb	r3, [r7, #0]
1001487c:	4645      	mov	r5, r8
1001487e:	e174      	b.n	10014b6a <_dtoa_r+0x732>
10014880:	2301      	movs	r3, #1
10014882:	2c00      	cmp	r4, #0
10014884:	930e      	str	r3, [sp, #56]	@ 0x38
10014886:	f6bf ae83 	bge.w	10014590 <_dtoa_r+0x158>
1001488a:	f1c8 0301 	rsb	r3, r8, #1
1001488e:	9309      	str	r3, [sp, #36]	@ 0x24
10014890:	2400      	movs	r4, #0
10014892:	e67f      	b.n	10014594 <_dtoa_r+0x15c>
10014894:	4638      	mov	r0, r7
10014896:	f005 fe49 	bl	1001a52c <__aeabi_i2d>
1001489a:	4642      	mov	r2, r8
1001489c:	464b      	mov	r3, r9
1001489e:	f005 feaf 	bl	1001a600 <__aeabi_dmul>
100148a2:	4b3d      	ldr	r3, [pc, #244]	@ (10014998 <_dtoa_r+0x560>)
100148a4:	2200      	movs	r2, #0
100148a6:	f005 fcf5 	bl	1001a294 <__adddf3>
100148aa:	4606      	mov	r6, r0
100148ac:	f1a1 7750 	sub.w	r7, r1, #54525952	@ 0x3400000
100148b0:	4b3c      	ldr	r3, [pc, #240]	@ (100149a4 <_dtoa_r+0x56c>)
100148b2:	4640      	mov	r0, r8
100148b4:	4649      	mov	r1, r9
100148b6:	2200      	movs	r2, #0
100148b8:	f005 fcea 	bl	1001a290 <__aeabi_dsub>
100148bc:	4632      	mov	r2, r6
100148be:	463b      	mov	r3, r7
100148c0:	4680      	mov	r8, r0
100148c2:	4689      	mov	r9, r1
100148c4:	f006 f92c 	bl	1001ab20 <__aeabi_dcmpgt>
100148c8:	2800      	cmp	r0, #0
100148ca:	f040 8459 	bne.w	10015180 <_dtoa_r+0xd48>
100148ce:	4640      	mov	r0, r8
100148d0:	4649      	mov	r1, r9
100148d2:	4632      	mov	r2, r6
100148d4:	f107 4300 	add.w	r3, r7, #2147483648	@ 0x80000000
100148d8:	f006 f904 	bl	1001aae4 <__aeabi_dcmplt>
100148dc:	bb28      	cbnz	r0, 1001492a <_dtoa_r+0x4f2>
100148de:	9b1b      	ldr	r3, [sp, #108]	@ 0x6c
100148e0:	2b00      	cmp	r3, #0
100148e2:	f2c0 8091 	blt.w	10014a08 <_dtoa_r+0x5d0>
100148e6:	9a0c      	ldr	r2, [sp, #48]	@ 0x30
100148e8:	2a0e      	cmp	r2, #14
100148ea:	f300 808d 	bgt.w	10014a08 <_dtoa_r+0x5d0>
100148ee:	4d27      	ldr	r5, [pc, #156]	@ (1001498c <_dtoa_r+0x554>)
100148f0:	9b0c      	ldr	r3, [sp, #48]	@ 0x30
100148f2:	eb05 05c3 	add.w	r5, r5, r3, lsl #3
100148f6:	ed95 7b00 	vldr	d7, [r5]
100148fa:	9b27      	ldr	r3, [sp, #156]	@ 0x9c
100148fc:	2b00      	cmp	r3, #0
100148fe:	ed8d 7b04 	vstr	d7, [sp, #16]
10014902:	da19      	bge.n	10014938 <_dtoa_r+0x500>
10014904:	9b08      	ldr	r3, [sp, #32]
10014906:	2b00      	cmp	r3, #0
10014908:	dc16      	bgt.n	10014938 <_dtoa_r+0x500>
1001490a:	d10e      	bne.n	1001492a <_dtoa_r+0x4f2>
1001490c:	4b25      	ldr	r3, [pc, #148]	@ (100149a4 <_dtoa_r+0x56c>)
1001490e:	2200      	movs	r2, #0
10014910:	e9dd 0104 	ldrd	r0, r1, [sp, #16]
10014914:	f005 fe74 	bl	1001a600 <__aeabi_dmul>
10014918:	4602      	mov	r2, r0
1001491a:	460b      	mov	r3, r1
1001491c:	e9dd 0106 	ldrd	r0, r1, [sp, #24]
10014920:	f006 f8ea 	bl	1001aaf8 <__aeabi_dcmple>
10014924:	2800      	cmp	r0, #0
10014926:	f000 842b 	beq.w	10015180 <_dtoa_r+0xd48>
1001492a:	f04f 0900 	mov.w	r9, #0
1001492e:	9e03      	ldr	r6, [sp, #12]
10014930:	464f      	mov	r7, r9
10014932:	9b27      	ldr	r3, [sp, #156]	@ 0x9c
10014934:	43dd      	mvns	r5, r3
10014936:	e224      	b.n	10014d82 <_dtoa_r+0x94a>
10014938:	e9dd 4504 	ldrd	r4, r5, [sp, #16]
1001493c:	e9dd 8906 	ldrd	r8, r9, [sp, #24]
10014940:	4622      	mov	r2, r4
10014942:	462b      	mov	r3, r5
10014944:	4640      	mov	r0, r8
10014946:	4649      	mov	r1, r9
10014948:	f005 ff84 	bl	1001a854 <__aeabi_ddiv>
1001494c:	f006 f908 	bl	1001ab60 <__aeabi_d2iz>
10014950:	4606      	mov	r6, r0
10014952:	f005 fdeb 	bl	1001a52c <__aeabi_i2d>
10014956:	4622      	mov	r2, r4
10014958:	462b      	mov	r3, r5
1001495a:	f005 fe51 	bl	1001a600 <__aeabi_dmul>
1001495e:	9f03      	ldr	r7, [sp, #12]
10014960:	460b      	mov	r3, r1
10014962:	4602      	mov	r2, r0
10014964:	4649      	mov	r1, r9
10014966:	4640      	mov	r0, r8
10014968:	f005 fc92 	bl	1001a290 <__aeabi_dsub>
1001496c:	f106 0330 	add.w	r3, r6, #48	@ 0x30
10014970:	f807 3b01 	strb.w	r3, [r7], #1
10014974:	9b08      	ldr	r3, [sp, #32]
10014976:	2b01      	cmp	r3, #1
10014978:	f000 8311 	beq.w	10014f9e <_dtoa_r+0xb66>
1001497c:	2501      	movs	r5, #1
1001497e:	f8cd a018 	str.w	sl, [sp, #24]
10014982:	4699      	mov	r9, r3
10014984:	e9dd ab04 	ldrd	sl, fp, [sp, #16]
10014988:	46a8      	mov	r8, r5
1001498a:	e02b      	b.n	100149e4 <_dtoa_r+0x5ac>
1001498c:	1001b4d8 	.word	0x1001b4d8
10014990:	1001b4b0 	.word	0x1001b4b0
10014994:	3ff00000 	.word	0x3ff00000
10014998:	401c0000 	.word	0x401c0000
1001499c:	3fe00000 	.word	0x3fe00000
100149a0:	40240000 	.word	0x40240000
100149a4:	40140000 	.word	0x40140000
100149a8:	4652      	mov	r2, sl
100149aa:	465b      	mov	r3, fp
100149ac:	4620      	mov	r0, r4
100149ae:	4629      	mov	r1, r5
100149b0:	f005 ff50 	bl	1001a854 <__aeabi_ddiv>
100149b4:	f006 f8d4 	bl	1001ab60 <__aeabi_d2iz>
100149b8:	4606      	mov	r6, r0
100149ba:	f005 fdb7 	bl	1001a52c <__aeabi_i2d>
100149be:	4652      	mov	r2, sl
100149c0:	465b      	mov	r3, fp
100149c2:	f005 fe1d 	bl	1001a600 <__aeabi_dmul>
100149c6:	f108 0801 	add.w	r8, r8, #1
100149ca:	460b      	mov	r3, r1
100149cc:	4602      	mov	r2, r0
100149ce:	4629      	mov	r1, r5
100149d0:	4620      	mov	r0, r4
100149d2:	f005 fc5d 	bl	1001a290 <__aeabi_dsub>
100149d6:	f106 0330 	add.w	r3, r6, #48	@ 0x30
100149da:	45c8      	cmp	r8, r9
100149dc:	f807 3b01 	strb.w	r3, [r7], #1
100149e0:	f000 82db 	beq.w	10014f9a <_dtoa_r+0xb62>
100149e4:	4bb9      	ldr	r3, [pc, #740]	@ (10014ccc <_dtoa_r+0x894>)
100149e6:	2200      	movs	r2, #0
100149e8:	f005 fe0a 	bl	1001a600 <__aeabi_dmul>
100149ec:	2200      	movs	r2, #0
100149ee:	2300      	movs	r3, #0
100149f0:	4604      	mov	r4, r0
100149f2:	460d      	mov	r5, r1
100149f4:	f006 f86c 	bl	1001aad0 <__aeabi_dcmpeq>
100149f8:	2800      	cmp	r0, #0
100149fa:	d0d5      	beq.n	100149a8 <_dtoa_r+0x570>
100149fc:	9d0c      	ldr	r5, [sp, #48]	@ 0x30
100149fe:	f8dd a018 	ldr.w	sl, [sp, #24]
10014a02:	3501      	adds	r5, #1
10014a04:	463e      	mov	r6, r7
10014a06:	e0b0      	b.n	10014b6a <_dtoa_r+0x732>
10014a08:	9a0a      	ldr	r2, [sp, #40]	@ 0x28
10014a0a:	2a00      	cmp	r2, #0
10014a0c:	f040 80d2 	bne.w	10014bb4 <_dtoa_r+0x77c>
10014a10:	2300      	movs	r3, #0
10014a12:	9d0d      	ldr	r5, [sp, #52]	@ 0x34
10014a14:	9e09      	ldr	r6, [sp, #36]	@ 0x24
10014a16:	930a      	str	r3, [sp, #40]	@ 0x28
10014a18:	461f      	mov	r7, r3
10014a1a:	b156      	cbz	r6, 10014a32 <_dtoa_r+0x5fa>
10014a1c:	2c00      	cmp	r4, #0
10014a1e:	dd08      	ble.n	10014a32 <_dtoa_r+0x5fa>
10014a20:	42a6      	cmp	r6, r4
10014a22:	9a09      	ldr	r2, [sp, #36]	@ 0x24
10014a24:	4633      	mov	r3, r6
10014a26:	bfa8      	it	ge
10014a28:	4623      	movge	r3, r4
10014a2a:	1ad2      	subs	r2, r2, r3
10014a2c:	9209      	str	r2, [sp, #36]	@ 0x24
10014a2e:	1af6      	subs	r6, r6, r3
10014a30:	1ae4      	subs	r4, r4, r3
10014a32:	9b0d      	ldr	r3, [sp, #52]	@ 0x34
10014a34:	b153      	cbz	r3, 10014a4c <_dtoa_r+0x614>
10014a36:	9b0a      	ldr	r3, [sp, #40]	@ 0x28
10014a38:	b113      	cbz	r3, 10014a40 <_dtoa_r+0x608>
10014a3a:	2d00      	cmp	r5, #0
10014a3c:	f040 82e8 	bne.w	10015010 <_dtoa_r+0xbd8>
10014a40:	4651      	mov	r1, sl
10014a42:	9a0d      	ldr	r2, [sp, #52]	@ 0x34
10014a44:	9802      	ldr	r0, [sp, #8]
10014a46:	f004 fd51 	bl	100194ec <__pow5mult>
10014a4a:	4682      	mov	sl, r0
10014a4c:	9802      	ldr	r0, [sp, #8]
10014a4e:	2101      	movs	r1, #1
10014a50:	f004 fc68 	bl	10019324 <__i2b>
10014a54:	4681      	mov	r9, r0
10014a56:	f1bb 0f00 	cmp.w	fp, #0
10014a5a:	f040 81b6 	bne.w	10014dca <_dtoa_r+0x992>
10014a5e:	9b26      	ldr	r3, [sp, #152]	@ 0x98
10014a60:	2b01      	cmp	r3, #1
10014a62:	f340 81cc 	ble.w	10014dfe <_dtoa_r+0x9c6>
10014a66:	2001      	movs	r0, #1
10014a68:	4420      	add	r0, r4
10014a6a:	f010 001f 	ands.w	r0, r0, #31
10014a6e:	f000 809a 	beq.w	10014ba6 <_dtoa_r+0x76e>
10014a72:	f1c0 0320 	rsb	r3, r0, #32
10014a76:	2b04      	cmp	r3, #4
10014a78:	f340 81da 	ble.w	10014e30 <_dtoa_r+0x9f8>
10014a7c:	9b09      	ldr	r3, [sp, #36]	@ 0x24
10014a7e:	f1c0 001c 	rsb	r0, r0, #28
10014a82:	4403      	add	r3, r0
10014a84:	9309      	str	r3, [sp, #36]	@ 0x24
10014a86:	4406      	add	r6, r0
10014a88:	4404      	add	r4, r0
10014a8a:	9b09      	ldr	r3, [sp, #36]	@ 0x24
10014a8c:	2b00      	cmp	r3, #0
10014a8e:	dd05      	ble.n	10014a9c <_dtoa_r+0x664>
10014a90:	4651      	mov	r1, sl
10014a92:	9802      	ldr	r0, [sp, #8]
10014a94:	461a      	mov	r2, r3
10014a96:	f004 fd83 	bl	100195a0 <__lshift>
10014a9a:	4682      	mov	sl, r0
10014a9c:	2c00      	cmp	r4, #0
10014a9e:	dd05      	ble.n	10014aac <_dtoa_r+0x674>
10014aa0:	4649      	mov	r1, r9
10014aa2:	9802      	ldr	r0, [sp, #8]
10014aa4:	4622      	mov	r2, r4
10014aa6:	f004 fd7b 	bl	100195a0 <__lshift>
10014aaa:	4681      	mov	r9, r0
10014aac:	9b0e      	ldr	r3, [sp, #56]	@ 0x38
10014aae:	2b00      	cmp	r3, #0
10014ab0:	f040 8170 	bne.w	10014d94 <_dtoa_r+0x95c>
10014ab4:	9b08      	ldr	r3, [sp, #32]
10014ab6:	2b00      	cmp	r3, #0
10014ab8:	f340 8148 	ble.w	10014d4c <_dtoa_r+0x914>
10014abc:	9b0a      	ldr	r3, [sp, #40]	@ 0x28
10014abe:	2b00      	cmp	r3, #0
10014ac0:	f040 80a4 	bne.w	10014c0c <_dtoa_r+0x7d4>
10014ac4:	9d0c      	ldr	r5, [sp, #48]	@ 0x30
10014ac6:	3501      	adds	r5, #1
10014ac8:	f8dd 800c 	ldr.w	r8, [sp, #12]
10014acc:	9c08      	ldr	r4, [sp, #32]
10014ace:	f8dd b008 	ldr.w	fp, [sp, #8]
10014ad2:	2601      	movs	r6, #1
10014ad4:	e007      	b.n	10014ae6 <_dtoa_r+0x6ae>
10014ad6:	4651      	mov	r1, sl
10014ad8:	2300      	movs	r3, #0
10014ada:	220a      	movs	r2, #10
10014adc:	4658      	mov	r0, fp
10014ade:	f004 fb7f 	bl	100191e0 <__multadd>
10014ae2:	3601      	adds	r6, #1
10014ae4:	4682      	mov	sl, r0
10014ae6:	4649      	mov	r1, r9
10014ae8:	4650      	mov	r0, sl
10014aea:	f7ff fc0f 	bl	1001430c <quorem>
10014aee:	42a6      	cmp	r6, r4
10014af0:	f100 0330 	add.w	r3, r0, #48	@ 0x30
10014af4:	f808 3b01 	strb.w	r3, [r8], #1
10014af8:	dbed      	blt.n	10014ad6 <_dtoa_r+0x69e>
10014afa:	9a08      	ldr	r2, [sp, #32]
10014afc:	2a00      	cmp	r2, #0
10014afe:	bfc8      	it	gt
10014b00:	4616      	movgt	r6, r2
10014b02:	9a03      	ldr	r2, [sp, #12]
10014b04:	bfd8      	it	le
10014b06:	2601      	movle	r6, #1
10014b08:	eb02 0b06 	add.w	fp, r2, r6
10014b0c:	2400      	movs	r4, #0
10014b0e:	4651      	mov	r1, sl
10014b10:	2201      	movs	r2, #1
10014b12:	9802      	ldr	r0, [sp, #8]
10014b14:	9304      	str	r3, [sp, #16]
10014b16:	f004 fd43 	bl	100195a0 <__lshift>
10014b1a:	4649      	mov	r1, r9
10014b1c:	4682      	mov	sl, r0
10014b1e:	f004 fdb7 	bl	10019690 <__mcmp>
10014b22:	2800      	cmp	r0, #0
10014b24:	f340 81e3 	ble.w	10014eee <_dtoa_r+0xab6>
10014b28:	9a03      	ldr	r2, [sp, #12]
10014b2a:	e002      	b.n	10014b32 <_dtoa_r+0x6fa>
10014b2c:	455a      	cmp	r2, fp
10014b2e:	f000 81e9 	beq.w	10014f04 <_dtoa_r+0xacc>
10014b32:	465e      	mov	r6, fp
10014b34:	f10b 3bff 	add.w	fp, fp, #4294967295	@ 0xffffffff
10014b38:	f816 3c01 	ldrb.w	r3, [r6, #-1]
10014b3c:	2b39      	cmp	r3, #57	@ 0x39
10014b3e:	d0f5      	beq.n	10014b2c <_dtoa_r+0x6f4>
10014b40:	3301      	adds	r3, #1
10014b42:	f88b 3000 	strb.w	r3, [fp]
10014b46:	f8dd 8008 	ldr.w	r8, [sp, #8]
10014b4a:	4649      	mov	r1, r9
10014b4c:	4640      	mov	r0, r8
10014b4e:	f004 fb3d 	bl	100191cc <_Bfree>
10014b52:	b157      	cbz	r7, 10014b6a <_dtoa_r+0x732>
10014b54:	b12c      	cbz	r4, 10014b62 <_dtoa_r+0x72a>
10014b56:	42bc      	cmp	r4, r7
10014b58:	d003      	beq.n	10014b62 <_dtoa_r+0x72a>
10014b5a:	4621      	mov	r1, r4
10014b5c:	4640      	mov	r0, r8
10014b5e:	f004 fb35 	bl	100191cc <_Bfree>
10014b62:	9802      	ldr	r0, [sp, #8]
10014b64:	4639      	mov	r1, r7
10014b66:	f004 fb31 	bl	100191cc <_Bfree>
10014b6a:	9802      	ldr	r0, [sp, #8]
10014b6c:	4651      	mov	r1, sl
10014b6e:	f004 fb2d 	bl	100191cc <_Bfree>
10014b72:	2300      	movs	r3, #0
10014b74:	7033      	strb	r3, [r6, #0]
10014b76:	9b28      	ldr	r3, [sp, #160]	@ 0xa0
10014b78:	601d      	str	r5, [r3, #0]
10014b7a:	9b2a      	ldr	r3, [sp, #168]	@ 0xa8
10014b7c:	2b00      	cmp	r3, #0
10014b7e:	f43f ac96 	beq.w	100144ae <_dtoa_r+0x76>
10014b82:	9803      	ldr	r0, [sp, #12]
10014b84:	601e      	str	r6, [r3, #0]
10014b86:	b01d      	add	sp, #116	@ 0x74
10014b88:	e8bd 8ff0 	ldmia.w	sp!, {r4, r5, r6, r7, r8, r9, sl, fp, pc}
10014b8c:	4658      	mov	r0, fp
10014b8e:	f005 fccd 	bl	1001a52c <__aeabi_i2d>
10014b92:	4632      	mov	r2, r6
10014b94:	463b      	mov	r3, r7
10014b96:	f005 ff9b 	bl	1001aad0 <__aeabi_dcmpeq>
10014b9a:	2800      	cmp	r0, #0
10014b9c:	f47f acde 	bne.w	1001455c <_dtoa_r+0x124>
10014ba0:	f10b 3bff 	add.w	fp, fp, #4294967295	@ 0xffffffff
10014ba4:	e4da      	b.n	1001455c <_dtoa_r+0x124>
10014ba6:	231c      	movs	r3, #28
10014ba8:	9a09      	ldr	r2, [sp, #36]	@ 0x24
10014baa:	441a      	add	r2, r3
10014bac:	9209      	str	r2, [sp, #36]	@ 0x24
10014bae:	441e      	add	r6, r3
10014bb0:	441c      	add	r4, r3
10014bb2:	e76a      	b.n	10014a8a <_dtoa_r+0x652>
10014bb4:	9a26      	ldr	r2, [sp, #152]	@ 0x98
10014bb6:	2a01      	cmp	r2, #1
10014bb8:	f340 81a9 	ble.w	10014f0e <_dtoa_r+0xad6>
10014bbc:	9b08      	ldr	r3, [sp, #32]
10014bbe:	9a0d      	ldr	r2, [sp, #52]	@ 0x34
10014bc0:	1e5d      	subs	r5, r3, #1
10014bc2:	42aa      	cmp	r2, r5
10014bc4:	f2c0 816b 	blt.w	10014e9e <_dtoa_r+0xa66>
10014bc8:	2b00      	cmp	r3, #0
10014bca:	eba2 0505 	sub.w	r5, r2, r5
10014bce:	f280 82dd 	bge.w	1001518c <_dtoa_r+0xd54>
10014bd2:	e9dd 2308 	ldrd	r2, r3, [sp, #32]
10014bd6:	1a9e      	subs	r6, r3, r2
10014bd8:	9802      	ldr	r0, [sp, #8]
10014bda:	2101      	movs	r1, #1
10014bdc:	f004 fba2 	bl	10019324 <__i2b>
10014be0:	4607      	mov	r7, r0
10014be2:	e71a      	b.n	10014a1a <_dtoa_r+0x5e2>
10014be4:	f1c3 0320 	rsb	r3, r3, #32
10014be8:	fa06 f003 	lsl.w	r0, r6, r3
10014bec:	e483      	b.n	100144f6 <_dtoa_r+0xbe>
10014bee:	2501      	movs	r5, #1
10014bf0:	e4e6      	b.n	100145c0 <_dtoa_r+0x188>
10014bf2:	4639      	mov	r1, r7
10014bf4:	2300      	movs	r3, #0
10014bf6:	9802      	ldr	r0, [sp, #8]
10014bf8:	220a      	movs	r2, #10
10014bfa:	f004 faf1 	bl	100191e0 <__multadd>
10014bfe:	9b16      	ldr	r3, [sp, #88]	@ 0x58
10014c00:	2b00      	cmp	r3, #0
10014c02:	4607      	mov	r7, r0
10014c04:	f340 82ef 	ble.w	100151e6 <_dtoa_r+0xdae>
10014c08:	950c      	str	r5, [sp, #48]	@ 0x30
10014c0a:	9308      	str	r3, [sp, #32]
10014c0c:	2e00      	cmp	r6, #0
10014c0e:	f300 813f 	bgt.w	10014e90 <_dtoa_r+0xa58>
10014c12:	f1bb 0f00 	cmp.w	fp, #0
10014c16:	f040 81df 	bne.w	10014fd8 <_dtoa_r+0xba0>
10014c1a:	46b8      	mov	r8, r7
10014c1c:	9e03      	ldr	r6, [sp, #12]
10014c1e:	9c08      	ldr	r4, [sp, #32]
10014c20:	1e73      	subs	r3, r6, #1
10014c22:	441c      	add	r4, r3
10014c24:	9b04      	ldr	r3, [sp, #16]
10014c26:	940a      	str	r4, [sp, #40]	@ 0x28
10014c28:	f003 0301 	and.w	r3, r3, #1
10014c2c:	9c02      	ldr	r4, [sp, #8]
10014c2e:	930d      	str	r3, [sp, #52]	@ 0x34
10014c30:	4649      	mov	r1, r9
10014c32:	4650      	mov	r0, sl
10014c34:	f7ff fb6a 	bl	1001430c <quorem>
10014c38:	4639      	mov	r1, r7
10014c3a:	4683      	mov	fp, r0
10014c3c:	4650      	mov	r0, sl
10014c3e:	f004 fd27 	bl	10019690 <__mcmp>
10014c42:	4642      	mov	r2, r8
10014c44:	4649      	mov	r1, r9
10014c46:	4605      	mov	r5, r0
10014c48:	4620      	mov	r0, r4
10014c4a:	f004 fd43 	bl	100196d4 <__mdiff>
10014c4e:	68c2      	ldr	r2, [r0, #12]
10014c50:	4601      	mov	r1, r0
10014c52:	f10b 0330 	add.w	r3, fp, #48	@ 0x30
10014c56:	2a00      	cmp	r2, #0
10014c58:	d13a      	bne.n	10014cd0 <_dtoa_r+0x898>
10014c5a:	e9cd 0308 	strd	r0, r3, [sp, #32]
10014c5e:	4650      	mov	r0, sl
10014c60:	f004 fd16 	bl	10019690 <__mcmp>
10014c64:	9908      	ldr	r1, [sp, #32]
10014c66:	9006      	str	r0, [sp, #24]
10014c68:	4620      	mov	r0, r4
10014c6a:	f004 faaf 	bl	100191cc <_Bfree>
10014c6e:	9a06      	ldr	r2, [sp, #24]
10014c70:	9b09      	ldr	r3, [sp, #36]	@ 0x24
10014c72:	2a00      	cmp	r2, #0
10014c74:	d15a      	bne.n	10014d2c <_dtoa_r+0x8f4>
10014c76:	9a26      	ldr	r2, [sp, #152]	@ 0x98
10014c78:	b91a      	cbnz	r2, 10014c82 <_dtoa_r+0x84a>
10014c7a:	9a0d      	ldr	r2, [sp, #52]	@ 0x34
10014c7c:	2a00      	cmp	r2, #0
10014c7e:	f000 829a 	beq.w	100151b6 <_dtoa_r+0xd7e>
10014c82:	2d00      	cmp	r5, #0
10014c84:	db45      	blt.n	10014d12 <_dtoa_r+0x8da>
10014c86:	9a0a      	ldr	r2, [sp, #40]	@ 0x28
10014c88:	46b3      	mov	fp, r6
10014c8a:	42b2      	cmp	r2, r6
10014c8c:	f80b 3b01 	strb.w	r3, [fp], #1
10014c90:	f000 81b9 	beq.w	10015006 <_dtoa_r+0xbce>
10014c94:	4651      	mov	r1, sl
10014c96:	2300      	movs	r3, #0
10014c98:	220a      	movs	r2, #10
10014c9a:	4620      	mov	r0, r4
10014c9c:	f004 faa0 	bl	100191e0 <__multadd>
10014ca0:	4547      	cmp	r7, r8
10014ca2:	4682      	mov	sl, r0
10014ca4:	4639      	mov	r1, r7
10014ca6:	f04f 0300 	mov.w	r3, #0
10014caa:	f04f 020a 	mov.w	r2, #10
10014cae:	4620      	mov	r0, r4
10014cb0:	d036      	beq.n	10014d20 <_dtoa_r+0x8e8>
10014cb2:	f004 fa95 	bl	100191e0 <__multadd>
10014cb6:	4641      	mov	r1, r8
10014cb8:	4607      	mov	r7, r0
10014cba:	2300      	movs	r3, #0
10014cbc:	220a      	movs	r2, #10
10014cbe:	4620      	mov	r0, r4
10014cc0:	f004 fa8e 	bl	100191e0 <__multadd>
10014cc4:	465e      	mov	r6, fp
10014cc6:	4680      	mov	r8, r0
10014cc8:	e7b2      	b.n	10014c30 <_dtoa_r+0x7f8>
10014cca:	bf00      	nop
10014ccc:	40240000 	.word	0x40240000
10014cd0:	9802      	ldr	r0, [sp, #8]
10014cd2:	9306      	str	r3, [sp, #24]
10014cd4:	f004 fa7a 	bl	100191cc <_Bfree>
10014cd8:	2d00      	cmp	r5, #0
10014cda:	9b06      	ldr	r3, [sp, #24]
10014cdc:	db06      	blt.n	10014cec <_dtoa_r+0x8b4>
10014cde:	9a04      	ldr	r2, [sp, #16]
10014ce0:	9926      	ldr	r1, [sp, #152]	@ 0x98
10014ce2:	f002 0201 	and.w	r2, r2, #1
10014ce6:	430d      	orrs	r5, r1
10014ce8:	432a      	orrs	r2, r5
10014cea:	d12a      	bne.n	10014d42 <_dtoa_r+0x90a>
10014cec:	4651      	mov	r1, sl
10014cee:	2201      	movs	r2, #1
10014cf0:	9802      	ldr	r0, [sp, #8]
10014cf2:	9304      	str	r3, [sp, #16]
10014cf4:	f004 fc54 	bl	100195a0 <__lshift>
10014cf8:	4649      	mov	r1, r9
10014cfa:	4682      	mov	sl, r0
10014cfc:	f004 fcc8 	bl	10019690 <__mcmp>
10014d00:	2800      	cmp	r0, #0
10014d02:	9b04      	ldr	r3, [sp, #16]
10014d04:	f340 80e8 	ble.w	10014ed8 <_dtoa_r+0xaa0>
10014d08:	2b39      	cmp	r3, #57	@ 0x39
10014d0a:	f000 822f 	beq.w	1001516c <_dtoa_r+0xd34>
10014d0e:	f10b 0331 	add.w	r3, fp, #49	@ 0x31
10014d12:	9d0c      	ldr	r5, [sp, #48]	@ 0x30
10014d14:	f806 3b01 	strb.w	r3, [r6], #1
10014d18:	463c      	mov	r4, r7
10014d1a:	3501      	adds	r5, #1
10014d1c:	4647      	mov	r7, r8
10014d1e:	e712      	b.n	10014b46 <_dtoa_r+0x70e>
10014d20:	f004 fa5e 	bl	100191e0 <__multadd>
10014d24:	465e      	mov	r6, fp
10014d26:	4607      	mov	r7, r0
10014d28:	4680      	mov	r8, r0
10014d2a:	e781      	b.n	10014c30 <_dtoa_r+0x7f8>
10014d2c:	2d00      	cmp	r5, #0
10014d2e:	f2c0 827d 	blt.w	1001522c <_dtoa_r+0xdf4>
10014d32:	9926      	ldr	r1, [sp, #152]	@ 0x98
10014d34:	430d      	orrs	r5, r1
10014d36:	990d      	ldr	r1, [sp, #52]	@ 0x34
10014d38:	430d      	orrs	r5, r1
10014d3a:	f000 8277 	beq.w	1001522c <_dtoa_r+0xdf4>
10014d3e:	2a00      	cmp	r2, #0
10014d40:	dda1      	ble.n	10014c86 <_dtoa_r+0x84e>
10014d42:	2b39      	cmp	r3, #57	@ 0x39
10014d44:	f000 8212 	beq.w	1001516c <_dtoa_r+0xd34>
10014d48:	3301      	adds	r3, #1
10014d4a:	e7e2      	b.n	10014d12 <_dtoa_r+0x8da>
10014d4c:	9b26      	ldr	r3, [sp, #152]	@ 0x98
10014d4e:	2b02      	cmp	r3, #2
10014d50:	f77f aeb4 	ble.w	10014abc <_dtoa_r+0x684>
10014d54:	9b08      	ldr	r3, [sp, #32]
10014d56:	2b00      	cmp	r3, #0
10014d58:	f040 811d 	bne.w	10014f96 <_dtoa_r+0xb5e>
10014d5c:	4649      	mov	r1, r9
10014d5e:	2205      	movs	r2, #5
10014d60:	9802      	ldr	r0, [sp, #8]
10014d62:	f004 fa3d 	bl	100191e0 <__multadd>
10014d66:	4601      	mov	r1, r0
10014d68:	4681      	mov	r9, r0
10014d6a:	4650      	mov	r0, sl
10014d6c:	f004 fc90 	bl	10019690 <__mcmp>
10014d70:	2800      	cmp	r0, #0
10014d72:	f340 8110 	ble.w	10014f96 <_dtoa_r+0xb5e>
10014d76:	9e03      	ldr	r6, [sp, #12]
10014d78:	9d0c      	ldr	r5, [sp, #48]	@ 0x30
10014d7a:	2331      	movs	r3, #49	@ 0x31
10014d7c:	f806 3b01 	strb.w	r3, [r6], #1
10014d80:	3501      	adds	r5, #1
10014d82:	9802      	ldr	r0, [sp, #8]
10014d84:	4649      	mov	r1, r9
10014d86:	3501      	adds	r5, #1
10014d88:	f004 fa20 	bl	100191cc <_Bfree>
10014d8c:	2f00      	cmp	r7, #0
10014d8e:	f47f aee8 	bne.w	10014b62 <_dtoa_r+0x72a>
10014d92:	e6ea      	b.n	10014b6a <_dtoa_r+0x732>
10014d94:	4649      	mov	r1, r9
10014d96:	4650      	mov	r0, sl
10014d98:	f004 fc7a 	bl	10019690 <__mcmp>
10014d9c:	2800      	cmp	r0, #0
10014d9e:	f6bf ae89 	bge.w	10014ab4 <_dtoa_r+0x67c>
10014da2:	4651      	mov	r1, sl
10014da4:	2300      	movs	r3, #0
10014da6:	9802      	ldr	r0, [sp, #8]
10014da8:	220a      	movs	r2, #10
10014daa:	f004 fa19 	bl	100191e0 <__multadd>
10014dae:	9b0c      	ldr	r3, [sp, #48]	@ 0x30
10014db0:	1e5d      	subs	r5, r3, #1
10014db2:	9b0a      	ldr	r3, [sp, #40]	@ 0x28
10014db4:	4682      	mov	sl, r0
10014db6:	2b00      	cmp	r3, #0
10014db8:	f47f af1b 	bne.w	10014bf2 <_dtoa_r+0x7ba>
10014dbc:	9b16      	ldr	r3, [sp, #88]	@ 0x58
10014dbe:	2b00      	cmp	r3, #0
10014dc0:	f340 81ff 	ble.w	100151c2 <_dtoa_r+0xd8a>
10014dc4:	9d0c      	ldr	r5, [sp, #48]	@ 0x30
10014dc6:	9308      	str	r3, [sp, #32]
10014dc8:	e67e      	b.n	10014ac8 <_dtoa_r+0x690>
10014dca:	4601      	mov	r1, r0
10014dcc:	465a      	mov	r2, fp
10014dce:	9802      	ldr	r0, [sp, #8]
10014dd0:	f004 fb8c 	bl	100194ec <__pow5mult>
10014dd4:	9b26      	ldr	r3, [sp, #152]	@ 0x98
10014dd6:	2b01      	cmp	r3, #1
10014dd8:	4681      	mov	r9, r0
10014dda:	dd6c      	ble.n	10014eb6 <_dtoa_r+0xa7e>
10014ddc:	f04f 0b00 	mov.w	fp, #0
10014de0:	f8d9 3010 	ldr.w	r3, [r9, #16]
10014de4:	eb09 0383 	add.w	r3, r9, r3, lsl #2
10014de8:	6918      	ldr	r0, [r3, #16]
10014dea:	f004 fa49 	bl	10019280 <__hi0bits>
10014dee:	f1c0 0020 	rsb	r0, r0, #32
10014df2:	e639      	b.n	10014a68 <_dtoa_r+0x630>
10014df4:	4b92      	ldr	r3, [pc, #584]	@ (10015040 <_dtoa_r+0xc08>)
10014df6:	9303      	str	r3, [sp, #12]
10014df8:	3303      	adds	r3, #3
10014dfa:	f7ff bbfc 	b.w	100145f6 <_dtoa_r+0x1be>
10014dfe:	9b04      	ldr	r3, [sp, #16]
10014e00:	2b00      	cmp	r3, #0
10014e02:	f47f ae30 	bne.w	10014a66 <_dtoa_r+0x62e>
10014e06:	e9dd 1204 	ldrd	r1, r2, [sp, #16]
10014e0a:	f3c2 0313 	ubfx	r3, r2, #0, #20
10014e0e:	2b00      	cmp	r3, #0
10014e10:	f47f ae29 	bne.w	10014a66 <_dtoa_r+0x62e>
10014e14:	4b8b      	ldr	r3, [pc, #556]	@ (10015044 <_dtoa_r+0xc0c>)
10014e16:	4013      	ands	r3, r2
10014e18:	b123      	cbz	r3, 10014e24 <_dtoa_r+0x9ec>
10014e1a:	9b09      	ldr	r3, [sp, #36]	@ 0x24
10014e1c:	3301      	adds	r3, #1
10014e1e:	9309      	str	r3, [sp, #36]	@ 0x24
10014e20:	3401      	adds	r4, #1
10014e22:	2301      	movs	r3, #1
10014e24:	f1bb 0f00 	cmp.w	fp, #0
10014e28:	f040 81ae 	bne.w	10015188 <_dtoa_r+0xd50>
10014e2c:	469b      	mov	fp, r3
10014e2e:	e61a      	b.n	10014a66 <_dtoa_r+0x62e>
10014e30:	f43f ae2b 	beq.w	10014a8a <_dtoa_r+0x652>
10014e34:	f1c0 033c 	rsb	r3, r0, #60	@ 0x3c
10014e38:	e6b6      	b.n	10014ba8 <_dtoa_r+0x770>
10014e3a:	2301      	movs	r3, #1
10014e3c:	930a      	str	r3, [sp, #40]	@ 0x28
10014e3e:	9b27      	ldr	r3, [sp, #156]	@ 0x9c
10014e40:	9a0c      	ldr	r2, [sp, #48]	@ 0x30
10014e42:	4413      	add	r3, r2
10014e44:	9316      	str	r3, [sp, #88]	@ 0x58
10014e46:	3301      	adds	r3, #1
10014e48:	2b01      	cmp	r3, #1
10014e4a:	461e      	mov	r6, r3
10014e4c:	9308      	str	r3, [sp, #32]
10014e4e:	bfb8      	it	lt
10014e50:	2601      	movlt	r6, #1
10014e52:	2e17      	cmp	r6, #23
10014e54:	f340 81d5 	ble.w	10015202 <_dtoa_r+0xdca>
10014e58:	2201      	movs	r2, #1
10014e5a:	2304      	movs	r3, #4
10014e5c:	005b      	lsls	r3, r3, #1
10014e5e:	f103 0014 	add.w	r0, r3, #20
10014e62:	42b0      	cmp	r0, r6
10014e64:	4611      	mov	r1, r2
10014e66:	f102 0201 	add.w	r2, r2, #1
10014e6a:	d9f7      	bls.n	10014e5c <_dtoa_r+0xa24>
10014e6c:	9b02      	ldr	r3, [sp, #8]
10014e6e:	63d9      	str	r1, [r3, #60]	@ 0x3c
10014e70:	e413      	b.n	1001469a <_dtoa_r+0x262>
10014e72:	2301      	movs	r3, #1
10014e74:	930a      	str	r3, [sp, #40]	@ 0x28
10014e76:	9b27      	ldr	r3, [sp, #156]	@ 0x9c
10014e78:	2b00      	cmp	r3, #0
10014e7a:	dd33      	ble.n	10014ee4 <_dtoa_r+0xaac>
10014e7c:	9316      	str	r3, [sp, #88]	@ 0x58
10014e7e:	9308      	str	r3, [sp, #32]
10014e80:	461e      	mov	r6, r3
10014e82:	e7e6      	b.n	10014e52 <_dtoa_r+0xa1a>
10014e84:	2300      	movs	r3, #0
10014e86:	930a      	str	r3, [sp, #40]	@ 0x28
10014e88:	e7d9      	b.n	10014e3e <_dtoa_r+0xa06>
10014e8a:	2300      	movs	r3, #0
10014e8c:	930a      	str	r3, [sp, #40]	@ 0x28
10014e8e:	e7f2      	b.n	10014e76 <_dtoa_r+0xa3e>
10014e90:	4639      	mov	r1, r7
10014e92:	9802      	ldr	r0, [sp, #8]
10014e94:	4632      	mov	r2, r6
10014e96:	f004 fb83 	bl	100195a0 <__lshift>
10014e9a:	4607      	mov	r7, r0
10014e9c:	e6b9      	b.n	10014c12 <_dtoa_r+0x7da>
10014e9e:	9b0d      	ldr	r3, [sp, #52]	@ 0x34
10014ea0:	9a09      	ldr	r2, [sp, #36]	@ 0x24
10014ea2:	950d      	str	r5, [sp, #52]	@ 0x34
10014ea4:	1aeb      	subs	r3, r5, r3
10014ea6:	449b      	add	fp, r3
10014ea8:	9b08      	ldr	r3, [sp, #32]
10014eaa:	4616      	mov	r6, r2
10014eac:	441a      	add	r2, r3
10014eae:	441c      	add	r4, r3
10014eb0:	9209      	str	r2, [sp, #36]	@ 0x24
10014eb2:	2500      	movs	r5, #0
10014eb4:	e690      	b.n	10014bd8 <_dtoa_r+0x7a0>
10014eb6:	9b04      	ldr	r3, [sp, #16]
10014eb8:	2b00      	cmp	r3, #0
10014eba:	d18f      	bne.n	10014ddc <_dtoa_r+0x9a4>
10014ebc:	e9dd 0104 	ldrd	r0, r1, [sp, #16]
10014ec0:	f3c1 0313 	ubfx	r3, r1, #0, #20
10014ec4:	460a      	mov	r2, r1
10014ec6:	2b00      	cmp	r3, #0
10014ec8:	d188      	bne.n	10014ddc <_dtoa_r+0x9a4>
10014eca:	e7a3      	b.n	10014e14 <_dtoa_r+0x9dc>
10014ecc:	ed9d 7b06 	vldr	d7, [sp, #24]
10014ed0:	2702      	movs	r7, #2
10014ed2:	ed8d 7b10 	vstr	d7, [sp, #64]	@ 0x40
10014ed6:	e40c      	b.n	100146f2 <_dtoa_r+0x2ba>
10014ed8:	f47f af1b 	bne.w	10014d12 <_dtoa_r+0x8da>
10014edc:	07da      	lsls	r2, r3, #31
10014ede:	f57f af18 	bpl.w	10014d12 <_dtoa_r+0x8da>
10014ee2:	e711      	b.n	10014d08 <_dtoa_r+0x8d0>
10014ee4:	2301      	movs	r3, #1
10014ee6:	9327      	str	r3, [sp, #156]	@ 0x9c
10014ee8:	9308      	str	r3, [sp, #32]
10014eea:	f7ff bbd1 	b.w	10014690 <_dtoa_r+0x258>
10014eee:	d103      	bne.n	10014ef8 <_dtoa_r+0xac0>
10014ef0:	9b04      	ldr	r3, [sp, #16]
10014ef2:	07db      	lsls	r3, r3, #31
10014ef4:	f53f ae18 	bmi.w	10014b28 <_dtoa_r+0x6f0>
10014ef8:	465e      	mov	r6, fp
10014efa:	f81b 3d01 	ldrb.w	r3, [fp, #-1]!
10014efe:	2b30      	cmp	r3, #48	@ 0x30
10014f00:	d0fa      	beq.n	10014ef8 <_dtoa_r+0xac0>
10014f02:	e620      	b.n	10014b46 <_dtoa_r+0x70e>
10014f04:	9a03      	ldr	r2, [sp, #12]
10014f06:	2331      	movs	r3, #49	@ 0x31
10014f08:	3501      	adds	r5, #1
10014f0a:	7013      	strb	r3, [r2, #0]
10014f0c:	e61b      	b.n	10014b46 <_dtoa_r+0x70e>
10014f0e:	9a0f      	ldr	r2, [sp, #60]	@ 0x3c
10014f10:	2a00      	cmp	r2, #0
10014f12:	f000 80f9 	beq.w	10015108 <_dtoa_r+0xcd0>
10014f16:	f203 4333 	addw	r3, r3, #1075	@ 0x433
10014f1a:	9a09      	ldr	r2, [sp, #36]	@ 0x24
10014f1c:	9d0d      	ldr	r5, [sp, #52]	@ 0x34
10014f1e:	4616      	mov	r6, r2
10014f20:	441a      	add	r2, r3
10014f22:	441c      	add	r4, r3
10014f24:	9209      	str	r2, [sp, #36]	@ 0x24
10014f26:	e657      	b.n	10014bd8 <_dtoa_r+0x7a0>
10014f28:	f1c8 0301 	rsb	r3, r8, #1
10014f2c:	4604      	mov	r4, r0
10014f2e:	9309      	str	r3, [sp, #36]	@ 0x24
10014f30:	900e      	str	r0, [sp, #56]	@ 0x38
10014f32:	f7ff bb9d 	b.w	10014670 <_dtoa_r+0x238>
10014f36:	f000 80eb 	beq.w	10015110 <_dtoa_r+0xcd8>
10014f3a:	9b0c      	ldr	r3, [sp, #48]	@ 0x30
10014f3c:	4d42      	ldr	r5, [pc, #264]	@ (10015048 <_dtoa_r+0xc10>)
10014f3e:	425e      	negs	r6, r3
10014f40:	f006 030f 	and.w	r3, r6, #15
10014f44:	eb05 03c3 	add.w	r3, r5, r3, lsl #3
10014f48:	e9d3 2300 	ldrd	r2, r3, [r3]
10014f4c:	e9dd 0106 	ldrd	r0, r1, [sp, #24]
10014f50:	f005 fb56 	bl	1001a600 <__aeabi_dmul>
10014f54:	1135      	asrs	r5, r6, #4
10014f56:	e9cd 0110 	strd	r0, r1, [sp, #64]	@ 0x40
10014f5a:	f000 814d 	beq.w	100151f8 <_dtoa_r+0xdc0>
10014f5e:	4e3b      	ldr	r6, [pc, #236]	@ (1001504c <_dtoa_r+0xc14>)
10014f60:	2300      	movs	r3, #0
10014f62:	2702      	movs	r7, #2
10014f64:	4680      	mov	r8, r0
10014f66:	4689      	mov	r9, r1
10014f68:	07e8      	lsls	r0, r5, #31
10014f6a:	d509      	bpl.n	10014f80 <_dtoa_r+0xb48>
10014f6c:	e9d6 2300 	ldrd	r2, r3, [r6]
10014f70:	4640      	mov	r0, r8
10014f72:	4649      	mov	r1, r9
10014f74:	f005 fb44 	bl	1001a600 <__aeabi_dmul>
10014f78:	3701      	adds	r7, #1
10014f7a:	4680      	mov	r8, r0
10014f7c:	4689      	mov	r9, r1
10014f7e:	2301      	movs	r3, #1
10014f80:	106d      	asrs	r5, r5, #1
10014f82:	f106 0608 	add.w	r6, r6, #8
10014f86:	d1ef      	bne.n	10014f68 <_dtoa_r+0xb30>
10014f88:	2b00      	cmp	r3, #0
10014f8a:	f47f abcb 	bne.w	10014724 <_dtoa_r+0x2ec>
10014f8e:	e9dd 8910 	ldrd	r8, r9, [sp, #64]	@ 0x40
10014f92:	f7ff bbc7 	b.w	10014724 <_dtoa_r+0x2ec>
10014f96:	9e03      	ldr	r6, [sp, #12]
10014f98:	e4cb      	b.n	10014932 <_dtoa_r+0x4fa>
10014f9a:	f8dd a018 	ldr.w	sl, [sp, #24]
10014f9e:	9d0c      	ldr	r5, [sp, #48]	@ 0x30
10014fa0:	4602      	mov	r2, r0
10014fa2:	460b      	mov	r3, r1
10014fa4:	f005 f976 	bl	1001a294 <__adddf3>
10014fa8:	4602      	mov	r2, r0
10014faa:	460b      	mov	r3, r1
10014fac:	e9cd 2306 	strd	r2, r3, [sp, #24]
10014fb0:	3501      	adds	r5, #1
10014fb2:	e9dd 2304 	ldrd	r2, r3, [sp, #16]
10014fb6:	46a8      	mov	r8, r5
10014fb8:	f005 fdb2 	bl	1001ab20 <__aeabi_dcmpgt>
10014fbc:	b940      	cbnz	r0, 10014fd0 <_dtoa_r+0xb98>
10014fbe:	e9dd 2304 	ldrd	r2, r3, [sp, #16]
10014fc2:	e9dd 0106 	ldrd	r0, r1, [sp, #24]
10014fc6:	f005 fd83 	bl	1001aad0 <__aeabi_dcmpeq>
10014fca:	b118      	cbz	r0, 10014fd4 <_dtoa_r+0xb9c>
10014fcc:	07f1      	lsls	r1, r6, #31
10014fce:	d501      	bpl.n	10014fd4 <_dtoa_r+0xb9c>
10014fd0:	9a03      	ldr	r2, [sp, #12]
10014fd2:	e44b      	b.n	1001486c <_dtoa_r+0x434>
10014fd4:	463e      	mov	r6, r7
10014fd6:	e5c8      	b.n	10014b6a <_dtoa_r+0x732>
10014fd8:	6879      	ldr	r1, [r7, #4]
10014fda:	9802      	ldr	r0, [sp, #8]
10014fdc:	f004 f8d0 	bl	10019180 <_Balloc>
10014fe0:	4605      	mov	r5, r0
10014fe2:	2800      	cmp	r0, #0
10014fe4:	f000 8126 	beq.w	10015234 <_dtoa_r+0xdfc>
10014fe8:	693b      	ldr	r3, [r7, #16]
10014fea:	3302      	adds	r3, #2
10014fec:	009a      	lsls	r2, r3, #2
10014fee:	f107 010c 	add.w	r1, r7, #12
10014ff2:	300c      	adds	r0, #12
10014ff4:	f000 fa64 	bl	100154c0 <memcpy>
10014ff8:	9802      	ldr	r0, [sp, #8]
10014ffa:	4629      	mov	r1, r5
10014ffc:	2201      	movs	r2, #1
10014ffe:	f004 facf 	bl	100195a0 <__lshift>
10015002:	4680      	mov	r8, r0
10015004:	e60a      	b.n	10014c1c <_dtoa_r+0x7e4>
10015006:	9d0c      	ldr	r5, [sp, #48]	@ 0x30
10015008:	463c      	mov	r4, r7
1001500a:	3501      	adds	r5, #1
1001500c:	4647      	mov	r7, r8
1001500e:	e57e      	b.n	10014b0e <_dtoa_r+0x6d6>
10015010:	f8dd 8008 	ldr.w	r8, [sp, #8]
10015014:	4639      	mov	r1, r7
10015016:	462a      	mov	r2, r5
10015018:	4640      	mov	r0, r8
1001501a:	f004 fa67 	bl	100194ec <__pow5mult>
1001501e:	4652      	mov	r2, sl
10015020:	4601      	mov	r1, r0
10015022:	4607      	mov	r7, r0
10015024:	4640      	mov	r0, r8
10015026:	f004 f9ab 	bl	10019380 <__multiply>
1001502a:	4651      	mov	r1, sl
1001502c:	4682      	mov	sl, r0
1001502e:	4640      	mov	r0, r8
10015030:	f004 f8cc 	bl	100191cc <_Bfree>
10015034:	9b0d      	ldr	r3, [sp, #52]	@ 0x34
10015036:	1b5b      	subs	r3, r3, r5
10015038:	930d      	str	r3, [sp, #52]	@ 0x34
1001503a:	f43f ad07 	beq.w	10014a4c <_dtoa_r+0x614>
1001503e:	e4ff      	b.n	10014a40 <_dtoa_r+0x608>
10015040:	1001b24c 	.word	0x1001b24c
10015044:	7ff00000 	.word	0x7ff00000
10015048:	1001b4d8 	.word	0x1001b4d8
1001504c:	1001b4b0 	.word	0x1001b4b0
10015050:	e9dd 0112 	ldrd	r0, r1, [sp, #72]	@ 0x48
10015054:	f005 fad4 	bl	1001a600 <__aeabi_dmul>
10015058:	9b03      	ldr	r3, [sp, #12]
1001505a:	701f      	strb	r7, [r3, #0]
1001505c:	9b10      	ldr	r3, [sp, #64]	@ 0x40
1001505e:	2b01      	cmp	r3, #1
10015060:	e9cd 010a 	strd	r0, r1, [sp, #40]	@ 0x28
10015064:	f000 80c6 	beq.w	100151f4 <_dtoa_r+0xdbc>
10015068:	9f10      	ldr	r7, [sp, #64]	@ 0x40
1001506a:	9b03      	ldr	r3, [sp, #12]
1001506c:	f8cd b03c 	str.w	fp, [sp, #60]	@ 0x3c
10015070:	441f      	add	r7, r3
10015072:	4b7c      	ldr	r3, [pc, #496]	@ (10015264 <_dtoa_r+0xe2c>)
10015074:	2200      	movs	r2, #0
10015076:	4640      	mov	r0, r8
10015078:	4649      	mov	r1, r9
1001507a:	f005 fac1 	bl	1001a600 <__aeabi_dmul>
1001507e:	4689      	mov	r9, r1
10015080:	4680      	mov	r8, r0
10015082:	f005 fd6d 	bl	1001ab60 <__aeabi_d2iz>
10015086:	4683      	mov	fp, r0
10015088:	f005 fa50 	bl	1001a52c <__aeabi_i2d>
1001508c:	f10b 0b30 	add.w	fp, fp, #48	@ 0x30
10015090:	4602      	mov	r2, r0
10015092:	460b      	mov	r3, r1
10015094:	4640      	mov	r0, r8
10015096:	4649      	mov	r1, r9
10015098:	f005 f8fa 	bl	1001a290 <__aeabi_dsub>
1001509c:	f806 bb01 	strb.w	fp, [r6], #1
100150a0:	42b7      	cmp	r7, r6
100150a2:	4680      	mov	r8, r0
100150a4:	4689      	mov	r9, r1
100150a6:	d1e4      	bne.n	10015072 <_dtoa_r+0xc3a>
100150a8:	f8dd b03c 	ldr.w	fp, [sp, #60]	@ 0x3c
100150ac:	4b6e      	ldr	r3, [pc, #440]	@ (10015268 <_dtoa_r+0xe30>)
100150ae:	2200      	movs	r2, #0
100150b0:	e9dd 010a 	ldrd	r0, r1, [sp, #40]	@ 0x28
100150b4:	f005 f8ee 	bl	1001a294 <__adddf3>
100150b8:	4602      	mov	r2, r0
100150ba:	460b      	mov	r3, r1
100150bc:	4640      	mov	r0, r8
100150be:	4649      	mov	r1, r9
100150c0:	f005 fd2e 	bl	1001ab20 <__aeabi_dcmpgt>
100150c4:	2800      	cmp	r0, #0
100150c6:	d167      	bne.n	10015198 <_dtoa_r+0xd60>
100150c8:	e9dd 230a 	ldrd	r2, r3, [sp, #40]	@ 0x28
100150cc:	4966      	ldr	r1, [pc, #408]	@ (10015268 <_dtoa_r+0xe30>)
100150ce:	2000      	movs	r0, #0
100150d0:	f005 f8de 	bl	1001a290 <__aeabi_dsub>
100150d4:	4602      	mov	r2, r0
100150d6:	460b      	mov	r3, r1
100150d8:	4640      	mov	r0, r8
100150da:	4649      	mov	r1, r9
100150dc:	f005 fd02 	bl	1001aae4 <__aeabi_dcmplt>
100150e0:	b948      	cbnz	r0, 100150f6 <_dtoa_r+0xcbe>
100150e2:	9b1b      	ldr	r3, [sp, #108]	@ 0x6c
100150e4:	2b00      	cmp	r3, #0
100150e6:	f6ff ac93 	blt.w	10014a10 <_dtoa_r+0x5d8>
100150ea:	9b0c      	ldr	r3, [sp, #48]	@ 0x30
100150ec:	2b0e      	cmp	r3, #14
100150ee:	f73f ac8f 	bgt.w	10014a10 <_dtoa_r+0x5d8>
100150f2:	f7ff bbfd 	b.w	100148f0 <_dtoa_r+0x4b8>
100150f6:	463e      	mov	r6, r7
100150f8:	3f01      	subs	r7, #1
100150fa:	f816 3c01 	ldrb.w	r3, [r6, #-1]
100150fe:	2b30      	cmp	r3, #48	@ 0x30
10015100:	d0f9      	beq.n	100150f6 <_dtoa_r+0xcbe>
10015102:	9d17      	ldr	r5, [sp, #92]	@ 0x5c
10015104:	3501      	adds	r5, #1
10015106:	e530      	b.n	10014b6a <_dtoa_r+0x732>
10015108:	9b1a      	ldr	r3, [sp, #104]	@ 0x68
1001510a:	f1c3 0336 	rsb	r3, r3, #54	@ 0x36
1001510e:	e704      	b.n	10014f1a <_dtoa_r+0xae2>
10015110:	e9dd 8906 	ldrd	r8, r9, [sp, #24]
10015114:	2702      	movs	r7, #2
10015116:	f7ff bb05 	b.w	10014724 <_dtoa_r+0x2ec>
1001511a:	9b08      	ldr	r3, [sp, #32]
1001511c:	2b00      	cmp	r3, #0
1001511e:	f43f abb9 	beq.w	10014894 <_dtoa_r+0x45c>
10015122:	9b16      	ldr	r3, [sp, #88]	@ 0x58
10015124:	2b00      	cmp	r3, #0
10015126:	f77f abda 	ble.w	100148de <_dtoa_r+0x4a6>
1001512a:	9a0c      	ldr	r2, [sp, #48]	@ 0x30
1001512c:	9310      	str	r3, [sp, #64]	@ 0x40
1001512e:	3a01      	subs	r2, #1
10015130:	4b4c      	ldr	r3, [pc, #304]	@ (10015264 <_dtoa_r+0xe2c>)
10015132:	9217      	str	r2, [sp, #92]	@ 0x5c
10015134:	4640      	mov	r0, r8
10015136:	2200      	movs	r2, #0
10015138:	4649      	mov	r1, r9
1001513a:	f005 fa61 	bl	1001a600 <__aeabi_dmul>
1001513e:	4680      	mov	r8, r0
10015140:	4689      	mov	r9, r1
10015142:	1c78      	adds	r0, r7, #1
10015144:	f005 f9f2 	bl	1001a52c <__aeabi_i2d>
10015148:	4642      	mov	r2, r8
1001514a:	464b      	mov	r3, r9
1001514c:	f005 fa58 	bl	1001a600 <__aeabi_dmul>
10015150:	4b46      	ldr	r3, [pc, #280]	@ (1001526c <_dtoa_r+0xe34>)
10015152:	2200      	movs	r2, #0
10015154:	f005 f89e 	bl	1001a294 <__adddf3>
10015158:	4606      	mov	r6, r0
1001515a:	f1a1 7750 	sub.w	r7, r1, #54525952	@ 0x3400000
1001515e:	f7ff bb02 	b.w	10014766 <_dtoa_r+0x32e>
10015162:	f108 0801 	add.w	r8, r8, #1
10015166:	2331      	movs	r3, #49	@ 0x31
10015168:	f7ff bb87 	b.w	1001487a <_dtoa_r+0x442>
1001516c:	9d0c      	ldr	r5, [sp, #48]	@ 0x30
1001516e:	9a03      	ldr	r2, [sp, #12]
10015170:	46b3      	mov	fp, r6
10015172:	2339      	movs	r3, #57	@ 0x39
10015174:	463c      	mov	r4, r7
10015176:	f80b 3b01 	strb.w	r3, [fp], #1
1001517a:	3501      	adds	r5, #1
1001517c:	4647      	mov	r7, r8
1001517e:	e4d8      	b.n	10014b32 <_dtoa_r+0x6fa>
10015180:	f04f 0900 	mov.w	r9, #0
10015184:	464f      	mov	r7, r9
10015186:	e5f6      	b.n	10014d76 <_dtoa_r+0x93e>
10015188:	469b      	mov	fp, r3
1001518a:	e629      	b.n	10014de0 <_dtoa_r+0x9a8>
1001518c:	9a09      	ldr	r2, [sp, #36]	@ 0x24
1001518e:	4616      	mov	r6, r2
10015190:	441a      	add	r2, r3
10015192:	441c      	add	r4, r3
10015194:	9209      	str	r2, [sp, #36]	@ 0x24
10015196:	e51f      	b.n	10014bd8 <_dtoa_r+0x7a0>
10015198:	9b17      	ldr	r3, [sp, #92]	@ 0x5c
1001519a:	9a03      	ldr	r2, [sp, #12]
1001519c:	f103 0801 	add.w	r8, r3, #1
100151a0:	f7ff bb64 	b.w	1001486c <_dtoa_r+0x434>
100151a4:	f8dd a050 	ldr.w	sl, [sp, #80]	@ 0x50
100151a8:	e7ab      	b.n	10015102 <_dtoa_r+0xcca>
100151aa:	e9dd b418 	ldrd	fp, r4, [sp, #96]	@ 0x60
100151ae:	f8dd a050 	ldr.w	sl, [sp, #80]	@ 0x50
100151b2:	f7ff bb94 	b.w	100148de <_dtoa_r+0x4a6>
100151b6:	2b39      	cmp	r3, #57	@ 0x39
100151b8:	d0d8      	beq.n	1001516c <_dtoa_r+0xd34>
100151ba:	2d00      	cmp	r5, #0
100151bc:	f73f ada7 	bgt.w	10014d0e <_dtoa_r+0x8d6>
100151c0:	e5a7      	b.n	10014d12 <_dtoa_r+0x8da>
100151c2:	9b26      	ldr	r3, [sp, #152]	@ 0x98
100151c4:	2b02      	cmp	r3, #2
100151c6:	dc0a      	bgt.n	100151de <_dtoa_r+0xda6>
100151c8:	9b16      	ldr	r3, [sp, #88]	@ 0x58
100151ca:	9308      	str	r3, [sp, #32]
100151cc:	4649      	mov	r1, r9
100151ce:	9d0c      	ldr	r5, [sp, #48]	@ 0x30
100151d0:	f7ff f89c 	bl	1001430c <quorem>
100151d4:	9a03      	ldr	r2, [sp, #12]
100151d6:	f100 0330 	add.w	r3, r0, #48	@ 0x30
100151da:	7013      	strb	r3, [r2, #0]
100151dc:	e48d      	b.n	10014afa <_dtoa_r+0x6c2>
100151de:	9b16      	ldr	r3, [sp, #88]	@ 0x58
100151e0:	9308      	str	r3, [sp, #32]
100151e2:	950c      	str	r5, [sp, #48]	@ 0x30
100151e4:	e5b6      	b.n	10014d54 <_dtoa_r+0x91c>
100151e6:	9b26      	ldr	r3, [sp, #152]	@ 0x98
100151e8:	2b02      	cmp	r3, #2
100151ea:	dcf8      	bgt.n	100151de <_dtoa_r+0xda6>
100151ec:	9b16      	ldr	r3, [sp, #88]	@ 0x58
100151ee:	950c      	str	r5, [sp, #48]	@ 0x30
100151f0:	9308      	str	r3, [sp, #32]
100151f2:	e50b      	b.n	10014c0c <_dtoa_r+0x7d4>
100151f4:	4637      	mov	r7, r6
100151f6:	e759      	b.n	100150ac <_dtoa_r+0xc74>
100151f8:	e9dd 8910 	ldrd	r8, r9, [sp, #64]	@ 0x40
100151fc:	2702      	movs	r7, #2
100151fe:	f7ff ba91 	b.w	10014724 <_dtoa_r+0x2ec>
10015202:	9b02      	ldr	r3, [sp, #8]
10015204:	2100      	movs	r1, #0
10015206:	63d9      	str	r1, [r3, #60]	@ 0x3c
10015208:	f7ff ba47 	b.w	1001469a <_dtoa_r+0x262>
1001520c:	9b02      	ldr	r3, [sp, #8]
1001520e:	2500      	movs	r5, #0
10015210:	63dd      	str	r5, [r3, #60]	@ 0x3c
10015212:	4629      	mov	r1, r5
10015214:	4618      	mov	r0, r3
10015216:	f003 ffb3 	bl	10019180 <_Balloc>
1001521a:	9003      	str	r0, [sp, #12]
1001521c:	b9a8      	cbnz	r0, 1001524a <_dtoa_r+0xe12>
1001521e:	4b14      	ldr	r3, [pc, #80]	@ (10015270 <_dtoa_r+0xe38>)
10015220:	4814      	ldr	r0, [pc, #80]	@ (10015274 <_dtoa_r+0xe3c>)
10015222:	2200      	movs	r2, #0
10015224:	f240 11af 	movw	r1, #431	@ 0x1af
10015228:	f003 fe5c 	bl	10018ee4 <__assert_func>
1001522c:	2a00      	cmp	r2, #0
1001522e:	f77f ad70 	ble.w	10014d12 <_dtoa_r+0x8da>
10015232:	e55b      	b.n	10014cec <_dtoa_r+0x8b4>
10015234:	4b0e      	ldr	r3, [pc, #56]	@ (10015270 <_dtoa_r+0xe38>)
10015236:	480f      	ldr	r0, [pc, #60]	@ (10015274 <_dtoa_r+0xe3c>)
10015238:	462a      	mov	r2, r5
1001523a:	f240 21ef 	movw	r1, #751	@ 0x2ef
1001523e:	f003 fe51 	bl	10018ee4 <__assert_func>
10015242:	4b0d      	ldr	r3, [pc, #52]	@ (10015278 <_dtoa_r+0xe40>)
10015244:	9303      	str	r3, [sp, #12]
10015246:	f7ff b932 	b.w	100144ae <_dtoa_r+0x76>
1001524a:	e9dd 3202 	ldrd	r3, r2, [sp, #8]
1001524e:	639a      	str	r2, [r3, #56]	@ 0x38
10015250:	f04f 33ff 	mov.w	r3, #4294967295	@ 0xffffffff
10015254:	2201      	movs	r2, #1
10015256:	9527      	str	r5, [sp, #156]	@ 0x9c
10015258:	9316      	str	r3, [sp, #88]	@ 0x58
1001525a:	920a      	str	r2, [sp, #40]	@ 0x28
1001525c:	9308      	str	r3, [sp, #32]
1001525e:	f7ff bb3e 	b.w	100148de <_dtoa_r+0x4a6>
10015262:	bf00      	nop
10015264:	40240000 	.word	0x40240000
10015268:	3fe00000 	.word	0x3fe00000
1001526c:	401c0000 	.word	0x401c0000
10015270:	1001b250 	.word	0x1001b250
10015274:	1001b264 	.word	0x1001b264
10015278:	1001b240 	.word	0x1001b240

1001527c <stdio_exit_handler>:
1001527c:	4a02      	ldr	r2, [pc, #8]	@ (10015288 <stdio_exit_handler+0xc>)
1001527e:	4903      	ldr	r1, [pc, #12]	@ (1001528c <stdio_exit_handler+0x10>)
10015280:	4803      	ldr	r0, [pc, #12]	@ (10015290 <stdio_exit_handler+0x14>)
10015282:	f000 bded 	b.w	10015e60 <_fwalk_sglue>
10015286:	bf00      	nop
10015288:	200006e0 	.word	0x200006e0
1001528c:	10018f25 	.word	0x10018f25
10015290:	200005c0 	.word	0x200005c0

10015294 <cleanup_stdio>:
10015294:	4b0c      	ldr	r3, [pc, #48]	@ (100152c8 <cleanup_stdio+0x34>)
10015296:	6841      	ldr	r1, [r0, #4]
10015298:	4299      	cmp	r1, r3
1001529a:	b510      	push	{r4, lr}
1001529c:	4604      	mov	r4, r0
1001529e:	d001      	beq.n	100152a4 <cleanup_stdio+0x10>
100152a0:	f003 fe40 	bl	10018f24 <_fclose_r>
100152a4:	68a1      	ldr	r1, [r4, #8]
100152a6:	4b09      	ldr	r3, [pc, #36]	@ (100152cc <cleanup_stdio+0x38>)
100152a8:	4299      	cmp	r1, r3
100152aa:	d002      	beq.n	100152b2 <cleanup_stdio+0x1e>
100152ac:	4620      	mov	r0, r4
100152ae:	f003 fe39 	bl	10018f24 <_fclose_r>
100152b2:	68e1      	ldr	r1, [r4, #12]
100152b4:	4b06      	ldr	r3, [pc, #24]	@ (100152d0 <cleanup_stdio+0x3c>)
100152b6:	4299      	cmp	r1, r3
100152b8:	d004      	beq.n	100152c4 <cleanup_stdio+0x30>
100152ba:	4620      	mov	r0, r4
100152bc:	e8bd 4010 	ldmia.w	sp!, {r4, lr}
100152c0:	f003 be30 	b.w	10018f24 <_fclose_r>
100152c4:	bd10      	pop	{r4, pc}
100152c6:	bf00      	nop
100152c8:	20001470 	.word	0x20001470
100152cc:	200014d8 	.word	0x200014d8
100152d0:	20001540 	.word	0x20001540

100152d4 <global_stdio_init.part.0>:
100152d4:	e92d 43f8 	stmdb	sp!, {r3, r4, r5, r6, r7, r8, r9, lr}
100152d8:	4c31      	ldr	r4, [pc, #196]	@ (100153a0 <global_stdio_init.part.0+0xcc>)
100152da:	4b32      	ldr	r3, [pc, #200]	@ (100153a4 <global_stdio_init.part.0+0xd0>)
100152dc:	4832      	ldr	r0, [pc, #200]	@ (100153a8 <global_stdio_init.part.0+0xd4>)
100152de:	f8df 90dc 	ldr.w	r9, [pc, #220]	@ 100153bc <global_stdio_init.part.0+0xe8>
100152e2:	f8df 80dc 	ldr.w	r8, [pc, #220]	@ 100153c0 <global_stdio_init.part.0+0xec>
100152e6:	4f31      	ldr	r7, [pc, #196]	@ (100153ac <global_stdio_init.part.0+0xd8>)
100152e8:	6018      	str	r0, [r3, #0]
100152ea:	2500      	movs	r5, #0
100152ec:	4629      	mov	r1, r5
100152ee:	2304      	movs	r3, #4
100152f0:	2208      	movs	r2, #8
100152f2:	f104 005c 	add.w	r0, r4, #92	@ 0x5c
100152f6:	4e2e      	ldr	r6, [pc, #184]	@ (100153b0 <global_stdio_init.part.0+0xdc>)
100152f8:	60e3      	str	r3, [r4, #12]
100152fa:	e9c4 5500 	strd	r5, r5, [r4]
100152fe:	e9c4 5504 	strd	r5, r5, [r4, #16]
10015302:	60a5      	str	r5, [r4, #8]
10015304:	6665      	str	r5, [r4, #100]	@ 0x64
10015306:	61a5      	str	r5, [r4, #24]
10015308:	f7fe fea6 	bl	10014058 <memset>
1001530c:	f104 0058 	add.w	r0, r4, #88	@ 0x58
10015310:	e9c4 4907 	strd	r4, r9, [r4, #28]
10015314:	e9c4 8709 	strd	r8, r7, [r4, #36]	@ 0x24
10015318:	62e6      	str	r6, [r4, #44]	@ 0x2c
1001531a:	f7fe ff51 	bl	100141c0 <__retarget_lock_init_recursive>
1001531e:	4629      	mov	r1, r5
10015320:	4b24      	ldr	r3, [pc, #144]	@ (100153b4 <global_stdio_init.part.0+0xe0>)
10015322:	6763      	str	r3, [r4, #116]	@ 0x74
10015324:	2208      	movs	r2, #8
10015326:	f104 00c4 	add.w	r0, r4, #196	@ 0xc4
1001532a:	e9c4 551a 	strd	r5, r5, [r4, #104]	@ 0x68
1001532e:	e9c4 551e 	strd	r5, r5, [r4, #120]	@ 0x78
10015332:	6725      	str	r5, [r4, #112]	@ 0x70
10015334:	f8c4 50cc 	str.w	r5, [r4, #204]	@ 0xcc
10015338:	f8c4 5080 	str.w	r5, [r4, #128]	@ 0x80
1001533c:	f7fe fe8c 	bl	10014058 <memset>
10015340:	f104 0368 	add.w	r3, r4, #104	@ 0x68
10015344:	f104 00c0 	add.w	r0, r4, #192	@ 0xc0
10015348:	f8c4 3084 	str.w	r3, [r4, #132]	@ 0x84
1001534c:	e9c4 9822 	strd	r9, r8, [r4, #136]	@ 0x88
10015350:	e9c4 7624 	strd	r7, r6, [r4, #144]	@ 0x90
10015354:	f7fe ff34 	bl	100141c0 <__retarget_lock_init_recursive>
10015358:	4b17      	ldr	r3, [pc, #92]	@ (100153b8 <global_stdio_init.part.0+0xe4>)
1001535a:	f8c4 30dc 	str.w	r3, [r4, #220]	@ 0xdc
1001535e:	4629      	mov	r1, r5
10015360:	f504 7096 	add.w	r0, r4, #300	@ 0x12c
10015364:	2208      	movs	r2, #8
10015366:	e9c4 5534 	strd	r5, r5, [r4, #208]	@ 0xd0
1001536a:	e9c4 5538 	strd	r5, r5, [r4, #224]	@ 0xe0
1001536e:	f8c4 50d8 	str.w	r5, [r4, #216]	@ 0xd8
10015372:	f8c4 5134 	str.w	r5, [r4, #308]	@ 0x134
10015376:	f8c4 50e8 	str.w	r5, [r4, #232]	@ 0xe8
1001537a:	f7fe fe6d 	bl	10014058 <memset>
1001537e:	f104 03d0 	add.w	r3, r4, #208	@ 0xd0
10015382:	e9c4 873d 	strd	r8, r7, [r4, #244]	@ 0xf4
10015386:	f8c4 90f0 	str.w	r9, [r4, #240]	@ 0xf0
1001538a:	f504 7094 	add.w	r0, r4, #296	@ 0x128
1001538e:	f8c4 60fc 	str.w	r6, [r4, #252]	@ 0xfc
10015392:	f8c4 30ec 	str.w	r3, [r4, #236]	@ 0xec
10015396:	e8bd 43f8 	ldmia.w	sp!, {r3, r4, r5, r6, r7, r8, r9, lr}
1001539a:	f7fe bf11 	b.w	100141c0 <__retarget_lock_init_recursive>
1001539e:	bf00      	nop
100153a0:	20001470 	.word	0x20001470
100153a4:	200015a8 	.word	0x200015a8
100153a8:	1001527d 	.word	0x1001527d
100153ac:	10015ac9 	.word	0x10015ac9
100153b0:	10015aed 	.word	0x10015aed
100153b4:	00010009 	.word	0x00010009
100153b8:	00020012 	.word	0x00020012
100153bc:	10015a65 	.word	0x10015a65
100153c0:	10015a89 	.word	0x10015a89

100153c4 <__sinit>:
100153c4:	b510      	push	{r4, lr}
100153c6:	4604      	mov	r4, r0
100153c8:	480a      	ldr	r0, [pc, #40]	@ (100153f4 <__sinit+0x30>)
100153ca:	f7fe fefd 	bl	100141c8 <__retarget_lock_acquire_recursive>
100153ce:	6b63      	ldr	r3, [r4, #52]	@ 0x34
100153d0:	b923      	cbnz	r3, 100153dc <__sinit+0x18>
100153d2:	4b09      	ldr	r3, [pc, #36]	@ (100153f8 <__sinit+0x34>)
100153d4:	4a09      	ldr	r2, [pc, #36]	@ (100153fc <__sinit+0x38>)
100153d6:	681b      	ldr	r3, [r3, #0]
100153d8:	6362      	str	r2, [r4, #52]	@ 0x34
100153da:	b123      	cbz	r3, 100153e6 <__sinit+0x22>
100153dc:	e8bd 4010 	ldmia.w	sp!, {r4, lr}
100153e0:	4804      	ldr	r0, [pc, #16]	@ (100153f4 <__sinit+0x30>)
100153e2:	f7fe bef3 	b.w	100141cc <__retarget_lock_release_recursive>
100153e6:	f7ff ff75 	bl	100152d4 <global_stdio_init.part.0>
100153ea:	e8bd 4010 	ldmia.w	sp!, {r4, lr}
100153ee:	4801      	ldr	r0, [pc, #4]	@ (100153f4 <__sinit+0x30>)
100153f0:	f7fe beec 	b.w	100141cc <__retarget_lock_release_recursive>
100153f4:	2000146c 	.word	0x2000146c
100153f8:	200015a8 	.word	0x200015a8
100153fc:	10015295 	.word	0x10015295

10015400 <__sfp_lock_acquire>:
10015400:	4801      	ldr	r0, [pc, #4]	@ (10015408 <__sfp_lock_acquire+0x8>)
10015402:	f7fe bee1 	b.w	100141c8 <__retarget_lock_acquire_recursive>
10015406:	bf00      	nop
10015408:	2000146c 	.word	0x2000146c

1001540c <__sfp_lock_release>:
1001540c:	4801      	ldr	r0, [pc, #4]	@ (10015414 <__sfp_lock_release+0x8>)
1001540e:	f7fe bedd 	b.w	100141cc <__retarget_lock_release_recursive>
10015412:	bf00      	nop
10015414:	2000146c 	.word	0x2000146c
	...

10015420 <memchr>:
10015420:	f001 01ff 	and.w	r1, r1, #255	@ 0xff
10015424:	2a10      	cmp	r2, #16
10015426:	db2b      	blt.n	10015480 <memchr+0x60>
10015428:	f010 0f07 	tst.w	r0, #7
1001542c:	d008      	beq.n	10015440 <memchr+0x20>
1001542e:	f810 3b01 	ldrb.w	r3, [r0], #1
10015432:	3a01      	subs	r2, #1
10015434:	428b      	cmp	r3, r1
10015436:	d02d      	beq.n	10015494 <memchr+0x74>
10015438:	f010 0f07 	tst.w	r0, #7
1001543c:	b342      	cbz	r2, 10015490 <memchr+0x70>
1001543e:	d1f6      	bne.n	1001542e <memchr+0xe>
10015440:	b4f0      	push	{r4, r5, r6, r7}
10015442:	ea41 2101 	orr.w	r1, r1, r1, lsl #8
10015446:	ea41 4101 	orr.w	r1, r1, r1, lsl #16
1001544a:	f022 0407 	bic.w	r4, r2, #7
1001544e:	f07f 0700 	mvns.w	r7, #0
10015452:	2300      	movs	r3, #0
10015454:	e8f0 5602 	ldrd	r5, r6, [r0], #8
10015458:	3c08      	subs	r4, #8
1001545a:	ea85 0501 	eor.w	r5, r5, r1
1001545e:	ea86 0601 	eor.w	r6, r6, r1
10015462:	fa85 f547 	uadd8	r5, r5, r7
10015466:	faa3 f587 	sel	r5, r3, r7
1001546a:	fa86 f647 	uadd8	r6, r6, r7
1001546e:	faa5 f687 	sel	r6, r5, r7
10015472:	b98e      	cbnz	r6, 10015498 <memchr+0x78>
10015474:	d1ee      	bne.n	10015454 <memchr+0x34>
10015476:	bcf0      	pop	{r4, r5, r6, r7}
10015478:	f001 01ff 	and.w	r1, r1, #255	@ 0xff
1001547c:	f002 0207 	and.w	r2, r2, #7
10015480:	b132      	cbz	r2, 10015490 <memchr+0x70>
10015482:	f810 3b01 	ldrb.w	r3, [r0], #1
10015486:	3a01      	subs	r2, #1
10015488:	ea83 0301 	eor.w	r3, r3, r1
1001548c:	b113      	cbz	r3, 10015494 <memchr+0x74>
1001548e:	d1f8      	bne.n	10015482 <memchr+0x62>
10015490:	2000      	movs	r0, #0
10015492:	4770      	bx	lr
10015494:	3801      	subs	r0, #1
10015496:	4770      	bx	lr
10015498:	2d00      	cmp	r5, #0
1001549a:	bf06      	itte	eq
1001549c:	4635      	moveq	r5, r6
1001549e:	3803      	subeq	r0, #3
100154a0:	3807      	subne	r0, #7
100154a2:	f015 0f01 	tst.w	r5, #1
100154a6:	d107      	bne.n	100154b8 <memchr+0x98>
100154a8:	3001      	adds	r0, #1
100154aa:	f415 7f80 	tst.w	r5, #256	@ 0x100
100154ae:	bf02      	ittt	eq
100154b0:	3001      	addeq	r0, #1
100154b2:	f415 3fc0 	tsteq.w	r5, #98304	@ 0x18000
100154b6:	3001      	addeq	r0, #1
100154b8:	bcf0      	pop	{r4, r5, r6, r7}
100154ba:	3801      	subs	r0, #1
100154bc:	4770      	bx	lr
100154be:	bf00      	nop

100154c0 <memcpy>:
100154c0:	4684      	mov	ip, r0
100154c2:	ea41 0300 	orr.w	r3, r1, r0
100154c6:	f013 0303 	ands.w	r3, r3, #3
100154ca:	d16d      	bne.n	100155a8 <memcpy+0xe8>
100154cc:	3a40      	subs	r2, #64	@ 0x40
100154ce:	d341      	bcc.n	10015554 <memcpy+0x94>
100154d0:	f851 3b04 	ldr.w	r3, [r1], #4
100154d4:	f840 3b04 	str.w	r3, [r0], #4
100154d8:	f851 3b04 	ldr.w	r3, [r1], #4
100154dc:	f840 3b04 	str.w	r3, [r0], #4
100154e0:	f851 3b04 	ldr.w	r3, [r1], #4
100154e4:	f840 3b04 	str.w	r3, [r0], #4
100154e8:	f851 3b04 	ldr.w	r3, [r1], #4
100154ec:	f840 3b04 	str.w	r3, [r0], #4
100154f0:	f851 3b04 	ldr.w	r3, [r1], #4
100154f4:	f840 3b04 	str.w	r3, [r0], #4
100154f8:	f851 3b04 	ldr.w	r3, [r1], #4
100154fc:	f840 3b04 	str.w	r3, [r0], #4
10015500:	f851 3b04 	ldr.w	r3, [r1], #4
10015504:	f840 3b04 	str.w	r3, [r0], #4
10015508:	f851 3b04 	ldr.w	r3, [r1], #4
1001550c:	f840 3b04 	str.w	r3, [r0], #4
10015510:	f851 3b04 	ldr.w	r3, [r1], #4
10015514:	f840 3b04 	str.w	r3, [r0], #4
10015518:	f851 3b04 	ldr.w	r3, [r1], #4
1001551c:	f840 3b04 	str.w	r3, [r0], #4
10015520:	f851 3b04 	ldr.w	r3, [r1], #4
10015524:	f840 3b04 	str.w	r3, [r0], #4
10015528:	f851 3b04 	ldr.w	r3, [r1], #4
1001552c:	f840 3b04 	str.w	r3, [r0], #4
10015530:	f851 3b04 	ldr.w	r3, [r1], #4
10015534:	f840 3b04 	str.w	r3, [r0], #4
10015538:	f851 3b04 	ldr.w	r3, [r1], #4
1001553c:	f840 3b04 	str.w	r3, [r0], #4
10015540:	f851 3b04 	ldr.w	r3, [r1], #4
10015544:	f840 3b04 	str.w	r3, [r0], #4
10015548:	f851 3b04 	ldr.w	r3, [r1], #4
1001554c:	f840 3b04 	str.w	r3, [r0], #4
10015550:	3a40      	subs	r2, #64	@ 0x40
10015552:	d2bd      	bcs.n	100154d0 <memcpy+0x10>
10015554:	3230      	adds	r2, #48	@ 0x30
10015556:	d311      	bcc.n	1001557c <memcpy+0xbc>
10015558:	f851 3b04 	ldr.w	r3, [r1], #4
1001555c:	f840 3b04 	str.w	r3, [r0], #4
10015560:	f851 3b04 	ldr.w	r3, [r1], #4
10015564:	f840 3b04 	str.w	r3, [r0], #4
10015568:	f851 3b04 	ldr.w	r3, [r1], #4
1001556c:	f840 3b04 	str.w	r3, [r0], #4
10015570:	f851 3b04 	ldr.w	r3, [r1], #4
10015574:	f840 3b04 	str.w	r3, [r0], #4
10015578:	3a10      	subs	r2, #16
1001557a:	d2ed      	bcs.n	10015558 <memcpy+0x98>
1001557c:	320c      	adds	r2, #12
1001557e:	d305      	bcc.n	1001558c <memcpy+0xcc>
10015580:	f851 3b04 	ldr.w	r3, [r1], #4
10015584:	f840 3b04 	str.w	r3, [r0], #4
10015588:	3a04      	subs	r2, #4
1001558a:	d2f9      	bcs.n	10015580 <memcpy+0xc0>
1001558c:	3204      	adds	r2, #4
1001558e:	d008      	beq.n	100155a2 <memcpy+0xe2>
10015590:	07d2      	lsls	r2, r2, #31
10015592:	bf1c      	itt	ne
10015594:	f811 3b01 	ldrbne.w	r3, [r1], #1
10015598:	f800 3b01 	strbne.w	r3, [r0], #1
1001559c:	d301      	bcc.n	100155a2 <memcpy+0xe2>
1001559e:	880b      	ldrh	r3, [r1, #0]
100155a0:	8003      	strh	r3, [r0, #0]
100155a2:	4660      	mov	r0, ip
100155a4:	4770      	bx	lr
100155a6:	bf00      	nop
100155a8:	2a08      	cmp	r2, #8
100155aa:	d313      	bcc.n	100155d4 <memcpy+0x114>
100155ac:	078b      	lsls	r3, r1, #30
100155ae:	d08d      	beq.n	100154cc <memcpy+0xc>
100155b0:	f010 0303 	ands.w	r3, r0, #3
100155b4:	d08a      	beq.n	100154cc <memcpy+0xc>
100155b6:	f1c3 0304 	rsb	r3, r3, #4
100155ba:	1ad2      	subs	r2, r2, r3
100155bc:	07db      	lsls	r3, r3, #31
100155be:	bf1c      	itt	ne
100155c0:	f811 3b01 	ldrbne.w	r3, [r1], #1
100155c4:	f800 3b01 	strbne.w	r3, [r0], #1
100155c8:	d380      	bcc.n	100154cc <memcpy+0xc>
100155ca:	f831 3b02 	ldrh.w	r3, [r1], #2
100155ce:	f820 3b02 	strh.w	r3, [r0], #2
100155d2:	e77b      	b.n	100154cc <memcpy+0xc>
100155d4:	3a04      	subs	r2, #4
100155d6:	d3d9      	bcc.n	1001558c <memcpy+0xcc>
100155d8:	3a01      	subs	r2, #1
100155da:	f811 3b01 	ldrb.w	r3, [r1], #1
100155de:	f800 3b01 	strb.w	r3, [r0], #1
100155e2:	d2f9      	bcs.n	100155d8 <memcpy+0x118>
100155e4:	780b      	ldrb	r3, [r1, #0]
100155e6:	7003      	strb	r3, [r0, #0]
100155e8:	784b      	ldrb	r3, [r1, #1]
100155ea:	7043      	strb	r3, [r0, #1]
100155ec:	788b      	ldrb	r3, [r1, #2]
100155ee:	7083      	strb	r3, [r0, #2]
100155f0:	4660      	mov	r0, ip
100155f2:	4770      	bx	lr
	...

10015600 <strlen>:
10015600:	b430      	push	{r4, r5}
10015602:	f890 f000 	pld	[r0]
10015606:	f020 0107 	bic.w	r1, r0, #7
1001560a:	f06f 0c00 	mvn.w	ip, #0
1001560e:	f010 0407 	ands.w	r4, r0, #7
10015612:	f891 f020 	pld	[r1, #32]
10015616:	f040 8048 	bne.w	100156aa <strlen+0xaa>
1001561a:	f04f 0400 	mov.w	r4, #0
1001561e:	f06f 0007 	mvn.w	r0, #7
10015622:	e9d1 2300 	ldrd	r2, r3, [r1]
10015626:	f891 f040 	pld	[r1, #64]	@ 0x40
1001562a:	f100 0008 	add.w	r0, r0, #8
1001562e:	fa82 f24c 	uadd8	r2, r2, ip
10015632:	faa4 f28c 	sel	r2, r4, ip
10015636:	fa83 f34c 	uadd8	r3, r3, ip
1001563a:	faa2 f38c 	sel	r3, r2, ip
1001563e:	bb4b      	cbnz	r3, 10015694 <strlen+0x94>
10015640:	e9d1 2302 	ldrd	r2, r3, [r1, #8]
10015644:	fa82 f24c 	uadd8	r2, r2, ip
10015648:	f100 0008 	add.w	r0, r0, #8
1001564c:	faa4 f28c 	sel	r2, r4, ip
10015650:	fa83 f34c 	uadd8	r3, r3, ip
10015654:	faa2 f38c 	sel	r3, r2, ip
10015658:	b9e3      	cbnz	r3, 10015694 <strlen+0x94>
1001565a:	e9d1 2304 	ldrd	r2, r3, [r1, #16]
1001565e:	fa82 f24c 	uadd8	r2, r2, ip
10015662:	f100 0008 	add.w	r0, r0, #8
10015666:	faa4 f28c 	sel	r2, r4, ip
1001566a:	fa83 f34c 	uadd8	r3, r3, ip
1001566e:	faa2 f38c 	sel	r3, r2, ip
10015672:	b97b      	cbnz	r3, 10015694 <strlen+0x94>
10015674:	e9d1 2306 	ldrd	r2, r3, [r1, #24]
10015678:	f101 0120 	add.w	r1, r1, #32
1001567c:	fa82 f24c 	uadd8	r2, r2, ip
10015680:	f100 0008 	add.w	r0, r0, #8
10015684:	faa4 f28c 	sel	r2, r4, ip
10015688:	fa83 f34c 	uadd8	r3, r3, ip
1001568c:	faa2 f38c 	sel	r3, r2, ip
10015690:	2b00      	cmp	r3, #0
10015692:	d0c6      	beq.n	10015622 <strlen+0x22>
10015694:	2a00      	cmp	r2, #0
10015696:	bf04      	itt	eq
10015698:	3004      	addeq	r0, #4
1001569a:	461a      	moveq	r2, r3
1001569c:	ba12      	rev	r2, r2
1001569e:	fab2 f282 	clz	r2, r2
100156a2:	eb00 00d2 	add.w	r0, r0, r2, lsr #3
100156a6:	bc30      	pop	{r4, r5}
100156a8:	4770      	bx	lr
100156aa:	e9d1 2300 	ldrd	r2, r3, [r1]
100156ae:	f004 0503 	and.w	r5, r4, #3
100156b2:	f1c4 0000 	rsb	r0, r4, #0
100156b6:	ea4f 05c5 	mov.w	r5, r5, lsl #3
100156ba:	f014 0f04 	tst.w	r4, #4
100156be:	f891 f040 	pld	[r1, #64]	@ 0x40
100156c2:	fa0c f505 	lsl.w	r5, ip, r5
100156c6:	ea62 0205 	orn	r2, r2, r5
100156ca:	bf1c      	itt	ne
100156cc:	ea63 0305 	ornne	r3, r3, r5
100156d0:	4662      	movne	r2, ip
100156d2:	f04f 0400 	mov.w	r4, #0
100156d6:	e7aa      	b.n	1001562e <strlen+0x2e>

100156d8 <frexp>:
100156d8:	f8df c064 	ldr.w	ip, [pc, #100]	@ 10015740 <frexp+0x68>
100156dc:	b5f8      	push	{r3, r4, r5, r6, r7, lr}
100156de:	f021 4300 	bic.w	r3, r1, #2147483648	@ 0x80000000
100156e2:	2700      	movs	r7, #0
100156e4:	4563      	cmp	r3, ip
100156e6:	4604      	mov	r4, r0
100156e8:	460d      	mov	r5, r1
100156ea:	4616      	mov	r6, r2
100156ec:	6017      	str	r7, [r2, #0]
100156ee:	d822      	bhi.n	10015736 <frexp+0x5e>
100156f0:	4684      	mov	ip, r0
100156f2:	ea53 0c0c 	orrs.w	ip, r3, ip
100156f6:	d01e      	beq.n	10015736 <frexp+0x5e>
100156f8:	f8df c048 	ldr.w	ip, [pc, #72]	@ 10015744 <frexp+0x6c>
100156fc:	ea01 0c0c 	and.w	ip, r1, ip
10015700:	460a      	mov	r2, r1
10015702:	f1bc 0f00 	cmp.w	ip, #0
10015706:	d109      	bne.n	1001571c <frexp+0x44>
10015708:	4b0c      	ldr	r3, [pc, #48]	@ (1001573c <frexp+0x64>)
1001570a:	2200      	movs	r2, #0
1001570c:	f004 ff78 	bl	1001a600 <__aeabi_dmul>
10015710:	f06f 0735 	mvn.w	r7, #53	@ 0x35
10015714:	4604      	mov	r4, r0
10015716:	460a      	mov	r2, r1
10015718:	f021 4300 	bic.w	r3, r1, #2147483648	@ 0x80000000
1001571c:	f022 42ff 	bic.w	r2, r2, #2139095040	@ 0x7f800000
10015720:	151b      	asrs	r3, r3, #20
10015722:	f422 02e0 	bic.w	r2, r2, #7340032	@ 0x700000
10015726:	f2a3 33fe 	subw	r3, r3, #1022	@ 0x3fe
1001572a:	f042 557f 	orr.w	r5, r2, #1069547520	@ 0x3fc00000
1001572e:	443b      	add	r3, r7
10015730:	f445 1500 	orr.w	r5, r5, #2097152	@ 0x200000
10015734:	6033      	str	r3, [r6, #0]
10015736:	4620      	mov	r0, r4
10015738:	4629      	mov	r1, r5
1001573a:	bdf8      	pop	{r3, r4, r5, r6, r7, pc}
1001573c:	43500000 	.word	0x43500000
10015740:	7fefffff 	.word	0x7fefffff
10015744:	7ff00000 	.word	0x7ff00000

10015748 <_malloc_trim_r>:
10015748:	e92d 43f8 	stmdb	sp!, {r3, r4, r5, r6, r7, r8, r9, lr}
1001574c:	4606      	mov	r6, r0
1001574e:	2008      	movs	r0, #8
10015750:	4689      	mov	r9, r1
10015752:	f7fe fd47 	bl	100141e4 <sysconf>
10015756:	f8df 80a4 	ldr.w	r8, [pc, #164]	@ 100157fc <_malloc_trim_r+0xb4>
1001575a:	4605      	mov	r5, r0
1001575c:	4630      	mov	r0, r6
1001575e:	f7fe fdb7 	bl	100142d0 <__malloc_lock>
10015762:	f8d8 3008 	ldr.w	r3, [r8, #8]
10015766:	685f      	ldr	r7, [r3, #4]
10015768:	f027 0703 	bic.w	r7, r7, #3
1001576c:	f1a7 0411 	sub.w	r4, r7, #17
10015770:	eba4 0409 	sub.w	r4, r4, r9
10015774:	442c      	add	r4, r5
10015776:	fbb4 f4f5 	udiv	r4, r4, r5
1001577a:	3c01      	subs	r4, #1
1001577c:	fb05 f404 	mul.w	r4, r5, r4
10015780:	42a5      	cmp	r5, r4
10015782:	dc08      	bgt.n	10015796 <_malloc_trim_r+0x4e>
10015784:	2100      	movs	r1, #0
10015786:	4630      	mov	r0, r6
10015788:	f000 f9c2 	bl	10015b10 <_sbrk_r>
1001578c:	f8d8 3008 	ldr.w	r3, [r8, #8]
10015790:	443b      	add	r3, r7
10015792:	4298      	cmp	r0, r3
10015794:	d005      	beq.n	100157a2 <_malloc_trim_r+0x5a>
10015796:	4630      	mov	r0, r6
10015798:	f7fe fda0 	bl	100142dc <__malloc_unlock>
1001579c:	2000      	movs	r0, #0
1001579e:	e8bd 83f8 	ldmia.w	sp!, {r3, r4, r5, r6, r7, r8, r9, pc}
100157a2:	4261      	negs	r1, r4
100157a4:	4630      	mov	r0, r6
100157a6:	f000 f9b3 	bl	10015b10 <_sbrk_r>
100157aa:	3001      	adds	r0, #1
100157ac:	d00f      	beq.n	100157ce <_malloc_trim_r+0x86>
100157ae:	4a11      	ldr	r2, [pc, #68]	@ (100157f4 <_malloc_trim_r+0xac>)
100157b0:	f8d8 3008 	ldr.w	r3, [r8, #8]
100157b4:	1b3f      	subs	r7, r7, r4
100157b6:	f047 0701 	orr.w	r7, r7, #1
100157ba:	605f      	str	r7, [r3, #4]
100157bc:	6813      	ldr	r3, [r2, #0]
100157be:	4630      	mov	r0, r6
100157c0:	1b1b      	subs	r3, r3, r4
100157c2:	6013      	str	r3, [r2, #0]
100157c4:	f7fe fd8a 	bl	100142dc <__malloc_unlock>
100157c8:	2001      	movs	r0, #1
100157ca:	e8bd 83f8 	ldmia.w	sp!, {r3, r4, r5, r6, r7, r8, r9, pc}
100157ce:	2100      	movs	r1, #0
100157d0:	4630      	mov	r0, r6
100157d2:	f000 f99d 	bl	10015b10 <_sbrk_r>
100157d6:	f8d8 2008 	ldr.w	r2, [r8, #8]
100157da:	1a83      	subs	r3, r0, r2
100157dc:	2b0f      	cmp	r3, #15
100157de:	ddda      	ble.n	10015796 <_malloc_trim_r+0x4e>
100157e0:	f043 0301 	orr.w	r3, r3, #1
100157e4:	6053      	str	r3, [r2, #4]
100157e6:	4b04      	ldr	r3, [pc, #16]	@ (100157f8 <_malloc_trim_r+0xb0>)
100157e8:	4902      	ldr	r1, [pc, #8]	@ (100157f4 <_malloc_trim_r+0xac>)
100157ea:	681b      	ldr	r3, [r3, #0]
100157ec:	1ac0      	subs	r0, r0, r3
100157ee:	6008      	str	r0, [r1, #0]
100157f0:	e7d1      	b.n	10015796 <_malloc_trim_r+0x4e>
100157f2:	bf00      	nop
100157f4:	2000142c 	.word	0x2000142c
100157f8:	20000038 	.word	0x20000038
100157fc:	20000040 	.word	0x20000040

10015800 <_free_r>:
10015800:	2900      	cmp	r1, #0
10015802:	d07c      	beq.n	100158fe <_free_r+0xfe>
10015804:	e92d 41f0 	stmdb	sp!, {r4, r5, r6, r7, r8, lr}
10015808:	460c      	mov	r4, r1
1001580a:	4680      	mov	r8, r0
1001580c:	f7fe fd60 	bl	100142d0 <__malloc_lock>
10015810:	f854 3c04 	ldr.w	r3, [r4, #-4]
10015814:	4f76      	ldr	r7, [pc, #472]	@ (100159f0 <_free_r+0x1f0>)
10015816:	f1a4 0508 	sub.w	r5, r4, #8
1001581a:	f023 0101 	bic.w	r1, r3, #1
1001581e:	1868      	adds	r0, r5, r1
10015820:	68be      	ldr	r6, [r7, #8]
10015822:	6842      	ldr	r2, [r0, #4]
10015824:	4286      	cmp	r6, r0
10015826:	f022 0203 	bic.w	r2, r2, #3
1001582a:	f000 8083 	beq.w	10015934 <_free_r+0x134>
1001582e:	07de      	lsls	r6, r3, #31
10015830:	6042      	str	r2, [r0, #4]
10015832:	eb00 0c02 	add.w	ip, r0, r2
10015836:	d433      	bmi.n	100158a0 <_free_r+0xa0>
10015838:	f854 4c08 	ldr.w	r4, [r4, #-8]
1001583c:	f8dc 3004 	ldr.w	r3, [ip, #4]
10015840:	1b2d      	subs	r5, r5, r4
10015842:	4421      	add	r1, r4
10015844:	68ac      	ldr	r4, [r5, #8]
10015846:	f107 0c08 	add.w	ip, r7, #8
1001584a:	4564      	cmp	r4, ip
1001584c:	f003 0301 	and.w	r3, r3, #1
10015850:	d064      	beq.n	1001591c <_free_r+0x11c>
10015852:	f8d5 e00c 	ldr.w	lr, [r5, #12]
10015856:	f8c4 e00c 	str.w	lr, [r4, #12]
1001585a:	f8ce 4008 	str.w	r4, [lr, #8]
1001585e:	2b00      	cmp	r3, #0
10015860:	f000 8081 	beq.w	10015966 <_free_r+0x166>
10015864:	f041 0301 	orr.w	r3, r1, #1
10015868:	606b      	str	r3, [r5, #4]
1001586a:	6001      	str	r1, [r0, #0]
1001586c:	f5b1 7f00 	cmp.w	r1, #512	@ 0x200
10015870:	d222      	bcs.n	100158b8 <_free_r+0xb8>
10015872:	6878      	ldr	r0, [r7, #4]
10015874:	08cb      	lsrs	r3, r1, #3
10015876:	2201      	movs	r2, #1
10015878:	0949      	lsrs	r1, r1, #5
1001587a:	3301      	adds	r3, #1
1001587c:	408a      	lsls	r2, r1
1001587e:	4302      	orrs	r2, r0
10015880:	f857 1033 	ldr.w	r1, [r7, r3, lsl #3]
10015884:	607a      	str	r2, [r7, #4]
10015886:	eb07 02c3 	add.w	r2, r7, r3, lsl #3
1001588a:	3a08      	subs	r2, #8
1001588c:	e9c5 1202 	strd	r1, r2, [r5, #8]
10015890:	f847 5033 	str.w	r5, [r7, r3, lsl #3]
10015894:	60cd      	str	r5, [r1, #12]
10015896:	4640      	mov	r0, r8
10015898:	e8bd 41f0 	ldmia.w	sp!, {r4, r5, r6, r7, r8, lr}
1001589c:	f7fe bd1e 	b.w	100142dc <__malloc_unlock>
100158a0:	f8dc 3004 	ldr.w	r3, [ip, #4]
100158a4:	07db      	lsls	r3, r3, #31
100158a6:	d52b      	bpl.n	10015900 <_free_r+0x100>
100158a8:	f041 0301 	orr.w	r3, r1, #1
100158ac:	f5b1 7f00 	cmp.w	r1, #512	@ 0x200
100158b0:	f844 3c04 	str.w	r3, [r4, #-4]
100158b4:	6001      	str	r1, [r0, #0]
100158b6:	d3dc      	bcc.n	10015872 <_free_r+0x72>
100158b8:	f5b1 6f20 	cmp.w	r1, #2560	@ 0xa00
100158bc:	ea4f 2351 	mov.w	r3, r1, lsr #9
100158c0:	d253      	bcs.n	1001596a <_free_r+0x16a>
100158c2:	098b      	lsrs	r3, r1, #6
100158c4:	f103 0039 	add.w	r0, r3, #57	@ 0x39
100158c8:	f103 0238 	add.w	r2, r3, #56	@ 0x38
100158cc:	00c3      	lsls	r3, r0, #3
100158ce:	18f8      	adds	r0, r7, r3
100158d0:	58fb      	ldr	r3, [r7, r3]
100158d2:	3808      	subs	r0, #8
100158d4:	4298      	cmp	r0, r3
100158d6:	d103      	bne.n	100158e0 <_free_r+0xe0>
100158d8:	e063      	b.n	100159a2 <_free_r+0x1a2>
100158da:	689b      	ldr	r3, [r3, #8]
100158dc:	4298      	cmp	r0, r3
100158de:	d004      	beq.n	100158ea <_free_r+0xea>
100158e0:	685a      	ldr	r2, [r3, #4]
100158e2:	f022 0203 	bic.w	r2, r2, #3
100158e6:	428a      	cmp	r2, r1
100158e8:	d8f7      	bhi.n	100158da <_free_r+0xda>
100158ea:	68d8      	ldr	r0, [r3, #12]
100158ec:	e9c5 3002 	strd	r3, r0, [r5, #8]
100158f0:	6085      	str	r5, [r0, #8]
100158f2:	60dd      	str	r5, [r3, #12]
100158f4:	4640      	mov	r0, r8
100158f6:	e8bd 41f0 	ldmia.w	sp!, {r4, r5, r6, r7, r8, lr}
100158fa:	f7fe bcef 	b.w	100142dc <__malloc_unlock>
100158fe:	4770      	bx	lr
10015900:	4411      	add	r1, r2
10015902:	f107 0c08 	add.w	ip, r7, #8
10015906:	6883      	ldr	r3, [r0, #8]
10015908:	4563      	cmp	r3, ip
1001590a:	d03f      	beq.n	1001598c <_free_r+0x18c>
1001590c:	68c2      	ldr	r2, [r0, #12]
1001590e:	60da      	str	r2, [r3, #12]
10015910:	6093      	str	r3, [r2, #8]
10015912:	f041 0301 	orr.w	r3, r1, #1
10015916:	606b      	str	r3, [r5, #4]
10015918:	5069      	str	r1, [r5, r1]
1001591a:	e7a7      	b.n	1001586c <_free_r+0x6c>
1001591c:	2b00      	cmp	r3, #0
1001591e:	d161      	bne.n	100159e4 <_free_r+0x1e4>
10015920:	440a      	add	r2, r1
10015922:	e9d0 1302 	ldrd	r1, r3, [r0, #8]
10015926:	60cb      	str	r3, [r1, #12]
10015928:	6099      	str	r1, [r3, #8]
1001592a:	f042 0301 	orr.w	r3, r2, #1
1001592e:	606b      	str	r3, [r5, #4]
10015930:	50aa      	str	r2, [r5, r2]
10015932:	e7b0      	b.n	10015896 <_free_r+0x96>
10015934:	07db      	lsls	r3, r3, #31
10015936:	440a      	add	r2, r1
10015938:	d407      	bmi.n	1001594a <_free_r+0x14a>
1001593a:	f854 3c08 	ldr.w	r3, [r4, #-8]
1001593e:	1aed      	subs	r5, r5, r3
10015940:	441a      	add	r2, r3
10015942:	e9d5 1302 	ldrd	r1, r3, [r5, #8]
10015946:	60cb      	str	r3, [r1, #12]
10015948:	6099      	str	r1, [r3, #8]
1001594a:	f042 0301 	orr.w	r3, r2, #1
1001594e:	606b      	str	r3, [r5, #4]
10015950:	4b28      	ldr	r3, [pc, #160]	@ (100159f4 <_free_r+0x1f4>)
10015952:	60bd      	str	r5, [r7, #8]
10015954:	681b      	ldr	r3, [r3, #0]
10015956:	4293      	cmp	r3, r2
10015958:	d89d      	bhi.n	10015896 <_free_r+0x96>
1001595a:	4b27      	ldr	r3, [pc, #156]	@ (100159f8 <_free_r+0x1f8>)
1001595c:	4640      	mov	r0, r8
1001595e:	6819      	ldr	r1, [r3, #0]
10015960:	f7ff fef2 	bl	10015748 <_malloc_trim_r>
10015964:	e797      	b.n	10015896 <_free_r+0x96>
10015966:	4411      	add	r1, r2
10015968:	e7cd      	b.n	10015906 <_free_r+0x106>
1001596a:	2b14      	cmp	r3, #20
1001596c:	d908      	bls.n	10015980 <_free_r+0x180>
1001596e:	2b54      	cmp	r3, #84	@ 0x54
10015970:	d81f      	bhi.n	100159b2 <_free_r+0x1b2>
10015972:	0b0b      	lsrs	r3, r1, #12
10015974:	f103 006f 	add.w	r0, r3, #111	@ 0x6f
10015978:	f103 026e 	add.w	r2, r3, #110	@ 0x6e
1001597c:	00c3      	lsls	r3, r0, #3
1001597e:	e7a6      	b.n	100158ce <_free_r+0xce>
10015980:	f103 005c 	add.w	r0, r3, #92	@ 0x5c
10015984:	f103 025b 	add.w	r2, r3, #91	@ 0x5b
10015988:	00c3      	lsls	r3, r0, #3
1001598a:	e7a0      	b.n	100158ce <_free_r+0xce>
1001598c:	f041 0301 	orr.w	r3, r1, #1
10015990:	613d      	str	r5, [r7, #16]
10015992:	617d      	str	r5, [r7, #20]
10015994:	f8c5 c008 	str.w	ip, [r5, #8]
10015998:	f8c5 c00c 	str.w	ip, [r5, #12]
1001599c:	606b      	str	r3, [r5, #4]
1001599e:	5069      	str	r1, [r5, r1]
100159a0:	e779      	b.n	10015896 <_free_r+0x96>
100159a2:	6879      	ldr	r1, [r7, #4]
100159a4:	1092      	asrs	r2, r2, #2
100159a6:	2401      	movs	r4, #1
100159a8:	fa04 f202 	lsl.w	r2, r4, r2
100159ac:	430a      	orrs	r2, r1
100159ae:	607a      	str	r2, [r7, #4]
100159b0:	e79c      	b.n	100158ec <_free_r+0xec>
100159b2:	f5b3 7faa 	cmp.w	r3, #340	@ 0x154
100159b6:	d806      	bhi.n	100159c6 <_free_r+0x1c6>
100159b8:	0bcb      	lsrs	r3, r1, #15
100159ba:	f103 0078 	add.w	r0, r3, #120	@ 0x78
100159be:	f103 0277 	add.w	r2, r3, #119	@ 0x77
100159c2:	00c3      	lsls	r3, r0, #3
100159c4:	e783      	b.n	100158ce <_free_r+0xce>
100159c6:	f240 5254 	movw	r2, #1364	@ 0x554
100159ca:	4293      	cmp	r3, r2
100159cc:	d806      	bhi.n	100159dc <_free_r+0x1dc>
100159ce:	0c8b      	lsrs	r3, r1, #18
100159d0:	f103 007d 	add.w	r0, r3, #125	@ 0x7d
100159d4:	f103 027c 	add.w	r2, r3, #124	@ 0x7c
100159d8:	00c3      	lsls	r3, r0, #3
100159da:	e778      	b.n	100158ce <_free_r+0xce>
100159dc:	f44f 737e 	mov.w	r3, #1016	@ 0x3f8
100159e0:	227e      	movs	r2, #126	@ 0x7e
100159e2:	e774      	b.n	100158ce <_free_r+0xce>
100159e4:	f041 0301 	orr.w	r3, r1, #1
100159e8:	606b      	str	r3, [r5, #4]
100159ea:	6001      	str	r1, [r0, #0]
100159ec:	e753      	b.n	10015896 <_free_r+0x96>
100159ee:	bf00      	nop
100159f0:	20000040 	.word	0x20000040
100159f4:	2000003c 	.word	0x2000003c
100159f8:	2000145c 	.word	0x2000145c

100159fc <strncpy>:
100159fc:	ea40 0301 	orr.w	r3, r0, r1
10015a00:	079b      	lsls	r3, r3, #30
10015a02:	b510      	push	{r4, lr}
10015a04:	d101      	bne.n	10015a0a <strncpy+0xe>
10015a06:	2a03      	cmp	r2, #3
10015a08:	d817      	bhi.n	10015a3a <strncpy+0x3e>
10015a0a:	4684      	mov	ip, r0
10015a0c:	f101 3eff 	add.w	lr, r1, #4294967295	@ 0xffffffff
10015a10:	e007      	b.n	10015a22 <strncpy+0x26>
10015a12:	f81e 1f01 	ldrb.w	r1, [lr, #1]!
10015a16:	f803 1b01 	strb.w	r1, [r3], #1
10015a1a:	1e54      	subs	r4, r2, #1
10015a1c:	b129      	cbz	r1, 10015a2a <strncpy+0x2e>
10015a1e:	469c      	mov	ip, r3
10015a20:	4622      	mov	r2, r4
10015a22:	4663      	mov	r3, ip
10015a24:	2a00      	cmp	r2, #0
10015a26:	d1f4      	bne.n	10015a12 <strncpy+0x16>
10015a28:	bd10      	pop	{r4, pc}
10015a2a:	4494      	add	ip, r2
10015a2c:	2c00      	cmp	r4, #0
10015a2e:	d0fb      	beq.n	10015a28 <strncpy+0x2c>
10015a30:	f803 1b01 	strb.w	r1, [r3], #1
10015a34:	4563      	cmp	r3, ip
10015a36:	d1fb      	bne.n	10015a30 <strncpy+0x34>
10015a38:	bd10      	pop	{r4, pc}
10015a3a:	468e      	mov	lr, r1
10015a3c:	4684      	mov	ip, r0
10015a3e:	f8de 4000 	ldr.w	r4, [lr]
10015a42:	f1a4 3301 	sub.w	r3, r4, #16843009	@ 0x1010101
10015a46:	ea23 0304 	bic.w	r3, r3, r4
10015a4a:	f013 3f80 	tst.w	r3, #2155905152	@ 0x80808080
10015a4e:	4671      	mov	r1, lr
10015a50:	f10e 0e04 	add.w	lr, lr, #4
10015a54:	d1da      	bne.n	10015a0c <strncpy+0x10>
10015a56:	3a04      	subs	r2, #4
10015a58:	2a03      	cmp	r2, #3
10015a5a:	f84c 4b04 	str.w	r4, [ip], #4
10015a5e:	d8ee      	bhi.n	10015a3e <strncpy+0x42>
10015a60:	4671      	mov	r1, lr
10015a62:	e7d3      	b.n	10015a0c <strncpy+0x10>

10015a64 <__sread>:
10015a64:	b510      	push	{r4, lr}
10015a66:	460c      	mov	r4, r1
10015a68:	f9b1 100e 	ldrsh.w	r1, [r1, #14]
10015a6c:	f004 fac0 	bl	10019ff0 <_read_r>
10015a70:	2800      	cmp	r0, #0
10015a72:	db03      	blt.n	10015a7c <__sread+0x18>
10015a74:	6d23      	ldr	r3, [r4, #80]	@ 0x50
10015a76:	4403      	add	r3, r0
10015a78:	6523      	str	r3, [r4, #80]	@ 0x50
10015a7a:	bd10      	pop	{r4, pc}
10015a7c:	89a3      	ldrh	r3, [r4, #12]
10015a7e:	f423 5380 	bic.w	r3, r3, #4096	@ 0x1000
10015a82:	81a3      	strh	r3, [r4, #12]
10015a84:	bd10      	pop	{r4, pc}
10015a86:	bf00      	nop

10015a88 <__swrite>:
10015a88:	e92d 41f0 	stmdb	sp!, {r4, r5, r6, r7, r8, lr}
10015a8c:	460c      	mov	r4, r1
10015a8e:	f9b1 100c 	ldrsh.w	r1, [r1, #12]
10015a92:	461f      	mov	r7, r3
10015a94:	05cb      	lsls	r3, r1, #23
10015a96:	4605      	mov	r5, r0
10015a98:	4616      	mov	r6, r2
10015a9a:	d40b      	bmi.n	10015ab4 <__swrite+0x2c>
10015a9c:	f421 5180 	bic.w	r1, r1, #4096	@ 0x1000
10015aa0:	81a1      	strh	r1, [r4, #12]
10015aa2:	463b      	mov	r3, r7
10015aa4:	f9b4 100e 	ldrsh.w	r1, [r4, #14]
10015aa8:	4632      	mov	r2, r6
10015aaa:	4628      	mov	r0, r5
10015aac:	e8bd 41f0 	ldmia.w	sp!, {r4, r5, r6, r7, r8, lr}
10015ab0:	f000 b9c0 	b.w	10015e34 <_write_r>
10015ab4:	f9b4 100e 	ldrsh.w	r1, [r4, #14]
10015ab8:	2302      	movs	r3, #2
10015aba:	2200      	movs	r2, #0
10015abc:	f004 fa82 	bl	10019fc4 <_lseek_r>
10015ac0:	f9b4 100c 	ldrsh.w	r1, [r4, #12]
10015ac4:	e7ea      	b.n	10015a9c <__swrite+0x14>
10015ac6:	bf00      	nop

10015ac8 <__sseek>:
10015ac8:	b510      	push	{r4, lr}
10015aca:	460c      	mov	r4, r1
10015acc:	f9b1 100e 	ldrsh.w	r1, [r1, #14]
10015ad0:	f004 fa78 	bl	10019fc4 <_lseek_r>
10015ad4:	f9b4 300c 	ldrsh.w	r3, [r4, #12]
10015ad8:	1c42      	adds	r2, r0, #1
10015ada:	bf0e      	itee	eq
10015adc:	f423 5380 	biceq.w	r3, r3, #4096	@ 0x1000
10015ae0:	f443 5380 	orrne.w	r3, r3, #4096	@ 0x1000
10015ae4:	6520      	strne	r0, [r4, #80]	@ 0x50
10015ae6:	81a3      	strh	r3, [r4, #12]
10015ae8:	bd10      	pop	{r4, pc}
10015aea:	bf00      	nop

10015aec <__sclose>:
10015aec:	f9b1 100e 	ldrsh.w	r1, [r1, #14]
10015af0:	f003 bfc6 	b.w	10019a80 <_close_r>

10015af4 <__ascii_wctomb>:
10015af4:	b149      	cbz	r1, 10015b0a <__ascii_wctomb+0x16>
10015af6:	2aff      	cmp	r2, #255	@ 0xff
10015af8:	d802      	bhi.n	10015b00 <__ascii_wctomb+0xc>
10015afa:	700a      	strb	r2, [r1, #0]
10015afc:	2001      	movs	r0, #1
10015afe:	4770      	bx	lr
10015b00:	238a      	movs	r3, #138	@ 0x8a
10015b02:	6003      	str	r3, [r0, #0]
10015b04:	f04f 30ff 	mov.w	r0, #4294967295	@ 0xffffffff
10015b08:	4770      	bx	lr
10015b0a:	4608      	mov	r0, r1
10015b0c:	4770      	bx	lr
10015b0e:	bf00      	nop

10015b10 <_sbrk_r>:
10015b10:	b538      	push	{r3, r4, r5, lr}
10015b12:	4d07      	ldr	r5, [pc, #28]	@ (10015b30 <_sbrk_r+0x20>)
10015b14:	2200      	movs	r2, #0
10015b16:	4604      	mov	r4, r0
10015b18:	4608      	mov	r0, r1
10015b1a:	602a      	str	r2, [r5, #0]
10015b1c:	f7fa ffc8 	bl	10010ab0 <_sbrk>
10015b20:	1c43      	adds	r3, r0, #1
10015b22:	d000      	beq.n	10015b26 <_sbrk_r+0x16>
10015b24:	bd38      	pop	{r3, r4, r5, pc}
10015b26:	682b      	ldr	r3, [r5, #0]
10015b28:	2b00      	cmp	r3, #0
10015b2a:	d0fb      	beq.n	10015b24 <_sbrk_r+0x14>
10015b2c:	6023      	str	r3, [r4, #0]
10015b2e:	bd38      	pop	{r3, r4, r5, pc}
10015b30:	2000173c 	.word	0x2000173c

10015b34 <__sfvwrite_r>:
10015b34:	6893      	ldr	r3, [r2, #8]
10015b36:	2b00      	cmp	r3, #0
10015b38:	f000 80f8 	beq.w	10015d2c <__sfvwrite_r+0x1f8>
10015b3c:	e92d 4ff0 	stmdb	sp!, {r4, r5, r6, r7, r8, r9, sl, fp, lr}
10015b40:	f9b1 c00c 	ldrsh.w	ip, [r1, #12]
10015b44:	f01c 0f08 	tst.w	ip, #8
10015b48:	b083      	sub	sp, #12
10015b4a:	4690      	mov	r8, r2
10015b4c:	4681      	mov	r9, r0
10015b4e:	460c      	mov	r4, r1
10015b50:	d031      	beq.n	10015bb6 <__sfvwrite_r+0x82>
10015b52:	690b      	ldr	r3, [r1, #16]
10015b54:	b37b      	cbz	r3, 10015bb6 <__sfvwrite_r+0x82>
10015b56:	f01c 0702 	ands.w	r7, ip, #2
10015b5a:	f8d8 6000 	ldr.w	r6, [r8]
10015b5e:	d038      	beq.n	10015bd2 <__sfvwrite_r+0x9e>
10015b60:	2700      	movs	r7, #0
10015b62:	f8d4 b024 	ldr.w	fp, [r4, #36]	@ 0x24
10015b66:	69e1      	ldr	r1, [r4, #28]
10015b68:	f8df a2c4 	ldr.w	sl, [pc, #708]	@ 10015e30 <__sfvwrite_r+0x2fc>
10015b6c:	463d      	mov	r5, r7
10015b6e:	4555      	cmp	r5, sl
10015b70:	462b      	mov	r3, r5
10015b72:	463a      	mov	r2, r7
10015b74:	bf28      	it	cs
10015b76:	4653      	movcs	r3, sl
10015b78:	4648      	mov	r0, r9
10015b7a:	b1c5      	cbz	r5, 10015bae <__sfvwrite_r+0x7a>
10015b7c:	47d8      	blx	fp
10015b7e:	2800      	cmp	r0, #0
10015b80:	f340 80ca 	ble.w	10015d18 <__sfvwrite_r+0x1e4>
10015b84:	f8d8 3008 	ldr.w	r3, [r8, #8]
10015b88:	1a1b      	subs	r3, r3, r0
10015b8a:	4407      	add	r7, r0
10015b8c:	1a2d      	subs	r5, r5, r0
10015b8e:	f8c8 3008 	str.w	r3, [r8, #8]
10015b92:	2b00      	cmp	r3, #0
10015b94:	f000 80b6 	beq.w	10015d04 <__sfvwrite_r+0x1d0>
10015b98:	4555      	cmp	r5, sl
10015b9a:	462b      	mov	r3, r5
10015b9c:	f8d4 b024 	ldr.w	fp, [r4, #36]	@ 0x24
10015ba0:	69e1      	ldr	r1, [r4, #28]
10015ba2:	bf28      	it	cs
10015ba4:	4653      	movcs	r3, sl
10015ba6:	463a      	mov	r2, r7
10015ba8:	4648      	mov	r0, r9
10015baa:	2d00      	cmp	r5, #0
10015bac:	d1e6      	bne.n	10015b7c <__sfvwrite_r+0x48>
10015bae:	e9d6 7500 	ldrd	r7, r5, [r6]
10015bb2:	3608      	adds	r6, #8
10015bb4:	e7db      	b.n	10015b6e <__sfvwrite_r+0x3a>
10015bb6:	4621      	mov	r1, r4
10015bb8:	4648      	mov	r0, r9
10015bba:	f003 fa13 	bl	10018fe4 <__swsetup_r>
10015bbe:	2800      	cmp	r0, #0
10015bc0:	f040 80af 	bne.w	10015d22 <__sfvwrite_r+0x1ee>
10015bc4:	f9b4 c00c 	ldrsh.w	ip, [r4, #12]
10015bc8:	f8d8 6000 	ldr.w	r6, [r8]
10015bcc:	f01c 0702 	ands.w	r7, ip, #2
10015bd0:	d1c6      	bne.n	10015b60 <__sfvwrite_r+0x2c>
10015bd2:	f01c 0a01 	ands.w	sl, ip, #1
10015bd6:	d163      	bne.n	10015ca0 <__sfvwrite_r+0x16c>
10015bd8:	6823      	ldr	r3, [r4, #0]
10015bda:	68a1      	ldr	r1, [r4, #8]
10015bdc:	4657      	mov	r7, sl
10015bde:	4618      	mov	r0, r3
10015be0:	468b      	mov	fp, r1
10015be2:	2f00      	cmp	r7, #0
10015be4:	d058      	beq.n	10015c98 <__sfvwrite_r+0x164>
10015be6:	f41c 7f00 	tst.w	ip, #512	@ 0x200
10015bea:	f000 80b5 	beq.w	10015d58 <__sfvwrite_r+0x224>
10015bee:	42b9      	cmp	r1, r7
10015bf0:	460a      	mov	r2, r1
10015bf2:	f200 80e1 	bhi.w	10015db8 <__sfvwrite_r+0x284>
10015bf6:	f41c 6f90 	tst.w	ip, #1152	@ 0x480
10015bfa:	d02f      	beq.n	10015c5c <__sfvwrite_r+0x128>
10015bfc:	6921      	ldr	r1, [r4, #16]
10015bfe:	6962      	ldr	r2, [r4, #20]
10015c00:	1a5d      	subs	r5, r3, r1
10015c02:	eb02 0242 	add.w	r2, r2, r2, lsl #1
10015c06:	eb02 72d2 	add.w	r2, r2, r2, lsr #31
10015c0a:	1c6b      	adds	r3, r5, #1
10015c0c:	1052      	asrs	r2, r2, #1
10015c0e:	443b      	add	r3, r7
10015c10:	4293      	cmp	r3, r2
10015c12:	bf92      	itee	ls
10015c14:	4693      	movls	fp, r2
10015c16:	469b      	movhi	fp, r3
10015c18:	461a      	movhi	r2, r3
10015c1a:	f41c 6f80 	tst.w	ip, #1024	@ 0x400
10015c1e:	f000 80ea 	beq.w	10015df6 <__sfvwrite_r+0x2c2>
10015c22:	4611      	mov	r1, r2
10015c24:	4648      	mov	r0, r9
10015c26:	f7fd ff53 	bl	10013ad0 <_malloc_r>
10015c2a:	2800      	cmp	r0, #0
10015c2c:	f000 80f9 	beq.w	10015e22 <__sfvwrite_r+0x2ee>
10015c30:	462a      	mov	r2, r5
10015c32:	6921      	ldr	r1, [r4, #16]
10015c34:	9000      	str	r0, [sp, #0]
10015c36:	f7ff fc43 	bl	100154c0 <memcpy>
10015c3a:	89a2      	ldrh	r2, [r4, #12]
10015c3c:	9b00      	ldr	r3, [sp, #0]
10015c3e:	f422 6290 	bic.w	r2, r2, #1152	@ 0x480
10015c42:	f042 0280 	orr.w	r2, r2, #128	@ 0x80
10015c46:	81a2      	strh	r2, [r4, #12]
10015c48:	1958      	adds	r0, r3, r5
10015c4a:	ebab 0505 	sub.w	r5, fp, r5
10015c4e:	f8c4 b014 	str.w	fp, [r4, #20]
10015c52:	6123      	str	r3, [r4, #16]
10015c54:	60a5      	str	r5, [r4, #8]
10015c56:	6020      	str	r0, [r4, #0]
10015c58:	46bb      	mov	fp, r7
10015c5a:	463a      	mov	r2, r7
10015c5c:	4651      	mov	r1, sl
10015c5e:	9200      	str	r2, [sp, #0]
10015c60:	f003 f8c0 	bl	10018de4 <memmove>
10015c64:	68a1      	ldr	r1, [r4, #8]
10015c66:	6823      	ldr	r3, [r4, #0]
10015c68:	9a00      	ldr	r2, [sp, #0]
10015c6a:	eba1 010b 	sub.w	r1, r1, fp
10015c6e:	441a      	add	r2, r3
10015c70:	463d      	mov	r5, r7
10015c72:	60a1      	str	r1, [r4, #8]
10015c74:	6022      	str	r2, [r4, #0]
10015c76:	2700      	movs	r7, #0
10015c78:	f8d8 3008 	ldr.w	r3, [r8, #8]
10015c7c:	1b5b      	subs	r3, r3, r5
10015c7e:	44aa      	add	sl, r5
10015c80:	f8c8 3008 	str.w	r3, [r8, #8]
10015c84:	2b00      	cmp	r3, #0
10015c86:	d03d      	beq.n	10015d04 <__sfvwrite_r+0x1d0>
10015c88:	6823      	ldr	r3, [r4, #0]
10015c8a:	68a1      	ldr	r1, [r4, #8]
10015c8c:	f9b4 c00c 	ldrsh.w	ip, [r4, #12]
10015c90:	4618      	mov	r0, r3
10015c92:	468b      	mov	fp, r1
10015c94:	2f00      	cmp	r7, #0
10015c96:	d1a6      	bne.n	10015be6 <__sfvwrite_r+0xb2>
10015c98:	e9d6 a700 	ldrd	sl, r7, [r6]
10015c9c:	3608      	adds	r6, #8
10015c9e:	e79e      	b.n	10015bde <__sfvwrite_r+0xaa>
10015ca0:	4638      	mov	r0, r7
10015ca2:	46bb      	mov	fp, r7
10015ca4:	463d      	mov	r5, r7
10015ca6:	9700      	str	r7, [sp, #0]
10015ca8:	2d00      	cmp	r5, #0
10015caa:	d041      	beq.n	10015d30 <__sfvwrite_r+0x1fc>
10015cac:	2800      	cmp	r0, #0
10015cae:	d046      	beq.n	10015d3e <__sfvwrite_r+0x20a>
10015cb0:	9a00      	ldr	r2, [sp, #0]
10015cb2:	6820      	ldr	r0, [r4, #0]
10015cb4:	68a1      	ldr	r1, [r4, #8]
10015cb6:	e9d4 7304 	ldrd	r7, r3, [r4, #16]
10015cba:	42aa      	cmp	r2, r5
10015cbc:	bf28      	it	cs
10015cbe:	462a      	movcs	r2, r5
10015cc0:	42b8      	cmp	r0, r7
10015cc2:	d904      	bls.n	10015cce <__sfvwrite_r+0x19a>
10015cc4:	eb01 0a03 	add.w	sl, r1, r3
10015cc8:	4552      	cmp	r2, sl
10015cca:	f300 8085 	bgt.w	10015dd8 <__sfvwrite_r+0x2a4>
10015cce:	4293      	cmp	r3, r2
10015cd0:	dc75      	bgt.n	10015dbe <__sfvwrite_r+0x28a>
10015cd2:	69e1      	ldr	r1, [r4, #28]
10015cd4:	6a67      	ldr	r7, [r4, #36]	@ 0x24
10015cd6:	465a      	mov	r2, fp
10015cd8:	4648      	mov	r0, r9
10015cda:	47b8      	blx	r7
10015cdc:	f1b0 0a00 	subs.w	sl, r0, #0
10015ce0:	dd1a      	ble.n	10015d18 <__sfvwrite_r+0x1e4>
10015ce2:	9b00      	ldr	r3, [sp, #0]
10015ce4:	ebb3 030a 	subs.w	r3, r3, sl
10015ce8:	9300      	str	r3, [sp, #0]
10015cea:	d00f      	beq.n	10015d0c <__sfvwrite_r+0x1d8>
10015cec:	2001      	movs	r0, #1
10015cee:	f8d8 3008 	ldr.w	r3, [r8, #8]
10015cf2:	eba3 030a 	sub.w	r3, r3, sl
10015cf6:	44d3      	add	fp, sl
10015cf8:	eba5 050a 	sub.w	r5, r5, sl
10015cfc:	f8c8 3008 	str.w	r3, [r8, #8]
10015d00:	2b00      	cmp	r3, #0
10015d02:	d1d1      	bne.n	10015ca8 <__sfvwrite_r+0x174>
10015d04:	2000      	movs	r0, #0
10015d06:	b003      	add	sp, #12
10015d08:	e8bd 8ff0 	ldmia.w	sp!, {r4, r5, r6, r7, r8, r9, sl, fp, pc}
10015d0c:	4621      	mov	r1, r4
10015d0e:	4648      	mov	r0, r9
10015d10:	f003 ff64 	bl	10019bdc <_fflush_r>
10015d14:	2800      	cmp	r0, #0
10015d16:	d0ea      	beq.n	10015cee <__sfvwrite_r+0x1ba>
10015d18:	f9b4 300c 	ldrsh.w	r3, [r4, #12]
10015d1c:	f043 0340 	orr.w	r3, r3, #64	@ 0x40
10015d20:	81a3      	strh	r3, [r4, #12]
10015d22:	f04f 30ff 	mov.w	r0, #4294967295	@ 0xffffffff
10015d26:	b003      	add	sp, #12
10015d28:	e8bd 8ff0 	ldmia.w	sp!, {r4, r5, r6, r7, r8, r9, sl, fp, pc}
10015d2c:	2000      	movs	r0, #0
10015d2e:	4770      	bx	lr
10015d30:	6875      	ldr	r5, [r6, #4]
10015d32:	4633      	mov	r3, r6
10015d34:	3608      	adds	r6, #8
10015d36:	2d00      	cmp	r5, #0
10015d38:	d0fa      	beq.n	10015d30 <__sfvwrite_r+0x1fc>
10015d3a:	f8d3 b000 	ldr.w	fp, [r3]
10015d3e:	462a      	mov	r2, r5
10015d40:	210a      	movs	r1, #10
10015d42:	4658      	mov	r0, fp
10015d44:	f7ff fb6c 	bl	10015420 <memchr>
10015d48:	2800      	cmp	r0, #0
10015d4a:	d067      	beq.n	10015e1c <__sfvwrite_r+0x2e8>
10015d4c:	3001      	adds	r0, #1
10015d4e:	eba0 030b 	sub.w	r3, r0, fp
10015d52:	9300      	str	r3, [sp, #0]
10015d54:	461a      	mov	r2, r3
10015d56:	e7ac      	b.n	10015cb2 <__sfvwrite_r+0x17e>
10015d58:	6922      	ldr	r2, [r4, #16]
10015d5a:	429a      	cmp	r2, r3
10015d5c:	d314      	bcc.n	10015d88 <__sfvwrite_r+0x254>
10015d5e:	6962      	ldr	r2, [r4, #20]
10015d60:	42ba      	cmp	r2, r7
10015d62:	d811      	bhi.n	10015d88 <__sfvwrite_r+0x254>
10015d64:	f06f 4300 	mvn.w	r3, #2147483648	@ 0x80000000
10015d68:	42bb      	cmp	r3, r7
10015d6a:	bf28      	it	cs
10015d6c:	463b      	movcs	r3, r7
10015d6e:	6a65      	ldr	r5, [r4, #36]	@ 0x24
10015d70:	fb93 f3f2 	sdiv	r3, r3, r2
10015d74:	69e1      	ldr	r1, [r4, #28]
10015d76:	fb02 f303 	mul.w	r3, r2, r3
10015d7a:	4648      	mov	r0, r9
10015d7c:	4652      	mov	r2, sl
10015d7e:	47a8      	blx	r5
10015d80:	1e05      	subs	r5, r0, #0
10015d82:	ddc9      	ble.n	10015d18 <__sfvwrite_r+0x1e4>
10015d84:	1b7f      	subs	r7, r7, r5
10015d86:	e777      	b.n	10015c78 <__sfvwrite_r+0x144>
10015d88:	42b9      	cmp	r1, r7
10015d8a:	bf28      	it	cs
10015d8c:	4639      	movcs	r1, r7
10015d8e:	460d      	mov	r5, r1
10015d90:	4618      	mov	r0, r3
10015d92:	460a      	mov	r2, r1
10015d94:	4651      	mov	r1, sl
10015d96:	f003 f825 	bl	10018de4 <memmove>
10015d9a:	68a1      	ldr	r1, [r4, #8]
10015d9c:	6823      	ldr	r3, [r4, #0]
10015d9e:	1b49      	subs	r1, r1, r5
10015da0:	442b      	add	r3, r5
10015da2:	60a1      	str	r1, [r4, #8]
10015da4:	6023      	str	r3, [r4, #0]
10015da6:	2900      	cmp	r1, #0
10015da8:	d1ec      	bne.n	10015d84 <__sfvwrite_r+0x250>
10015daa:	4621      	mov	r1, r4
10015dac:	4648      	mov	r0, r9
10015dae:	f003 ff15 	bl	10019bdc <_fflush_r>
10015db2:	2800      	cmp	r0, #0
10015db4:	d0e6      	beq.n	10015d84 <__sfvwrite_r+0x250>
10015db6:	e7af      	b.n	10015d18 <__sfvwrite_r+0x1e4>
10015db8:	46bb      	mov	fp, r7
10015dba:	463a      	mov	r2, r7
10015dbc:	e74e      	b.n	10015c5c <__sfvwrite_r+0x128>
10015dbe:	4659      	mov	r1, fp
10015dc0:	9201      	str	r2, [sp, #4]
10015dc2:	f003 f80f 	bl	10018de4 <memmove>
10015dc6:	9a01      	ldr	r2, [sp, #4]
10015dc8:	68a3      	ldr	r3, [r4, #8]
10015dca:	1a9b      	subs	r3, r3, r2
10015dcc:	60a3      	str	r3, [r4, #8]
10015dce:	6823      	ldr	r3, [r4, #0]
10015dd0:	4413      	add	r3, r2
10015dd2:	6023      	str	r3, [r4, #0]
10015dd4:	4692      	mov	sl, r2
10015dd6:	e784      	b.n	10015ce2 <__sfvwrite_r+0x1ae>
10015dd8:	4659      	mov	r1, fp
10015dda:	4652      	mov	r2, sl
10015ddc:	f003 f802 	bl	10018de4 <memmove>
10015de0:	6823      	ldr	r3, [r4, #0]
10015de2:	4453      	add	r3, sl
10015de4:	6023      	str	r3, [r4, #0]
10015de6:	4621      	mov	r1, r4
10015de8:	4648      	mov	r0, r9
10015dea:	f003 fef7 	bl	10019bdc <_fflush_r>
10015dee:	2800      	cmp	r0, #0
10015df0:	f43f af77 	beq.w	10015ce2 <__sfvwrite_r+0x1ae>
10015df4:	e790      	b.n	10015d18 <__sfvwrite_r+0x1e4>
10015df6:	4648      	mov	r0, r9
10015df8:	f003 ff1a 	bl	10019c30 <_realloc_r>
10015dfc:	4603      	mov	r3, r0
10015dfe:	2800      	cmp	r0, #0
10015e00:	f47f af22 	bne.w	10015c48 <__sfvwrite_r+0x114>
10015e04:	6921      	ldr	r1, [r4, #16]
10015e06:	4648      	mov	r0, r9
10015e08:	f7ff fcfa 	bl	10015800 <_free_r>
10015e0c:	f9b4 300c 	ldrsh.w	r3, [r4, #12]
10015e10:	220c      	movs	r2, #12
10015e12:	f023 0380 	bic.w	r3, r3, #128	@ 0x80
10015e16:	f8c9 2000 	str.w	r2, [r9]
10015e1a:	e77f      	b.n	10015d1c <__sfvwrite_r+0x1e8>
10015e1c:	1c6a      	adds	r2, r5, #1
10015e1e:	9200      	str	r2, [sp, #0]
10015e20:	e747      	b.n	10015cb2 <__sfvwrite_r+0x17e>
10015e22:	220c      	movs	r2, #12
10015e24:	f9b4 300c 	ldrsh.w	r3, [r4, #12]
10015e28:	f8c9 2000 	str.w	r2, [r9]
10015e2c:	e776      	b.n	10015d1c <__sfvwrite_r+0x1e8>
10015e2e:	bf00      	nop
10015e30:	7ffffc00 	.word	0x7ffffc00

10015e34 <_write_r>:
10015e34:	b538      	push	{r3, r4, r5, lr}
10015e36:	460c      	mov	r4, r1
10015e38:	4d08      	ldr	r5, [pc, #32]	@ (10015e5c <_write_r+0x28>)
10015e3a:	4684      	mov	ip, r0
10015e3c:	4611      	mov	r1, r2
10015e3e:	4620      	mov	r0, r4
10015e40:	461a      	mov	r2, r3
10015e42:	2300      	movs	r3, #0
10015e44:	602b      	str	r3, [r5, #0]
10015e46:	4664      	mov	r4, ip
10015e48:	f7fa fce2 	bl	10010810 <_write>
10015e4c:	1c43      	adds	r3, r0, #1
10015e4e:	d000      	beq.n	10015e52 <_write_r+0x1e>
10015e50:	bd38      	pop	{r3, r4, r5, pc}
10015e52:	682b      	ldr	r3, [r5, #0]
10015e54:	2b00      	cmp	r3, #0
10015e56:	d0fb      	beq.n	10015e50 <_write_r+0x1c>
10015e58:	6023      	str	r3, [r4, #0]
10015e5a:	bd38      	pop	{r3, r4, r5, pc}
10015e5c:	2000173c 	.word	0x2000173c

10015e60 <_fwalk_sglue>:
10015e60:	e92d 43f8 	stmdb	sp!, {r3, r4, r5, r6, r7, r8, r9, lr}
10015e64:	4680      	mov	r8, r0
10015e66:	460f      	mov	r7, r1
10015e68:	4616      	mov	r6, r2
10015e6a:	f04f 0900 	mov.w	r9, #0
10015e6e:	e9d6 5401 	ldrd	r5, r4, [r6, #4]
10015e72:	3d01      	subs	r5, #1
10015e74:	d411      	bmi.n	10015e9a <_fwalk_sglue+0x3a>
10015e76:	89a3      	ldrh	r3, [r4, #12]
10015e78:	2b01      	cmp	r3, #1
10015e7a:	f105 35ff 	add.w	r5, r5, #4294967295	@ 0xffffffff
10015e7e:	d908      	bls.n	10015e92 <_fwalk_sglue+0x32>
10015e80:	f9b4 300e 	ldrsh.w	r3, [r4, #14]
10015e84:	3301      	adds	r3, #1
10015e86:	4621      	mov	r1, r4
10015e88:	d003      	beq.n	10015e92 <_fwalk_sglue+0x32>
10015e8a:	4640      	mov	r0, r8
10015e8c:	47b8      	blx	r7
10015e8e:	ea49 0900 	orr.w	r9, r9, r0
10015e92:	1c6b      	adds	r3, r5, #1
10015e94:	f104 0468 	add.w	r4, r4, #104	@ 0x68
10015e98:	d1ed      	bne.n	10015e76 <_fwalk_sglue+0x16>
10015e9a:	6836      	ldr	r6, [r6, #0]
10015e9c:	2e00      	cmp	r6, #0
10015e9e:	d1e6      	bne.n	10015e6e <_fwalk_sglue+0xe>
10015ea0:	4648      	mov	r0, r9
10015ea2:	e8bd 83f8 	ldmia.w	sp!, {r3, r4, r5, r6, r7, r8, r9, pc}
10015ea6:	bf00      	nop

10015ea8 <__ssprint_r>:
10015ea8:	e92d 4ff0 	stmdb	sp!, {r4, r5, r6, r7, r8, r9, sl, fp, lr}
10015eac:	6893      	ldr	r3, [r2, #8]
10015eae:	6817      	ldr	r7, [r2, #0]
10015eb0:	b083      	sub	sp, #12
10015eb2:	4692      	mov	sl, r2
10015eb4:	2b00      	cmp	r3, #0
10015eb6:	d074      	beq.n	10015fa2 <__ssprint_r+0xfa>
10015eb8:	f04f 0b00 	mov.w	fp, #0
10015ebc:	688b      	ldr	r3, [r1, #8]
10015ebe:	680a      	ldr	r2, [r1, #0]
10015ec0:	4681      	mov	r9, r0
10015ec2:	460c      	mov	r4, r1
10015ec4:	465d      	mov	r5, fp
10015ec6:	e045      	b.n	10015f54 <__ssprint_r+0xac>
10015ec8:	f9b4 300c 	ldrsh.w	r3, [r4, #12]
10015ecc:	f413 6f90 	tst.w	r3, #1152	@ 0x480
10015ed0:	d02c      	beq.n	10015f2c <__ssprint_r+0x84>
10015ed2:	e9d4 0104 	ldrd	r0, r1, [r4, #16]
10015ed6:	1a16      	subs	r6, r2, r0
10015ed8:	eb01 0241 	add.w	r2, r1, r1, lsl #1
10015edc:	eb02 72d2 	add.w	r2, r2, r2, lsr #31
10015ee0:	1c71      	adds	r1, r6, #1
10015ee2:	1052      	asrs	r2, r2, #1
10015ee4:	4429      	add	r1, r5
10015ee6:	4291      	cmp	r1, r2
10015ee8:	bf92      	itee	ls
10015eea:	4690      	movls	r8, r2
10015eec:	4688      	movhi	r8, r1
10015eee:	460a      	movhi	r2, r1
10015ef0:	055b      	lsls	r3, r3, #21
10015ef2:	d539      	bpl.n	10015f68 <__ssprint_r+0xc0>
10015ef4:	4611      	mov	r1, r2
10015ef6:	4648      	mov	r0, r9
10015ef8:	f7fd fdea 	bl	10013ad0 <_malloc_r>
10015efc:	9001      	str	r0, [sp, #4]
10015efe:	2800      	cmp	r0, #0
10015f00:	d03d      	beq.n	10015f7e <__ssprint_r+0xd6>
10015f02:	4632      	mov	r2, r6
10015f04:	6921      	ldr	r1, [r4, #16]
10015f06:	f7ff fadb 	bl	100154c0 <memcpy>
10015f0a:	89a2      	ldrh	r2, [r4, #12]
10015f0c:	9b01      	ldr	r3, [sp, #4]
10015f0e:	f422 6290 	bic.w	r2, r2, #1152	@ 0x480
10015f12:	f042 0280 	orr.w	r2, r2, #128	@ 0x80
10015f16:	81a2      	strh	r2, [r4, #12]
10015f18:	1998      	adds	r0, r3, r6
10015f1a:	eba8 0606 	sub.w	r6, r8, r6
10015f1e:	60a6      	str	r6, [r4, #8]
10015f20:	f8c4 8014 	str.w	r8, [r4, #20]
10015f24:	6123      	str	r3, [r4, #16]
10015f26:	6020      	str	r0, [r4, #0]
10015f28:	46a8      	mov	r8, r5
10015f2a:	462e      	mov	r6, r5
10015f2c:	4632      	mov	r2, r6
10015f2e:	4659      	mov	r1, fp
10015f30:	f002 ff58 	bl	10018de4 <memmove>
10015f34:	f8da 1008 	ldr.w	r1, [sl, #8]
10015f38:	68a3      	ldr	r3, [r4, #8]
10015f3a:	6822      	ldr	r2, [r4, #0]
10015f3c:	eba3 0308 	sub.w	r3, r3, r8
10015f40:	4432      	add	r2, r6
10015f42:	1b49      	subs	r1, r1, r5
10015f44:	60a3      	str	r3, [r4, #8]
10015f46:	6022      	str	r2, [r4, #0]
10015f48:	f8ca 1008 	str.w	r1, [sl, #8]
10015f4c:	b349      	cbz	r1, 10015fa2 <__ssprint_r+0xfa>
10015f4e:	e9d7 b500 	ldrd	fp, r5, [r7]
10015f52:	3708      	adds	r7, #8
10015f54:	4698      	mov	r8, r3
10015f56:	4610      	mov	r0, r2
10015f58:	2d00      	cmp	r5, #0
10015f5a:	d0f8      	beq.n	10015f4e <__ssprint_r+0xa6>
10015f5c:	429d      	cmp	r5, r3
10015f5e:	461e      	mov	r6, r3
10015f60:	d2b2      	bcs.n	10015ec8 <__ssprint_r+0x20>
10015f62:	46a8      	mov	r8, r5
10015f64:	462e      	mov	r6, r5
10015f66:	e7e1      	b.n	10015f2c <__ssprint_r+0x84>
10015f68:	4601      	mov	r1, r0
10015f6a:	4648      	mov	r0, r9
10015f6c:	f003 fe60 	bl	10019c30 <_realloc_r>
10015f70:	4603      	mov	r3, r0
10015f72:	2800      	cmp	r0, #0
10015f74:	d1d0      	bne.n	10015f18 <__ssprint_r+0x70>
10015f76:	6921      	ldr	r1, [r4, #16]
10015f78:	4648      	mov	r0, r9
10015f7a:	f7ff fc41 	bl	10015800 <_free_r>
10015f7e:	89a3      	ldrh	r3, [r4, #12]
10015f80:	220c      	movs	r2, #12
10015f82:	f043 0340 	orr.w	r3, r3, #64	@ 0x40
10015f86:	f8c9 2000 	str.w	r2, [r9]
10015f8a:	f04f 30ff 	mov.w	r0, #4294967295	@ 0xffffffff
10015f8e:	81a3      	strh	r3, [r4, #12]
10015f90:	2200      	movs	r2, #0
10015f92:	2300      	movs	r3, #0
10015f94:	f8ca 2008 	str.w	r2, [sl, #8]
10015f98:	f8ca 3004 	str.w	r3, [sl, #4]
10015f9c:	b003      	add	sp, #12
10015f9e:	e8bd 8ff0 	ldmia.w	sp!, {r4, r5, r6, r7, r8, r9, sl, fp, pc}
10015fa2:	2000      	movs	r0, #0
10015fa4:	2300      	movs	r3, #0
10015fa6:	f8ca 3004 	str.w	r3, [sl, #4]
10015faa:	b003      	add	sp, #12
10015fac:	e8bd 8ff0 	ldmia.w	sp!, {r4, r5, r6, r7, r8, r9, sl, fp, pc}

10015fb0 <_vfprintf_r>:
10015fb0:	e92d 4ff0 	stmdb	sp!, {r4, r5, r6, r7, r8, r9, sl, fp, lr}
10015fb4:	b0df      	sub	sp, #380	@ 0x17c
10015fb6:	461c      	mov	r4, r3
10015fb8:	9107      	str	r1, [sp, #28]
10015fba:	4691      	mov	r9, r2
10015fbc:	4683      	mov	fp, r0
10015fbe:	f7fe f90d 	bl	100141dc <_localeconv_r>
10015fc2:	6803      	ldr	r3, [r0, #0]
10015fc4:	9319      	str	r3, [sp, #100]	@ 0x64
10015fc6:	4618      	mov	r0, r3
10015fc8:	f7ff fb1a 	bl	10015600 <strlen>
10015fcc:	2208      	movs	r2, #8
10015fce:	9018      	str	r0, [sp, #96]	@ 0x60
10015fd0:	2100      	movs	r1, #0
10015fd2:	a82e      	add	r0, sp, #184	@ 0xb8
10015fd4:	940d      	str	r4, [sp, #52]	@ 0x34
10015fd6:	f7fe f83f 	bl	10014058 <memset>
10015fda:	f1bb 0f00 	cmp.w	fp, #0
10015fde:	d004      	beq.n	10015fea <_vfprintf_r+0x3a>
10015fe0:	f8db 3034 	ldr.w	r3, [fp, #52]	@ 0x34
10015fe4:	2b00      	cmp	r3, #0
10015fe6:	f001 8087 	beq.w	100170f8 <_vfprintf_r+0x1148>
10015fea:	9b07      	ldr	r3, [sp, #28]
10015fec:	6e5a      	ldr	r2, [r3, #100]	@ 0x64
10015fee:	f9b3 300c 	ldrsh.w	r3, [r3, #12]
10015ff2:	07d1      	lsls	r1, r2, #31
10015ff4:	d402      	bmi.n	10015ffc <_vfprintf_r+0x4c>
10015ff6:	059a      	lsls	r2, r3, #22
10015ff8:	f140 86a7 	bpl.w	10016d4a <_vfprintf_r+0xd9a>
10015ffc:	049f      	lsls	r7, r3, #18
10015ffe:	d407      	bmi.n	10016010 <_vfprintf_r+0x60>
10016000:	9907      	ldr	r1, [sp, #28]
10016002:	6e4a      	ldr	r2, [r1, #100]	@ 0x64
10016004:	f443 5300 	orr.w	r3, r3, #8192	@ 0x2000
10016008:	f422 5200 	bic.w	r2, r2, #8192	@ 0x2000
1001600c:	818b      	strh	r3, [r1, #12]
1001600e:	664a      	str	r2, [r1, #100]	@ 0x64
10016010:	071e      	lsls	r6, r3, #28
10016012:	f140 80cc 	bpl.w	100161ae <_vfprintf_r+0x1fe>
10016016:	9a07      	ldr	r2, [sp, #28]
10016018:	6912      	ldr	r2, [r2, #16]
1001601a:	2a00      	cmp	r2, #0
1001601c:	f000 80c7 	beq.w	100161ae <_vfprintf_r+0x1fe>
10016020:	f003 021a 	and.w	r2, r3, #26
10016024:	2a0a      	cmp	r2, #10
10016026:	f000 80d1 	beq.w	100161cc <_vfprintf_r+0x21c>
1001602a:	ed9f 7b99 	vldr	d7, [pc, #612]	@ 10016290 <_vfprintf_r+0x2e0>
1001602e:	2300      	movs	r3, #0
10016030:	e9cd 3333 	strd	r3, r3, [sp, #204]	@ 0xcc
10016034:	e9cd 331b 	strd	r3, r3, [sp, #108]	@ 0x6c
10016038:	e9cd 331d 	strd	r3, r3, [sp, #116]	@ 0x74
1001603c:	ed8d 7b16 	vstr	d7, [sp, #88]	@ 0x58
10016040:	aa35      	add	r2, sp, #212	@ 0xd4
10016042:	9313      	str	r3, [sp, #76]	@ 0x4c
10016044:	9232      	str	r2, [sp, #200]	@ 0xc8
10016046:	4690      	mov	r8, r2
10016048:	931a      	str	r3, [sp, #104]	@ 0x68
1001604a:	930a      	str	r3, [sp, #40]	@ 0x28
1001604c:	f8cd b020 	str.w	fp, [sp, #32]
10016050:	464d      	mov	r5, r9
10016052:	9f08      	ldr	r7, [sp, #32]
10016054:	462e      	mov	r6, r5
10016056:	4b90      	ldr	r3, [pc, #576]	@ (10016298 <_vfprintf_r+0x2e8>)
10016058:	f8d3 40e4 	ldr.w	r4, [r3, #228]	@ 0xe4
1001605c:	f7fe f8b8 	bl	100141d0 <__locale_mb_cur_max>
10016060:	4603      	mov	r3, r0
10016062:	a82e      	add	r0, sp, #184	@ 0xb8
10016064:	9000      	str	r0, [sp, #0]
10016066:	4632      	mov	r2, r6
10016068:	a92a      	add	r1, sp, #168	@ 0xa8
1001606a:	4638      	mov	r0, r7
1001606c:	47a0      	blx	r4
1001606e:	2800      	cmp	r0, #0
10016070:	f000 80cb 	beq.w	1001620a <_vfprintf_r+0x25a>
10016074:	f2c0 80c1 	blt.w	100161fa <_vfprintf_r+0x24a>
10016078:	9a2a      	ldr	r2, [sp, #168]	@ 0xa8
1001607a:	2a25      	cmp	r2, #37	@ 0x25
1001607c:	4603      	mov	r3, r0
1001607e:	d001      	beq.n	10016084 <_vfprintf_r+0xd4>
10016080:	441e      	add	r6, r3
10016082:	e7e8      	b.n	10016056 <_vfprintf_r+0xa6>
10016084:	1b77      	subs	r7, r6, r5
10016086:	4604      	mov	r4, r0
10016088:	f040 80c2 	bne.w	10016210 <_vfprintf_r+0x260>
1001608c:	2300      	movs	r3, #0
1001608e:	f88d 309f 	strb.w	r3, [sp, #159]	@ 0x9f
10016092:	4699      	mov	r9, r3
10016094:	930b      	str	r3, [sp, #44]	@ 0x2c
10016096:	f04f 32ff 	mov.w	r2, #4294967295	@ 0xffffffff
1001609a:	7873      	ldrb	r3, [r6, #1]
1001609c:	9209      	str	r2, [sp, #36]	@ 0x24
1001609e:	1c74      	adds	r4, r6, #1
100160a0:	3401      	adds	r4, #1
100160a2:	f1a3 0220 	sub.w	r2, r3, #32
100160a6:	2a5a      	cmp	r2, #90	@ 0x5a
100160a8:	f200 80f8 	bhi.w	1001629c <_vfprintf_r+0x2ec>
100160ac:	e8df f012 	tbh	[pc, r2, lsl #1]
100160b0:	00f602d0 	.word	0x00f602d0
100160b4:	02cc00f6 	.word	0x02cc00f6
100160b8:	00f600f6 	.word	0x00f600f6
100160bc:	006a00f6 	.word	0x006a00f6
100160c0:	00f600f6 	.word	0x00f600f6
100160c4:	02a90286 	.word	0x02a90286
100160c8:	029100f6 	.word	0x029100f6
100160cc:	00f602b2 	.word	0x00f602b2
100160d0:	005b02ae 	.word	0x005b02ae
100160d4:	005b005b 	.word	0x005b005b
100160d8:	005b005b 	.word	0x005b005b
100160dc:	005b005b 	.word	0x005b005b
100160e0:	005b005b 	.word	0x005b005b
100160e4:	00f600f6 	.word	0x00f600f6
100160e8:	00f600f6 	.word	0x00f600f6
100160ec:	00f600f6 	.word	0x00f600f6
100160f0:	017700f6 	.word	0x017700f6
100160f4:	021100f6 	.word	0x021100f6
100160f8:	0177032a 	.word	0x0177032a
100160fc:	01770177 	.word	0x01770177
10016100:	00f600f6 	.word	0x00f600f6
10016104:	00f600f6 	.word	0x00f600f6
10016108:	00f60326 	.word	0x00f60326
1001610c:	02e200f6 	.word	0x02e200f6
10016110:	00f600f6 	.word	0x00f600f6
10016114:	022f00f6 	.word	0x022f00f6
10016118:	031300f6 	.word	0x031300f6
1001611c:	00f600f6 	.word	0x00f600f6
10016120:	00f6071f 	.word	0x00f6071f
10016124:	00f600f6 	.word	0x00f600f6
10016128:	00f600f6 	.word	0x00f600f6
1001612c:	00f600f6 	.word	0x00f600f6
10016130:	017700f6 	.word	0x017700f6
10016134:	021100f6 	.word	0x021100f6
10016138:	01770261 	.word	0x01770261
1001613c:	01770177 	.word	0x01770177
10016140:	0261029f 	.word	0x0261029f
10016144:	00f6020d 	.word	0x00f6020d
10016148:	00f60295 	.word	0x00f60295
1001614c:	07470355 	.word	0x07470355
10016150:	020d0343 	.word	0x020d0343
10016154:	022f00f6 	.word	0x022f00f6
10016158:	0742007d 	.word	0x0742007d
1001615c:	00f600f6 	.word	0x00f600f6
10016160:	00f6074b 	.word	0x00f6074b
10016164:	007d      	.short	0x007d
10016166:	f1a3 0230 	sub.w	r2, r3, #48	@ 0x30
1001616a:	2100      	movs	r1, #0
1001616c:	f814 3b01 	ldrb.w	r3, [r4], #1
10016170:	eb01 0181 	add.w	r1, r1, r1, lsl #2
10016174:	eb02 0141 	add.w	r1, r2, r1, lsl #1
10016178:	f1a3 0230 	sub.w	r2, r3, #48	@ 0x30
1001617c:	2a09      	cmp	r2, #9
1001617e:	d9f5      	bls.n	1001616c <_vfprintf_r+0x1bc>
10016180:	910b      	str	r1, [sp, #44]	@ 0x2c
10016182:	e78e      	b.n	100160a2 <_vfprintf_r+0xf2>
10016184:	9f08      	ldr	r7, [sp, #32]
10016186:	4638      	mov	r0, r7
10016188:	f7fe f828 	bl	100141dc <_localeconv_r>
1001618c:	6843      	ldr	r3, [r0, #4]
1001618e:	931d      	str	r3, [sp, #116]	@ 0x74
10016190:	4618      	mov	r0, r3
10016192:	f7ff fa35 	bl	10015600 <strlen>
10016196:	901e      	str	r0, [sp, #120]	@ 0x78
10016198:	4606      	mov	r6, r0
1001619a:	4638      	mov	r0, r7
1001619c:	f7fe f81e 	bl	100141dc <_localeconv_r>
100161a0:	6883      	ldr	r3, [r0, #8]
100161a2:	931b      	str	r3, [sp, #108]	@ 0x6c
100161a4:	2e00      	cmp	r6, #0
100161a6:	f040 8629 	bne.w	10016dfc <_vfprintf_r+0xe4c>
100161aa:	7823      	ldrb	r3, [r4, #0]
100161ac:	e778      	b.n	100160a0 <_vfprintf_r+0xf0>
100161ae:	9d07      	ldr	r5, [sp, #28]
100161b0:	4658      	mov	r0, fp
100161b2:	4629      	mov	r1, r5
100161b4:	f002 ff16 	bl	10018fe4 <__swsetup_r>
100161b8:	2800      	cmp	r0, #0
100161ba:	f041 83ac 	bne.w	10017916 <_vfprintf_r+0x1966>
100161be:	f9b5 300c 	ldrsh.w	r3, [r5, #12]
100161c2:	f003 021a 	and.w	r2, r3, #26
100161c6:	2a0a      	cmp	r2, #10
100161c8:	f47f af2f 	bne.w	1001602a <_vfprintf_r+0x7a>
100161cc:	9907      	ldr	r1, [sp, #28]
100161ce:	f9b1 200e 	ldrsh.w	r2, [r1, #14]
100161d2:	2a00      	cmp	r2, #0
100161d4:	f6ff af29 	blt.w	1001602a <_vfprintf_r+0x7a>
100161d8:	6e4a      	ldr	r2, [r1, #100]	@ 0x64
100161da:	07d0      	lsls	r0, r2, #31
100161dc:	d402      	bmi.n	100161e4 <_vfprintf_r+0x234>
100161de:	059a      	lsls	r2, r3, #22
100161e0:	f141 81c5 	bpl.w	1001756e <_vfprintf_r+0x15be>
100161e4:	9907      	ldr	r1, [sp, #28]
100161e6:	4623      	mov	r3, r4
100161e8:	464a      	mov	r2, r9
100161ea:	4658      	mov	r0, fp
100161ec:	f001 fd08 	bl	10017c00 <__sbprintf>
100161f0:	900a      	str	r0, [sp, #40]	@ 0x28
100161f2:	980a      	ldr	r0, [sp, #40]	@ 0x28
100161f4:	b05f      	add	sp, #380	@ 0x17c
100161f6:	e8bd 8ff0 	ldmia.w	sp!, {r4, r5, r6, r7, r8, r9, sl, fp, pc}
100161fa:	2208      	movs	r2, #8
100161fc:	2100      	movs	r1, #0
100161fe:	a82e      	add	r0, sp, #184	@ 0xb8
10016200:	f7fd ff2a 	bl	10014058 <memset>
10016204:	2301      	movs	r3, #1
10016206:	441e      	add	r6, r3
10016208:	e725      	b.n	10016056 <_vfprintf_r+0xa6>
1001620a:	1b77      	subs	r7, r6, r5
1001620c:	4604      	mov	r4, r0
1001620e:	d011      	beq.n	10016234 <_vfprintf_r+0x284>
10016210:	9b34      	ldr	r3, [sp, #208]	@ 0xd0
10016212:	443b      	add	r3, r7
10016214:	9334      	str	r3, [sp, #208]	@ 0xd0
10016216:	9b33      	ldr	r3, [sp, #204]	@ 0xcc
10016218:	3301      	adds	r3, #1
1001621a:	2b07      	cmp	r3, #7
1001621c:	e9c8 5700 	strd	r5, r7, [r8]
10016220:	9333      	str	r3, [sp, #204]	@ 0xcc
10016222:	dc13      	bgt.n	1001624c <_vfprintf_r+0x29c>
10016224:	f108 0808 	add.w	r8, r8, #8
10016228:	9b0a      	ldr	r3, [sp, #40]	@ 0x28
1001622a:	443b      	add	r3, r7
1001622c:	930a      	str	r3, [sp, #40]	@ 0x28
1001622e:	2c00      	cmp	r4, #0
10016230:	f47f af2c 	bne.w	1001608c <_vfprintf_r+0xdc>
10016234:	9b34      	ldr	r3, [sp, #208]	@ 0xd0
10016236:	f8dd b020 	ldr.w	fp, [sp, #32]
1001623a:	2b00      	cmp	r3, #0
1001623c:	f041 80dc 	bne.w	100173f8 <_vfprintf_r+0x1448>
10016240:	9b07      	ldr	r3, [sp, #28]
10016242:	2200      	movs	r2, #0
10016244:	f9b3 300c 	ldrsh.w	r3, [r3, #12]
10016248:	9233      	str	r2, [sp, #204]	@ 0xcc
1001624a:	e012      	b.n	10016272 <_vfprintf_r+0x2c2>
1001624c:	e9dd 1007 	ldrd	r1, r0, [sp, #28]
10016250:	aa32      	add	r2, sp, #200	@ 0xc8
10016252:	f001 fd51 	bl	10017cf8 <__sprint_r>
10016256:	b948      	cbnz	r0, 1001626c <_vfprintf_r+0x2bc>
10016258:	f10d 08d4 	add.w	r8, sp, #212	@ 0xd4
1001625c:	e7e4      	b.n	10016228 <_vfprintf_r+0x278>
1001625e:	46bb      	mov	fp, r7
10016260:	9b0c      	ldr	r3, [sp, #48]	@ 0x30
10016262:	b11b      	cbz	r3, 1001626c <_vfprintf_r+0x2bc>
10016264:	990c      	ldr	r1, [sp, #48]	@ 0x30
10016266:	4658      	mov	r0, fp
10016268:	f7ff faca 	bl	10015800 <_free_r>
1001626c:	9b07      	ldr	r3, [sp, #28]
1001626e:	f9b3 300c 	ldrsh.w	r3, [r3, #12]
10016272:	9a07      	ldr	r2, [sp, #28]
10016274:	6e52      	ldr	r2, [r2, #100]	@ 0x64
10016276:	07d4      	lsls	r4, r2, #31
10016278:	f140 811d 	bpl.w	100164b6 <_vfprintf_r+0x506>
1001627c:	0659      	lsls	r1, r3, #25
1001627e:	f101 8356 	bmi.w	1001792e <_vfprintf_r+0x197e>
10016282:	980a      	ldr	r0, [sp, #40]	@ 0x28
10016284:	b05f      	add	sp, #380	@ 0x17c
10016286:	e8bd 8ff0 	ldmia.w	sp!, {r4, r5, r6, r7, r8, r9, sl, fp, pc}
1001628a:	bf00      	nop
1001628c:	f3af 8000 	nop.w
	...
10016298:	2000044c 	.word	0x2000044c
1001629c:	e9cd 340e 	strd	r3, r4, [sp, #56]	@ 0x38
100162a0:	2b00      	cmp	r3, #0
100162a2:	d0c7      	beq.n	10016234 <_vfprintf_r+0x284>
100162a4:	2200      	movs	r2, #0
100162a6:	f88d 3114 	strb.w	r3, [sp, #276]	@ 0x114
100162aa:	2301      	movs	r3, #1
100162ac:	f88d 209f 	strb.w	r2, [sp, #159]	@ 0x9f
100162b0:	9306      	str	r3, [sp, #24]
100162b2:	920c      	str	r2, [sp, #48]	@ 0x30
100162b4:	469b      	mov	fp, r3
100162b6:	9209      	str	r2, [sp, #36]	@ 0x24
100162b8:	9214      	str	r2, [sp, #80]	@ 0x50
100162ba:	9210      	str	r2, [sp, #64]	@ 0x40
100162bc:	9212      	str	r2, [sp, #72]	@ 0x48
100162be:	ad45      	add	r5, sp, #276	@ 0x114
100162c0:	f019 0302 	ands.w	r3, r9, #2
100162c4:	d002      	beq.n	100162cc <_vfprintf_r+0x31c>
100162c6:	9906      	ldr	r1, [sp, #24]
100162c8:	3102      	adds	r1, #2
100162ca:	9106      	str	r1, [sp, #24]
100162cc:	f019 0784 	ands.w	r7, r9, #132	@ 0x84
100162d0:	9c34      	ldr	r4, [sp, #208]	@ 0xd0
100162d2:	d105      	bne.n	100162e0 <_vfprintf_r+0x330>
100162d4:	990b      	ldr	r1, [sp, #44]	@ 0x2c
100162d6:	9806      	ldr	r0, [sp, #24]
100162d8:	1a0e      	subs	r6, r1, r0
100162da:	2e00      	cmp	r6, #0
100162dc:	f300 80aa 	bgt.w	10016434 <_vfprintf_r+0x484>
100162e0:	b182      	cbz	r2, 10016304 <_vfprintf_r+0x354>
100162e2:	2201      	movs	r2, #1
100162e4:	f8c8 2004 	str.w	r2, [r8, #4]
100162e8:	9a33      	ldr	r2, [sp, #204]	@ 0xcc
100162ea:	3201      	adds	r2, #1
100162ec:	3401      	adds	r4, #1
100162ee:	f10d 019f 	add.w	r1, sp, #159	@ 0x9f
100162f2:	2a07      	cmp	r2, #7
100162f4:	9434      	str	r4, [sp, #208]	@ 0xd0
100162f6:	9233      	str	r2, [sp, #204]	@ 0xcc
100162f8:	f8c8 1000 	str.w	r1, [r8]
100162fc:	f300 83e3 	bgt.w	10016ac6 <_vfprintf_r+0xb16>
10016300:	f108 0808 	add.w	r8, r8, #8
10016304:	b183      	cbz	r3, 10016328 <_vfprintf_r+0x378>
10016306:	9b33      	ldr	r3, [sp, #204]	@ 0xcc
10016308:	aa28      	add	r2, sp, #160	@ 0xa0
1001630a:	3301      	adds	r3, #1
1001630c:	3402      	adds	r4, #2
1001630e:	f8c8 2000 	str.w	r2, [r8]
10016312:	2b07      	cmp	r3, #7
10016314:	f04f 0202 	mov.w	r2, #2
10016318:	9434      	str	r4, [sp, #208]	@ 0xd0
1001631a:	9333      	str	r3, [sp, #204]	@ 0xcc
1001631c:	f8c8 2004 	str.w	r2, [r8, #4]
10016320:	f300 83df 	bgt.w	10016ae2 <_vfprintf_r+0xb32>
10016324:	f108 0808 	add.w	r8, r8, #8
10016328:	2f80      	cmp	r7, #128	@ 0x80
1001632a:	f000 82c0 	beq.w	100168ae <_vfprintf_r+0x8fe>
1001632e:	9b09      	ldr	r3, [sp, #36]	@ 0x24
10016330:	eba3 060b 	sub.w	r6, r3, fp
10016334:	2e00      	cmp	r6, #0
10016336:	f300 82ff 	bgt.w	10016938 <_vfprintf_r+0x988>
1001633a:	f419 7f80 	tst.w	r9, #256	@ 0x100
1001633e:	f040 821b 	bne.w	10016778 <_vfprintf_r+0x7c8>
10016342:	9b33      	ldr	r3, [sp, #204]	@ 0xcc
10016344:	f8c8 5000 	str.w	r5, [r8]
10016348:	3301      	adds	r3, #1
1001634a:	445c      	add	r4, fp
1001634c:	2b07      	cmp	r3, #7
1001634e:	f8c8 b004 	str.w	fp, [r8, #4]
10016352:	9434      	str	r4, [sp, #208]	@ 0xd0
10016354:	9333      	str	r3, [sp, #204]	@ 0xcc
10016356:	f300 834f 	bgt.w	100169f8 <_vfprintf_r+0xa48>
1001635a:	f108 0808 	add.w	r8, r8, #8
1001635e:	f019 0f04 	tst.w	r9, #4
10016362:	d005      	beq.n	10016370 <_vfprintf_r+0x3c0>
10016364:	9b0b      	ldr	r3, [sp, #44]	@ 0x2c
10016366:	9a06      	ldr	r2, [sp, #24]
10016368:	1a9d      	subs	r5, r3, r2
1001636a:	2d00      	cmp	r5, #0
1001636c:	f300 83c5 	bgt.w	10016afa <_vfprintf_r+0xb4a>
10016370:	e9dd 320a 	ldrd	r3, r2, [sp, #40]	@ 0x28
10016374:	9906      	ldr	r1, [sp, #24]
10016376:	428a      	cmp	r2, r1
10016378:	bfac      	ite	ge
1001637a:	189b      	addge	r3, r3, r2
1001637c:	185b      	addlt	r3, r3, r1
1001637e:	930a      	str	r3, [sp, #40]	@ 0x28
10016380:	2c00      	cmp	r4, #0
10016382:	f040 8311 	bne.w	100169a8 <_vfprintf_r+0x9f8>
10016386:	2300      	movs	r3, #0
10016388:	9333      	str	r3, [sp, #204]	@ 0xcc
1001638a:	9b0c      	ldr	r3, [sp, #48]	@ 0x30
1001638c:	b11b      	cbz	r3, 10016396 <_vfprintf_r+0x3e6>
1001638e:	990c      	ldr	r1, [sp, #48]	@ 0x30
10016390:	9808      	ldr	r0, [sp, #32]
10016392:	f7ff fa35 	bl	10015800 <_free_r>
10016396:	f10d 08d4 	add.w	r8, sp, #212	@ 0xd4
1001639a:	9d0f      	ldr	r5, [sp, #60]	@ 0x3c
1001639c:	e659      	b.n	10016052 <_vfprintf_r+0xa2>
1001639e:	e9cd 340e 	strd	r3, r4, [sp, #56]	@ 0x38
100163a2:	9b0d      	ldr	r3, [sp, #52]	@ 0x34
100163a4:	3307      	adds	r3, #7
100163a6:	f023 0307 	bic.w	r3, r3, #7
100163aa:	ecb3 7b02 	vldmia	r3!, {d7}
100163ae:	ec57 6b17 	vmov	r6, r7, d7
100163b2:	930d      	str	r3, [sp, #52]	@ 0x34
100163b4:	f027 4300 	bic.w	r3, r7, #2147483648	@ 0x80000000
100163b8:	9323      	str	r3, [sp, #140]	@ 0x8c
100163ba:	ed8d 7a22 	vstr	s14, [sp, #136]	@ 0x88
100163be:	e9dd ab22 	ldrd	sl, fp, [sp, #136]	@ 0x88
100163c2:	4ba8      	ldr	r3, [pc, #672]	@ (10016664 <_vfprintf_r+0x6b4>)
100163c4:	f04f 32ff 	mov.w	r2, #4294967295	@ 0xffffffff
100163c8:	4650      	mov	r0, sl
100163ca:	4659      	mov	r1, fp
100163cc:	ed8d 7b16 	vstr	d7, [sp, #88]	@ 0x58
100163d0:	f004 fbb0 	bl	1001ab34 <__aeabi_dcmpun>
100163d4:	2800      	cmp	r0, #0
100163d6:	f040 852f 	bne.w	10016e38 <_vfprintf_r+0xe88>
100163da:	4ba2      	ldr	r3, [pc, #648]	@ (10016664 <_vfprintf_r+0x6b4>)
100163dc:	f04f 32ff 	mov.w	r2, #4294967295	@ 0xffffffff
100163e0:	4650      	mov	r0, sl
100163e2:	4659      	mov	r1, fp
100163e4:	f004 fb88 	bl	1001aaf8 <__aeabi_dcmple>
100163e8:	2800      	cmp	r0, #0
100163ea:	f040 8525 	bne.w	10016e38 <_vfprintf_r+0xe88>
100163ee:	2200      	movs	r2, #0
100163f0:	2300      	movs	r3, #0
100163f2:	4630      	mov	r0, r6
100163f4:	4639      	mov	r1, r7
100163f6:	f004 fb75 	bl	1001aae4 <__aeabi_dcmplt>
100163fa:	2800      	cmp	r0, #0
100163fc:	f041 810c 	bne.w	10017618 <_vfprintf_r+0x1668>
10016400:	f89d 209f 	ldrb.w	r2, [sp, #159]	@ 0x9f
10016404:	4d98      	ldr	r5, [pc, #608]	@ (10016668 <_vfprintf_r+0x6b8>)
10016406:	4b99      	ldr	r3, [pc, #612]	@ (1001666c <_vfprintf_r+0x6bc>)
10016408:	f029 0980 	bic.w	r9, r9, #128	@ 0x80
1001640c:	990e      	ldr	r1, [sp, #56]	@ 0x38
1001640e:	2947      	cmp	r1, #71	@ 0x47
10016410:	bfc8      	it	gt
10016412:	461d      	movgt	r5, r3
10016414:	2300      	movs	r3, #0
10016416:	2103      	movs	r1, #3
10016418:	930c      	str	r3, [sp, #48]	@ 0x30
1001641a:	9106      	str	r1, [sp, #24]
1001641c:	468b      	mov	fp, r1
1001641e:	9309      	str	r3, [sp, #36]	@ 0x24
10016420:	9314      	str	r3, [sp, #80]	@ 0x50
10016422:	9310      	str	r3, [sp, #64]	@ 0x40
10016424:	9312      	str	r3, [sp, #72]	@ 0x48
10016426:	2a00      	cmp	r2, #0
10016428:	f43f af4a 	beq.w	100162c0 <_vfprintf_r+0x310>
1001642c:	9b06      	ldr	r3, [sp, #24]
1001642e:	3301      	adds	r3, #1
10016430:	9306      	str	r3, [sp, #24]
10016432:	e745      	b.n	100162c0 <_vfprintf_r+0x310>
10016434:	2e10      	cmp	r6, #16
10016436:	9a33      	ldr	r2, [sp, #204]	@ 0xcc
10016438:	f341 823a 	ble.w	100178b0 <_vfprintf_r+0x1900>
1001643c:	488c      	ldr	r0, [pc, #560]	@ (10016670 <_vfprintf_r+0x6c0>)
1001643e:	9521      	str	r5, [sp, #132]	@ 0x84
10016440:	e9cd 371f 	strd	r3, r7, [sp, #124]	@ 0x7c
10016444:	4621      	mov	r1, r4
10016446:	9d07      	ldr	r5, [sp, #28]
10016448:	9c08      	ldr	r4, [sp, #32]
1001644a:	9015      	str	r0, [sp, #84]	@ 0x54
1001644c:	f04f 0a10 	mov.w	sl, #16
10016450:	4607      	mov	r7, r0
10016452:	e004      	b.n	1001645e <_vfprintf_r+0x4ae>
10016454:	3e10      	subs	r6, #16
10016456:	2e10      	cmp	r6, #16
10016458:	f108 0808 	add.w	r8, r8, #8
1001645c:	dd16      	ble.n	1001648c <_vfprintf_r+0x4dc>
1001645e:	3201      	adds	r2, #1
10016460:	3110      	adds	r1, #16
10016462:	2a07      	cmp	r2, #7
10016464:	e9c8 7a00 	strd	r7, sl, [r8]
10016468:	e9cd 2133 	strd	r2, r1, [sp, #204]	@ 0xcc
1001646c:	ddf2      	ble.n	10016454 <_vfprintf_r+0x4a4>
1001646e:	aa32      	add	r2, sp, #200	@ 0xc8
10016470:	4629      	mov	r1, r5
10016472:	4620      	mov	r0, r4
10016474:	f10d 08d4 	add.w	r8, sp, #212	@ 0xd4
10016478:	f001 fc3e 	bl	10017cf8 <__sprint_r>
1001647c:	2800      	cmp	r0, #0
1001647e:	f040 8635 	bne.w	100170ec <_vfprintf_r+0x113c>
10016482:	3e10      	subs	r6, #16
10016484:	2e10      	cmp	r6, #16
10016486:	e9dd 2133 	ldrd	r2, r1, [sp, #204]	@ 0xcc
1001648a:	dce8      	bgt.n	1001645e <_vfprintf_r+0x4ae>
1001648c:	e9dd 371f 	ldrd	r3, r7, [sp, #124]	@ 0x7c
10016490:	9d21      	ldr	r5, [sp, #132]	@ 0x84
10016492:	460c      	mov	r4, r1
10016494:	3201      	adds	r2, #1
10016496:	9915      	ldr	r1, [sp, #84]	@ 0x54
10016498:	f8c8 1000 	str.w	r1, [r8]
1001649c:	4434      	add	r4, r6
1001649e:	2a07      	cmp	r2, #7
100164a0:	e9cd 2433 	strd	r2, r4, [sp, #204]	@ 0xcc
100164a4:	f8c8 6004 	str.w	r6, [r8, #4]
100164a8:	f300 860f 	bgt.w	100170ca <_vfprintf_r+0x111a>
100164ac:	f89d 209f 	ldrb.w	r2, [sp, #159]	@ 0x9f
100164b0:	f108 0808 	add.w	r8, r8, #8
100164b4:	e714      	b.n	100162e0 <_vfprintf_r+0x330>
100164b6:	0598      	lsls	r0, r3, #22
100164b8:	f53f aee0 	bmi.w	1001627c <_vfprintf_r+0x2cc>
100164bc:	9c07      	ldr	r4, [sp, #28]
100164be:	6da0      	ldr	r0, [r4, #88]	@ 0x58
100164c0:	f7fd fe84 	bl	100141cc <__retarget_lock_release_recursive>
100164c4:	f9b4 300c 	ldrsh.w	r3, [r4, #12]
100164c8:	e6d8      	b.n	1001627c <_vfprintf_r+0x2cc>
100164ca:	7823      	ldrb	r3, [r4, #0]
100164cc:	f049 0920 	orr.w	r9, r9, #32
100164d0:	e5e6      	b.n	100160a0 <_vfprintf_r+0xf0>
100164d2:	9a0d      	ldr	r2, [sp, #52]	@ 0x34
100164d4:	2b43      	cmp	r3, #67	@ 0x43
100164d6:	e9cd 340e 	strd	r3, r4, [sp, #56]	@ 0x38
100164da:	f102 0404 	add.w	r4, r2, #4
100164de:	f000 8561 	beq.w	10016fa4 <_vfprintf_r+0xff4>
100164e2:	f019 0f10 	tst.w	r9, #16
100164e6:	f040 855d 	bne.w	10016fa4 <_vfprintf_r+0xff4>
100164ea:	9b0d      	ldr	r3, [sp, #52]	@ 0x34
100164ec:	681b      	ldr	r3, [r3, #0]
100164ee:	f88d 3114 	strb.w	r3, [sp, #276]	@ 0x114
100164f2:	2301      	movs	r3, #1
100164f4:	9306      	str	r3, [sp, #24]
100164f6:	469b      	mov	fp, r3
100164f8:	ad45      	add	r5, sp, #276	@ 0x114
100164fa:	2200      	movs	r2, #0
100164fc:	940d      	str	r4, [sp, #52]	@ 0x34
100164fe:	f88d 209f 	strb.w	r2, [sp, #159]	@ 0x9f
10016502:	920c      	str	r2, [sp, #48]	@ 0x30
10016504:	9209      	str	r2, [sp, #36]	@ 0x24
10016506:	9214      	str	r2, [sp, #80]	@ 0x50
10016508:	9210      	str	r2, [sp, #64]	@ 0x40
1001650a:	9212      	str	r2, [sp, #72]	@ 0x48
1001650c:	e6d8      	b.n	100162c0 <_vfprintf_r+0x310>
1001650e:	9e0d      	ldr	r6, [sp, #52]	@ 0x34
10016510:	f856 5b04 	ldr.w	r5, [r6], #4
10016514:	e9cd 340e 	strd	r3, r4, [sp, #56]	@ 0x38
10016518:	2300      	movs	r3, #0
1001651a:	f88d 309f 	strb.w	r3, [sp, #159]	@ 0x9f
1001651e:	2d00      	cmp	r5, #0
10016520:	f000 852f 	beq.w	10016f82 <_vfprintf_r+0xfd2>
10016524:	9b0e      	ldr	r3, [sp, #56]	@ 0x38
10016526:	2b53      	cmp	r3, #83	@ 0x53
10016528:	f000 8600 	beq.w	1001712c <_vfprintf_r+0x117c>
1001652c:	f019 0310 	ands.w	r3, r9, #16
10016530:	9312      	str	r3, [sp, #72]	@ 0x48
10016532:	f040 85fb 	bne.w	1001712c <_vfprintf_r+0x117c>
10016536:	9b09      	ldr	r3, [sp, #36]	@ 0x24
10016538:	1c5a      	adds	r2, r3, #1
1001653a:	f000 8767 	beq.w	1001740c <_vfprintf_r+0x145c>
1001653e:	9912      	ldr	r1, [sp, #72]	@ 0x48
10016540:	461a      	mov	r2, r3
10016542:	4628      	mov	r0, r5
10016544:	f7fe ff6c 	bl	10015420 <memchr>
10016548:	900c      	str	r0, [sp, #48]	@ 0x30
1001654a:	2800      	cmp	r0, #0
1001654c:	f001 82c2 	beq.w	10017ad4 <_vfprintf_r+0x1b24>
10016550:	9b0c      	ldr	r3, [sp, #48]	@ 0x30
10016552:	960d      	str	r6, [sp, #52]	@ 0x34
10016554:	eba3 0b05 	sub.w	fp, r3, r5
10016558:	9b12      	ldr	r3, [sp, #72]	@ 0x48
1001655a:	9309      	str	r3, [sp, #36]	@ 0x24
1001655c:	ea2b 71eb 	bic.w	r1, fp, fp, asr #31
10016560:	9314      	str	r3, [sp, #80]	@ 0x50
10016562:	9310      	str	r3, [sp, #64]	@ 0x40
10016564:	930c      	str	r3, [sp, #48]	@ 0x30
10016566:	2373      	movs	r3, #115	@ 0x73
10016568:	f89d 209f 	ldrb.w	r2, [sp, #159]	@ 0x9f
1001656c:	9106      	str	r1, [sp, #24]
1001656e:	930e      	str	r3, [sp, #56]	@ 0x38
10016570:	e759      	b.n	10016426 <_vfprintf_r+0x476>
10016572:	f019 0f20 	tst.w	r9, #32
10016576:	e9cd 340e 	strd	r3, r4, [sp, #56]	@ 0x38
1001657a:	f000 80cb 	beq.w	10016714 <_vfprintf_r+0x764>
1001657e:	9b0d      	ldr	r3, [sp, #52]	@ 0x34
10016580:	3307      	adds	r3, #7
10016582:	f023 0307 	bic.w	r3, r3, #7
10016586:	461a      	mov	r2, r3
10016588:	6859      	ldr	r1, [r3, #4]
1001658a:	f852 3b08 	ldr.w	r3, [r2], #8
1001658e:	920d      	str	r2, [sp, #52]	@ 0x34
10016590:	460a      	mov	r2, r1
10016592:	2900      	cmp	r1, #0
10016594:	f2c0 8424 	blt.w	10016de0 <_vfprintf_r+0xe30>
10016598:	9909      	ldr	r1, [sp, #36]	@ 0x24
1001659a:	3101      	adds	r1, #1
1001659c:	f000 8284 	beq.w	10016aa8 <_vfprintf_r+0xaf8>
100165a0:	ea53 0102 	orrs.w	r1, r3, r2
100165a4:	f029 0480 	bic.w	r4, r9, #128	@ 0x80
100165a8:	f040 827f 	bne.w	10016aaa <_vfprintf_r+0xafa>
100165ac:	9a09      	ldr	r2, [sp, #36]	@ 0x24
100165ae:	2a00      	cmp	r2, #0
100165b0:	f040 8280 	bne.w	10016ab4 <_vfprintf_r+0xb04>
100165b4:	46a1      	mov	r9, r4
100165b6:	4693      	mov	fp, r2
100165b8:	ad5e      	add	r5, sp, #376	@ 0x178
100165ba:	e14f      	b.n	1001685c <_vfprintf_r+0x8ac>
100165bc:	9b0d      	ldr	r3, [sp, #52]	@ 0x34
100165be:	f853 2b04 	ldr.w	r2, [r3], #4
100165c2:	920b      	str	r2, [sp, #44]	@ 0x2c
100165c4:	2a00      	cmp	r2, #0
100165c6:	f280 83cd 	bge.w	10016d64 <_vfprintf_r+0xdb4>
100165ca:	9a0b      	ldr	r2, [sp, #44]	@ 0x2c
100165cc:	930d      	str	r3, [sp, #52]	@ 0x34
100165ce:	4252      	negs	r2, r2
100165d0:	920b      	str	r2, [sp, #44]	@ 0x2c
100165d2:	7823      	ldrb	r3, [r4, #0]
100165d4:	f049 0904 	orr.w	r9, r9, #4
100165d8:	e562      	b.n	100160a0 <_vfprintf_r+0xf0>
100165da:	7823      	ldrb	r3, [r4, #0]
100165dc:	2b6c      	cmp	r3, #108	@ 0x6c
100165de:	bf03      	ittte	eq
100165e0:	7863      	ldrbeq	r3, [r4, #1]
100165e2:	f049 0920 	orreq.w	r9, r9, #32
100165e6:	3401      	addeq	r4, #1
100165e8:	f049 0910 	orrne.w	r9, r9, #16
100165ec:	e558      	b.n	100160a0 <_vfprintf_r+0xf0>
100165ee:	7823      	ldrb	r3, [r4, #0]
100165f0:	2b68      	cmp	r3, #104	@ 0x68
100165f2:	bf03      	ittte	eq
100165f4:	7863      	ldrbeq	r3, [r4, #1]
100165f6:	f449 7900 	orreq.w	r9, r9, #512	@ 0x200
100165fa:	3401      	addeq	r4, #1
100165fc:	f049 0940 	orrne.w	r9, r9, #64	@ 0x40
10016600:	e54e      	b.n	100160a0 <_vfprintf_r+0xf0>
10016602:	232b      	movs	r3, #43	@ 0x2b
10016604:	f88d 309f 	strb.w	r3, [sp, #159]	@ 0x9f
10016608:	7823      	ldrb	r3, [r4, #0]
1001660a:	e549      	b.n	100160a0 <_vfprintf_r+0xf0>
1001660c:	7823      	ldrb	r3, [r4, #0]
1001660e:	f049 0980 	orr.w	r9, r9, #128	@ 0x80
10016612:	e545      	b.n	100160a0 <_vfprintf_r+0xf0>
10016614:	4621      	mov	r1, r4
10016616:	f811 3b01 	ldrb.w	r3, [r1], #1
1001661a:	2b2a      	cmp	r3, #42	@ 0x2a
1001661c:	f001 82d7 	beq.w	10017bce <_vfprintf_r+0x1c1e>
10016620:	f1a3 0230 	sub.w	r2, r3, #48	@ 0x30
10016624:	2a09      	cmp	r2, #9
10016626:	460c      	mov	r4, r1
10016628:	bf98      	it	ls
1001662a:	2100      	movls	r1, #0
1001662c:	f201 816f 	bhi.w	1001790e <_vfprintf_r+0x195e>
10016630:	f814 3b01 	ldrb.w	r3, [r4], #1
10016634:	eb01 0181 	add.w	r1, r1, r1, lsl #2
10016638:	eb02 0141 	add.w	r1, r2, r1, lsl #1
1001663c:	f1a3 0230 	sub.w	r2, r3, #48	@ 0x30
10016640:	2a09      	cmp	r2, #9
10016642:	d9f5      	bls.n	10016630 <_vfprintf_r+0x680>
10016644:	9109      	str	r1, [sp, #36]	@ 0x24
10016646:	e52c      	b.n	100160a2 <_vfprintf_r+0xf2>
10016648:	7823      	ldrb	r3, [r4, #0]
1001664a:	f049 0901 	orr.w	r9, r9, #1
1001664e:	e527      	b.n	100160a0 <_vfprintf_r+0xf0>
10016650:	f89d 209f 	ldrb.w	r2, [sp, #159]	@ 0x9f
10016654:	7823      	ldrb	r3, [r4, #0]
10016656:	2a00      	cmp	r2, #0
10016658:	f47f ad22 	bne.w	100160a0 <_vfprintf_r+0xf0>
1001665c:	2220      	movs	r2, #32
1001665e:	f88d 209f 	strb.w	r2, [sp, #159]	@ 0x9f
10016662:	e51d      	b.n	100160a0 <_vfprintf_r+0xf0>
10016664:	7fefffff 	.word	0x7fefffff
10016668:	1001b194 	.word	0x1001b194
1001666c:	1001b198 	.word	0x1001b198
10016670:	1001b3d4 	.word	0x1001b3d4
10016674:	e9cd 340e 	strd	r3, r4, [sp, #56]	@ 0x38
10016678:	f049 0910 	orr.w	r9, r9, #16
1001667c:	f019 0220 	ands.w	r2, r9, #32
10016680:	f000 8354 	beq.w	10016d2c <_vfprintf_r+0xd7c>
10016684:	9b0d      	ldr	r3, [sp, #52]	@ 0x34
10016686:	3307      	adds	r3, #7
10016688:	f023 0307 	bic.w	r3, r3, #7
1001668c:	4619      	mov	r1, r3
1001668e:	685a      	ldr	r2, [r3, #4]
10016690:	f851 3b08 	ldr.w	r3, [r1], #8
10016694:	910d      	str	r1, [sp, #52]	@ 0x34
10016696:	f429 6480 	bic.w	r4, r9, #1024	@ 0x400
1001669a:	2100      	movs	r1, #0
1001669c:	2000      	movs	r0, #0
1001669e:	9d09      	ldr	r5, [sp, #36]	@ 0x24
100166a0:	f88d 009f 	strb.w	r0, [sp, #159]	@ 0x9f
100166a4:	1c6f      	adds	r7, r5, #1
100166a6:	f000 80c2 	beq.w	1001682e <_vfprintf_r+0x87e>
100166aa:	ea53 0002 	orrs.w	r0, r3, r2
100166ae:	f024 0980 	bic.w	r9, r4, #128	@ 0x80
100166b2:	f040 80bb 	bne.w	1001682c <_vfprintf_r+0x87c>
100166b6:	2d00      	cmp	r5, #0
100166b8:	f040 8523 	bne.w	10017102 <_vfprintf_r+0x1152>
100166bc:	2900      	cmp	r1, #0
100166be:	f040 8496 	bne.w	10016fee <_vfprintf_r+0x103e>
100166c2:	f014 0b01 	ands.w	fp, r4, #1
100166c6:	f000 8351 	beq.w	10016d6c <_vfprintf_r+0xdbc>
100166ca:	2330      	movs	r3, #48	@ 0x30
100166cc:	f88d 3177 	strb.w	r3, [sp, #375]	@ 0x177
100166d0:	f20d 1577 	addw	r5, sp, #375	@ 0x177
100166d4:	e0c2      	b.n	1001685c <_vfprintf_r+0x8ac>
100166d6:	e9cd 340e 	strd	r3, r4, [sp, #56]	@ 0x38
100166da:	f049 0410 	orr.w	r4, r9, #16
100166de:	f014 0220 	ands.w	r2, r4, #32
100166e2:	f000 8315 	beq.w	10016d10 <_vfprintf_r+0xd60>
100166e6:	9b0d      	ldr	r3, [sp, #52]	@ 0x34
100166e8:	3307      	adds	r3, #7
100166ea:	f023 0307 	bic.w	r3, r3, #7
100166ee:	4619      	mov	r1, r3
100166f0:	685a      	ldr	r2, [r3, #4]
100166f2:	f851 3b08 	ldr.w	r3, [r1], #8
100166f6:	910d      	str	r1, [sp, #52]	@ 0x34
100166f8:	2101      	movs	r1, #1
100166fa:	e7cf      	b.n	1001669c <_vfprintf_r+0x6ec>
100166fc:	7823      	ldrb	r3, [r4, #0]
100166fe:	f049 0908 	orr.w	r9, r9, #8
10016702:	e4cd      	b.n	100160a0 <_vfprintf_r+0xf0>
10016704:	f049 0910 	orr.w	r9, r9, #16
10016708:	f019 0f20 	tst.w	r9, #32
1001670c:	e9cd 340e 	strd	r3, r4, [sp, #56]	@ 0x38
10016710:	f47f af35 	bne.w	1001657e <_vfprintf_r+0x5ce>
10016714:	9a0d      	ldr	r2, [sp, #52]	@ 0x34
10016716:	f019 0f10 	tst.w	r9, #16
1001671a:	f852 3b04 	ldr.w	r3, [r2], #4
1001671e:	920d      	str	r2, [sp, #52]	@ 0x34
10016720:	f040 8359 	bne.w	10016dd6 <_vfprintf_r+0xe26>
10016724:	f019 0f40 	tst.w	r9, #64	@ 0x40
10016728:	f000 8351 	beq.w	10016dce <_vfprintf_r+0xe1e>
1001672c:	f343 32c0 	sbfx	r2, r3, #15, #1
10016730:	4611      	mov	r1, r2
10016732:	b21b      	sxth	r3, r3
10016734:	e72d      	b.n	10016592 <_vfprintf_r+0x5e2>
10016736:	9a0d      	ldr	r2, [sp, #52]	@ 0x34
10016738:	940f      	str	r4, [sp, #60]	@ 0x3c
1001673a:	f852 3b04 	ldr.w	r3, [r2], #4
1001673e:	920d      	str	r2, [sp, #52]	@ 0x34
10016740:	f647 0230 	movw	r2, #30768	@ 0x7830
10016744:	f8ad 20a0 	strh.w	r2, [sp, #160]	@ 0xa0
10016748:	2078      	movs	r0, #120	@ 0x78
1001674a:	4ab1      	ldr	r2, [pc, #708]	@ (10016a10 <_vfprintf_r+0xa60>)
1001674c:	921a      	str	r2, [sp, #104]	@ 0x68
1001674e:	f049 0402 	orr.w	r4, r9, #2
10016752:	2200      	movs	r2, #0
10016754:	2102      	movs	r1, #2
10016756:	900e      	str	r0, [sp, #56]	@ 0x38
10016758:	e7a0      	b.n	1001669c <_vfprintf_r+0x6ec>
1001675a:	f019 0f20 	tst.w	r9, #32
1001675e:	940f      	str	r4, [sp, #60]	@ 0x3c
10016760:	f000 8359 	beq.w	10016e16 <_vfprintf_r+0xe66>
10016764:	9b0d      	ldr	r3, [sp, #52]	@ 0x34
10016766:	9a0a      	ldr	r2, [sp, #40]	@ 0x28
10016768:	681b      	ldr	r3, [r3, #0]
1001676a:	601a      	str	r2, [r3, #0]
1001676c:	17d2      	asrs	r2, r2, #31
1001676e:	605a      	str	r2, [r3, #4]
10016770:	9b0d      	ldr	r3, [sp, #52]	@ 0x34
10016772:	3304      	adds	r3, #4
10016774:	930d      	str	r3, [sp, #52]	@ 0x34
10016776:	e610      	b.n	1001639a <_vfprintf_r+0x3ea>
10016778:	9b0e      	ldr	r3, [sp, #56]	@ 0x38
1001677a:	2b65      	cmp	r3, #101	@ 0x65
1001677c:	f340 814e 	ble.w	10016a1c <_vfprintf_r+0xa6c>
10016780:	e9dd 0116 	ldrd	r0, r1, [sp, #88]	@ 0x58
10016784:	2200      	movs	r2, #0
10016786:	2300      	movs	r3, #0
10016788:	f004 f9a2 	bl	1001aad0 <__aeabi_dcmpeq>
1001678c:	2800      	cmp	r0, #0
1001678e:	f000 81ee 	beq.w	10016b6e <_vfprintf_r+0xbbe>
10016792:	9b33      	ldr	r3, [sp, #204]	@ 0xcc
10016794:	4a9f      	ldr	r2, [pc, #636]	@ (10016a14 <_vfprintf_r+0xa64>)
10016796:	f8c8 2000 	str.w	r2, [r8]
1001679a:	3301      	adds	r3, #1
1001679c:	3401      	adds	r4, #1
1001679e:	2201      	movs	r2, #1
100167a0:	2b07      	cmp	r3, #7
100167a2:	9434      	str	r4, [sp, #208]	@ 0xd0
100167a4:	9333      	str	r3, [sp, #204]	@ 0xcc
100167a6:	f8c8 2004 	str.w	r2, [r8, #4]
100167aa:	f300 84af 	bgt.w	1001710c <_vfprintf_r+0x115c>
100167ae:	f108 0808 	add.w	r8, r8, #8
100167b2:	9b29      	ldr	r3, [sp, #164]	@ 0xa4
100167b4:	9a13      	ldr	r2, [sp, #76]	@ 0x4c
100167b6:	4293      	cmp	r3, r2
100167b8:	f280 82cf 	bge.w	10016d5a <_vfprintf_r+0xdaa>
100167bc:	9b18      	ldr	r3, [sp, #96]	@ 0x60
100167be:	9a19      	ldr	r2, [sp, #100]	@ 0x64
100167c0:	441c      	add	r4, r3
100167c2:	e9c8 2300 	strd	r2, r3, [r8]
100167c6:	9b33      	ldr	r3, [sp, #204]	@ 0xcc
100167c8:	9434      	str	r4, [sp, #208]	@ 0xd0
100167ca:	3301      	adds	r3, #1
100167cc:	2b07      	cmp	r3, #7
100167ce:	9333      	str	r3, [sp, #204]	@ 0xcc
100167d0:	f300 83cb 	bgt.w	10016f6a <_vfprintf_r+0xfba>
100167d4:	f108 0808 	add.w	r8, r8, #8
100167d8:	9b13      	ldr	r3, [sp, #76]	@ 0x4c
100167da:	1e5d      	subs	r5, r3, #1
100167dc:	2d00      	cmp	r5, #0
100167de:	f77f adbe 	ble.w	1001635e <_vfprintf_r+0x3ae>
100167e2:	2d10      	cmp	r5, #16
100167e4:	9b33      	ldr	r3, [sp, #204]	@ 0xcc
100167e6:	f340 84f9 	ble.w	100171dc <_vfprintf_r+0x122c>
100167ea:	4f8b      	ldr	r7, [pc, #556]	@ (10016a18 <_vfprintf_r+0xa68>)
100167ec:	9715      	str	r7, [sp, #84]	@ 0x54
100167ee:	e9dd ab07 	ldrd	sl, fp, [sp, #28]
100167f2:	2610      	movs	r6, #16
100167f4:	e005      	b.n	10016802 <_vfprintf_r+0x852>
100167f6:	f108 0808 	add.w	r8, r8, #8
100167fa:	3d10      	subs	r5, #16
100167fc:	2d10      	cmp	r5, #16
100167fe:	f340 84ef 	ble.w	100171e0 <_vfprintf_r+0x1230>
10016802:	3301      	adds	r3, #1
10016804:	3410      	adds	r4, #16
10016806:	2b07      	cmp	r3, #7
10016808:	e9c8 7600 	strd	r7, r6, [r8]
1001680c:	e9cd 3433 	strd	r3, r4, [sp, #204]	@ 0xcc
10016810:	ddf1      	ble.n	100167f6 <_vfprintf_r+0x846>
10016812:	aa32      	add	r2, sp, #200	@ 0xc8
10016814:	4651      	mov	r1, sl
10016816:	4658      	mov	r0, fp
10016818:	f001 fa6e 	bl	10017cf8 <__sprint_r>
1001681c:	2800      	cmp	r0, #0
1001681e:	f47f ad1f 	bne.w	10016260 <_vfprintf_r+0x2b0>
10016822:	e9dd 3433 	ldrd	r3, r4, [sp, #204]	@ 0xcc
10016826:	f10d 08d4 	add.w	r8, sp, #212	@ 0xd4
1001682a:	e7e6      	b.n	100167fa <_vfprintf_r+0x84a>
1001682c:	464c      	mov	r4, r9
1001682e:	2901      	cmp	r1, #1
10016830:	f000 813b 	beq.w	10016aaa <_vfprintf_r+0xafa>
10016834:	2902      	cmp	r1, #2
10016836:	ad5e      	add	r5, sp, #376	@ 0x178
10016838:	d11e      	bne.n	10016878 <_vfprintf_r+0x8c8>
1001683a:	981a      	ldr	r0, [sp, #104]	@ 0x68
1001683c:	f003 010f 	and.w	r1, r3, #15
10016840:	091b      	lsrs	r3, r3, #4
10016842:	5c41      	ldrb	r1, [r0, r1]
10016844:	f805 1d01 	strb.w	r1, [r5, #-1]!
10016848:	ea43 7302 	orr.w	r3, r3, r2, lsl #28
1001684c:	0912      	lsrs	r2, r2, #4
1001684e:	ea53 0102 	orrs.w	r1, r3, r2
10016852:	d1f3      	bne.n	1001683c <_vfprintf_r+0x88c>
10016854:	ab5e      	add	r3, sp, #376	@ 0x178
10016856:	46a1      	mov	r9, r4
10016858:	eba3 0b05 	sub.w	fp, r3, r5
1001685c:	9909      	ldr	r1, [sp, #36]	@ 0x24
1001685e:	f89d 209f 	ldrb.w	r2, [sp, #159]	@ 0x9f
10016862:	4559      	cmp	r1, fp
10016864:	f04f 0300 	mov.w	r3, #0
10016868:	bfb8      	it	lt
1001686a:	4659      	movlt	r1, fp
1001686c:	930c      	str	r3, [sp, #48]	@ 0x30
1001686e:	9106      	str	r1, [sp, #24]
10016870:	9314      	str	r3, [sp, #80]	@ 0x50
10016872:	9310      	str	r3, [sp, #64]	@ 0x40
10016874:	9312      	str	r3, [sp, #72]	@ 0x48
10016876:	e5d6      	b.n	10016426 <_vfprintf_r+0x476>
10016878:	f003 0107 	and.w	r1, r3, #7
1001687c:	08db      	lsrs	r3, r3, #3
1001687e:	ea43 7342 	orr.w	r3, r3, r2, lsl #29
10016882:	08d2      	lsrs	r2, r2, #3
10016884:	3130      	adds	r1, #48	@ 0x30
10016886:	ea53 0602 	orrs.w	r6, r3, r2
1001688a:	4628      	mov	r0, r5
1001688c:	f805 1d01 	strb.w	r1, [r5, #-1]!
10016890:	d1f2      	bne.n	10016878 <_vfprintf_r+0x8c8>
10016892:	07e6      	lsls	r6, r4, #31
10016894:	d5de      	bpl.n	10016854 <_vfprintf_r+0x8a4>
10016896:	2930      	cmp	r1, #48	@ 0x30
10016898:	d0dc      	beq.n	10016854 <_vfprintf_r+0x8a4>
1001689a:	2330      	movs	r3, #48	@ 0x30
1001689c:	3802      	subs	r0, #2
1001689e:	f805 3c01 	strb.w	r3, [r5, #-1]
100168a2:	ab5e      	add	r3, sp, #376	@ 0x178
100168a4:	46a1      	mov	r9, r4
100168a6:	eba3 0b00 	sub.w	fp, r3, r0
100168aa:	4605      	mov	r5, r0
100168ac:	e7d6      	b.n	1001685c <_vfprintf_r+0x8ac>
100168ae:	9b0b      	ldr	r3, [sp, #44]	@ 0x2c
100168b0:	9a06      	ldr	r2, [sp, #24]
100168b2:	1a9e      	subs	r6, r3, r2
100168b4:	2e00      	cmp	r6, #0
100168b6:	f77f ad3a 	ble.w	1001632e <_vfprintf_r+0x37e>
100168ba:	2e10      	cmp	r6, #16
100168bc:	9b33      	ldr	r3, [sp, #204]	@ 0xcc
100168be:	f341 80ab 	ble.w	10017a18 <_vfprintf_r+0x1a68>
100168c2:	4855      	ldr	r0, [pc, #340]	@ (10016a18 <_vfprintf_r+0xa68>)
100168c4:	f8dd a020 	ldr.w	sl, [sp, #32]
100168c8:	9015      	str	r0, [sp, #84]	@ 0x54
100168ca:	4621      	mov	r1, r4
100168cc:	2710      	movs	r7, #16
100168ce:	461a      	mov	r2, r3
100168d0:	4604      	mov	r4, r0
100168d2:	e004      	b.n	100168de <_vfprintf_r+0x92e>
100168d4:	3e10      	subs	r6, #16
100168d6:	2e10      	cmp	r6, #16
100168d8:	f108 0808 	add.w	r8, r8, #8
100168dc:	dd16      	ble.n	1001690c <_vfprintf_r+0x95c>
100168de:	3201      	adds	r2, #1
100168e0:	3110      	adds	r1, #16
100168e2:	2a07      	cmp	r2, #7
100168e4:	e9c8 4700 	strd	r4, r7, [r8]
100168e8:	e9cd 2133 	strd	r2, r1, [sp, #204]	@ 0xcc
100168ec:	ddf2      	ble.n	100168d4 <_vfprintf_r+0x924>
100168ee:	9907      	ldr	r1, [sp, #28]
100168f0:	aa32      	add	r2, sp, #200	@ 0xc8
100168f2:	4650      	mov	r0, sl
100168f4:	f10d 08d4 	add.w	r8, sp, #212	@ 0xd4
100168f8:	f001 f9fe 	bl	10017cf8 <__sprint_r>
100168fc:	2800      	cmp	r0, #0
100168fe:	f040 83f8 	bne.w	100170f2 <_vfprintf_r+0x1142>
10016902:	3e10      	subs	r6, #16
10016904:	2e10      	cmp	r6, #16
10016906:	e9dd 2133 	ldrd	r2, r1, [sp, #204]	@ 0xcc
1001690a:	dce8      	bgt.n	100168de <_vfprintf_r+0x92e>
1001690c:	460c      	mov	r4, r1
1001690e:	4613      	mov	r3, r2
10016910:	3301      	adds	r3, #1
10016912:	9a15      	ldr	r2, [sp, #84]	@ 0x54
10016914:	f8c8 2000 	str.w	r2, [r8]
10016918:	4434      	add	r4, r6
1001691a:	2b07      	cmp	r3, #7
1001691c:	e9cd 3433 	strd	r3, r4, [sp, #204]	@ 0xcc
10016920:	f8c8 6004 	str.w	r6, [r8, #4]
10016924:	f300 8314 	bgt.w	10016f50 <_vfprintf_r+0xfa0>
10016928:	9b09      	ldr	r3, [sp, #36]	@ 0x24
1001692a:	eba3 060b 	sub.w	r6, r3, fp
1001692e:	2e00      	cmp	r6, #0
10016930:	f108 0808 	add.w	r8, r8, #8
10016934:	f77f ad01 	ble.w	1001633a <_vfprintf_r+0x38a>
10016938:	4a37      	ldr	r2, [pc, #220]	@ (10016a18 <_vfprintf_r+0xa68>)
1001693a:	9b33      	ldr	r3, [sp, #204]	@ 0xcc
1001693c:	9215      	str	r2, [sp, #84]	@ 0x54
1001693e:	2e10      	cmp	r6, #16
10016940:	dd23      	ble.n	1001698a <_vfprintf_r+0x9da>
10016942:	4622      	mov	r2, r4
10016944:	f04f 0a10 	mov.w	sl, #16
10016948:	e9dd 4707 	ldrd	r4, r7, [sp, #28]
1001694c:	e004      	b.n	10016958 <_vfprintf_r+0x9a8>
1001694e:	3e10      	subs	r6, #16
10016950:	2e10      	cmp	r6, #16
10016952:	f108 0808 	add.w	r8, r8, #8
10016956:	dd17      	ble.n	10016988 <_vfprintf_r+0x9d8>
10016958:	3301      	adds	r3, #1
1001695a:	492f      	ldr	r1, [pc, #188]	@ (10016a18 <_vfprintf_r+0xa68>)
1001695c:	3210      	adds	r2, #16
1001695e:	2b07      	cmp	r3, #7
10016960:	e9c8 1a00 	strd	r1, sl, [r8]
10016964:	e9cd 3233 	strd	r3, r2, [sp, #204]	@ 0xcc
10016968:	ddf1      	ble.n	1001694e <_vfprintf_r+0x99e>
1001696a:	aa32      	add	r2, sp, #200	@ 0xc8
1001696c:	4621      	mov	r1, r4
1001696e:	4638      	mov	r0, r7
10016970:	f001 f9c2 	bl	10017cf8 <__sprint_r>
10016974:	2800      	cmp	r0, #0
10016976:	f47f ac72 	bne.w	1001625e <_vfprintf_r+0x2ae>
1001697a:	3e10      	subs	r6, #16
1001697c:	2e10      	cmp	r6, #16
1001697e:	e9dd 3233 	ldrd	r3, r2, [sp, #204]	@ 0xcc
10016982:	f10d 08d4 	add.w	r8, sp, #212	@ 0xd4
10016986:	dce7      	bgt.n	10016958 <_vfprintf_r+0x9a8>
10016988:	4614      	mov	r4, r2
1001698a:	3301      	adds	r3, #1
1001698c:	9a15      	ldr	r2, [sp, #84]	@ 0x54
1001698e:	f8c8 2000 	str.w	r2, [r8]
10016992:	4434      	add	r4, r6
10016994:	2b07      	cmp	r3, #7
10016996:	e9cd 3433 	strd	r3, r4, [sp, #204]	@ 0xcc
1001699a:	f8c8 6004 	str.w	r6, [r8, #4]
1001699e:	f300 81aa 	bgt.w	10016cf6 <_vfprintf_r+0xd46>
100169a2:	f108 0808 	add.w	r8, r8, #8
100169a6:	e4c8      	b.n	1001633a <_vfprintf_r+0x38a>
100169a8:	e9dd 1007 	ldrd	r1, r0, [sp, #28]
100169ac:	aa32      	add	r2, sp, #200	@ 0xc8
100169ae:	f001 f9a3 	bl	10017cf8 <__sprint_r>
100169b2:	2800      	cmp	r0, #0
100169b4:	f43f ace7 	beq.w	10016386 <_vfprintf_r+0x3d6>
100169b8:	f8dd b020 	ldr.w	fp, [sp, #32]
100169bc:	e450      	b.n	10016260 <_vfprintf_r+0x2b0>
100169be:	9b18      	ldr	r3, [sp, #96]	@ 0x60
100169c0:	9919      	ldr	r1, [sp, #100]	@ 0x64
100169c2:	441c      	add	r4, r3
100169c4:	e9c8 1300 	strd	r1, r3, [r8]
100169c8:	9b33      	ldr	r3, [sp, #204]	@ 0xcc
100169ca:	9434      	str	r4, [sp, #208]	@ 0xd0
100169cc:	3301      	adds	r3, #1
100169ce:	2b07      	cmp	r3, #7
100169d0:	9333      	str	r3, [sp, #204]	@ 0xcc
100169d2:	f300 85bd 	bgt.w	10017550 <_vfprintf_r+0x15a0>
100169d6:	f108 0808 	add.w	r8, r8, #8
100169da:	2a00      	cmp	r2, #0
100169dc:	f2c0 87ac 	blt.w	10017938 <_vfprintf_r+0x1988>
100169e0:	9a13      	ldr	r2, [sp, #76]	@ 0x4c
100169e2:	f8c8 5000 	str.w	r5, [r8]
100169e6:	3301      	adds	r3, #1
100169e8:	4414      	add	r4, r2
100169ea:	2b07      	cmp	r3, #7
100169ec:	e9cd 3433 	strd	r3, r4, [sp, #204]	@ 0xcc
100169f0:	f8c8 2004 	str.w	r2, [r8, #4]
100169f4:	f77f acb1 	ble.w	1001635a <_vfprintf_r+0x3aa>
100169f8:	e9dd 1007 	ldrd	r1, r0, [sp, #28]
100169fc:	aa32      	add	r2, sp, #200	@ 0xc8
100169fe:	f001 f97b 	bl	10017cf8 <__sprint_r>
10016a02:	2800      	cmp	r0, #0
10016a04:	d1d8      	bne.n	100169b8 <_vfprintf_r+0xa08>
10016a06:	9c34      	ldr	r4, [sp, #208]	@ 0xd0
10016a08:	f10d 08d4 	add.w	r8, sp, #212	@ 0xd4
10016a0c:	e4a7      	b.n	1001635e <_vfprintf_r+0x3ae>
10016a0e:	bf00      	nop
10016a10:	1001b1a4 	.word	0x1001b1a4
10016a14:	1001b1d4 	.word	0x1001b1d4
10016a18:	1001b3c4 	.word	0x1001b3c4
10016a1c:	9b13      	ldr	r3, [sp, #76]	@ 0x4c
10016a1e:	9e33      	ldr	r6, [sp, #204]	@ 0xcc
10016a20:	2b01      	cmp	r3, #1
10016a22:	f104 0401 	add.w	r4, r4, #1
10016a26:	f106 0601 	add.w	r6, r6, #1
10016a2a:	f108 0708 	add.w	r7, r8, #8
10016a2e:	f340 811d 	ble.w	10016c6c <_vfprintf_r+0xcbc>
10016a32:	2301      	movs	r3, #1
10016a34:	2e07      	cmp	r6, #7
10016a36:	e9cd 6433 	strd	r6, r4, [sp, #204]	@ 0xcc
10016a3a:	f8c8 5000 	str.w	r5, [r8]
10016a3e:	f8c8 3004 	str.w	r3, [r8, #4]
10016a42:	f300 82e4 	bgt.w	1001700e <_vfprintf_r+0x105e>
10016a46:	9b18      	ldr	r3, [sp, #96]	@ 0x60
10016a48:	9a19      	ldr	r2, [sp, #100]	@ 0x64
10016a4a:	3601      	adds	r6, #1
10016a4c:	441c      	add	r4, r3
10016a4e:	2e07      	cmp	r6, #7
10016a50:	e9c7 2300 	strd	r2, r3, [r7]
10016a54:	e9cd 6433 	strd	r6, r4, [sp, #204]	@ 0xcc
10016a58:	f300 82cd 	bgt.w	10016ff6 <_vfprintf_r+0x1046>
10016a5c:	3708      	adds	r7, #8
10016a5e:	9b13      	ldr	r3, [sp, #76]	@ 0x4c
10016a60:	e9dd 0116 	ldrd	r0, r1, [sp, #88]	@ 0x58
10016a64:	f103 38ff 	add.w	r8, r3, #4294967295	@ 0xffffffff
10016a68:	2200      	movs	r2, #0
10016a6a:	2300      	movs	r3, #0
10016a6c:	f004 f830 	bl	1001aad0 <__aeabi_dcmpeq>
10016a70:	2800      	cmp	r0, #0
10016a72:	f040 8115 	bne.w	10016ca0 <_vfprintf_r+0xcf0>
10016a76:	3601      	adds	r6, #1
10016a78:	3501      	adds	r5, #1
10016a7a:	4444      	add	r4, r8
10016a7c:	2e07      	cmp	r6, #7
10016a7e:	e9cd 6433 	strd	r6, r4, [sp, #204]	@ 0xcc
10016a82:	603d      	str	r5, [r7, #0]
10016a84:	f8c7 8004 	str.w	r8, [r7, #4]
10016a88:	f300 80fe 	bgt.w	10016c88 <_vfprintf_r+0xcd8>
10016a8c:	3708      	adds	r7, #8
10016a8e:	9b1c      	ldr	r3, [sp, #112]	@ 0x70
10016a90:	607b      	str	r3, [r7, #4]
10016a92:	3601      	adds	r6, #1
10016a94:	441c      	add	r4, r3
10016a96:	2e07      	cmp	r6, #7
10016a98:	ab2c      	add	r3, sp, #176	@ 0xb0
10016a9a:	e9cd 6433 	strd	r6, r4, [sp, #204]	@ 0xcc
10016a9e:	603b      	str	r3, [r7, #0]
10016aa0:	dcaa      	bgt.n	100169f8 <_vfprintf_r+0xa48>
10016aa2:	f107 0808 	add.w	r8, r7, #8
10016aa6:	e45a      	b.n	1001635e <_vfprintf_r+0x3ae>
10016aa8:	464c      	mov	r4, r9
10016aaa:	2b0a      	cmp	r3, #10
10016aac:	f172 0100 	sbcs.w	r1, r2, #0
10016ab0:	f080 82b9 	bcs.w	10017026 <_vfprintf_r+0x1076>
10016ab4:	3330      	adds	r3, #48	@ 0x30
10016ab6:	f88d 3177 	strb.w	r3, [sp, #375]	@ 0x177
10016aba:	46a1      	mov	r9, r4
10016abc:	f04f 0b01 	mov.w	fp, #1
10016ac0:	f20d 1577 	addw	r5, sp, #375	@ 0x177
10016ac4:	e6ca      	b.n	1001685c <_vfprintf_r+0x8ac>
10016ac6:	e9dd 1007 	ldrd	r1, r0, [sp, #28]
10016aca:	aa32      	add	r2, sp, #200	@ 0xc8
10016acc:	9315      	str	r3, [sp, #84]	@ 0x54
10016ace:	f001 f913 	bl	10017cf8 <__sprint_r>
10016ad2:	2800      	cmp	r0, #0
10016ad4:	f47f af70 	bne.w	100169b8 <_vfprintf_r+0xa08>
10016ad8:	9c34      	ldr	r4, [sp, #208]	@ 0xd0
10016ada:	9b15      	ldr	r3, [sp, #84]	@ 0x54
10016adc:	f10d 08d4 	add.w	r8, sp, #212	@ 0xd4
10016ae0:	e410      	b.n	10016304 <_vfprintf_r+0x354>
10016ae2:	e9dd 1007 	ldrd	r1, r0, [sp, #28]
10016ae6:	aa32      	add	r2, sp, #200	@ 0xc8
10016ae8:	f001 f906 	bl	10017cf8 <__sprint_r>
10016aec:	2800      	cmp	r0, #0
10016aee:	f47f af63 	bne.w	100169b8 <_vfprintf_r+0xa08>
10016af2:	9c34      	ldr	r4, [sp, #208]	@ 0xd0
10016af4:	f10d 08d4 	add.w	r8, sp, #212	@ 0xd4
10016af8:	e416      	b.n	10016328 <_vfprintf_r+0x378>
10016afa:	2d10      	cmp	r5, #16
10016afc:	9b33      	ldr	r3, [sp, #204]	@ 0xcc
10016afe:	f340 8750 	ble.w	100179a2 <_vfprintf_r+0x19f2>
10016b02:	4fbb      	ldr	r7, [pc, #748]	@ (10016df0 <_vfprintf_r+0xe40>)
10016b04:	9715      	str	r7, [sp, #84]	@ 0x54
10016b06:	e9dd a907 	ldrd	sl, r9, [sp, #28]
10016b0a:	2610      	movs	r6, #16
10016b0c:	e004      	b.n	10016b18 <_vfprintf_r+0xb68>
10016b0e:	3d10      	subs	r5, #16
10016b10:	2d10      	cmp	r5, #16
10016b12:	f108 0808 	add.w	r8, r8, #8
10016b16:	dd16      	ble.n	10016b46 <_vfprintf_r+0xb96>
10016b18:	3301      	adds	r3, #1
10016b1a:	3410      	adds	r4, #16
10016b1c:	2b07      	cmp	r3, #7
10016b1e:	e9c8 7600 	strd	r7, r6, [r8]
10016b22:	e9cd 3433 	strd	r3, r4, [sp, #204]	@ 0xcc
10016b26:	ddf2      	ble.n	10016b0e <_vfprintf_r+0xb5e>
10016b28:	aa32      	add	r2, sp, #200	@ 0xc8
10016b2a:	4651      	mov	r1, sl
10016b2c:	4648      	mov	r0, r9
10016b2e:	f10d 08d4 	add.w	r8, sp, #212	@ 0xd4
10016b32:	f001 f8e1 	bl	10017cf8 <__sprint_r>
10016b36:	2800      	cmp	r0, #0
10016b38:	f040 82f5 	bne.w	10017126 <_vfprintf_r+0x1176>
10016b3c:	3d10      	subs	r5, #16
10016b3e:	2d10      	cmp	r5, #16
10016b40:	e9dd 3433 	ldrd	r3, r4, [sp, #204]	@ 0xcc
10016b44:	dce8      	bgt.n	10016b18 <_vfprintf_r+0xb68>
10016b46:	3301      	adds	r3, #1
10016b48:	9a15      	ldr	r2, [sp, #84]	@ 0x54
10016b4a:	442c      	add	r4, r5
10016b4c:	2b07      	cmp	r3, #7
10016b4e:	e9c8 2500 	strd	r2, r5, [r8]
10016b52:	e9cd 3433 	strd	r3, r4, [sp, #204]	@ 0xcc
10016b56:	f77f ac0b 	ble.w	10016370 <_vfprintf_r+0x3c0>
10016b5a:	e9dd 1007 	ldrd	r1, r0, [sp, #28]
10016b5e:	aa32      	add	r2, sp, #200	@ 0xc8
10016b60:	f001 f8ca 	bl	10017cf8 <__sprint_r>
10016b64:	2800      	cmp	r0, #0
10016b66:	f47f af27 	bne.w	100169b8 <_vfprintf_r+0xa08>
10016b6a:	9c34      	ldr	r4, [sp, #208]	@ 0xd0
10016b6c:	e400      	b.n	10016370 <_vfprintf_r+0x3c0>
10016b6e:	9a29      	ldr	r2, [sp, #164]	@ 0xa4
10016b70:	2a00      	cmp	r2, #0
10016b72:	f340 80fd 	ble.w	10016d70 <_vfprintf_r+0xdc0>
10016b76:	e9dd 7312 	ldrd	r7, r3, [sp, #72]	@ 0x48
10016b7a:	429f      	cmp	r7, r3
10016b7c:	bfa8      	it	ge
10016b7e:	461f      	movge	r7, r3
10016b80:	2f00      	cmp	r7, #0
10016b82:	eb05 0b03 	add.w	fp, r5, r3
10016b86:	dd0b      	ble.n	10016ba0 <_vfprintf_r+0xbf0>
10016b88:	9b33      	ldr	r3, [sp, #204]	@ 0xcc
10016b8a:	3301      	adds	r3, #1
10016b8c:	443c      	add	r4, r7
10016b8e:	2b07      	cmp	r3, #7
10016b90:	e9c8 5700 	strd	r5, r7, [r8]
10016b94:	9434      	str	r4, [sp, #208]	@ 0xd0
10016b96:	9333      	str	r3, [sp, #204]	@ 0xcc
10016b98:	f300 866d 	bgt.w	10017876 <_vfprintf_r+0x18c6>
10016b9c:	f108 0808 	add.w	r8, r8, #8
10016ba0:	9e12      	ldr	r6, [sp, #72]	@ 0x48
10016ba2:	2f00      	cmp	r7, #0
10016ba4:	bfa8      	it	ge
10016ba6:	1bf6      	subge	r6, r6, r7
10016ba8:	2e00      	cmp	r6, #0
10016baa:	f300 8345 	bgt.w	10017238 <_vfprintf_r+0x1288>
10016bae:	9b12      	ldr	r3, [sp, #72]	@ 0x48
10016bb0:	f419 6f80 	tst.w	r9, #1024	@ 0x400
10016bb4:	442b      	add	r3, r5
10016bb6:	469a      	mov	sl, r3
10016bb8:	f040 8578 	bne.w	100176ac <_vfprintf_r+0x16fc>
10016bbc:	9d29      	ldr	r5, [sp, #164]	@ 0xa4
10016bbe:	9b13      	ldr	r3, [sp, #76]	@ 0x4c
10016bc0:	429d      	cmp	r5, r3
10016bc2:	db03      	blt.n	10016bcc <_vfprintf_r+0xc1c>
10016bc4:	f019 0f01 	tst.w	r9, #1
10016bc8:	f000 8402 	beq.w	100173d0 <_vfprintf_r+0x1420>
10016bcc:	9b18      	ldr	r3, [sp, #96]	@ 0x60
10016bce:	9a19      	ldr	r2, [sp, #100]	@ 0x64
10016bd0:	441c      	add	r4, r3
10016bd2:	e9c8 2300 	strd	r2, r3, [r8]
10016bd6:	9b33      	ldr	r3, [sp, #204]	@ 0xcc
10016bd8:	9434      	str	r4, [sp, #208]	@ 0xd0
10016bda:	3301      	adds	r3, #1
10016bdc:	2b07      	cmp	r3, #7
10016bde:	9333      	str	r3, [sp, #204]	@ 0xcc
10016be0:	f300 8658 	bgt.w	10017894 <_vfprintf_r+0x18e4>
10016be4:	f108 0808 	add.w	r8, r8, #8
10016be8:	9b13      	ldr	r3, [sp, #76]	@ 0x4c
10016bea:	ebab 060a 	sub.w	r6, fp, sl
10016bee:	1b5d      	subs	r5, r3, r5
10016bf0:	42ae      	cmp	r6, r5
10016bf2:	bfa8      	it	ge
10016bf4:	462e      	movge	r6, r5
10016bf6:	2e00      	cmp	r6, #0
10016bf8:	dd0d      	ble.n	10016c16 <_vfprintf_r+0xc66>
10016bfa:	9b33      	ldr	r3, [sp, #204]	@ 0xcc
10016bfc:	f8c8 a000 	str.w	sl, [r8]
10016c00:	3301      	adds	r3, #1
10016c02:	4434      	add	r4, r6
10016c04:	2b07      	cmp	r3, #7
10016c06:	f8c8 6004 	str.w	r6, [r8, #4]
10016c0a:	9434      	str	r4, [sp, #208]	@ 0xd0
10016c0c:	9333      	str	r3, [sp, #204]	@ 0xcc
10016c0e:	f300 8653 	bgt.w	100178b8 <_vfprintf_r+0x1908>
10016c12:	f108 0808 	add.w	r8, r8, #8
10016c16:	2e00      	cmp	r6, #0
10016c18:	bfa8      	it	ge
10016c1a:	1bad      	subge	r5, r5, r6
10016c1c:	2d00      	cmp	r5, #0
10016c1e:	f77f ab9e 	ble.w	1001635e <_vfprintf_r+0x3ae>
10016c22:	2d10      	cmp	r5, #16
10016c24:	9b33      	ldr	r3, [sp, #204]	@ 0xcc
10016c26:	f340 82d9 	ble.w	100171dc <_vfprintf_r+0x122c>
10016c2a:	4f72      	ldr	r7, [pc, #456]	@ (10016df4 <_vfprintf_r+0xe44>)
10016c2c:	9715      	str	r7, [sp, #84]	@ 0x54
10016c2e:	e9dd ab07 	ldrd	sl, fp, [sp, #28]
10016c32:	2610      	movs	r6, #16
10016c34:	e005      	b.n	10016c42 <_vfprintf_r+0xc92>
10016c36:	f108 0808 	add.w	r8, r8, #8
10016c3a:	3d10      	subs	r5, #16
10016c3c:	2d10      	cmp	r5, #16
10016c3e:	f340 82cf 	ble.w	100171e0 <_vfprintf_r+0x1230>
10016c42:	3301      	adds	r3, #1
10016c44:	3410      	adds	r4, #16
10016c46:	2b07      	cmp	r3, #7
10016c48:	e9c8 7600 	strd	r7, r6, [r8]
10016c4c:	e9cd 3433 	strd	r3, r4, [sp, #204]	@ 0xcc
10016c50:	ddf1      	ble.n	10016c36 <_vfprintf_r+0xc86>
10016c52:	aa32      	add	r2, sp, #200	@ 0xc8
10016c54:	4651      	mov	r1, sl
10016c56:	4658      	mov	r0, fp
10016c58:	f001 f84e 	bl	10017cf8 <__sprint_r>
10016c5c:	2800      	cmp	r0, #0
10016c5e:	f47f aaff 	bne.w	10016260 <_vfprintf_r+0x2b0>
10016c62:	e9dd 3433 	ldrd	r3, r4, [sp, #204]	@ 0xcc
10016c66:	f10d 08d4 	add.w	r8, sp, #212	@ 0xd4
10016c6a:	e7e6      	b.n	10016c3a <_vfprintf_r+0xc8a>
10016c6c:	f019 0f01 	tst.w	r9, #1
10016c70:	f47f aedf 	bne.w	10016a32 <_vfprintf_r+0xa82>
10016c74:	2301      	movs	r3, #1
10016c76:	2e07      	cmp	r6, #7
10016c78:	e9cd 6433 	strd	r6, r4, [sp, #204]	@ 0xcc
10016c7c:	f8c8 5000 	str.w	r5, [r8]
10016c80:	f8c8 3004 	str.w	r3, [r8, #4]
10016c84:	f77f af03 	ble.w	10016a8e <_vfprintf_r+0xade>
10016c88:	e9dd 1007 	ldrd	r1, r0, [sp, #28]
10016c8c:	aa32      	add	r2, sp, #200	@ 0xc8
10016c8e:	f001 f833 	bl	10017cf8 <__sprint_r>
10016c92:	2800      	cmp	r0, #0
10016c94:	f47f ae90 	bne.w	100169b8 <_vfprintf_r+0xa08>
10016c98:	e9dd 6433 	ldrd	r6, r4, [sp, #204]	@ 0xcc
10016c9c:	af35      	add	r7, sp, #212	@ 0xd4
10016c9e:	e6f6      	b.n	10016a8e <_vfprintf_r+0xade>
10016ca0:	9b13      	ldr	r3, [sp, #76]	@ 0x4c
10016ca2:	2b01      	cmp	r3, #1
10016ca4:	f77f aef3 	ble.w	10016a8e <_vfprintf_r+0xade>
10016ca8:	2b11      	cmp	r3, #17
10016caa:	4b52      	ldr	r3, [pc, #328]	@ (10016df4 <_vfprintf_r+0xe44>)
10016cac:	9315      	str	r3, [sp, #84]	@ 0x54
10016cae:	f340 82b7 	ble.w	10017220 <_vfprintf_r+0x1270>
10016cb2:	f8cd 9024 	str.w	r9, [sp, #36]	@ 0x24
10016cb6:	e9dd ba07 	ldrd	fp, sl, [sp, #28]
10016cba:	2510      	movs	r5, #16
10016cbc:	4699      	mov	r9, r3
10016cbe:	e006      	b.n	10016cce <_vfprintf_r+0xd1e>
10016cc0:	3708      	adds	r7, #8
10016cc2:	f1a8 0810 	sub.w	r8, r8, #16
10016cc6:	f1b8 0f10 	cmp.w	r8, #16
10016cca:	f340 82a7 	ble.w	1001721c <_vfprintf_r+0x126c>
10016cce:	3601      	adds	r6, #1
10016cd0:	3410      	adds	r4, #16
10016cd2:	2e07      	cmp	r6, #7
10016cd4:	e9c7 9500 	strd	r9, r5, [r7]
10016cd8:	e9cd 6433 	strd	r6, r4, [sp, #204]	@ 0xcc
10016cdc:	ddf0      	ble.n	10016cc0 <_vfprintf_r+0xd10>
10016cde:	aa32      	add	r2, sp, #200	@ 0xc8
10016ce0:	4659      	mov	r1, fp
10016ce2:	4650      	mov	r0, sl
10016ce4:	f001 f808 	bl	10017cf8 <__sprint_r>
10016ce8:	2800      	cmp	r0, #0
10016cea:	f040 8202 	bne.w	100170f2 <_vfprintf_r+0x1142>
10016cee:	e9dd 6433 	ldrd	r6, r4, [sp, #204]	@ 0xcc
10016cf2:	af35      	add	r7, sp, #212	@ 0xd4
10016cf4:	e7e5      	b.n	10016cc2 <_vfprintf_r+0xd12>
10016cf6:	e9dd 1007 	ldrd	r1, r0, [sp, #28]
10016cfa:	aa32      	add	r2, sp, #200	@ 0xc8
10016cfc:	f000 fffc 	bl	10017cf8 <__sprint_r>
10016d00:	2800      	cmp	r0, #0
10016d02:	f47f ae59 	bne.w	100169b8 <_vfprintf_r+0xa08>
10016d06:	9c34      	ldr	r4, [sp, #208]	@ 0xd0
10016d08:	f10d 08d4 	add.w	r8, sp, #212	@ 0xd4
10016d0c:	f7ff bb15 	b.w	1001633a <_vfprintf_r+0x38a>
10016d10:	990d      	ldr	r1, [sp, #52]	@ 0x34
10016d12:	f851 3b04 	ldr.w	r3, [r1], #4
10016d16:	910d      	str	r1, [sp, #52]	@ 0x34
10016d18:	f014 0110 	ands.w	r1, r4, #16
10016d1c:	d155      	bne.n	10016dca <_vfprintf_r+0xe1a>
10016d1e:	f014 0040 	ands.w	r0, r4, #64	@ 0x40
10016d22:	d04d      	beq.n	10016dc0 <_vfprintf_r+0xe10>
10016d24:	460a      	mov	r2, r1
10016d26:	b29b      	uxth	r3, r3
10016d28:	2101      	movs	r1, #1
10016d2a:	e4b7      	b.n	1001669c <_vfprintf_r+0x6ec>
10016d2c:	990d      	ldr	r1, [sp, #52]	@ 0x34
10016d2e:	f851 3b04 	ldr.w	r3, [r1], #4
10016d32:	910d      	str	r1, [sp, #52]	@ 0x34
10016d34:	f019 0110 	ands.w	r1, r9, #16
10016d38:	f47f acad 	bne.w	10016696 <_vfprintf_r+0x6e6>
10016d3c:	f019 0040 	ands.w	r0, r9, #64	@ 0x40
10016d40:	f000 82a7 	beq.w	10017292 <_vfprintf_r+0x12e2>
10016d44:	b29b      	uxth	r3, r3
10016d46:	460a      	mov	r2, r1
10016d48:	e4a5      	b.n	10016696 <_vfprintf_r+0x6e6>
10016d4a:	9d07      	ldr	r5, [sp, #28]
10016d4c:	6da8      	ldr	r0, [r5, #88]	@ 0x58
10016d4e:	f7fd fa3b 	bl	100141c8 <__retarget_lock_acquire_recursive>
10016d52:	f9b5 300c 	ldrsh.w	r3, [r5, #12]
10016d56:	f7ff b951 	b.w	10015ffc <_vfprintf_r+0x4c>
10016d5a:	f019 0f01 	tst.w	r9, #1
10016d5e:	f43f aafe 	beq.w	1001635e <_vfprintf_r+0x3ae>
10016d62:	e52b      	b.n	100167bc <_vfprintf_r+0x80c>
10016d64:	930d      	str	r3, [sp, #52]	@ 0x34
10016d66:	7823      	ldrb	r3, [r4, #0]
10016d68:	f7ff b99a 	b.w	100160a0 <_vfprintf_r+0xf0>
10016d6c:	ad5e      	add	r5, sp, #376	@ 0x178
10016d6e:	e575      	b.n	1001685c <_vfprintf_r+0x8ac>
10016d70:	9b33      	ldr	r3, [sp, #204]	@ 0xcc
10016d72:	4921      	ldr	r1, [pc, #132]	@ (10016df8 <_vfprintf_r+0xe48>)
10016d74:	f8c8 1000 	str.w	r1, [r8]
10016d78:	3301      	adds	r3, #1
10016d7a:	3401      	adds	r4, #1
10016d7c:	2101      	movs	r1, #1
10016d7e:	2b07      	cmp	r3, #7
10016d80:	9434      	str	r4, [sp, #208]	@ 0xd0
10016d82:	9333      	str	r3, [sp, #204]	@ 0xcc
10016d84:	f8c8 1004 	str.w	r1, [r8, #4]
10016d88:	f300 854f 	bgt.w	1001782a <_vfprintf_r+0x187a>
10016d8c:	f108 0808 	add.w	r8, r8, #8
10016d90:	2a00      	cmp	r2, #0
10016d92:	f47f ae14 	bne.w	100169be <_vfprintf_r+0xa0e>
10016d96:	9a13      	ldr	r2, [sp, #76]	@ 0x4c
10016d98:	f009 0301 	and.w	r3, r9, #1
10016d9c:	4313      	orrs	r3, r2
10016d9e:	f43f aade 	beq.w	1001635e <_vfprintf_r+0x3ae>
10016da2:	9b18      	ldr	r3, [sp, #96]	@ 0x60
10016da4:	9a19      	ldr	r2, [sp, #100]	@ 0x64
10016da6:	441c      	add	r4, r3
10016da8:	e9c8 2300 	strd	r2, r3, [r8]
10016dac:	9b33      	ldr	r3, [sp, #204]	@ 0xcc
10016dae:	9434      	str	r4, [sp, #208]	@ 0xd0
10016db0:	3301      	adds	r3, #1
10016db2:	2b07      	cmp	r3, #7
10016db4:	9333      	str	r3, [sp, #204]	@ 0xcc
10016db6:	f300 83cb 	bgt.w	10017550 <_vfprintf_r+0x15a0>
10016dba:	f108 0808 	add.w	r8, r8, #8
10016dbe:	e60f      	b.n	100169e0 <_vfprintf_r+0xa30>
10016dc0:	f414 7200 	ands.w	r2, r4, #512	@ 0x200
10016dc4:	bf1c      	itt	ne
10016dc6:	b2db      	uxtbne	r3, r3
10016dc8:	4602      	movne	r2, r0
10016dca:	2101      	movs	r1, #1
10016dcc:	e466      	b.n	1001669c <_vfprintf_r+0x6ec>
10016dce:	f419 7f00 	tst.w	r9, #512	@ 0x200
10016dd2:	f040 8305 	bne.w	100173e0 <_vfprintf_r+0x1430>
10016dd6:	17da      	asrs	r2, r3, #31
10016dd8:	4611      	mov	r1, r2
10016dda:	2900      	cmp	r1, #0
10016ddc:	f6bf abdc 	bge.w	10016598 <_vfprintf_r+0x5e8>
10016de0:	425b      	negs	r3, r3
10016de2:	eb62 0242 	sbc.w	r2, r2, r2, lsl #1
10016de6:	464c      	mov	r4, r9
10016de8:	202d      	movs	r0, #45	@ 0x2d
10016dea:	2101      	movs	r1, #1
10016dec:	e457      	b.n	1001669e <_vfprintf_r+0x6ee>
10016dee:	bf00      	nop
10016df0:	1001b3d4 	.word	0x1001b3d4
10016df4:	1001b3c4 	.word	0x1001b3c4
10016df8:	1001b1d4 	.word	0x1001b1d4
10016dfc:	9a1b      	ldr	r2, [sp, #108]	@ 0x6c
10016dfe:	7823      	ldrb	r3, [r4, #0]
10016e00:	2a00      	cmp	r2, #0
10016e02:	f43f a94d 	beq.w	100160a0 <_vfprintf_r+0xf0>
10016e06:	7812      	ldrb	r2, [r2, #0]
10016e08:	2a00      	cmp	r2, #0
10016e0a:	f43f a949 	beq.w	100160a0 <_vfprintf_r+0xf0>
10016e0e:	f449 6980 	orr.w	r9, r9, #1024	@ 0x400
10016e12:	f7ff b945 	b.w	100160a0 <_vfprintf_r+0xf0>
10016e16:	f019 0f10 	tst.w	r9, #16
10016e1a:	f040 81f9 	bne.w	10017210 <_vfprintf_r+0x1260>
10016e1e:	f019 0f40 	tst.w	r9, #64	@ 0x40
10016e22:	f040 82e3 	bne.w	100173ec <_vfprintf_r+0x143c>
10016e26:	f419 7f00 	tst.w	r9, #512	@ 0x200
10016e2a:	f000 81f1 	beq.w	10017210 <_vfprintf_r+0x1260>
10016e2e:	9b0d      	ldr	r3, [sp, #52]	@ 0x34
10016e30:	9a0a      	ldr	r2, [sp, #40]	@ 0x28
10016e32:	681b      	ldr	r3, [r3, #0]
10016e34:	701a      	strb	r2, [r3, #0]
10016e36:	e49b      	b.n	10016770 <_vfprintf_r+0x7c0>
10016e38:	e9dd 0116 	ldrd	r0, r1, [sp, #88]	@ 0x58
10016e3c:	4602      	mov	r2, r0
10016e3e:	460b      	mov	r3, r1
10016e40:	f003 fe78 	bl	1001ab34 <__aeabi_dcmpun>
10016e44:	2800      	cmp	r0, #0
10016e46:	f040 8636 	bne.w	10017ab6 <_vfprintf_r+0x1b06>
10016e4a:	9b0e      	ldr	r3, [sp, #56]	@ 0x38
10016e4c:	2b61      	cmp	r3, #97	@ 0x61
10016e4e:	f000 851f 	beq.w	10017890 <_vfprintf_r+0x18e0>
10016e52:	2b41      	cmp	r3, #65	@ 0x41
10016e54:	f000 82e1 	beq.w	1001741a <_vfprintf_r+0x146a>
10016e58:	9b09      	ldr	r3, [sp, #36]	@ 0x24
10016e5a:	3301      	adds	r3, #1
10016e5c:	f000 8615 	beq.w	10017a8a <_vfprintf_r+0x1ada>
10016e60:	9b0e      	ldr	r3, [sp, #56]	@ 0x38
10016e62:	f023 0320 	bic.w	r3, r3, #32
10016e66:	2b47      	cmp	r3, #71	@ 0x47
10016e68:	d104      	bne.n	10016e74 <_vfprintf_r+0xec4>
10016e6a:	9b09      	ldr	r3, [sp, #36]	@ 0x24
10016e6c:	2b00      	cmp	r3, #0
10016e6e:	bf08      	it	eq
10016e70:	2301      	moveq	r3, #1
10016e72:	9309      	str	r3, [sp, #36]	@ 0x24
10016e74:	e9dd 0116 	ldrd	r0, r1, [sp, #88]	@ 0x58
10016e78:	f449 7280 	orr.w	r2, r9, #256	@ 0x100
10016e7c:	2900      	cmp	r1, #0
10016e7e:	9215      	str	r2, [sp, #84]	@ 0x54
10016e80:	f8cd 9018 	str.w	r9, [sp, #24]
10016e84:	f04f 0300 	mov.w	r3, #0
10016e88:	f2c0 84dd 	blt.w	10017846 <_vfprintf_r+0x1896>
10016e8c:	e9cd 0124 	strd	r0, r1, [sp, #144]	@ 0x90
10016e90:	931f      	str	r3, [sp, #124]	@ 0x7c
10016e92:	930c      	str	r3, [sp, #48]	@ 0x30
10016e94:	9b0e      	ldr	r3, [sp, #56]	@ 0x38
10016e96:	3b41      	subs	r3, #65	@ 0x41
10016e98:	2b25      	cmp	r3, #37	@ 0x25
10016e9a:	f200 8201 	bhi.w	100172a0 <_vfprintf_r+0x12f0>
10016e9e:	e8df f013 	tbh	[pc, r3, lsl #1]
10016ea2:	0372      	.short	0x0372
10016ea4:	01ff01ff 	.word	0x01ff01ff
10016ea8:	036b01ff 	.word	0x036b01ff
10016eac:	01ff036f 	.word	0x01ff036f
10016eb0:	01ff01ff 	.word	0x01ff01ff
10016eb4:	01ff01ff 	.word	0x01ff01ff
10016eb8:	01ff01ff 	.word	0x01ff01ff
10016ebc:	01ff01ff 	.word	0x01ff01ff
10016ec0:	01ff01ff 	.word	0x01ff01ff
10016ec4:	01ff01ff 	.word	0x01ff01ff
10016ec8:	01ff01ff 	.word	0x01ff01ff
10016ecc:	01ff01ff 	.word	0x01ff01ff
10016ed0:	01ff01ff 	.word	0x01ff01ff
10016ed4:	01ff01ff 	.word	0x01ff01ff
10016ed8:	01ff01ff 	.word	0x01ff01ff
10016edc:	01ff01ff 	.word	0x01ff01ff
10016ee0:	01ff01ff 	.word	0x01ff01ff
10016ee4:	01ff01ff 	.word	0x01ff01ff
10016ee8:	036b01ff 	.word	0x036b01ff
10016eec:	036f      	.short	0x036f
10016eee:	e9cd 340e 	strd	r3, r4, [sp, #56]	@ 0x38
10016ef2:	4bc2      	ldr	r3, [pc, #776]	@ (100171fc <_vfprintf_r+0x124c>)
10016ef4:	931a      	str	r3, [sp, #104]	@ 0x68
10016ef6:	f019 0220 	ands.w	r2, r9, #32
10016efa:	d06a      	beq.n	10016fd2 <_vfprintf_r+0x1022>
10016efc:	9b0d      	ldr	r3, [sp, #52]	@ 0x34
10016efe:	3307      	adds	r3, #7
10016f00:	f023 0307 	bic.w	r3, r3, #7
10016f04:	4619      	mov	r1, r3
10016f06:	685a      	ldr	r2, [r3, #4]
10016f08:	f851 3b08 	ldr.w	r3, [r1], #8
10016f0c:	910d      	str	r1, [sp, #52]	@ 0x34
10016f0e:	f019 0f01 	tst.w	r9, #1
10016f12:	d00a      	beq.n	10016f2a <_vfprintf_r+0xf7a>
10016f14:	ea53 0102 	orrs.w	r1, r3, r2
10016f18:	d007      	beq.n	10016f2a <_vfprintf_r+0xf7a>
10016f1a:	990e      	ldr	r1, [sp, #56]	@ 0x38
10016f1c:	f88d 10a1 	strb.w	r1, [sp, #161]	@ 0xa1
10016f20:	2130      	movs	r1, #48	@ 0x30
10016f22:	f049 0902 	orr.w	r9, r9, #2
10016f26:	f88d 10a0 	strb.w	r1, [sp, #160]	@ 0xa0
10016f2a:	f429 6480 	bic.w	r4, r9, #1024	@ 0x400
10016f2e:	2102      	movs	r1, #2
10016f30:	f7ff bbb4 	b.w	1001669c <_vfprintf_r+0x6ec>
10016f34:	e9cd 340e 	strd	r3, r4, [sp, #56]	@ 0x38
10016f38:	464c      	mov	r4, r9
10016f3a:	f7ff bbd0 	b.w	100166de <_vfprintf_r+0x72e>
10016f3e:	e9cd 340e 	strd	r3, r4, [sp, #56]	@ 0x38
10016f42:	f7ff bb9b 	b.w	1001667c <_vfprintf_r+0x6cc>
10016f46:	e9cd 340e 	strd	r3, r4, [sp, #56]	@ 0x38
10016f4a:	4bad      	ldr	r3, [pc, #692]	@ (10017200 <_vfprintf_r+0x1250>)
10016f4c:	931a      	str	r3, [sp, #104]	@ 0x68
10016f4e:	e7d2      	b.n	10016ef6 <_vfprintf_r+0xf46>
10016f50:	e9dd 1007 	ldrd	r1, r0, [sp, #28]
10016f54:	aa32      	add	r2, sp, #200	@ 0xc8
10016f56:	f000 fecf 	bl	10017cf8 <__sprint_r>
10016f5a:	2800      	cmp	r0, #0
10016f5c:	f47f ad2c 	bne.w	100169b8 <_vfprintf_r+0xa08>
10016f60:	9c34      	ldr	r4, [sp, #208]	@ 0xd0
10016f62:	f10d 08d4 	add.w	r8, sp, #212	@ 0xd4
10016f66:	f7ff b9e2 	b.w	1001632e <_vfprintf_r+0x37e>
10016f6a:	e9dd 1007 	ldrd	r1, r0, [sp, #28]
10016f6e:	aa32      	add	r2, sp, #200	@ 0xc8
10016f70:	f000 fec2 	bl	10017cf8 <__sprint_r>
10016f74:	2800      	cmp	r0, #0
10016f76:	f47f ad1f 	bne.w	100169b8 <_vfprintf_r+0xa08>
10016f7a:	9c34      	ldr	r4, [sp, #208]	@ 0xd0
10016f7c:	f10d 08d4 	add.w	r8, sp, #212	@ 0xd4
10016f80:	e42a      	b.n	100167d8 <_vfprintf_r+0x828>
10016f82:	9b09      	ldr	r3, [sp, #36]	@ 0x24
10016f84:	950c      	str	r5, [sp, #48]	@ 0x30
10016f86:	2b06      	cmp	r3, #6
10016f88:	4629      	mov	r1, r5
10016f8a:	bf28      	it	cs
10016f8c:	2306      	movcs	r3, #6
10016f8e:	9509      	str	r5, [sp, #36]	@ 0x24
10016f90:	462a      	mov	r2, r5
10016f92:	9306      	str	r3, [sp, #24]
10016f94:	4d9b      	ldr	r5, [pc, #620]	@ (10017204 <_vfprintf_r+0x1254>)
10016f96:	960d      	str	r6, [sp, #52]	@ 0x34
10016f98:	469b      	mov	fp, r3
10016f9a:	9114      	str	r1, [sp, #80]	@ 0x50
10016f9c:	9110      	str	r1, [sp, #64]	@ 0x40
10016f9e:	9112      	str	r1, [sp, #72]	@ 0x48
10016fa0:	f7ff ba41 	b.w	10016426 <_vfprintf_r+0x476>
10016fa4:	2208      	movs	r2, #8
10016fa6:	2100      	movs	r1, #0
10016fa8:	a830      	add	r0, sp, #192	@ 0xc0
10016faa:	f7fd f855 	bl	10014058 <memset>
10016fae:	9b0d      	ldr	r3, [sp, #52]	@ 0x34
10016fb0:	9808      	ldr	r0, [sp, #32]
10016fb2:	681a      	ldr	r2, [r3, #0]
10016fb4:	ad45      	add	r5, sp, #276	@ 0x114
10016fb6:	ab30      	add	r3, sp, #192	@ 0xc0
10016fb8:	4629      	mov	r1, r5
10016fba:	f7fd f89f 	bl	100140fc <_wcrtomb_r>
10016fbe:	f1b0 3fff 	cmp.w	r0, #4294967295	@ 0xffffffff
10016fc2:	4683      	mov	fp, r0
10016fc4:	f000 8542 	beq.w	10017a4c <_vfprintf_r+0x1a9c>
10016fc8:	ea20 73e0 	bic.w	r3, r0, r0, asr #31
10016fcc:	9306      	str	r3, [sp, #24]
10016fce:	f7ff ba94 	b.w	100164fa <_vfprintf_r+0x54a>
10016fd2:	990d      	ldr	r1, [sp, #52]	@ 0x34
10016fd4:	f851 3b04 	ldr.w	r3, [r1], #4
10016fd8:	910d      	str	r1, [sp, #52]	@ 0x34
10016fda:	f019 0110 	ands.w	r1, r9, #16
10016fde:	d196      	bne.n	10016f0e <_vfprintf_r+0xf5e>
10016fe0:	f019 0040 	ands.w	r0, r9, #64	@ 0x40
10016fe4:	f000 814f 	beq.w	10017286 <_vfprintf_r+0x12d6>
10016fe8:	b29b      	uxth	r3, r3
10016fea:	460a      	mov	r2, r1
10016fec:	e78f      	b.n	10016f0e <_vfprintf_r+0xf5e>
10016fee:	f8dd b024 	ldr.w	fp, [sp, #36]	@ 0x24
10016ff2:	ad5e      	add	r5, sp, #376	@ 0x178
10016ff4:	e432      	b.n	1001685c <_vfprintf_r+0x8ac>
10016ff6:	e9dd 1007 	ldrd	r1, r0, [sp, #28]
10016ffa:	aa32      	add	r2, sp, #200	@ 0xc8
10016ffc:	f000 fe7c 	bl	10017cf8 <__sprint_r>
10017000:	2800      	cmp	r0, #0
10017002:	f47f acd9 	bne.w	100169b8 <_vfprintf_r+0xa08>
10017006:	e9dd 6433 	ldrd	r6, r4, [sp, #204]	@ 0xcc
1001700a:	af35      	add	r7, sp, #212	@ 0xd4
1001700c:	e527      	b.n	10016a5e <_vfprintf_r+0xaae>
1001700e:	e9dd 1007 	ldrd	r1, r0, [sp, #28]
10017012:	aa32      	add	r2, sp, #200	@ 0xc8
10017014:	f000 fe70 	bl	10017cf8 <__sprint_r>
10017018:	2800      	cmp	r0, #0
1001701a:	f47f accd 	bne.w	100169b8 <_vfprintf_r+0xa08>
1001701e:	e9dd 6433 	ldrd	r6, r4, [sp, #204]	@ 0xcc
10017022:	af35      	add	r7, sp, #212	@ 0xd4
10017024:	e50f      	b.n	10016a46 <_vfprintf_r+0xa96>
10017026:	f404 6b80 	and.w	fp, r4, #1024	@ 0x400
1001702a:	2100      	movs	r1, #0
1001702c:	f8cd 8030 	str.w	r8, [sp, #48]	@ 0x30
10017030:	f8df 91d8 	ldr.w	r9, [pc, #472]	@ 1001720c <_vfprintf_r+0x125c>
10017034:	f8dd 806c 	ldr.w	r8, [sp, #108]	@ 0x6c
10017038:	9406      	str	r4, [sp, #24]
1001703a:	ad5e      	add	r5, sp, #376	@ 0x178
1001703c:	f04f 3acc 	mov.w	sl, #3435973836	@ 0xcccccccc
10017040:	2705      	movs	r7, #5
10017042:	468c      	mov	ip, r1
10017044:	465e      	mov	r6, fp
10017046:	e005      	b.n	10017054 <_vfprintf_r+0x10a4>
10017048:	2b0a      	cmp	r3, #10
1001704a:	f172 0200 	sbcs.w	r2, r2, #0
1001704e:	d333      	bcc.n	100170b8 <_vfprintf_r+0x1108>
10017050:	465b      	mov	r3, fp
10017052:	4622      	mov	r2, r4
10017054:	1899      	adds	r1, r3, r2
10017056:	f141 0100 	adc.w	r1, r1, #0
1001705a:	fba9 0401 	umull	r0, r4, r9, r1
1001705e:	f024 0003 	bic.w	r0, r4, #3
10017062:	eb00 0094 	add.w	r0, r0, r4, lsr #2
10017066:	1a09      	subs	r1, r1, r0
10017068:	1a58      	subs	r0, r3, r1
1001706a:	f162 0e00 	sbc.w	lr, r2, #0
1001706e:	fb0a f400 	mul.w	r4, sl, r0
10017072:	fba0 b009 	umull	fp, r0, r0, r9
10017076:	fb09 440e 	mla	r4, r9, lr, r4
1001707a:	f00b 0e01 	and.w	lr, fp, #1
1001707e:	4404      	add	r4, r0
10017080:	fbae 0e07 	umull	r0, lr, lr, r7
10017084:	1840      	adds	r0, r0, r1
10017086:	ea4f 0b5b 	mov.w	fp, fp, lsr #1
1001708a:	3030      	adds	r0, #48	@ 0x30
1001708c:	f805 0c01 	strb.w	r0, [r5, #-1]
10017090:	ea4b 7bc4 	orr.w	fp, fp, r4, lsl #31
10017094:	f10c 0c01 	add.w	ip, ip, #1
10017098:	3d01      	subs	r5, #1
1001709a:	0864      	lsrs	r4, r4, #1
1001709c:	2e00      	cmp	r6, #0
1001709e:	d0d3      	beq.n	10017048 <_vfprintf_r+0x1098>
100170a0:	f898 1000 	ldrb.w	r1, [r8]
100170a4:	458c      	cmp	ip, r1
100170a6:	d1cf      	bne.n	10017048 <_vfprintf_r+0x1098>
100170a8:	f1bc 0fff 	cmp.w	ip, #255	@ 0xff
100170ac:	d0cc      	beq.n	10017048 <_vfprintf_r+0x1098>
100170ae:	2b0a      	cmp	r3, #10
100170b0:	f172 0200 	sbcs.w	r2, r2, #0
100170b4:	f080 82c3 	bcs.w	1001763e <_vfprintf_r+0x168e>
100170b8:	f8cd 806c 	str.w	r8, [sp, #108]	@ 0x6c
100170bc:	9c06      	ldr	r4, [sp, #24]
100170be:	f8dd 8030 	ldr.w	r8, [sp, #48]	@ 0x30
100170c2:	f8cd c04c 	str.w	ip, [sp, #76]	@ 0x4c
100170c6:	f7ff bbc5 	b.w	10016854 <_vfprintf_r+0x8a4>
100170ca:	e9dd 1007 	ldrd	r1, r0, [sp, #28]
100170ce:	aa32      	add	r2, sp, #200	@ 0xc8
100170d0:	9315      	str	r3, [sp, #84]	@ 0x54
100170d2:	f000 fe11 	bl	10017cf8 <__sprint_r>
100170d6:	2800      	cmp	r0, #0
100170d8:	f47f ac6e 	bne.w	100169b8 <_vfprintf_r+0xa08>
100170dc:	f89d 209f 	ldrb.w	r2, [sp, #159]	@ 0x9f
100170e0:	9c34      	ldr	r4, [sp, #208]	@ 0xd0
100170e2:	9b15      	ldr	r3, [sp, #84]	@ 0x54
100170e4:	f10d 08d4 	add.w	r8, sp, #212	@ 0xd4
100170e8:	f7ff b8fa 	b.w	100162e0 <_vfprintf_r+0x330>
100170ec:	46a3      	mov	fp, r4
100170ee:	f7ff b8b7 	b.w	10016260 <_vfprintf_r+0x2b0>
100170f2:	46d3      	mov	fp, sl
100170f4:	f7ff b8b4 	b.w	10016260 <_vfprintf_r+0x2b0>
100170f8:	4658      	mov	r0, fp
100170fa:	f7fe f963 	bl	100153c4 <__sinit>
100170fe:	f7fe bf74 	b.w	10015fea <_vfprintf_r+0x3a>
10017102:	2901      	cmp	r1, #1
10017104:	464c      	mov	r4, r9
10017106:	f47f ab95 	bne.w	10016834 <_vfprintf_r+0x884>
1001710a:	e4d3      	b.n	10016ab4 <_vfprintf_r+0xb04>
1001710c:	e9dd 1007 	ldrd	r1, r0, [sp, #28]
10017110:	aa32      	add	r2, sp, #200	@ 0xc8
10017112:	f000 fdf1 	bl	10017cf8 <__sprint_r>
10017116:	2800      	cmp	r0, #0
10017118:	f47f ac4e 	bne.w	100169b8 <_vfprintf_r+0xa08>
1001711c:	9c34      	ldr	r4, [sp, #208]	@ 0xd0
1001711e:	f10d 08d4 	add.w	r8, sp, #212	@ 0xd4
10017122:	f7ff bb46 	b.w	100167b2 <_vfprintf_r+0x802>
10017126:	46cb      	mov	fp, r9
10017128:	f7ff b89a 	b.w	10016260 <_vfprintf_r+0x2b0>
1001712c:	af30      	add	r7, sp, #192	@ 0xc0
1001712e:	2208      	movs	r2, #8
10017130:	2100      	movs	r1, #0
10017132:	4638      	mov	r0, r7
10017134:	952b      	str	r5, [sp, #172]	@ 0xac
10017136:	f7fc ff8f 	bl	10014058 <memset>
1001713a:	9b09      	ldr	r3, [sp, #36]	@ 0x24
1001713c:	1c58      	adds	r0, r3, #1
1001713e:	f000 8270 	beq.w	10017622 <_vfprintf_r+0x1672>
10017142:	2400      	movs	r4, #0
10017144:	f8cd 9018 	str.w	r9, [sp, #24]
10017148:	46a3      	mov	fp, r4
1001714a:	f8dd 9020 	ldr.w	r9, [sp, #32]
1001714e:	469a      	mov	sl, r3
10017150:	e00c      	b.n	1001716c <_vfprintf_r+0x11bc>
10017152:	a945      	add	r1, sp, #276	@ 0x114
10017154:	4648      	mov	r0, r9
10017156:	f7fc ffd1 	bl	100140fc <_wcrtomb_r>
1001715a:	1c41      	adds	r1, r0, #1
1001715c:	4458      	add	r0, fp
1001715e:	f000 8475 	beq.w	10017a4c <_vfprintf_r+0x1a9c>
10017162:	4550      	cmp	r0, sl
10017164:	dc08      	bgt.n	10017178 <_vfprintf_r+0x11c8>
10017166:	f000 84c2 	beq.w	10017aee <_vfprintf_r+0x1b3e>
1001716a:	4683      	mov	fp, r0
1001716c:	9a2b      	ldr	r2, [sp, #172]	@ 0xac
1001716e:	5912      	ldr	r2, [r2, r4]
10017170:	463b      	mov	r3, r7
10017172:	3404      	adds	r4, #4
10017174:	2a00      	cmp	r2, #0
10017176:	d1ec      	bne.n	10017152 <_vfprintf_r+0x11a2>
10017178:	f8dd 9018 	ldr.w	r9, [sp, #24]
1001717c:	f1bb 0f00 	cmp.w	fp, #0
10017180:	f000 8342 	beq.w	10017808 <_vfprintf_r+0x1858>
10017184:	f1bb 0f63 	cmp.w	fp, #99	@ 0x63
10017188:	f340 83f9 	ble.w	1001797e <_vfprintf_r+0x19ce>
1001718c:	9808      	ldr	r0, [sp, #32]
1001718e:	f10b 0101 	add.w	r1, fp, #1
10017192:	f7fc fc9d 	bl	10013ad0 <_malloc_r>
10017196:	4605      	mov	r5, r0
10017198:	2800      	cmp	r0, #0
1001719a:	f000 8457 	beq.w	10017a4c <_vfprintf_r+0x1a9c>
1001719e:	900c      	str	r0, [sp, #48]	@ 0x30
100171a0:	2208      	movs	r2, #8
100171a2:	2100      	movs	r1, #0
100171a4:	4638      	mov	r0, r7
100171a6:	f7fc ff57 	bl	10014058 <memset>
100171aa:	9808      	ldr	r0, [sp, #32]
100171ac:	9700      	str	r7, [sp, #0]
100171ae:	465b      	mov	r3, fp
100171b0:	aa2b      	add	r2, sp, #172	@ 0xac
100171b2:	4629      	mov	r1, r5
100171b4:	f7fd f89e 	bl	100142f4 <_wcsrtombs_r>
100171b8:	4583      	cmp	fp, r0
100171ba:	f040 8517 	bne.w	10017bec <_vfprintf_r+0x1c3c>
100171be:	2300      	movs	r3, #0
100171c0:	f805 300b 	strb.w	r3, [r5, fp]
100171c4:	ea2b 71eb 	bic.w	r1, fp, fp, asr #31
100171c8:	f89d 209f 	ldrb.w	r2, [sp, #159]	@ 0x9f
100171cc:	960d      	str	r6, [sp, #52]	@ 0x34
100171ce:	9309      	str	r3, [sp, #36]	@ 0x24
100171d0:	9106      	str	r1, [sp, #24]
100171d2:	9314      	str	r3, [sp, #80]	@ 0x50
100171d4:	9310      	str	r3, [sp, #64]	@ 0x40
100171d6:	9312      	str	r3, [sp, #72]	@ 0x48
100171d8:	f7ff b925 	b.w	10016426 <_vfprintf_r+0x476>
100171dc:	4a0a      	ldr	r2, [pc, #40]	@ (10017208 <_vfprintf_r+0x1258>)
100171de:	9215      	str	r2, [sp, #84]	@ 0x54
100171e0:	3301      	adds	r3, #1
100171e2:	9a15      	ldr	r2, [sp, #84]	@ 0x54
100171e4:	f8c8 2000 	str.w	r2, [r8]
100171e8:	442c      	add	r4, r5
100171ea:	2b07      	cmp	r3, #7
100171ec:	f8c8 5004 	str.w	r5, [r8, #4]
100171f0:	e9cd 3433 	strd	r3, r4, [sp, #204]	@ 0xcc
100171f4:	f77f a8b1 	ble.w	1001635a <_vfprintf_r+0x3aa>
100171f8:	f7ff bbfe 	b.w	100169f8 <_vfprintf_r+0xa48>
100171fc:	1001b1b8 	.word	0x1001b1b8
10017200:	1001b1a4 	.word	0x1001b1a4
10017204:	1001b1cc 	.word	0x1001b1cc
10017208:	1001b3c4 	.word	0x1001b3c4
1001720c:	cccccccd 	.word	0xcccccccd
10017210:	9b0d      	ldr	r3, [sp, #52]	@ 0x34
10017212:	9a0a      	ldr	r2, [sp, #40]	@ 0x28
10017214:	681b      	ldr	r3, [r3, #0]
10017216:	601a      	str	r2, [r3, #0]
10017218:	f7ff baaa 	b.w	10016770 <_vfprintf_r+0x7c0>
1001721c:	f8dd 9024 	ldr.w	r9, [sp, #36]	@ 0x24
10017220:	9b15      	ldr	r3, [sp, #84]	@ 0x54
10017222:	603b      	str	r3, [r7, #0]
10017224:	3601      	adds	r6, #1
10017226:	4444      	add	r4, r8
10017228:	2e07      	cmp	r6, #7
1001722a:	e9cd 6433 	strd	r6, r4, [sp, #204]	@ 0xcc
1001722e:	f8c7 8004 	str.w	r8, [r7, #4]
10017232:	f77f ac2b 	ble.w	10016a8c <_vfprintf_r+0xadc>
10017236:	e527      	b.n	10016c88 <_vfprintf_r+0xcd8>
10017238:	2e10      	cmp	r6, #16
1001723a:	9b33      	ldr	r3, [sp, #204]	@ 0xcc
1001723c:	f340 84ad 	ble.w	10017b9a <_vfprintf_r+0x1bea>
10017240:	4898      	ldr	r0, [pc, #608]	@ (100174a4 <_vfprintf_r+0x14f4>)
10017242:	9015      	str	r0, [sp, #84]	@ 0x54
10017244:	4642      	mov	r2, r8
10017246:	4621      	mov	r1, r4
10017248:	46a8      	mov	r8, r5
1001724a:	e9dd 4a07 	ldrd	r4, sl, [sp, #28]
1001724e:	2710      	movs	r7, #16
10017250:	4605      	mov	r5, r0
10017252:	e004      	b.n	1001725e <_vfprintf_r+0x12ae>
10017254:	3208      	adds	r2, #8
10017256:	3e10      	subs	r6, #16
10017258:	2e10      	cmp	r6, #16
1001725a:	f340 81ca 	ble.w	100175f2 <_vfprintf_r+0x1642>
1001725e:	3301      	adds	r3, #1
10017260:	3110      	adds	r1, #16
10017262:	2b07      	cmp	r3, #7
10017264:	e9c2 5700 	strd	r5, r7, [r2]
10017268:	e9cd 3133 	strd	r3, r1, [sp, #204]	@ 0xcc
1001726c:	ddf2      	ble.n	10017254 <_vfprintf_r+0x12a4>
1001726e:	aa32      	add	r2, sp, #200	@ 0xc8
10017270:	4621      	mov	r1, r4
10017272:	4650      	mov	r0, sl
10017274:	f000 fd40 	bl	10017cf8 <__sprint_r>
10017278:	2800      	cmp	r0, #0
1001727a:	f47f af3a 	bne.w	100170f2 <_vfprintf_r+0x1142>
1001727e:	e9dd 3133 	ldrd	r3, r1, [sp, #204]	@ 0xcc
10017282:	aa35      	add	r2, sp, #212	@ 0xd4
10017284:	e7e7      	b.n	10017256 <_vfprintf_r+0x12a6>
10017286:	f419 7200 	ands.w	r2, r9, #512	@ 0x200
1001728a:	bf1c      	itt	ne
1001728c:	b2db      	uxtbne	r3, r3
1001728e:	4602      	movne	r2, r0
10017290:	e63d      	b.n	10016f0e <_vfprintf_r+0xf5e>
10017292:	f419 7200 	ands.w	r2, r9, #512	@ 0x200
10017296:	bf1c      	itt	ne
10017298:	b2db      	uxtbne	r3, r3
1001729a:	4602      	movne	r2, r0
1001729c:	f7ff b9fb 	b.w	10016696 <_vfprintf_r+0x6e6>
100172a0:	9e09      	ldr	r6, [sp, #36]	@ 0x24
100172a2:	2302      	movs	r3, #2
100172a4:	e9cd 3600 	strd	r3, r6, [sp]
100172a8:	ab30      	add	r3, sp, #192	@ 0xc0
100172aa:	9304      	str	r3, [sp, #16]
100172ac:	ab2b      	add	r3, sp, #172	@ 0xac
100172ae:	9303      	str	r3, [sp, #12]
100172b0:	ab29      	add	r3, sp, #164	@ 0xa4
100172b2:	9302      	str	r3, [sp, #8]
100172b4:	9808      	ldr	r0, [sp, #32]
100172b6:	e9dd 2324 	ldrd	r2, r3, [sp, #144]	@ 0x90
100172ba:	f7fd f8bd 	bl	10014438 <_dtoa_r>
100172be:	9b0e      	ldr	r3, [sp, #56]	@ 0x38
100172c0:	2b67      	cmp	r3, #103	@ 0x67
100172c2:	4605      	mov	r5, r0
100172c4:	f000 8177 	beq.w	100175b6 <_vfprintf_r+0x1606>
100172c8:	9b0e      	ldr	r3, [sp, #56]	@ 0x38
100172ca:	2b47      	cmp	r3, #71	@ 0x47
100172cc:	f000 8173 	beq.w	100175b6 <_vfprintf_r+0x1606>
100172d0:	9b0e      	ldr	r3, [sp, #56]	@ 0x38
100172d2:	f023 0720 	bic.w	r7, r3, #32
100172d6:	2f46      	cmp	r7, #70	@ 0x46
100172d8:	eb00 0406 	add.w	r4, r0, r6
100172dc:	d105      	bne.n	100172ea <_vfprintf_r+0x133a>
100172de:	7803      	ldrb	r3, [r0, #0]
100172e0:	2b30      	cmp	r3, #48	@ 0x30
100172e2:	f000 83db 	beq.w	10017a9c <_vfprintf_r+0x1aec>
100172e6:	9e29      	ldr	r6, [sp, #164]	@ 0xa4
100172e8:	4434      	add	r4, r6
100172ea:	e9dd 0124 	ldrd	r0, r1, [sp, #144]	@ 0x90
100172ee:	2200      	movs	r2, #0
100172f0:	2300      	movs	r3, #0
100172f2:	f003 fbed 	bl	1001aad0 <__aeabi_dcmpeq>
100172f6:	2800      	cmp	r0, #0
100172f8:	f000 81cc 	beq.w	10017694 <_vfprintf_r+0x16e4>
100172fc:	4623      	mov	r3, r4
100172fe:	1b5b      	subs	r3, r3, r5
10017300:	9313      	str	r3, [sp, #76]	@ 0x4c
10017302:	9a29      	ldr	r2, [sp, #164]	@ 0xa4
10017304:	9212      	str	r2, [sp, #72]	@ 0x48
10017306:	2f47      	cmp	r7, #71	@ 0x47
10017308:	f000 815d 	beq.w	100175c6 <_vfprintf_r+0x1616>
1001730c:	2f46      	cmp	r7, #70	@ 0x46
1001730e:	f000 82e3 	beq.w	100178d8 <_vfprintf_r+0x1928>
10017312:	990e      	ldr	r1, [sp, #56]	@ 0x38
10017314:	1e53      	subs	r3, r2, #1
10017316:	2961      	cmp	r1, #97	@ 0x61
10017318:	9329      	str	r3, [sp, #164]	@ 0xa4
1001731a:	f000 8441 	beq.w	10017ba0 <_vfprintf_r+0x1bf0>
1001731e:	2941      	cmp	r1, #65	@ 0x41
10017320:	f040 815c 	bne.w	100175dc <_vfprintf_r+0x162c>
10017324:	2150      	movs	r1, #80	@ 0x50
10017326:	2001      	movs	r0, #1
10017328:	2b00      	cmp	r3, #0
1001732a:	bfb6      	itet	lt
1001732c:	f1c2 0301 	rsblt	r3, r2, #1
10017330:	222b      	movge	r2, #43	@ 0x2b
10017332:	222d      	movlt	r2, #45	@ 0x2d
10017334:	2b09      	cmp	r3, #9
10017336:	f88d 10b0 	strb.w	r1, [sp, #176]	@ 0xb0
1001733a:	f88d 20b1 	strb.w	r2, [sp, #177]	@ 0xb1
1001733e:	f340 8377 	ble.w	10017a30 <_vfprintf_r+0x1a80>
10017342:	f10d 04c7 	add.w	r4, sp, #199	@ 0xc7
10017346:	4e58      	ldr	r6, [pc, #352]	@ (100174a8 <_vfprintf_r+0x14f8>)
10017348:	4622      	mov	r2, r4
1001734a:	4610      	mov	r0, r2
1001734c:	fba6 1203 	umull	r1, r2, r6, r3
10017350:	08d2      	lsrs	r2, r2, #3
10017352:	eb02 0182 	add.w	r1, r2, r2, lsl #2
10017356:	eba3 0141 	sub.w	r1, r3, r1, lsl #1
1001735a:	3130      	adds	r1, #48	@ 0x30
1001735c:	f800 1c01 	strb.w	r1, [r0, #-1]
10017360:	4619      	mov	r1, r3
10017362:	2963      	cmp	r1, #99	@ 0x63
10017364:	4613      	mov	r3, r2
10017366:	f100 32ff 	add.w	r2, r0, #4294967295	@ 0xffffffff
1001736a:	dcee      	bgt.n	1001734a <_vfprintf_r+0x139a>
1001736c:	3330      	adds	r3, #48	@ 0x30
1001736e:	f802 3c01 	strb.w	r3, [r2, #-1]
10017372:	1e83      	subs	r3, r0, #2
10017374:	42a3      	cmp	r3, r4
10017376:	f080 840c 	bcs.w	10017b92 <_vfprintf_r+0x1be2>
1001737a:	f10d 02b1 	add.w	r2, sp, #177	@ 0xb1
1001737e:	f813 1b01 	ldrb.w	r1, [r3], #1
10017382:	f802 1f01 	strb.w	r1, [r2, #1]!
10017386:	42a3      	cmp	r3, r4
10017388:	d1f9      	bne.n	1001737e <_vfprintf_r+0x13ce>
1001738a:	ab5e      	add	r3, sp, #376	@ 0x178
1001738c:	1a18      	subs	r0, r3, r0
1001738e:	f1a0 03ad 	sub.w	r3, r0, #173	@ 0xad
10017392:	931c      	str	r3, [sp, #112]	@ 0x70
10017394:	9b13      	ldr	r3, [sp, #76]	@ 0x4c
10017396:	9a1c      	ldr	r2, [sp, #112]	@ 0x70
10017398:	2b01      	cmp	r3, #1
1001739a:	eb03 0b02 	add.w	fp, r3, r2
1001739e:	f340 8378 	ble.w	10017a92 <_vfprintf_r+0x1ae2>
100173a2:	9b18      	ldr	r3, [sp, #96]	@ 0x60
100173a4:	449b      	add	fp, r3
100173a6:	9b06      	ldr	r3, [sp, #24]
100173a8:	f423 6380 	bic.w	r3, r3, #1024	@ 0x400
100173ac:	f443 7980 	orr.w	r9, r3, #256	@ 0x100
100173b0:	ea2b 72eb 	bic.w	r2, fp, fp, asr #31
100173b4:	2300      	movs	r3, #0
100173b6:	9314      	str	r3, [sp, #80]	@ 0x50
100173b8:	9206      	str	r2, [sp, #24]
100173ba:	9310      	str	r3, [sp, #64]	@ 0x40
100173bc:	9312      	str	r3, [sp, #72]	@ 0x48
100173be:	9b1f      	ldr	r3, [sp, #124]	@ 0x7c
100173c0:	2b00      	cmp	r3, #0
100173c2:	f040 810f 	bne.w	100175e4 <_vfprintf_r+0x1634>
100173c6:	f89d 209f 	ldrb.w	r2, [sp, #159]	@ 0x9f
100173ca:	9309      	str	r3, [sp, #36]	@ 0x24
100173cc:	f7ff b82b 	b.w	10016426 <_vfprintf_r+0x476>
100173d0:	9b13      	ldr	r3, [sp, #76]	@ 0x4c
100173d2:	ebab 060a 	sub.w	r6, fp, sl
100173d6:	1b5d      	subs	r5, r3, r5
100173d8:	42ae      	cmp	r6, r5
100173da:	bfa8      	it	ge
100173dc:	462e      	movge	r6, r5
100173de:	e41a      	b.n	10016c16 <_vfprintf_r+0xc66>
100173e0:	f343 12c0 	sbfx	r2, r3, #7, #1
100173e4:	4611      	mov	r1, r2
100173e6:	b25b      	sxtb	r3, r3
100173e8:	f7ff b8d3 	b.w	10016592 <_vfprintf_r+0x5e2>
100173ec:	9b0d      	ldr	r3, [sp, #52]	@ 0x34
100173ee:	9a0a      	ldr	r2, [sp, #40]	@ 0x28
100173f0:	681b      	ldr	r3, [r3, #0]
100173f2:	801a      	strh	r2, [r3, #0]
100173f4:	f7ff b9bc 	b.w	10016770 <_vfprintf_r+0x7c0>
100173f8:	9907      	ldr	r1, [sp, #28]
100173fa:	aa32      	add	r2, sp, #200	@ 0xc8
100173fc:	4658      	mov	r0, fp
100173fe:	f000 fc7b 	bl	10017cf8 <__sprint_r>
10017402:	2800      	cmp	r0, #0
10017404:	f43e af1c 	beq.w	10016240 <_vfprintf_r+0x290>
10017408:	f7fe bf30 	b.w	1001626c <_vfprintf_r+0x2bc>
1001740c:	4628      	mov	r0, r5
1001740e:	960d      	str	r6, [sp, #52]	@ 0x34
10017410:	f7fe f8f6 	bl	10015600 <strlen>
10017414:	4683      	mov	fp, r0
10017416:	f7ff b89f 	b.w	10016558 <_vfprintf_r+0x5a8>
1001741a:	2358      	movs	r3, #88	@ 0x58
1001741c:	f88d 30a1 	strb.w	r3, [sp, #161]	@ 0xa1
10017420:	2330      	movs	r3, #48	@ 0x30
10017422:	f88d 30a0 	strb.w	r3, [sp, #160]	@ 0xa0
10017426:	f049 0302 	orr.w	r3, r9, #2
1001742a:	9306      	str	r3, [sp, #24]
1001742c:	9b09      	ldr	r3, [sp, #36]	@ 0x24
1001742e:	2b63      	cmp	r3, #99	@ 0x63
10017430:	f300 82f6 	bgt.w	10017a20 <_vfprintf_r+0x1a70>
10017434:	2300      	movs	r3, #0
10017436:	930c      	str	r3, [sp, #48]	@ 0x30
10017438:	ad45      	add	r5, sp, #276	@ 0x114
1001743a:	f449 7381 	orr.w	r3, r9, #258	@ 0x102
1001743e:	9315      	str	r3, [sp, #84]	@ 0x54
10017440:	9b17      	ldr	r3, [sp, #92]	@ 0x5c
10017442:	2b00      	cmp	r3, #0
10017444:	f2c0 8200 	blt.w	10017848 <_vfprintf_r+0x1898>
10017448:	ed9d 7b16 	vldr	d7, [sp, #88]	@ 0x58
1001744c:	ed8d 7b24 	vstr	d7, [sp, #144]	@ 0x90
10017450:	2300      	movs	r3, #0
10017452:	931f      	str	r3, [sp, #124]	@ 0x7c
10017454:	9b0e      	ldr	r3, [sp, #56]	@ 0x38
10017456:	2b61      	cmp	r3, #97	@ 0x61
10017458:	f47f ad1c 	bne.w	10016e94 <_vfprintf_r+0xee4>
1001745c:	aa29      	add	r2, sp, #164	@ 0xa4
1001745e:	e9dd 0124 	ldrd	r0, r1, [sp, #144]	@ 0x90
10017462:	f7fe f939 	bl	100156d8 <frexp>
10017466:	2200      	movs	r2, #0
10017468:	f04f 537f 	mov.w	r3, #1069547520	@ 0x3fc00000
1001746c:	f003 f8c8 	bl	1001a600 <__aeabi_dmul>
10017470:	4602      	mov	r2, r0
10017472:	460b      	mov	r3, r1
10017474:	e9cd 2310 	strd	r2, r3, [sp, #64]	@ 0x40
10017478:	2200      	movs	r2, #0
1001747a:	2300      	movs	r3, #0
1001747c:	f003 fb28 	bl	1001aad0 <__aeabi_dcmpeq>
10017480:	2800      	cmp	r0, #0
10017482:	f040 82f8 	bne.w	10017a76 <_vfprintf_r+0x1ac6>
10017486:	4b09      	ldr	r3, [pc, #36]	@ (100174ac <_vfprintf_r+0x14fc>)
10017488:	9312      	str	r3, [sp, #72]	@ 0x48
1001748a:	9b09      	ldr	r3, [sp, #36]	@ 0x24
1001748c:	f8cd 804c 	str.w	r8, [sp, #76]	@ 0x4c
10017490:	f103 39ff 	add.w	r9, r3, #4294967295	@ 0xffffffff
10017494:	462e      	mov	r6, r5
10017496:	9514      	str	r5, [sp, #80]	@ 0x50
10017498:	f8dd b048 	ldr.w	fp, [sp, #72]	@ 0x48
1001749c:	464d      	mov	r5, r9
1001749e:	e9dd 8910 	ldrd	r8, r9, [sp, #64]	@ 0x40
100174a2:	e00b      	b.n	100174bc <_vfprintf_r+0x150c>
100174a4:	1001b3c4 	.word	0x1001b3c4
100174a8:	cccccccd 	.word	0xcccccccd
100174ac:	1001b1a4 	.word	0x1001b1a4
100174b0:	2200      	movs	r2, #0
100174b2:	2300      	movs	r3, #0
100174b4:	f003 fb0c 	bl	1001aad0 <__aeabi_dcmpeq>
100174b8:	b9f0      	cbnz	r0, 100174f8 <_vfprintf_r+0x1548>
100174ba:	463d      	mov	r5, r7
100174bc:	4ba9      	ldr	r3, [pc, #676]	@ (10017764 <_vfprintf_r+0x17b4>)
100174be:	2200      	movs	r2, #0
100174c0:	4640      	mov	r0, r8
100174c2:	4649      	mov	r1, r9
100174c4:	f003 f89c 	bl	1001a600 <__aeabi_dmul>
100174c8:	4689      	mov	r9, r1
100174ca:	4680      	mov	r8, r0
100174cc:	f003 fb48 	bl	1001ab60 <__aeabi_d2iz>
100174d0:	4604      	mov	r4, r0
100174d2:	f003 f82b 	bl	1001a52c <__aeabi_i2d>
100174d6:	460b      	mov	r3, r1
100174d8:	4602      	mov	r2, r0
100174da:	4649      	mov	r1, r9
100174dc:	4640      	mov	r0, r8
100174de:	f002 fed7 	bl	1001a290 <__aeabi_dsub>
100174e2:	f81b 3004 	ldrb.w	r3, [fp, r4]
100174e6:	46b2      	mov	sl, r6
100174e8:	f806 3b01 	strb.w	r3, [r6], #1
100174ec:	1c6b      	adds	r3, r5, #1
100174ee:	f105 37ff 	add.w	r7, r5, #4294967295	@ 0xffffffff
100174f2:	4680      	mov	r8, r0
100174f4:	4689      	mov	r9, r1
100174f6:	d1db      	bne.n	100174b0 <_vfprintf_r+0x1500>
100174f8:	46cb      	mov	fp, r9
100174fa:	4657      	mov	r7, sl
100174fc:	46c2      	mov	sl, r8
100174fe:	4b9a      	ldr	r3, [pc, #616]	@ (10017768 <_vfprintf_r+0x17b8>)
10017500:	f8dd 804c 	ldr.w	r8, [sp, #76]	@ 0x4c
10017504:	2200      	movs	r2, #0
10017506:	4650      	mov	r0, sl
10017508:	4659      	mov	r1, fp
1001750a:	46a9      	mov	r9, r5
1001750c:	9d14      	ldr	r5, [sp, #80]	@ 0x50
1001750e:	f003 fb07 	bl	1001ab20 <__aeabi_dcmpgt>
10017512:	2800      	cmp	r0, #0
10017514:	f040 8264 	bne.w	100179e0 <_vfprintf_r+0x1a30>
10017518:	4b93      	ldr	r3, [pc, #588]	@ (10017768 <_vfprintf_r+0x17b8>)
1001751a:	4650      	mov	r0, sl
1001751c:	4659      	mov	r1, fp
1001751e:	2200      	movs	r2, #0
10017520:	f003 fad6 	bl	1001aad0 <__aeabi_dcmpeq>
10017524:	b110      	cbz	r0, 1001752c <_vfprintf_r+0x157c>
10017526:	07e2      	lsls	r2, r4, #31
10017528:	f100 825a 	bmi.w	100179e0 <_vfprintf_r+0x1a30>
1001752c:	f1b9 0f00 	cmp.w	r9, #0
10017530:	f2c0 8270 	blt.w	10017a14 <_vfprintf_r+0x1a64>
10017534:	f109 0301 	add.w	r3, r9, #1
10017538:	4433      	add	r3, r6
1001753a:	2230      	movs	r2, #48	@ 0x30
1001753c:	f806 2b01 	strb.w	r2, [r6], #1
10017540:	42b3      	cmp	r3, r6
10017542:	d1fb      	bne.n	1001753c <_vfprintf_r+0x158c>
10017544:	1b5b      	subs	r3, r3, r5
10017546:	9313      	str	r3, [sp, #76]	@ 0x4c
10017548:	9b0e      	ldr	r3, [sp, #56]	@ 0x38
1001754a:	f023 0720 	bic.w	r7, r3, #32
1001754e:	e6d8      	b.n	10017302 <_vfprintf_r+0x1352>
10017550:	e9dd 1007 	ldrd	r1, r0, [sp, #28]
10017554:	aa32      	add	r2, sp, #200	@ 0xc8
10017556:	f000 fbcf 	bl	10017cf8 <__sprint_r>
1001755a:	2800      	cmp	r0, #0
1001755c:	f47f aa2c 	bne.w	100169b8 <_vfprintf_r+0xa08>
10017560:	e9dd 3433 	ldrd	r3, r4, [sp, #204]	@ 0xcc
10017564:	9a29      	ldr	r2, [sp, #164]	@ 0xa4
10017566:	f10d 08d4 	add.w	r8, sp, #212	@ 0xd4
1001756a:	f7ff ba36 	b.w	100169da <_vfprintf_r+0xa2a>
1001756e:	6d88      	ldr	r0, [r1, #88]	@ 0x58
10017570:	f7fc fe2c 	bl	100141cc <__retarget_lock_release_recursive>
10017574:	f7fe be36 	b.w	100161e4 <_vfprintf_r+0x234>
10017578:	9b09      	ldr	r3, [sp, #36]	@ 0x24
1001757a:	1c5e      	adds	r6, r3, #1
1001757c:	2302      	movs	r3, #2
1001757e:	e691      	b.n	100172a4 <_vfprintf_r+0x12f4>
10017580:	9e09      	ldr	r6, [sp, #36]	@ 0x24
10017582:	2303      	movs	r3, #3
10017584:	e68e      	b.n	100172a4 <_vfprintf_r+0x12f4>
10017586:	aa29      	add	r2, sp, #164	@ 0xa4
10017588:	e9dd 0124 	ldrd	r0, r1, [sp, #144]	@ 0x90
1001758c:	f7fe f8a4 	bl	100156d8 <frexp>
10017590:	2200      	movs	r2, #0
10017592:	f04f 537f 	mov.w	r3, #1069547520	@ 0x3fc00000
10017596:	f003 f833 	bl	1001a600 <__aeabi_dmul>
1001759a:	4602      	mov	r2, r0
1001759c:	460b      	mov	r3, r1
1001759e:	e9cd 2310 	strd	r2, r3, [sp, #64]	@ 0x40
100175a2:	2200      	movs	r2, #0
100175a4:	2300      	movs	r3, #0
100175a6:	f003 fa93 	bl	1001aad0 <__aeabi_dcmpeq>
100175aa:	2800      	cmp	r0, #0
100175ac:	f040 8263 	bne.w	10017a76 <_vfprintf_r+0x1ac6>
100175b0:	4b6e      	ldr	r3, [pc, #440]	@ (1001776c <_vfprintf_r+0x17bc>)
100175b2:	9312      	str	r3, [sp, #72]	@ 0x48
100175b4:	e769      	b.n	1001748a <_vfprintf_r+0x14da>
100175b6:	9b06      	ldr	r3, [sp, #24]
100175b8:	07db      	lsls	r3, r3, #31
100175ba:	f100 81e4 	bmi.w	10017986 <_vfprintf_r+0x19d6>
100175be:	9b30      	ldr	r3, [sp, #192]	@ 0xc0
100175c0:	9a29      	ldr	r2, [sp, #164]	@ 0xa4
100175c2:	1b5b      	subs	r3, r3, r5
100175c4:	9313      	str	r3, [sp, #76]	@ 0x4c
100175c6:	1cd3      	adds	r3, r2, #3
100175c8:	9212      	str	r2, [sp, #72]	@ 0x48
100175ca:	db02      	blt.n	100175d2 <_vfprintf_r+0x1622>
100175cc:	9b09      	ldr	r3, [sp, #36]	@ 0x24
100175ce:	4293      	cmp	r3, r2
100175d0:	da44      	bge.n	1001765c <_vfprintf_r+0x16ac>
100175d2:	9b0e      	ldr	r3, [sp, #56]	@ 0x38
100175d4:	3b02      	subs	r3, #2
100175d6:	930e      	str	r3, [sp, #56]	@ 0x38
100175d8:	1e53      	subs	r3, r2, #1
100175da:	9329      	str	r3, [sp, #164]	@ 0xa4
100175dc:	f89d 1038 	ldrb.w	r1, [sp, #56]	@ 0x38
100175e0:	2000      	movs	r0, #0
100175e2:	e6a1      	b.n	10017328 <_vfprintf_r+0x1378>
100175e4:	222d      	movs	r2, #45	@ 0x2d
100175e6:	2300      	movs	r3, #0
100175e8:	f88d 209f 	strb.w	r2, [sp, #159]	@ 0x9f
100175ec:	9309      	str	r3, [sp, #36]	@ 0x24
100175ee:	f7fe bf1d 	b.w	1001642c <_vfprintf_r+0x47c>
100175f2:	4645      	mov	r5, r8
100175f4:	460c      	mov	r4, r1
100175f6:	4690      	mov	r8, r2
100175f8:	3301      	adds	r3, #1
100175fa:	9a15      	ldr	r2, [sp, #84]	@ 0x54
100175fc:	f8c8 2000 	str.w	r2, [r8]
10017600:	4434      	add	r4, r6
10017602:	2b07      	cmp	r3, #7
10017604:	e9cd 3433 	strd	r3, r4, [sp, #204]	@ 0xcc
10017608:	f8c8 6004 	str.w	r6, [r8, #4]
1001760c:	f300 8226 	bgt.w	10017a5c <_vfprintf_r+0x1aac>
10017610:	f108 0808 	add.w	r8, r8, #8
10017614:	f7ff bacb 	b.w	10016bae <_vfprintf_r+0xbfe>
10017618:	222d      	movs	r2, #45	@ 0x2d
1001761a:	f88d 209f 	strb.w	r2, [sp, #159]	@ 0x9f
1001761e:	f7fe bef1 	b.w	10016404 <_vfprintf_r+0x454>
10017622:	2300      	movs	r3, #0
10017624:	9808      	ldr	r0, [sp, #32]
10017626:	9700      	str	r7, [sp, #0]
10017628:	aa2b      	add	r2, sp, #172	@ 0xac
1001762a:	4619      	mov	r1, r3
1001762c:	f7fc fe62 	bl	100142f4 <_wcsrtombs_r>
10017630:	f1b0 3fff 	cmp.w	r0, #4294967295	@ 0xffffffff
10017634:	4683      	mov	fp, r0
10017636:	f000 8209 	beq.w	10017a4c <_vfprintf_r+0x1a9c>
1001763a:	952b      	str	r5, [sp, #172]	@ 0xac
1001763c:	e59e      	b.n	1001717c <_vfprintf_r+0x11cc>
1001763e:	9b1e      	ldr	r3, [sp, #120]	@ 0x78
10017640:	991d      	ldr	r1, [sp, #116]	@ 0x74
10017642:	1aed      	subs	r5, r5, r3
10017644:	461a      	mov	r2, r3
10017646:	4628      	mov	r0, r5
10017648:	f7fe f9d8 	bl	100159fc <strncpy>
1001764c:	f898 3001 	ldrb.w	r3, [r8, #1]
10017650:	b10b      	cbz	r3, 10017656 <_vfprintf_r+0x16a6>
10017652:	f108 0801 	add.w	r8, r8, #1
10017656:	f04f 0c00 	mov.w	ip, #0
1001765a:	e4f9      	b.n	10017050 <_vfprintf_r+0x10a0>
1001765c:	9b13      	ldr	r3, [sp, #76]	@ 0x4c
1001765e:	4293      	cmp	r3, r2
10017660:	f300 8194 	bgt.w	1001798c <_vfprintf_r+0x19dc>
10017664:	9b06      	ldr	r3, [sp, #24]
10017666:	07de      	lsls	r6, r3, #31
10017668:	f140 824a 	bpl.w	10017b00 <_vfprintf_r+0x1b50>
1001766c:	9b18      	ldr	r3, [sp, #96]	@ 0x60
1001766e:	eb02 0b03 	add.w	fp, r2, r3
10017672:	9b06      	ldr	r3, [sp, #24]
10017674:	055c      	lsls	r4, r3, #21
10017676:	d502      	bpl.n	1001767e <_vfprintf_r+0x16ce>
10017678:	2a00      	cmp	r2, #0
1001767a:	f300 824a 	bgt.w	10017b12 <_vfprintf_r+0x1b62>
1001767e:	ea2b 73eb 	bic.w	r3, fp, fp, asr #31
10017682:	9306      	str	r3, [sp, #24]
10017684:	f8dd 9054 	ldr.w	r9, [sp, #84]	@ 0x54
10017688:	2367      	movs	r3, #103	@ 0x67
1001768a:	930e      	str	r3, [sp, #56]	@ 0x38
1001768c:	2300      	movs	r3, #0
1001768e:	9314      	str	r3, [sp, #80]	@ 0x50
10017690:	9310      	str	r3, [sp, #64]	@ 0x40
10017692:	e694      	b.n	100173be <_vfprintf_r+0x140e>
10017694:	9b30      	ldr	r3, [sp, #192]	@ 0xc0
10017696:	42a3      	cmp	r3, r4
10017698:	f4bf ae31 	bcs.w	100172fe <_vfprintf_r+0x134e>
1001769c:	2130      	movs	r1, #48	@ 0x30
1001769e:	1c5a      	adds	r2, r3, #1
100176a0:	9230      	str	r2, [sp, #192]	@ 0xc0
100176a2:	7019      	strb	r1, [r3, #0]
100176a4:	9b30      	ldr	r3, [sp, #192]	@ 0xc0
100176a6:	429c      	cmp	r4, r3
100176a8:	d8f9      	bhi.n	1001769e <_vfprintf_r+0x16ee>
100176aa:	e628      	b.n	100172fe <_vfprintf_r+0x134e>
100176ac:	4621      	mov	r1, r4
100176ae:	461c      	mov	r4, r3
100176b0:	9b10      	ldr	r3, [sp, #64]	@ 0x40
100176b2:	f8cd b024 	str.w	fp, [sp, #36]	@ 0x24
100176b6:	f8cd 9038 	str.w	r9, [sp, #56]	@ 0x38
100176ba:	4642      	mov	r2, r8
100176bc:	4f2c      	ldr	r7, [pc, #176]	@ (10017770 <_vfprintf_r+0x17c0>)
100176be:	f8dd 9050 	ldr.w	r9, [sp, #80]	@ 0x50
100176c2:	f8dd 8078 	ldr.w	r8, [sp, #120]	@ 0x78
100176c6:	f8dd a06c 	ldr.w	sl, [sp, #108]	@ 0x6c
100176ca:	f8dd b020 	ldr.w	fp, [sp, #32]
100176ce:	b37b      	cbz	r3, 10017730 <_vfprintf_r+0x1780>
100176d0:	f1b9 0f00 	cmp.w	r9, #0
100176d4:	f000 8085 	beq.w	100177e2 <_vfprintf_r+0x1832>
100176d8:	f109 39ff 	add.w	r9, r9, #4294967295	@ 0xffffffff
100176dc:	9833      	ldr	r0, [sp, #204]	@ 0xcc
100176de:	9b1d      	ldr	r3, [sp, #116]	@ 0x74
100176e0:	3001      	adds	r0, #1
100176e2:	4441      	add	r1, r8
100176e4:	2807      	cmp	r0, #7
100176e6:	e9c2 3800 	strd	r3, r8, [r2]
100176ea:	9134      	str	r1, [sp, #208]	@ 0xd0
100176ec:	9033      	str	r0, [sp, #204]	@ 0xcc
100176ee:	dc6d      	bgt.n	100177cc <_vfprintf_r+0x181c>
100176f0:	3208      	adds	r2, #8
100176f2:	9b09      	ldr	r3, [sp, #36]	@ 0x24
100176f4:	f89a 0000 	ldrb.w	r0, [sl]
100176f8:	1b1e      	subs	r6, r3, r4
100176fa:	4286      	cmp	r6, r0
100176fc:	bfa8      	it	ge
100176fe:	4606      	movge	r6, r0
10017700:	2e00      	cmp	r6, #0
10017702:	dd0b      	ble.n	1001771c <_vfprintf_r+0x176c>
10017704:	9833      	ldr	r0, [sp, #204]	@ 0xcc
10017706:	3001      	adds	r0, #1
10017708:	4431      	add	r1, r6
1001770a:	2807      	cmp	r0, #7
1001770c:	e9c2 4600 	strd	r4, r6, [r2]
10017710:	9134      	str	r1, [sp, #208]	@ 0xd0
10017712:	9033      	str	r0, [sp, #204]	@ 0xcc
10017714:	dc6b      	bgt.n	100177ee <_vfprintf_r+0x183e>
10017716:	f89a 0000 	ldrb.w	r0, [sl]
1001771a:	3208      	adds	r2, #8
1001771c:	2e00      	cmp	r6, #0
1001771e:	bfac      	ite	ge
10017720:	1b85      	subge	r5, r0, r6
10017722:	4605      	movlt	r5, r0
10017724:	2d00      	cmp	r5, #0
10017726:	dc14      	bgt.n	10017752 <_vfprintf_r+0x17a2>
10017728:	4404      	add	r4, r0
1001772a:	9b10      	ldr	r3, [sp, #64]	@ 0x40
1001772c:	2b00      	cmp	r3, #0
1001772e:	d1cf      	bne.n	100176d0 <_vfprintf_r+0x1720>
10017730:	f1b9 0f00 	cmp.w	r9, #0
10017734:	d1d0      	bne.n	100176d8 <_vfprintf_r+0x1728>
10017736:	f8dd b024 	ldr.w	fp, [sp, #36]	@ 0x24
1001773a:	f8cd a06c 	str.w	sl, [sp, #108]	@ 0x6c
1001773e:	46a2      	mov	sl, r4
10017740:	45da      	cmp	sl, fp
10017742:	f8dd 9038 	ldr.w	r9, [sp, #56]	@ 0x38
10017746:	4690      	mov	r8, r2
10017748:	460c      	mov	r4, r1
1001774a:	bf28      	it	cs
1001774c:	46da      	movcs	sl, fp
1001774e:	f7ff ba35 	b.w	10016bbc <_vfprintf_r+0xc0c>
10017752:	2d10      	cmp	r5, #16
10017754:	9833      	ldr	r0, [sp, #204]	@ 0xcc
10017756:	f340 821a 	ble.w	10017b8e <_vfprintf_r+0x1bde>
1001775a:	4623      	mov	r3, r4
1001775c:	463e      	mov	r6, r7
1001775e:	462c      	mov	r4, r5
10017760:	461d      	mov	r5, r3
10017762:	e00c      	b.n	1001777e <_vfprintf_r+0x17ce>
10017764:	40300000 	.word	0x40300000
10017768:	3fe00000 	.word	0x3fe00000
1001776c:	1001b1b8 	.word	0x1001b1b8
10017770:	1001b3c4 	.word	0x1001b3c4
10017774:	3c10      	subs	r4, #16
10017776:	2c10      	cmp	r4, #16
10017778:	f102 0208 	add.w	r2, r2, #8
1001777c:	dd16      	ble.n	100177ac <_vfprintf_r+0x17fc>
1001777e:	3001      	adds	r0, #1
10017780:	3110      	adds	r1, #16
10017782:	2310      	movs	r3, #16
10017784:	2807      	cmp	r0, #7
10017786:	e9cd 0133 	strd	r0, r1, [sp, #204]	@ 0xcc
1001778a:	6017      	str	r7, [r2, #0]
1001778c:	6053      	str	r3, [r2, #4]
1001778e:	ddf1      	ble.n	10017774 <_vfprintf_r+0x17c4>
10017790:	9907      	ldr	r1, [sp, #28]
10017792:	aa32      	add	r2, sp, #200	@ 0xc8
10017794:	4658      	mov	r0, fp
10017796:	f000 faaf 	bl	10017cf8 <__sprint_r>
1001779a:	2800      	cmp	r0, #0
1001779c:	f47e ad60 	bne.w	10016260 <_vfprintf_r+0x2b0>
100177a0:	3c10      	subs	r4, #16
100177a2:	2c10      	cmp	r4, #16
100177a4:	e9dd 0133 	ldrd	r0, r1, [sp, #204]	@ 0xcc
100177a8:	aa35      	add	r2, sp, #212	@ 0xd4
100177aa:	dce8      	bgt.n	1001777e <_vfprintf_r+0x17ce>
100177ac:	462b      	mov	r3, r5
100177ae:	4625      	mov	r5, r4
100177b0:	461c      	mov	r4, r3
100177b2:	3001      	adds	r0, #1
100177b4:	4429      	add	r1, r5
100177b6:	2807      	cmp	r0, #7
100177b8:	e9cd 0133 	strd	r0, r1, [sp, #204]	@ 0xcc
100177bc:	6016      	str	r6, [r2, #0]
100177be:	6055      	str	r5, [r2, #4]
100177c0:	dc4b      	bgt.n	1001785a <_vfprintf_r+0x18aa>
100177c2:	f89a 0000 	ldrb.w	r0, [sl]
100177c6:	3208      	adds	r2, #8
100177c8:	4404      	add	r4, r0
100177ca:	e7ae      	b.n	1001772a <_vfprintf_r+0x177a>
100177cc:	9907      	ldr	r1, [sp, #28]
100177ce:	aa32      	add	r2, sp, #200	@ 0xc8
100177d0:	4658      	mov	r0, fp
100177d2:	f000 fa91 	bl	10017cf8 <__sprint_r>
100177d6:	2800      	cmp	r0, #0
100177d8:	f47e ad42 	bne.w	10016260 <_vfprintf_r+0x2b0>
100177dc:	9934      	ldr	r1, [sp, #208]	@ 0xd0
100177de:	aa35      	add	r2, sp, #212	@ 0xd4
100177e0:	e787      	b.n	100176f2 <_vfprintf_r+0x1742>
100177e2:	9b10      	ldr	r3, [sp, #64]	@ 0x40
100177e4:	3b01      	subs	r3, #1
100177e6:	f10a 3aff 	add.w	sl, sl, #4294967295	@ 0xffffffff
100177ea:	9310      	str	r3, [sp, #64]	@ 0x40
100177ec:	e776      	b.n	100176dc <_vfprintf_r+0x172c>
100177ee:	9907      	ldr	r1, [sp, #28]
100177f0:	aa32      	add	r2, sp, #200	@ 0xc8
100177f2:	4658      	mov	r0, fp
100177f4:	f000 fa80 	bl	10017cf8 <__sprint_r>
100177f8:	2800      	cmp	r0, #0
100177fa:	f47e ad31 	bne.w	10016260 <_vfprintf_r+0x2b0>
100177fe:	f89a 0000 	ldrb.w	r0, [sl]
10017802:	9934      	ldr	r1, [sp, #208]	@ 0xd0
10017804:	aa35      	add	r2, sp, #212	@ 0xd4
10017806:	e789      	b.n	1001771c <_vfprintf_r+0x176c>
10017808:	f89d 209f 	ldrb.w	r2, [sp, #159]	@ 0x9f
1001780c:	960d      	str	r6, [sp, #52]	@ 0x34
1001780e:	f8cd b018 	str.w	fp, [sp, #24]
10017812:	f8cd b024 	str.w	fp, [sp, #36]	@ 0x24
10017816:	f8cd b050 	str.w	fp, [sp, #80]	@ 0x50
1001781a:	f8cd b040 	str.w	fp, [sp, #64]	@ 0x40
1001781e:	f8cd b048 	str.w	fp, [sp, #72]	@ 0x48
10017822:	f8cd b030 	str.w	fp, [sp, #48]	@ 0x30
10017826:	f7fe bdfe 	b.w	10016426 <_vfprintf_r+0x476>
1001782a:	e9dd 1007 	ldrd	r1, r0, [sp, #28]
1001782e:	aa32      	add	r2, sp, #200	@ 0xc8
10017830:	f000 fa62 	bl	10017cf8 <__sprint_r>
10017834:	2800      	cmp	r0, #0
10017836:	f47f a8bf 	bne.w	100169b8 <_vfprintf_r+0xa08>
1001783a:	9a29      	ldr	r2, [sp, #164]	@ 0xa4
1001783c:	9c34      	ldr	r4, [sp, #208]	@ 0xd0
1001783e:	f10d 08d4 	add.w	r8, sp, #212	@ 0xd4
10017842:	f7ff baa5 	b.w	10016d90 <_vfprintf_r+0xde0>
10017846:	930c      	str	r3, [sp, #48]	@ 0x30
10017848:	e9dd 1216 	ldrd	r1, r2, [sp, #88]	@ 0x58
1001784c:	f102 4300 	add.w	r3, r2, #2147483648	@ 0x80000000
10017850:	9325      	str	r3, [sp, #148]	@ 0x94
10017852:	232d      	movs	r3, #45	@ 0x2d
10017854:	9124      	str	r1, [sp, #144]	@ 0x90
10017856:	931f      	str	r3, [sp, #124]	@ 0x7c
10017858:	e5fc      	b.n	10017454 <_vfprintf_r+0x14a4>
1001785a:	9907      	ldr	r1, [sp, #28]
1001785c:	aa32      	add	r2, sp, #200	@ 0xc8
1001785e:	4658      	mov	r0, fp
10017860:	f000 fa4a 	bl	10017cf8 <__sprint_r>
10017864:	2800      	cmp	r0, #0
10017866:	f47e acfb 	bne.w	10016260 <_vfprintf_r+0x2b0>
1001786a:	f89a 0000 	ldrb.w	r0, [sl]
1001786e:	9934      	ldr	r1, [sp, #208]	@ 0xd0
10017870:	aa35      	add	r2, sp, #212	@ 0xd4
10017872:	4404      	add	r4, r0
10017874:	e759      	b.n	1001772a <_vfprintf_r+0x177a>
10017876:	e9dd 1007 	ldrd	r1, r0, [sp, #28]
1001787a:	aa32      	add	r2, sp, #200	@ 0xc8
1001787c:	f000 fa3c 	bl	10017cf8 <__sprint_r>
10017880:	2800      	cmp	r0, #0
10017882:	f47f a899 	bne.w	100169b8 <_vfprintf_r+0xa08>
10017886:	9c34      	ldr	r4, [sp, #208]	@ 0xd0
10017888:	f10d 08d4 	add.w	r8, sp, #212	@ 0xd4
1001788c:	f7ff b988 	b.w	10016ba0 <_vfprintf_r+0xbf0>
10017890:	2378      	movs	r3, #120	@ 0x78
10017892:	e5c3      	b.n	1001741c <_vfprintf_r+0x146c>
10017894:	e9dd 1007 	ldrd	r1, r0, [sp, #28]
10017898:	aa32      	add	r2, sp, #200	@ 0xc8
1001789a:	f000 fa2d 	bl	10017cf8 <__sprint_r>
1001789e:	2800      	cmp	r0, #0
100178a0:	f47f a88a 	bne.w	100169b8 <_vfprintf_r+0xa08>
100178a4:	9d29      	ldr	r5, [sp, #164]	@ 0xa4
100178a6:	9c34      	ldr	r4, [sp, #208]	@ 0xd0
100178a8:	f10d 08d4 	add.w	r8, sp, #212	@ 0xd4
100178ac:	f7ff b99c 	b.w	10016be8 <_vfprintf_r+0xc38>
100178b0:	49ab      	ldr	r1, [pc, #684]	@ (10017b60 <_vfprintf_r+0x1bb0>)
100178b2:	9115      	str	r1, [sp, #84]	@ 0x54
100178b4:	f7fe bdee 	b.w	10016494 <_vfprintf_r+0x4e4>
100178b8:	e9dd 1007 	ldrd	r1, r0, [sp, #28]
100178bc:	aa32      	add	r2, sp, #200	@ 0xc8
100178be:	f000 fa1b 	bl	10017cf8 <__sprint_r>
100178c2:	2800      	cmp	r0, #0
100178c4:	f47f a878 	bne.w	100169b8 <_vfprintf_r+0xa08>
100178c8:	9d29      	ldr	r5, [sp, #164]	@ 0xa4
100178ca:	9b13      	ldr	r3, [sp, #76]	@ 0x4c
100178cc:	9c34      	ldr	r4, [sp, #208]	@ 0xd0
100178ce:	1b5d      	subs	r5, r3, r5
100178d0:	f10d 08d4 	add.w	r8, sp, #212	@ 0xd4
100178d4:	f7ff b99f 	b.w	10016c16 <_vfprintf_r+0xc66>
100178d8:	9b06      	ldr	r3, [sp, #24]
100178da:	9912      	ldr	r1, [sp, #72]	@ 0x48
100178dc:	9a09      	ldr	r2, [sp, #36]	@ 0x24
100178de:	f003 0301 	and.w	r3, r3, #1
100178e2:	2900      	cmp	r1, #0
100178e4:	ea43 0302 	orr.w	r3, r3, r2
100178e8:	f340 815d 	ble.w	10017ba6 <_vfprintf_r+0x1bf6>
100178ec:	2b00      	cmp	r3, #0
100178ee:	f040 8109 	bne.w	10017b04 <_vfprintf_r+0x1b54>
100178f2:	2366      	movs	r3, #102	@ 0x66
100178f4:	f8dd b048 	ldr.w	fp, [sp, #72]	@ 0x48
100178f8:	930e      	str	r3, [sp, #56]	@ 0x38
100178fa:	9b06      	ldr	r3, [sp, #24]
100178fc:	055a      	lsls	r2, r3, #21
100178fe:	f100 810a 	bmi.w	10017b16 <_vfprintf_r+0x1b66>
10017902:	ea2b 73eb 	bic.w	r3, fp, fp, asr #31
10017906:	f8dd 9054 	ldr.w	r9, [sp, #84]	@ 0x54
1001790a:	9306      	str	r3, [sp, #24]
1001790c:	e6be      	b.n	1001768c <_vfprintf_r+0x16dc>
1001790e:	2200      	movs	r2, #0
10017910:	9209      	str	r2, [sp, #36]	@ 0x24
10017912:	f7fe bbc6 	b.w	100160a2 <_vfprintf_r+0xf2>
10017916:	9b07      	ldr	r3, [sp, #28]
10017918:	6e5b      	ldr	r3, [r3, #100]	@ 0x64
1001791a:	07dd      	lsls	r5, r3, #31
1001791c:	d407      	bmi.n	1001792e <_vfprintf_r+0x197e>
1001791e:	9b07      	ldr	r3, [sp, #28]
10017920:	899b      	ldrh	r3, [r3, #12]
10017922:	059c      	lsls	r4, r3, #22
10017924:	d403      	bmi.n	1001792e <_vfprintf_r+0x197e>
10017926:	9b07      	ldr	r3, [sp, #28]
10017928:	6d98      	ldr	r0, [r3, #88]	@ 0x58
1001792a:	f7fc fc4f 	bl	100141cc <__retarget_lock_release_recursive>
1001792e:	f04f 33ff 	mov.w	r3, #4294967295	@ 0xffffffff
10017932:	930a      	str	r3, [sp, #40]	@ 0x28
10017934:	f7fe bca5 	b.w	10016282 <_vfprintf_r+0x2d2>
10017938:	4256      	negs	r6, r2
1001793a:	3210      	adds	r2, #16
1001793c:	4a89      	ldr	r2, [pc, #548]	@ (10017b64 <_vfprintf_r+0x1bb4>)
1001793e:	9215      	str	r2, [sp, #84]	@ 0x54
10017940:	da34      	bge.n	100179ac <_vfprintf_r+0x19fc>
10017942:	46aa      	mov	sl, r5
10017944:	2710      	movs	r7, #16
10017946:	4615      	mov	r5, r2
10017948:	e004      	b.n	10017954 <_vfprintf_r+0x19a4>
1001794a:	f108 0808 	add.w	r8, r8, #8
1001794e:	3e10      	subs	r6, #16
10017950:	2e10      	cmp	r6, #16
10017952:	dd2a      	ble.n	100179aa <_vfprintf_r+0x19fa>
10017954:	3301      	adds	r3, #1
10017956:	3410      	adds	r4, #16
10017958:	2b07      	cmp	r3, #7
1001795a:	e9c8 5700 	strd	r5, r7, [r8]
1001795e:	e9cd 3433 	strd	r3, r4, [sp, #204]	@ 0xcc
10017962:	ddf2      	ble.n	1001794a <_vfprintf_r+0x199a>
10017964:	e9dd 1007 	ldrd	r1, r0, [sp, #28]
10017968:	aa32      	add	r2, sp, #200	@ 0xc8
1001796a:	f000 f9c5 	bl	10017cf8 <__sprint_r>
1001796e:	2800      	cmp	r0, #0
10017970:	f47f a822 	bne.w	100169b8 <_vfprintf_r+0xa08>
10017974:	e9dd 3433 	ldrd	r3, r4, [sp, #204]	@ 0xcc
10017978:	f10d 08d4 	add.w	r8, sp, #212	@ 0xd4
1001797c:	e7e7      	b.n	1001794e <_vfprintf_r+0x199e>
1001797e:	2300      	movs	r3, #0
10017980:	930c      	str	r3, [sp, #48]	@ 0x30
10017982:	ad45      	add	r5, sp, #276	@ 0x114
10017984:	e40c      	b.n	100171a0 <_vfprintf_r+0x11f0>
10017986:	19ac      	adds	r4, r5, r6
10017988:	2747      	movs	r7, #71	@ 0x47
1001798a:	e4ae      	b.n	100172ea <_vfprintf_r+0x133a>
1001798c:	9b13      	ldr	r3, [sp, #76]	@ 0x4c
1001798e:	9a18      	ldr	r2, [sp, #96]	@ 0x60
10017990:	eb03 0b02 	add.w	fp, r3, r2
10017994:	9b12      	ldr	r3, [sp, #72]	@ 0x48
10017996:	2b00      	cmp	r3, #0
10017998:	f340 80ee 	ble.w	10017b78 <_vfprintf_r+0x1bc8>
1001799c:	2367      	movs	r3, #103	@ 0x67
1001799e:	930e      	str	r3, [sp, #56]	@ 0x38
100179a0:	e7ab      	b.n	100178fa <_vfprintf_r+0x194a>
100179a2:	4a6f      	ldr	r2, [pc, #444]	@ (10017b60 <_vfprintf_r+0x1bb0>)
100179a4:	9215      	str	r2, [sp, #84]	@ 0x54
100179a6:	f7ff b8ce 	b.w	10016b46 <_vfprintf_r+0xb96>
100179aa:	4655      	mov	r5, sl
100179ac:	3301      	adds	r3, #1
100179ae:	9a15      	ldr	r2, [sp, #84]	@ 0x54
100179b0:	f8c8 2000 	str.w	r2, [r8]
100179b4:	4434      	add	r4, r6
100179b6:	2b07      	cmp	r3, #7
100179b8:	e9cd 3433 	strd	r3, r4, [sp, #204]	@ 0xcc
100179bc:	f8c8 6004 	str.w	r6, [r8, #4]
100179c0:	f77f a9fb 	ble.w	10016dba <_vfprintf_r+0xe0a>
100179c4:	e9dd 1007 	ldrd	r1, r0, [sp, #28]
100179c8:	aa32      	add	r2, sp, #200	@ 0xc8
100179ca:	f000 f995 	bl	10017cf8 <__sprint_r>
100179ce:	2800      	cmp	r0, #0
100179d0:	f47e aff2 	bne.w	100169b8 <_vfprintf_r+0xa08>
100179d4:	e9dd 3433 	ldrd	r3, r4, [sp, #204]	@ 0xcc
100179d8:	f10d 08d4 	add.w	r8, sp, #212	@ 0xd4
100179dc:	f7ff b800 	b.w	100169e0 <_vfprintf_r+0xa30>
100179e0:	9b12      	ldr	r3, [sp, #72]	@ 0x48
100179e2:	9730      	str	r7, [sp, #192]	@ 0xc0
100179e4:	7bd9      	ldrb	r1, [r3, #15]
100179e6:	f816 2c01 	ldrb.w	r2, [r6, #-1]
100179ea:	428a      	cmp	r2, r1
100179ec:	4633      	mov	r3, r6
100179ee:	d109      	bne.n	10017a04 <_vfprintf_r+0x1a54>
100179f0:	2030      	movs	r0, #48	@ 0x30
100179f2:	f803 0c01 	strb.w	r0, [r3, #-1]
100179f6:	9b30      	ldr	r3, [sp, #192]	@ 0xc0
100179f8:	1e5a      	subs	r2, r3, #1
100179fa:	9230      	str	r2, [sp, #192]	@ 0xc0
100179fc:	f813 2c01 	ldrb.w	r2, [r3, #-1]
10017a00:	4291      	cmp	r1, r2
10017a02:	d0f6      	beq.n	100179f2 <_vfprintf_r+0x1a42>
10017a04:	2a39      	cmp	r2, #57	@ 0x39
10017a06:	bf0b      	itete	eq
10017a08:	9a12      	ldreq	r2, [sp, #72]	@ 0x48
10017a0a:	3201      	addne	r2, #1
10017a0c:	7a92      	ldrbeq	r2, [r2, #10]
10017a0e:	b2d2      	uxtbne	r2, r2
10017a10:	f803 2c01 	strb.w	r2, [r3, #-1]
10017a14:	4633      	mov	r3, r6
10017a16:	e595      	b.n	10017544 <_vfprintf_r+0x1594>
10017a18:	4a52      	ldr	r2, [pc, #328]	@ (10017b64 <_vfprintf_r+0x1bb4>)
10017a1a:	9215      	str	r2, [sp, #84]	@ 0x54
10017a1c:	f7fe bf78 	b.w	10016910 <_vfprintf_r+0x960>
10017a20:	9808      	ldr	r0, [sp, #32]
10017a22:	1c59      	adds	r1, r3, #1
10017a24:	f7fc f854 	bl	10013ad0 <_malloc_r>
10017a28:	4605      	mov	r5, r0
10017a2a:	b178      	cbz	r0, 10017a4c <_vfprintf_r+0x1a9c>
10017a2c:	900c      	str	r0, [sp, #48]	@ 0x30
10017a2e:	e504      	b.n	1001743a <_vfprintf_r+0x148a>
10017a30:	2800      	cmp	r0, #0
10017a32:	d162      	bne.n	10017afa <_vfprintf_r+0x1b4a>
10017a34:	2230      	movs	r2, #48	@ 0x30
10017a36:	f88d 20b2 	strb.w	r2, [sp, #178]	@ 0xb2
10017a3a:	f10d 02b3 	add.w	r2, sp, #179	@ 0xb3
10017a3e:	3330      	adds	r3, #48	@ 0x30
10017a40:	f802 3b01 	strb.w	r3, [r2], #1
10017a44:	ab2c      	add	r3, sp, #176	@ 0xb0
10017a46:	1ad3      	subs	r3, r2, r3
10017a48:	931c      	str	r3, [sp, #112]	@ 0x70
10017a4a:	e4a3      	b.n	10017394 <_vfprintf_r+0x13e4>
10017a4c:	9a07      	ldr	r2, [sp, #28]
10017a4e:	f9b2 300c 	ldrsh.w	r3, [r2, #12]
10017a52:	f043 0340 	orr.w	r3, r3, #64	@ 0x40
10017a56:	8193      	strh	r3, [r2, #12]
10017a58:	f7fe bc0b 	b.w	10016272 <_vfprintf_r+0x2c2>
10017a5c:	e9dd 1007 	ldrd	r1, r0, [sp, #28]
10017a60:	aa32      	add	r2, sp, #200	@ 0xc8
10017a62:	f000 f949 	bl	10017cf8 <__sprint_r>
10017a66:	2800      	cmp	r0, #0
10017a68:	f47e afa6 	bne.w	100169b8 <_vfprintf_r+0xa08>
10017a6c:	9c34      	ldr	r4, [sp, #208]	@ 0xd0
10017a6e:	f10d 08d4 	add.w	r8, sp, #212	@ 0xd4
10017a72:	f7ff b89c 	b.w	10016bae <_vfprintf_r+0xbfe>
10017a76:	4b3c      	ldr	r3, [pc, #240]	@ (10017b68 <_vfprintf_r+0x1bb8>)
10017a78:	4a3c      	ldr	r2, [pc, #240]	@ (10017b6c <_vfprintf_r+0x1bbc>)
10017a7a:	990e      	ldr	r1, [sp, #56]	@ 0x38
10017a7c:	2961      	cmp	r1, #97	@ 0x61
10017a7e:	bf18      	it	ne
10017a80:	461a      	movne	r2, r3
10017a82:	2301      	movs	r3, #1
10017a84:	9212      	str	r2, [sp, #72]	@ 0x48
10017a86:	9329      	str	r3, [sp, #164]	@ 0xa4
10017a88:	e4ff      	b.n	1001748a <_vfprintf_r+0x14da>
10017a8a:	2306      	movs	r3, #6
10017a8c:	9309      	str	r3, [sp, #36]	@ 0x24
10017a8e:	f7ff b9f1 	b.w	10016e74 <_vfprintf_r+0xec4>
10017a92:	9b06      	ldr	r3, [sp, #24]
10017a94:	07df      	lsls	r7, r3, #31
10017a96:	f57f ac86 	bpl.w	100173a6 <_vfprintf_r+0x13f6>
10017a9a:	e482      	b.n	100173a2 <_vfprintf_r+0x13f2>
10017a9c:	e9dd 0124 	ldrd	r0, r1, [sp, #144]	@ 0x90
10017aa0:	2200      	movs	r2, #0
10017aa2:	2300      	movs	r3, #0
10017aa4:	f003 f814 	bl	1001aad0 <__aeabi_dcmpeq>
10017aa8:	2800      	cmp	r0, #0
10017aaa:	f47f ac1c 	bne.w	100172e6 <_vfprintf_r+0x1336>
10017aae:	f1c6 0601 	rsb	r6, r6, #1
10017ab2:	9629      	str	r6, [sp, #164]	@ 0xa4
10017ab4:	e418      	b.n	100172e8 <_vfprintf_r+0x1338>
10017ab6:	9b17      	ldr	r3, [sp, #92]	@ 0x5c
10017ab8:	4d2d      	ldr	r5, [pc, #180]	@ (10017b70 <_vfprintf_r+0x1bc0>)
10017aba:	2b00      	cmp	r3, #0
10017abc:	bfb4      	ite	lt
10017abe:	222d      	movlt	r2, #45	@ 0x2d
10017ac0:	f89d 209f 	ldrbge.w	r2, [sp, #159]	@ 0x9f
10017ac4:	4b2b      	ldr	r3, [pc, #172]	@ (10017b74 <_vfprintf_r+0x1bc4>)
10017ac6:	bfb8      	it	lt
10017ac8:	f88d 209f 	strblt.w	r2, [sp, #159]	@ 0x9f
10017acc:	f029 0980 	bic.w	r9, r9, #128	@ 0x80
10017ad0:	f7fe bc9c 	b.w	1001640c <_vfprintf_r+0x45c>
10017ad4:	9b09      	ldr	r3, [sp, #36]	@ 0x24
10017ad6:	9306      	str	r3, [sp, #24]
10017ad8:	469b      	mov	fp, r3
10017ada:	2373      	movs	r3, #115	@ 0x73
10017adc:	f89d 209f 	ldrb.w	r2, [sp, #159]	@ 0x9f
10017ae0:	960d      	str	r6, [sp, #52]	@ 0x34
10017ae2:	9009      	str	r0, [sp, #36]	@ 0x24
10017ae4:	9014      	str	r0, [sp, #80]	@ 0x50
10017ae6:	9010      	str	r0, [sp, #64]	@ 0x40
10017ae8:	930e      	str	r3, [sp, #56]	@ 0x38
10017aea:	f7fe bc9c 	b.w	10016426 <_vfprintf_r+0x476>
10017aee:	f8dd 9018 	ldr.w	r9, [sp, #24]
10017af2:	f8dd b024 	ldr.w	fp, [sp, #36]	@ 0x24
10017af6:	f7ff bb41 	b.w	1001717c <_vfprintf_r+0x11cc>
10017afa:	f10d 02b2 	add.w	r2, sp, #178	@ 0xb2
10017afe:	e79e      	b.n	10017a3e <_vfprintf_r+0x1a8e>
10017b00:	4693      	mov	fp, r2
10017b02:	e5b6      	b.n	10017672 <_vfprintf_r+0x16c2>
10017b04:	9b18      	ldr	r3, [sp, #96]	@ 0x60
10017b06:	18cf      	adds	r7, r1, r3
10017b08:	443a      	add	r2, r7
10017b0a:	2366      	movs	r3, #102	@ 0x66
10017b0c:	4693      	mov	fp, r2
10017b0e:	930e      	str	r3, [sp, #56]	@ 0x38
10017b10:	e6f3      	b.n	100178fa <_vfprintf_r+0x194a>
10017b12:	2367      	movs	r3, #103	@ 0x67
10017b14:	930e      	str	r3, [sp, #56]	@ 0x38
10017b16:	991b      	ldr	r1, [sp, #108]	@ 0x6c
10017b18:	780b      	ldrb	r3, [r1, #0]
10017b1a:	2bff      	cmp	r3, #255	@ 0xff
10017b1c:	d062      	beq.n	10017be4 <_vfprintf_r+0x1c34>
10017b1e:	2400      	movs	r4, #0
10017b20:	9a12      	ldr	r2, [sp, #72]	@ 0x48
10017b22:	4620      	mov	r0, r4
10017b24:	e003      	b.n	10017b2e <_vfprintf_r+0x1b7e>
10017b26:	3001      	adds	r0, #1
10017b28:	3101      	adds	r1, #1
10017b2a:	2bff      	cmp	r3, #255	@ 0xff
10017b2c:	d008      	beq.n	10017b40 <_vfprintf_r+0x1b90>
10017b2e:	4293      	cmp	r3, r2
10017b30:	da06      	bge.n	10017b40 <_vfprintf_r+0x1b90>
10017b32:	1ad2      	subs	r2, r2, r3
10017b34:	784b      	ldrb	r3, [r1, #1]
10017b36:	2b00      	cmp	r3, #0
10017b38:	d1f5      	bne.n	10017b26 <_vfprintf_r+0x1b76>
10017b3a:	780b      	ldrb	r3, [r1, #0]
10017b3c:	3401      	adds	r4, #1
10017b3e:	e7f4      	b.n	10017b2a <_vfprintf_r+0x1b7a>
10017b40:	911b      	str	r1, [sp, #108]	@ 0x6c
10017b42:	9212      	str	r2, [sp, #72]	@ 0x48
10017b44:	9010      	str	r0, [sp, #64]	@ 0x40
10017b46:	9414      	str	r4, [sp, #80]	@ 0x50
10017b48:	e9dd 3914 	ldrd	r3, r9, [sp, #80]	@ 0x50
10017b4c:	9a10      	ldr	r2, [sp, #64]	@ 0x40
10017b4e:	4413      	add	r3, r2
10017b50:	9a1e      	ldr	r2, [sp, #120]	@ 0x78
10017b52:	fb02 bb03 	mla	fp, r2, r3, fp
10017b56:	ea2b 73eb 	bic.w	r3, fp, fp, asr #31
10017b5a:	9306      	str	r3, [sp, #24]
10017b5c:	e42f      	b.n	100173be <_vfprintf_r+0x140e>
10017b5e:	bf00      	nop
10017b60:	1001b3d4 	.word	0x1001b3d4
10017b64:	1001b3c4 	.word	0x1001b3c4
10017b68:	1001b1b8 	.word	0x1001b1b8
10017b6c:	1001b1a4 	.word	0x1001b1a4
10017b70:	1001b19c 	.word	0x1001b19c
10017b74:	1001b1a0 	.word	0x1001b1a0
10017b78:	f1c3 0301 	rsb	r3, r3, #1
10017b7c:	449b      	add	fp, r3
10017b7e:	ea2b 73eb 	bic.w	r3, fp, fp, asr #31
10017b82:	9306      	str	r3, [sp, #24]
10017b84:	2367      	movs	r3, #103	@ 0x67
10017b86:	f8dd 9054 	ldr.w	r9, [sp, #84]	@ 0x54
10017b8a:	930e      	str	r3, [sp, #56]	@ 0x38
10017b8c:	e57e      	b.n	1001768c <_vfprintf_r+0x16dc>
10017b8e:	4e1b      	ldr	r6, [pc, #108]	@ (10017bfc <_vfprintf_r+0x1c4c>)
10017b90:	e60f      	b.n	100177b2 <_vfprintf_r+0x1802>
10017b92:	2302      	movs	r3, #2
10017b94:	931c      	str	r3, [sp, #112]	@ 0x70
10017b96:	f7ff bbfd 	b.w	10017394 <_vfprintf_r+0x13e4>
10017b9a:	4a18      	ldr	r2, [pc, #96]	@ (10017bfc <_vfprintf_r+0x1c4c>)
10017b9c:	9215      	str	r2, [sp, #84]	@ 0x54
10017b9e:	e52b      	b.n	100175f8 <_vfprintf_r+0x1648>
10017ba0:	2170      	movs	r1, #112	@ 0x70
10017ba2:	f7ff bbc0 	b.w	10017326 <_vfprintf_r+0x1376>
10017ba6:	f8dd 9054 	ldr.w	r9, [sp, #84]	@ 0x54
10017baa:	b92b      	cbnz	r3, 10017bb8 <_vfprintf_r+0x1c08>
10017bac:	2301      	movs	r3, #1
10017bae:	2266      	movs	r2, #102	@ 0x66
10017bb0:	9306      	str	r3, [sp, #24]
10017bb2:	920e      	str	r2, [sp, #56]	@ 0x38
10017bb4:	469b      	mov	fp, r3
10017bb6:	e569      	b.n	1001768c <_vfprintf_r+0x16dc>
10017bb8:	9b18      	ldr	r3, [sp, #96]	@ 0x60
10017bba:	1c5f      	adds	r7, r3, #1
10017bbc:	9b09      	ldr	r3, [sp, #36]	@ 0x24
10017bbe:	443b      	add	r3, r7
10017bc0:	469b      	mov	fp, r3
10017bc2:	ea23 73e3 	bic.w	r3, r3, r3, asr #31
10017bc6:	9306      	str	r3, [sp, #24]
10017bc8:	2366      	movs	r3, #102	@ 0x66
10017bca:	930e      	str	r3, [sp, #56]	@ 0x38
10017bcc:	e55e      	b.n	1001768c <_vfprintf_r+0x16dc>
10017bce:	9a0d      	ldr	r2, [sp, #52]	@ 0x34
10017bd0:	7863      	ldrb	r3, [r4, #1]
10017bd2:	460c      	mov	r4, r1
10017bd4:	f852 1b04 	ldr.w	r1, [r2], #4
10017bd8:	920d      	str	r2, [sp, #52]	@ 0x34
10017bda:	ea41 71e1 	orr.w	r1, r1, r1, asr #31
10017bde:	9109      	str	r1, [sp, #36]	@ 0x24
10017be0:	f7fe ba5e 	b.w	100160a0 <_vfprintf_r+0xf0>
10017be4:	2300      	movs	r3, #0
10017be6:	9314      	str	r3, [sp, #80]	@ 0x50
10017be8:	9310      	str	r3, [sp, #64]	@ 0x40
10017bea:	e7ad      	b.n	10017b48 <_vfprintf_r+0x1b98>
10017bec:	e9dd 2b07 	ldrd	r2, fp, [sp, #28]
10017bf0:	8993      	ldrh	r3, [r2, #12]
10017bf2:	f043 0340 	orr.w	r3, r3, #64	@ 0x40
10017bf6:	8193      	strh	r3, [r2, #12]
10017bf8:	f7fe bb32 	b.w	10016260 <_vfprintf_r+0x2b0>
10017bfc:	1001b3c4 	.word	0x1001b3c4

10017c00 <__sbprintf>:
10017c00:	b5f0      	push	{r4, r5, r6, r7, lr}
10017c02:	461f      	mov	r7, r3
10017c04:	898b      	ldrh	r3, [r1, #12]
10017c06:	f2ad 4d6c 	subw	sp, sp, #1132	@ 0x46c
10017c0a:	f023 0302 	bic.w	r3, r3, #2
10017c0e:	f8ad 300c 	strh.w	r3, [sp, #12]
10017c12:	6e4b      	ldr	r3, [r1, #100]	@ 0x64
10017c14:	9319      	str	r3, [sp, #100]	@ 0x64
10017c16:	89cb      	ldrh	r3, [r1, #14]
10017c18:	f8ad 300e 	strh.w	r3, [sp, #14]
10017c1c:	69cb      	ldr	r3, [r1, #28]
10017c1e:	9307      	str	r3, [sp, #28]
10017c20:	6a4b      	ldr	r3, [r1, #36]	@ 0x24
10017c22:	9309      	str	r3, [sp, #36]	@ 0x24
10017c24:	ab1a      	add	r3, sp, #104	@ 0x68
10017c26:	9300      	str	r3, [sp, #0]
10017c28:	9304      	str	r3, [sp, #16]
10017c2a:	f44f 6380 	mov.w	r3, #1024	@ 0x400
10017c2e:	4615      	mov	r5, r2
10017c30:	4606      	mov	r6, r0
10017c32:	9302      	str	r3, [sp, #8]
10017c34:	9305      	str	r3, [sp, #20]
10017c36:	a816      	add	r0, sp, #88	@ 0x58
10017c38:	2300      	movs	r3, #0
10017c3a:	460c      	mov	r4, r1
10017c3c:	9306      	str	r3, [sp, #24]
10017c3e:	f7fc fabf 	bl	100141c0 <__retarget_lock_init_recursive>
10017c42:	462a      	mov	r2, r5
10017c44:	463b      	mov	r3, r7
10017c46:	4669      	mov	r1, sp
10017c48:	4630      	mov	r0, r6
10017c4a:	f7fe f9b1 	bl	10015fb0 <_vfprintf_r>
10017c4e:	1e05      	subs	r5, r0, #0
10017c50:	db07      	blt.n	10017c62 <__sbprintf+0x62>
10017c52:	4669      	mov	r1, sp
10017c54:	4630      	mov	r0, r6
10017c56:	f001 ffc1 	bl	10019bdc <_fflush_r>
10017c5a:	2800      	cmp	r0, #0
10017c5c:	bf18      	it	ne
10017c5e:	f04f 35ff 	movne.w	r5, #4294967295	@ 0xffffffff
10017c62:	f8bd 300c 	ldrh.w	r3, [sp, #12]
10017c66:	065b      	lsls	r3, r3, #25
10017c68:	d503      	bpl.n	10017c72 <__sbprintf+0x72>
10017c6a:	89a3      	ldrh	r3, [r4, #12]
10017c6c:	f043 0340 	orr.w	r3, r3, #64	@ 0x40
10017c70:	81a3      	strh	r3, [r4, #12]
10017c72:	9816      	ldr	r0, [sp, #88]	@ 0x58
10017c74:	f7fc faa6 	bl	100141c4 <__retarget_lock_close_recursive>
10017c78:	4628      	mov	r0, r5
10017c7a:	f20d 4d6c 	addw	sp, sp, #1132	@ 0x46c
10017c7e:	bdf0      	pop	{r4, r5, r6, r7, pc}

10017c80 <__sprint_r.part.0>:
10017c80:	e92d 4ff8 	stmdb	sp!, {r3, r4, r5, r6, r7, r8, r9, sl, fp, lr}
10017c84:	6e4b      	ldr	r3, [r1, #100]	@ 0x64
10017c86:	049c      	lsls	r4, r3, #18
10017c88:	4690      	mov	r8, r2
10017c8a:	d52e      	bpl.n	10017cea <__sprint_r.part.0+0x6a>
10017c8c:	6893      	ldr	r3, [r2, #8]
10017c8e:	6812      	ldr	r2, [r2, #0]
10017c90:	b34b      	cbz	r3, 10017ce6 <__sprint_r.part.0+0x66>
10017c92:	460d      	mov	r5, r1
10017c94:	4606      	mov	r6, r0
10017c96:	f102 0908 	add.w	r9, r2, #8
10017c9a:	e959 2a02 	ldrd	r2, sl, [r9, #-8]
10017c9e:	ea5f 079a 	movs.w	r7, sl, lsr #2
10017ca2:	d016      	beq.n	10017cd2 <__sprint_r.part.0+0x52>
10017ca4:	f1a2 0b04 	sub.w	fp, r2, #4
10017ca8:	2400      	movs	r4, #0
10017caa:	e001      	b.n	10017cb0 <__sprint_r.part.0+0x30>
10017cac:	42a7      	cmp	r7, r4
10017cae:	d00e      	beq.n	10017cce <__sprint_r.part.0+0x4e>
10017cb0:	f85b 1f04 	ldr.w	r1, [fp, #4]!
10017cb4:	462a      	mov	r2, r5
10017cb6:	4630      	mov	r0, r6
10017cb8:	f002 fa02 	bl	1001a0c0 <_fputwc_r>
10017cbc:	1c43      	adds	r3, r0, #1
10017cbe:	f104 0401 	add.w	r4, r4, #1
10017cc2:	d1f3      	bne.n	10017cac <__sprint_r.part.0+0x2c>
10017cc4:	2300      	movs	r3, #0
10017cc6:	e9c8 3301 	strd	r3, r3, [r8, #4]
10017cca:	e8bd 8ff8 	ldmia.w	sp!, {r3, r4, r5, r6, r7, r8, r9, sl, fp, pc}
10017cce:	f8d8 3008 	ldr.w	r3, [r8, #8]
10017cd2:	f02a 0a03 	bic.w	sl, sl, #3
10017cd6:	eba3 030a 	sub.w	r3, r3, sl
10017cda:	f8c8 3008 	str.w	r3, [r8, #8]
10017cde:	f109 0908 	add.w	r9, r9, #8
10017ce2:	2b00      	cmp	r3, #0
10017ce4:	d1d9      	bne.n	10017c9a <__sprint_r.part.0+0x1a>
10017ce6:	2000      	movs	r0, #0
10017ce8:	e7ec      	b.n	10017cc4 <__sprint_r.part.0+0x44>
10017cea:	f7fd ff23 	bl	10015b34 <__sfvwrite_r>
10017cee:	2300      	movs	r3, #0
10017cf0:	e9c8 3301 	strd	r3, r3, [r8, #4]
10017cf4:	e8bd 8ff8 	ldmia.w	sp!, {r3, r4, r5, r6, r7, r8, r9, sl, fp, pc}

10017cf8 <__sprint_r>:
10017cf8:	b410      	push	{r4}
10017cfa:	6894      	ldr	r4, [r2, #8]
10017cfc:	b11c      	cbz	r4, 10017d06 <__sprint_r+0xe>
10017cfe:	f85d 4b04 	ldr.w	r4, [sp], #4
10017d02:	f7ff bfbd 	b.w	10017c80 <__sprint_r.part.0>
10017d06:	4620      	mov	r0, r4
10017d08:	6054      	str	r4, [r2, #4]
10017d0a:	f85d 4b04 	ldr.w	r4, [sp], #4
10017d0e:	4770      	bx	lr

10017d10 <_vfiprintf_r>:
10017d10:	e92d 4ff0 	stmdb	sp!, {r4, r5, r6, r7, r8, r9, sl, fp, lr}
10017d14:	b0c7      	sub	sp, #284	@ 0x11c
10017d16:	af16      	add	r7, sp, #88	@ 0x58
10017d18:	4683      	mov	fp, r0
10017d1a:	9103      	str	r1, [sp, #12]
10017d1c:	9206      	str	r2, [sp, #24]
10017d1e:	2100      	movs	r1, #0
10017d20:	2208      	movs	r2, #8
10017d22:	4638      	mov	r0, r7
10017d24:	461c      	mov	r4, r3
10017d26:	930a      	str	r3, [sp, #40]	@ 0x28
10017d28:	f7fc f996 	bl	10014058 <memset>
10017d2c:	f1bb 0f00 	cmp.w	fp, #0
10017d30:	d004      	beq.n	10017d3c <_vfiprintf_r+0x2c>
10017d32:	f8db 3034 	ldr.w	r3, [fp, #52]	@ 0x34
10017d36:	2b00      	cmp	r3, #0
10017d38:	f000 86b8 	beq.w	10018aac <_vfiprintf_r+0xd9c>
10017d3c:	9a03      	ldr	r2, [sp, #12]
10017d3e:	6e53      	ldr	r3, [r2, #100]	@ 0x64
10017d40:	f9b2 200c 	ldrsh.w	r2, [r2, #12]
10017d44:	07db      	lsls	r3, r3, #31
10017d46:	d402      	bmi.n	10017d4e <_vfiprintf_r+0x3e>
10017d48:	0596      	lsls	r6, r2, #22
10017d4a:	f140 859d 	bpl.w	10018888 <_vfiprintf_r+0xb78>
10017d4e:	0495      	lsls	r5, r2, #18
10017d50:	d407      	bmi.n	10017d62 <_vfiprintf_r+0x52>
10017d52:	9903      	ldr	r1, [sp, #12]
10017d54:	6e4b      	ldr	r3, [r1, #100]	@ 0x64
10017d56:	f442 5200 	orr.w	r2, r2, #8192	@ 0x2000
10017d5a:	f423 5300 	bic.w	r3, r3, #8192	@ 0x2000
10017d5e:	818a      	strh	r2, [r1, #12]
10017d60:	664b      	str	r3, [r1, #100]	@ 0x64
10017d62:	0710      	lsls	r0, r2, #28
10017d64:	f140 80c9 	bpl.w	10017efa <_vfiprintf_r+0x1ea>
10017d68:	9b03      	ldr	r3, [sp, #12]
10017d6a:	691b      	ldr	r3, [r3, #16]
10017d6c:	2b00      	cmp	r3, #0
10017d6e:	f000 80c4 	beq.w	10017efa <_vfiprintf_r+0x1ea>
10017d72:	f002 031a 	and.w	r3, r2, #26
10017d76:	2b0a      	cmp	r3, #10
10017d78:	f000 80ce 	beq.w	10017f18 <_vfiprintf_r+0x208>
10017d7c:	2300      	movs	r3, #0
10017d7e:	e9cd 331b 	strd	r3, r3, [sp, #108]	@ 0x6c
10017d82:	e9cd 330e 	strd	r3, r3, [sp, #56]	@ 0x38
10017d86:	aa1d      	add	r2, sp, #116	@ 0x74
10017d88:	f8df a904 	ldr.w	sl, [pc, #2308]	@ 10018690 <_vfiprintf_r+0x980>
10017d8c:	930d      	str	r3, [sp, #52]	@ 0x34
10017d8e:	921a      	str	r2, [sp, #104]	@ 0x68
10017d90:	4691      	mov	r9, r2
10017d92:	9310      	str	r3, [sp, #64]	@ 0x40
10017d94:	9307      	str	r3, [sp, #28]
10017d96:	9d06      	ldr	r5, [sp, #24]
10017d98:	f8da 40e4 	ldr.w	r4, [sl, #228]	@ 0xe4
10017d9c:	f7fc fa18 	bl	100141d0 <__locale_mb_cur_max>
10017da0:	462a      	mov	r2, r5
10017da2:	4603      	mov	r3, r0
10017da4:	a914      	add	r1, sp, #80	@ 0x50
10017da6:	9700      	str	r7, [sp, #0]
10017da8:	4658      	mov	r0, fp
10017daa:	47a0      	blx	r4
10017dac:	2800      	cmp	r0, #0
10017dae:	f000 80d2 	beq.w	10017f56 <_vfiprintf_r+0x246>
10017db2:	f2c0 80c8 	blt.w	10017f46 <_vfiprintf_r+0x236>
10017db6:	9a14      	ldr	r2, [sp, #80]	@ 0x50
10017db8:	2a25      	cmp	r2, #37	@ 0x25
10017dba:	4603      	mov	r3, r0
10017dbc:	d001      	beq.n	10017dc2 <_vfiprintf_r+0xb2>
10017dbe:	441d      	add	r5, r3
10017dc0:	e7ea      	b.n	10017d98 <_vfiprintf_r+0x88>
10017dc2:	9b06      	ldr	r3, [sp, #24]
10017dc4:	1aee      	subs	r6, r5, r3
10017dc6:	4604      	mov	r4, r0
10017dc8:	f040 80c9 	bne.w	10017f5e <_vfiprintf_r+0x24e>
10017dcc:	2300      	movs	r3, #0
10017dce:	f04f 31ff 	mov.w	r1, #4294967295	@ 0xffffffff
10017dd2:	786a      	ldrb	r2, [r5, #1]
10017dd4:	f88d 304b 	strb.w	r3, [sp, #75]	@ 0x4b
10017dd8:	9308      	str	r3, [sp, #32]
10017dda:	1c6c      	adds	r4, r5, #1
10017ddc:	9105      	str	r1, [sp, #20]
10017dde:	9302      	str	r3, [sp, #8]
10017de0:	3401      	adds	r4, #1
10017de2:	f1a2 0320 	sub.w	r3, r2, #32
10017de6:	2b5a      	cmp	r3, #90	@ 0x5a
10017de8:	f200 80ff 	bhi.w	10017fea <_vfiprintf_r+0x2da>
10017dec:	e8df f013 	tbh	[pc, r3, lsl #1]
10017df0:	00fd0300 	.word	0x00fd0300
10017df4:	02fa00fd 	.word	0x02fa00fd
10017df8:	00fd00fd 	.word	0x00fd00fd
10017dfc:	006b00fd 	.word	0x006b00fd
10017e00:	00fd00fd 	.word	0x00fd00fd
10017e04:	032a0215 	.word	0x032a0215
10017e08:	022000fd 	.word	0x022000fd
10017e0c:	00fd0310 	.word	0x00fd0310
10017e10:	005b030a 	.word	0x005b030a
10017e14:	005b005b 	.word	0x005b005b
10017e18:	005b005b 	.word	0x005b005b
10017e1c:	005b005b 	.word	0x005b005b
10017e20:	005b005b 	.word	0x005b005b
10017e24:	00fd00fd 	.word	0x00fd00fd
10017e28:	00fd00fd 	.word	0x00fd00fd
10017e2c:	00fd00fd 	.word	0x00fd00fd
10017e30:	00fd00fd 	.word	0x00fd00fd
10017e34:	01cb00fd 	.word	0x01cb00fd
10017e38:	00fd025a 	.word	0x00fd025a
10017e3c:	00fd00fd 	.word	0x00fd00fd
10017e40:	00fd00fd 	.word	0x00fd00fd
10017e44:	00fd00fd 	.word	0x00fd00fd
10017e48:	00fd00fd 	.word	0x00fd00fd
10017e4c:	022600fd 	.word	0x022600fd
10017e50:	00fd00fd 	.word	0x00fd00fd
10017e54:	01a300fd 	.word	0x01a300fd
10017e58:	027300fd 	.word	0x027300fd
10017e5c:	00fd00fd 	.word	0x00fd00fd
10017e60:	00fd058c 	.word	0x00fd058c
10017e64:	00fd00fd 	.word	0x00fd00fd
10017e68:	00fd00fd 	.word	0x00fd00fd
10017e6c:	00fd00fd 	.word	0x00fd00fd
10017e70:	00fd00fd 	.word	0x00fd00fd
10017e74:	01cb00fd 	.word	0x01cb00fd
10017e78:	00fd01f0 	.word	0x00fd01f0
10017e7c:	00fd00fd 	.word	0x00fd00fd
10017e80:	01f002c1 	.word	0x01f002c1
10017e84:	00fd007f 	.word	0x00fd007f
10017e88:	00fd032f 	.word	0x00fd032f
10017e8c:	058902eb 	.word	0x058902eb
10017e90:	007f02ca 	.word	0x007f02ca
10017e94:	01a300fd 	.word	0x01a300fd
10017e98:	0586007d 	.word	0x0586007d
10017e9c:	00fd00fd 	.word	0x00fd00fd
10017ea0:	00fd05af 	.word	0x00fd05af
10017ea4:	007d      	.short	0x007d
10017ea6:	f1a2 0330 	sub.w	r3, r2, #48	@ 0x30
10017eaa:	2200      	movs	r2, #0
10017eac:	4611      	mov	r1, r2
10017eae:	f814 2b01 	ldrb.w	r2, [r4], #1
10017eb2:	eb01 0181 	add.w	r1, r1, r1, lsl #2
10017eb6:	eb03 0141 	add.w	r1, r3, r1, lsl #1
10017eba:	f1a2 0330 	sub.w	r3, r2, #48	@ 0x30
10017ebe:	2b09      	cmp	r3, #9
10017ec0:	d9f5      	bls.n	10017eae <_vfiprintf_r+0x19e>
10017ec2:	9108      	str	r1, [sp, #32]
10017ec4:	e78d      	b.n	10017de2 <_vfiprintf_r+0xd2>
10017ec6:	4658      	mov	r0, fp
10017ec8:	f7fc f988 	bl	100141dc <_localeconv_r>
10017ecc:	6843      	ldr	r3, [r0, #4]
10017ece:	9310      	str	r3, [sp, #64]	@ 0x40
10017ed0:	4618      	mov	r0, r3
10017ed2:	f7fd fb95 	bl	10015600 <strlen>
10017ed6:	900f      	str	r0, [sp, #60]	@ 0x3c
10017ed8:	4605      	mov	r5, r0
10017eda:	4658      	mov	r0, fp
10017edc:	f7fc f97e 	bl	100141dc <_localeconv_r>
10017ee0:	6883      	ldr	r3, [r0, #8]
10017ee2:	930e      	str	r3, [sp, #56]	@ 0x38
10017ee4:	2d00      	cmp	r5, #0
10017ee6:	f040 84e3 	bne.w	100188b0 <_vfiprintf_r+0xba0>
10017eea:	7822      	ldrb	r2, [r4, #0]
10017eec:	e778      	b.n	10017de0 <_vfiprintf_r+0xd0>
10017eee:	9b02      	ldr	r3, [sp, #8]
10017ef0:	7822      	ldrb	r2, [r4, #0]
10017ef2:	f043 0320 	orr.w	r3, r3, #32
10017ef6:	9302      	str	r3, [sp, #8]
10017ef8:	e772      	b.n	10017de0 <_vfiprintf_r+0xd0>
10017efa:	9d03      	ldr	r5, [sp, #12]
10017efc:	4658      	mov	r0, fp
10017efe:	4629      	mov	r1, r5
10017f00:	f001 f870 	bl	10018fe4 <__swsetup_r>
10017f04:	2800      	cmp	r0, #0
10017f06:	f040 86a3 	bne.w	10018c50 <_vfiprintf_r+0xf40>
10017f0a:	f9b5 200c 	ldrsh.w	r2, [r5, #12]
10017f0e:	f002 031a 	and.w	r3, r2, #26
10017f12:	2b0a      	cmp	r3, #10
10017f14:	f47f af32 	bne.w	10017d7c <_vfiprintf_r+0x6c>
10017f18:	9903      	ldr	r1, [sp, #12]
10017f1a:	f9b1 300e 	ldrsh.w	r3, [r1, #14]
10017f1e:	2b00      	cmp	r3, #0
10017f20:	f6ff af2c 	blt.w	10017d7c <_vfiprintf_r+0x6c>
10017f24:	6e4b      	ldr	r3, [r1, #100]	@ 0x64
10017f26:	07db      	lsls	r3, r3, #31
10017f28:	d402      	bmi.n	10017f30 <_vfiprintf_r+0x220>
10017f2a:	0597      	lsls	r7, r2, #22
10017f2c:	f140 865b 	bpl.w	10018be6 <_vfiprintf_r+0xed6>
10017f30:	9a06      	ldr	r2, [sp, #24]
10017f32:	9903      	ldr	r1, [sp, #12]
10017f34:	4623      	mov	r3, r4
10017f36:	4658      	mov	r0, fp
10017f38:	f000 febe 	bl	10018cb8 <__sbprintf>
10017f3c:	9007      	str	r0, [sp, #28]
10017f3e:	9807      	ldr	r0, [sp, #28]
10017f40:	b047      	add	sp, #284	@ 0x11c
10017f42:	e8bd 8ff0 	ldmia.w	sp!, {r4, r5, r6, r7, r8, r9, sl, fp, pc}
10017f46:	2208      	movs	r2, #8
10017f48:	2100      	movs	r1, #0
10017f4a:	4638      	mov	r0, r7
10017f4c:	f7fc f884 	bl	10014058 <memset>
10017f50:	2301      	movs	r3, #1
10017f52:	441d      	add	r5, r3
10017f54:	e720      	b.n	10017d98 <_vfiprintf_r+0x88>
10017f56:	9b06      	ldr	r3, [sp, #24]
10017f58:	1aee      	subs	r6, r5, r3
10017f5a:	4604      	mov	r4, r0
10017f5c:	d012      	beq.n	10017f84 <_vfiprintf_r+0x274>
10017f5e:	9b06      	ldr	r3, [sp, #24]
10017f60:	9a1c      	ldr	r2, [sp, #112]	@ 0x70
10017f62:	e9c9 3600 	strd	r3, r6, [r9]
10017f66:	9b1b      	ldr	r3, [sp, #108]	@ 0x6c
10017f68:	3301      	adds	r3, #1
10017f6a:	4432      	add	r2, r6
10017f6c:	2b07      	cmp	r3, #7
10017f6e:	921c      	str	r2, [sp, #112]	@ 0x70
10017f70:	931b      	str	r3, [sp, #108]	@ 0x6c
10017f72:	dc11      	bgt.n	10017f98 <_vfiprintf_r+0x288>
10017f74:	f109 0908 	add.w	r9, r9, #8
10017f78:	9b07      	ldr	r3, [sp, #28]
10017f7a:	4433      	add	r3, r6
10017f7c:	9307      	str	r3, [sp, #28]
10017f7e:	2c00      	cmp	r4, #0
10017f80:	f47f af24 	bne.w	10017dcc <_vfiprintf_r+0xbc>
10017f84:	9b1c      	ldr	r3, [sp, #112]	@ 0x70
10017f86:	2b00      	cmp	r3, #0
10017f88:	f040 864d 	bne.w	10018c26 <_vfiprintf_r+0xf16>
10017f8c:	9b03      	ldr	r3, [sp, #12]
10017f8e:	2200      	movs	r2, #0
10017f90:	f9b3 300c 	ldrsh.w	r3, [r3, #12]
10017f94:	921b      	str	r2, [sp, #108]	@ 0x6c
10017f96:	e01c      	b.n	10017fd2 <_vfiprintf_r+0x2c2>
10017f98:	2a00      	cmp	r2, #0
10017f9a:	f000 842d 	beq.w	100187f8 <_vfiprintf_r+0xae8>
10017f9e:	9903      	ldr	r1, [sp, #12]
10017fa0:	aa1a      	add	r2, sp, #104	@ 0x68
10017fa2:	4658      	mov	r0, fp
10017fa4:	f7ff fe6c 	bl	10017c80 <__sprint_r.part.0>
10017fa8:	b980      	cbnz	r0, 10017fcc <_vfiprintf_r+0x2bc>
10017faa:	f10d 0974 	add.w	r9, sp, #116	@ 0x74
10017fae:	e7e3      	b.n	10017f78 <_vfiprintf_r+0x268>
10017fb0:	9903      	ldr	r1, [sp, #12]
10017fb2:	aa1a      	add	r2, sp, #104	@ 0x68
10017fb4:	4658      	mov	r0, fp
10017fb6:	f7ff fe63 	bl	10017c80 <__sprint_r.part.0>
10017fba:	2800      	cmp	r0, #0
10017fbc:	f000 80a6 	beq.w	1001810c <_vfiprintf_r+0x3fc>
10017fc0:	9b0b      	ldr	r3, [sp, #44]	@ 0x2c
10017fc2:	b11b      	cbz	r3, 10017fcc <_vfiprintf_r+0x2bc>
10017fc4:	990b      	ldr	r1, [sp, #44]	@ 0x2c
10017fc6:	4658      	mov	r0, fp
10017fc8:	f7fd fc1a 	bl	10015800 <_free_r>
10017fcc:	9b03      	ldr	r3, [sp, #12]
10017fce:	f9b3 300c 	ldrsh.w	r3, [r3, #12]
10017fd2:	9a03      	ldr	r2, [sp, #12]
10017fd4:	6e52      	ldr	r2, [r2, #100]	@ 0x64
10017fd6:	07d1      	lsls	r1, r2, #31
10017fd8:	f140 80a3 	bpl.w	10018122 <_vfiprintf_r+0x412>
10017fdc:	065b      	lsls	r3, r3, #25
10017fde:	f100 8643 	bmi.w	10018c68 <_vfiprintf_r+0xf58>
10017fe2:	9807      	ldr	r0, [sp, #28]
10017fe4:	b047      	add	sp, #284	@ 0x11c
10017fe6:	e8bd 8ff0 	ldmia.w	sp!, {r4, r5, r6, r7, r8, r9, sl, fp, pc}
10017fea:	9406      	str	r4, [sp, #24]
10017fec:	2a00      	cmp	r2, #0
10017fee:	d0c9      	beq.n	10017f84 <_vfiprintf_r+0x274>
10017ff0:	2300      	movs	r3, #0
10017ff2:	f88d 304b 	strb.w	r3, [sp, #75]	@ 0x4b
10017ff6:	2301      	movs	r3, #1
10017ff8:	f88d 20b4 	strb.w	r2, [sp, #180]	@ 0xb4
10017ffc:	9304      	str	r3, [sp, #16]
10017ffe:	9309      	str	r3, [sp, #36]	@ 0x24
10018000:	ac2d      	add	r4, sp, #180	@ 0xb4
10018002:	2300      	movs	r3, #0
10018004:	930b      	str	r3, [sp, #44]	@ 0x2c
10018006:	9305      	str	r3, [sp, #20]
10018008:	9b02      	ldr	r3, [sp, #8]
1001800a:	f013 0302 	ands.w	r3, r3, #2
1001800e:	d002      	beq.n	10018016 <_vfiprintf_r+0x306>
10018010:	9a04      	ldr	r2, [sp, #16]
10018012:	3202      	adds	r2, #2
10018014:	9204      	str	r2, [sp, #16]
10018016:	e9dd 2c1b 	ldrd	r2, ip, [sp, #108]	@ 0x6c
1001801a:	9d02      	ldr	r5, [sp, #8]
1001801c:	1c50      	adds	r0, r2, #1
1001801e:	f015 0584 	ands.w	r5, r5, #132	@ 0x84
10018022:	4601      	mov	r1, r0
10018024:	950c      	str	r5, [sp, #48]	@ 0x30
10018026:	d105      	bne.n	10018034 <_vfiprintf_r+0x324>
10018028:	9d08      	ldr	r5, [sp, #32]
1001802a:	9e04      	ldr	r6, [sp, #16]
1001802c:	1bad      	subs	r5, r5, r6
1001802e:	2d00      	cmp	r5, #0
10018030:	f300 8332 	bgt.w	10018698 <_vfiprintf_r+0x988>
10018034:	f89d 004b 	ldrb.w	r0, [sp, #75]	@ 0x4b
10018038:	b188      	cbz	r0, 1001805e <_vfiprintf_r+0x34e>
1001803a:	2201      	movs	r2, #1
1001803c:	f10c 0c01 	add.w	ip, ip, #1
10018040:	f8c9 2004 	str.w	r2, [r9, #4]
10018044:	2907      	cmp	r1, #7
10018046:	f10d 024b 	add.w	r2, sp, #75	@ 0x4b
1001804a:	e9cd 1c1b 	strd	r1, ip, [sp, #108]	@ 0x6c
1001804e:	f8c9 2000 	str.w	r2, [r9]
10018052:	f300 82e1 	bgt.w	10018618 <_vfiprintf_r+0x908>
10018056:	460a      	mov	r2, r1
10018058:	f109 0908 	add.w	r9, r9, #8
1001805c:	3101      	adds	r1, #1
1001805e:	b1eb      	cbz	r3, 1001809c <_vfiprintf_r+0x38c>
10018060:	ab13      	add	r3, sp, #76	@ 0x4c
10018062:	f10c 0c02 	add.w	ip, ip, #2
10018066:	f8c9 3000 	str.w	r3, [r9]
1001806a:	2907      	cmp	r1, #7
1001806c:	f04f 0302 	mov.w	r3, #2
10018070:	e9cd 1c1b 	strd	r1, ip, [sp, #108]	@ 0x6c
10018074:	f8c9 3004 	str.w	r3, [r9, #4]
10018078:	f340 82ec 	ble.w	10018654 <_vfiprintf_r+0x944>
1001807c:	f1bc 0f00 	cmp.w	ip, #0
10018080:	f000 83db 	beq.w	1001883a <_vfiprintf_r+0xb2a>
10018084:	9903      	ldr	r1, [sp, #12]
10018086:	aa1a      	add	r2, sp, #104	@ 0x68
10018088:	4658      	mov	r0, fp
1001808a:	f7ff fdf9 	bl	10017c80 <__sprint_r.part.0>
1001808e:	2800      	cmp	r0, #0
10018090:	d196      	bne.n	10017fc0 <_vfiprintf_r+0x2b0>
10018092:	e9dd 2c1b 	ldrd	r2, ip, [sp, #108]	@ 0x6c
10018096:	f10d 0974 	add.w	r9, sp, #116	@ 0x74
1001809a:	1c51      	adds	r1, r2, #1
1001809c:	9b0c      	ldr	r3, [sp, #48]	@ 0x30
1001809e:	2b80      	cmp	r3, #128	@ 0x80
100180a0:	f000 8213 	beq.w	100184ca <_vfiprintf_r+0x7ba>
100180a4:	9b05      	ldr	r3, [sp, #20]
100180a6:	9809      	ldr	r0, [sp, #36]	@ 0x24
100180a8:	1a1d      	subs	r5, r3, r0
100180aa:	2d00      	cmp	r5, #0
100180ac:	f300 8268 	bgt.w	10018580 <_vfiprintf_r+0x870>
100180b0:	9a09      	ldr	r2, [sp, #36]	@ 0x24
100180b2:	f8c9 4000 	str.w	r4, [r9]
100180b6:	eb02 030c 	add.w	r3, r2, ip
100180ba:	2907      	cmp	r1, #7
100180bc:	e9cd 131b 	strd	r1, r3, [sp, #108]	@ 0x6c
100180c0:	f8c9 2004 	str.w	r2, [r9, #4]
100180c4:	f340 81fe 	ble.w	100184c4 <_vfiprintf_r+0x7b4>
100180c8:	2b00      	cmp	r3, #0
100180ca:	f000 832c 	beq.w	10018726 <_vfiprintf_r+0xa16>
100180ce:	9903      	ldr	r1, [sp, #12]
100180d0:	aa1a      	add	r2, sp, #104	@ 0x68
100180d2:	4658      	mov	r0, fp
100180d4:	f7ff fdd4 	bl	10017c80 <__sprint_r.part.0>
100180d8:	2800      	cmp	r0, #0
100180da:	f47f af71 	bne.w	10017fc0 <_vfiprintf_r+0x2b0>
100180de:	9b1c      	ldr	r3, [sp, #112]	@ 0x70
100180e0:	f10d 0974 	add.w	r9, sp, #116	@ 0x74
100180e4:	9a02      	ldr	r2, [sp, #8]
100180e6:	0750      	lsls	r0, r2, #29
100180e8:	d505      	bpl.n	100180f6 <_vfiprintf_r+0x3e6>
100180ea:	9a08      	ldr	r2, [sp, #32]
100180ec:	9904      	ldr	r1, [sp, #16]
100180ee:	1a54      	subs	r4, r2, r1
100180f0:	2c00      	cmp	r4, #0
100180f2:	f300 8323 	bgt.w	1001873c <_vfiprintf_r+0xa2c>
100180f6:	e9dd 2107 	ldrd	r2, r1, [sp, #28]
100180fa:	9804      	ldr	r0, [sp, #16]
100180fc:	4281      	cmp	r1, r0
100180fe:	bfac      	ite	ge
10018100:	1852      	addge	r2, r2, r1
10018102:	1812      	addlt	r2, r2, r0
10018104:	9207      	str	r2, [sp, #28]
10018106:	2b00      	cmp	r3, #0
10018108:	f47f af52 	bne.w	10017fb0 <_vfiprintf_r+0x2a0>
1001810c:	2300      	movs	r3, #0
1001810e:	931b      	str	r3, [sp, #108]	@ 0x6c
10018110:	9b0b      	ldr	r3, [sp, #44]	@ 0x2c
10018112:	b11b      	cbz	r3, 1001811c <_vfiprintf_r+0x40c>
10018114:	4619      	mov	r1, r3
10018116:	4658      	mov	r0, fp
10018118:	f7fd fb72 	bl	10015800 <_free_r>
1001811c:	f10d 0974 	add.w	r9, sp, #116	@ 0x74
10018120:	e639      	b.n	10017d96 <_vfiprintf_r+0x86>
10018122:	059a      	lsls	r2, r3, #22
10018124:	f53f af5a 	bmi.w	10017fdc <_vfiprintf_r+0x2cc>
10018128:	9c03      	ldr	r4, [sp, #12]
1001812a:	6da0      	ldr	r0, [r4, #88]	@ 0x58
1001812c:	f7fc f84e 	bl	100141cc <__retarget_lock_release_recursive>
10018130:	f9b4 300c 	ldrsh.w	r3, [r4, #12]
10018134:	e752      	b.n	10017fdc <_vfiprintf_r+0x2cc>
10018136:	9e0a      	ldr	r6, [sp, #40]	@ 0x28
10018138:	9406      	str	r4, [sp, #24]
1001813a:	f856 4b04 	ldr.w	r4, [r6], #4
1001813e:	2300      	movs	r3, #0
10018140:	f88d 304b 	strb.w	r3, [sp, #75]	@ 0x4b
10018144:	2c00      	cmp	r4, #0
10018146:	f000 84c9 	beq.w	10018adc <_vfiprintf_r+0xdcc>
1001814a:	2a53      	cmp	r2, #83	@ 0x53
1001814c:	f000 8422 	beq.w	10018994 <_vfiprintf_r+0xc84>
10018150:	9b02      	ldr	r3, [sp, #8]
10018152:	f013 0510 	ands.w	r5, r3, #16
10018156:	f040 841d 	bne.w	10018994 <_vfiprintf_r+0xc84>
1001815a:	9b05      	ldr	r3, [sp, #20]
1001815c:	1c5a      	adds	r2, r3, #1
1001815e:	f000 854e 	beq.w	10018bfe <_vfiprintf_r+0xeee>
10018162:	461a      	mov	r2, r3
10018164:	4629      	mov	r1, r5
10018166:	4620      	mov	r0, r4
10018168:	f7fd f95a 	bl	10015420 <memchr>
1001816c:	900b      	str	r0, [sp, #44]	@ 0x2c
1001816e:	2800      	cmp	r0, #0
10018170:	f000 853e 	beq.w	10018bf0 <_vfiprintf_r+0xee0>
10018174:	1b03      	subs	r3, r0, r4
10018176:	9309      	str	r3, [sp, #36]	@ 0x24
10018178:	ea23 73e3 	bic.w	r3, r3, r3, asr #31
1001817c:	9505      	str	r5, [sp, #20]
1001817e:	960a      	str	r6, [sp, #40]	@ 0x28
10018180:	9304      	str	r3, [sp, #16]
10018182:	950b      	str	r5, [sp, #44]	@ 0x2c
10018184:	e18d      	b.n	100184a2 <_vfiprintf_r+0x792>
10018186:	9b0a      	ldr	r3, [sp, #40]	@ 0x28
10018188:	9406      	str	r4, [sp, #24]
1001818a:	2a43      	cmp	r2, #67	@ 0x43
1001818c:	f103 0504 	add.w	r5, r3, #4
10018190:	d003      	beq.n	1001819a <_vfiprintf_r+0x48a>
10018192:	9b02      	ldr	r3, [sp, #8]
10018194:	06de      	lsls	r6, r3, #27
10018196:	f140 83e5 	bpl.w	10018964 <_vfiprintf_r+0xc54>
1001819a:	2208      	movs	r2, #8
1001819c:	2100      	movs	r1, #0
1001819e:	a818      	add	r0, sp, #96	@ 0x60
100181a0:	f7fb ff5a 	bl	10014058 <memset>
100181a4:	9b0a      	ldr	r3, [sp, #40]	@ 0x28
100181a6:	ac2d      	add	r4, sp, #180	@ 0xb4
100181a8:	681a      	ldr	r2, [r3, #0]
100181aa:	4621      	mov	r1, r4
100181ac:	ab18      	add	r3, sp, #96	@ 0x60
100181ae:	4658      	mov	r0, fp
100181b0:	f7fb ffa4 	bl	100140fc <_wcrtomb_r>
100181b4:	4603      	mov	r3, r0
100181b6:	3301      	adds	r3, #1
100181b8:	9009      	str	r0, [sp, #36]	@ 0x24
100181ba:	f000 8541 	beq.w	10018c40 <_vfiprintf_r+0xf30>
100181be:	9b09      	ldr	r3, [sp, #36]	@ 0x24
100181c0:	ea23 73e3 	bic.w	r3, r3, r3, asr #31
100181c4:	9304      	str	r3, [sp, #16]
100181c6:	2300      	movs	r3, #0
100181c8:	950a      	str	r5, [sp, #40]	@ 0x28
100181ca:	f88d 304b 	strb.w	r3, [sp, #75]	@ 0x4b
100181ce:	e718      	b.n	10018002 <_vfiprintf_r+0x2f2>
100181d0:	9b02      	ldr	r3, [sp, #8]
100181d2:	9406      	str	r4, [sp, #24]
100181d4:	069c      	lsls	r4, r3, #26
100181d6:	d56d      	bpl.n	100182b4 <_vfiprintf_r+0x5a4>
100181d8:	9b0a      	ldr	r3, [sp, #40]	@ 0x28
100181da:	3307      	adds	r3, #7
100181dc:	f023 0307 	bic.w	r3, r3, #7
100181e0:	4619      	mov	r1, r3
100181e2:	685a      	ldr	r2, [r3, #4]
100181e4:	f851 3b08 	ldr.w	r3, [r1], #8
100181e8:	910a      	str	r1, [sp, #40]	@ 0x28
100181ea:	4611      	mov	r1, r2
100181ec:	2a00      	cmp	r2, #0
100181ee:	f2c0 8137 	blt.w	10018460 <_vfiprintf_r+0x750>
100181f2:	9a05      	ldr	r2, [sp, #20]
100181f4:	3201      	adds	r2, #1
100181f6:	f000 8140 	beq.w	1001847a <_vfiprintf_r+0x76a>
100181fa:	9a02      	ldr	r2, [sp, #8]
100181fc:	f022 0280 	bic.w	r2, r2, #128	@ 0x80
10018200:	9202      	str	r2, [sp, #8]
10018202:	ea53 0201 	orrs.w	r2, r3, r1
10018206:	f040 8138 	bne.w	1001847a <_vfiprintf_r+0x76a>
1001820a:	9b05      	ldr	r3, [sp, #20]
1001820c:	2b00      	cmp	r3, #0
1001820e:	f040 8508 	bne.w	10018c22 <_vfiprintf_r+0xf12>
10018212:	9304      	str	r3, [sp, #16]
10018214:	9309      	str	r3, [sp, #36]	@ 0x24
10018216:	ac46      	add	r4, sp, #280	@ 0x118
10018218:	e141      	b.n	1001849e <_vfiprintf_r+0x78e>
1001821a:	9b0a      	ldr	r3, [sp, #40]	@ 0x28
1001821c:	f853 2b04 	ldr.w	r2, [r3], #4
10018220:	9208      	str	r2, [sp, #32]
10018222:	2a00      	cmp	r2, #0
10018224:	f280 8328 	bge.w	10018878 <_vfiprintf_r+0xb68>
10018228:	9a08      	ldr	r2, [sp, #32]
1001822a:	930a      	str	r3, [sp, #40]	@ 0x28
1001822c:	4252      	negs	r2, r2
1001822e:	9208      	str	r2, [sp, #32]
10018230:	9b02      	ldr	r3, [sp, #8]
10018232:	7822      	ldrb	r2, [r4, #0]
10018234:	f043 0304 	orr.w	r3, r3, #4
10018238:	9302      	str	r3, [sp, #8]
1001823a:	e5d1      	b.n	10017de0 <_vfiprintf_r+0xd0>
1001823c:	9b02      	ldr	r3, [sp, #8]
1001823e:	9406      	str	r4, [sp, #24]
10018240:	f043 0210 	orr.w	r2, r3, #16
10018244:	f012 0120 	ands.w	r1, r2, #32
10018248:	f000 82e8 	beq.w	1001881c <_vfiprintf_r+0xb0c>
1001824c:	9b0a      	ldr	r3, [sp, #40]	@ 0x28
1001824e:	3307      	adds	r3, #7
10018250:	f023 0307 	bic.w	r3, r3, #7
10018254:	4618      	mov	r0, r3
10018256:	6859      	ldr	r1, [r3, #4]
10018258:	f850 3b08 	ldr.w	r3, [r0], #8
1001825c:	900a      	str	r0, [sp, #40]	@ 0x28
1001825e:	f422 6480 	bic.w	r4, r2, #1024	@ 0x400
10018262:	9402      	str	r4, [sp, #8]
10018264:	9c05      	ldr	r4, [sp, #20]
10018266:	2000      	movs	r0, #0
10018268:	3401      	adds	r4, #1
1001826a:	f88d 004b 	strb.w	r0, [sp, #75]	@ 0x4b
1001826e:	d05d      	beq.n	1001832c <_vfiprintf_r+0x61c>
10018270:	ea53 0401 	orrs.w	r4, r3, r1
10018274:	f422 6290 	bic.w	r2, r2, #1152	@ 0x480
10018278:	f040 8414 	bne.w	10018aa4 <_vfiprintf_r+0xd94>
1001827c:	9c02      	ldr	r4, [sp, #8]
1001827e:	9202      	str	r2, [sp, #8]
10018280:	9b05      	ldr	r3, [sp, #20]
10018282:	2b00      	cmp	r3, #0
10018284:	d14a      	bne.n	1001831c <_vfiprintf_r+0x60c>
10018286:	2800      	cmp	r0, #0
10018288:	f040 82f1 	bne.w	1001886e <_vfiprintf_r+0xb5e>
1001828c:	f014 0201 	ands.w	r2, r4, #1
10018290:	9209      	str	r2, [sp, #36]	@ 0x24
10018292:	f000 82f5 	beq.w	10018880 <_vfiprintf_r+0xb70>
10018296:	2330      	movs	r3, #48	@ 0x30
10018298:	f88d 3117 	strb.w	r3, [sp, #279]	@ 0x117
1001829c:	9204      	str	r2, [sp, #16]
1001829e:	f20d 1417 	addw	r4, sp, #279	@ 0x117
100182a2:	e0fc      	b.n	1001849e <_vfiprintf_r+0x78e>
100182a4:	9b02      	ldr	r3, [sp, #8]
100182a6:	9406      	str	r4, [sp, #24]
100182a8:	f043 0310 	orr.w	r3, r3, #16
100182ac:	9302      	str	r3, [sp, #8]
100182ae:	9b02      	ldr	r3, [sp, #8]
100182b0:	069c      	lsls	r4, r3, #26
100182b2:	d491      	bmi.n	100181d8 <_vfiprintf_r+0x4c8>
100182b4:	9a0a      	ldr	r2, [sp, #40]	@ 0x28
100182b6:	f852 3b04 	ldr.w	r3, [r2], #4
100182ba:	920a      	str	r2, [sp, #40]	@ 0x28
100182bc:	9a02      	ldr	r2, [sp, #8]
100182be:	06d0      	lsls	r0, r2, #27
100182c0:	f100 82f3 	bmi.w	100188aa <_vfiprintf_r+0xb9a>
100182c4:	9a02      	ldr	r2, [sp, #8]
100182c6:	0651      	lsls	r1, r2, #25
100182c8:	f140 82eb 	bpl.w	100188a2 <_vfiprintf_r+0xb92>
100182cc:	f343 31c0 	sbfx	r1, r3, #15, #1
100182d0:	460a      	mov	r2, r1
100182d2:	b21b      	sxth	r3, r3
100182d4:	e78a      	b.n	100181ec <_vfiprintf_r+0x4dc>
100182d6:	9b02      	ldr	r3, [sp, #8]
100182d8:	9406      	str	r4, [sp, #24]
100182da:	f043 0410 	orr.w	r4, r3, #16
100182de:	f014 0120 	ands.w	r1, r4, #32
100182e2:	f000 828c 	beq.w	100187fe <_vfiprintf_r+0xaee>
100182e6:	9b0a      	ldr	r3, [sp, #40]	@ 0x28
100182e8:	3307      	adds	r3, #7
100182ea:	f023 0307 	bic.w	r3, r3, #7
100182ee:	461a      	mov	r2, r3
100182f0:	6859      	ldr	r1, [r3, #4]
100182f2:	f852 3b08 	ldr.w	r3, [r2], #8
100182f6:	920a      	str	r2, [sp, #40]	@ 0x28
100182f8:	2200      	movs	r2, #0
100182fa:	f88d 204b 	strb.w	r2, [sp, #75]	@ 0x4b
100182fe:	9a05      	ldr	r2, [sp, #20]
10018300:	3201      	adds	r2, #1
10018302:	f000 83d1 	beq.w	10018aa8 <_vfiprintf_r+0xd98>
10018306:	f024 0280 	bic.w	r2, r4, #128	@ 0x80
1001830a:	9202      	str	r2, [sp, #8]
1001830c:	ea53 0201 	orrs.w	r2, r3, r1
10018310:	f040 80b3 	bne.w	1001847a <_vfiprintf_r+0x76a>
10018314:	9b05      	ldr	r3, [sp, #20]
10018316:	2001      	movs	r0, #1
10018318:	2b00      	cmp	r3, #0
1001831a:	d0b4      	beq.n	10018286 <_vfiprintf_r+0x576>
1001831c:	2801      	cmp	r0, #1
1001831e:	f000 8480 	beq.w	10018c22 <_vfiprintf_r+0xf12>
10018322:	2300      	movs	r3, #0
10018324:	2802      	cmp	r0, #2
10018326:	4619      	mov	r1, r3
10018328:	f000 8199 	beq.w	1001865e <_vfiprintf_r+0x94e>
1001832c:	ac46      	add	r4, sp, #280	@ 0x118
1001832e:	f003 0207 	and.w	r2, r3, #7
10018332:	08db      	lsrs	r3, r3, #3
10018334:	ea43 7341 	orr.w	r3, r3, r1, lsl #29
10018338:	08c9      	lsrs	r1, r1, #3
1001833a:	3230      	adds	r2, #48	@ 0x30
1001833c:	ea53 0501 	orrs.w	r5, r3, r1
10018340:	4620      	mov	r0, r4
10018342:	f804 2d01 	strb.w	r2, [r4, #-1]!
10018346:	d1f2      	bne.n	1001832e <_vfiprintf_r+0x61e>
10018348:	9b02      	ldr	r3, [sp, #8]
1001834a:	07dd      	lsls	r5, r3, #31
1001834c:	f140 8195 	bpl.w	1001867a <_vfiprintf_r+0x96a>
10018350:	2a30      	cmp	r2, #48	@ 0x30
10018352:	f000 8192 	beq.w	1001867a <_vfiprintf_r+0x96a>
10018356:	2330      	movs	r3, #48	@ 0x30
10018358:	9a05      	ldr	r2, [sp, #20]
1001835a:	f804 3c01 	strb.w	r3, [r4, #-1]
1001835e:	3802      	subs	r0, #2
10018360:	ab46      	add	r3, sp, #280	@ 0x118
10018362:	1a1b      	subs	r3, r3, r0
10018364:	429a      	cmp	r2, r3
10018366:	bfb8      	it	lt
10018368:	461a      	movlt	r2, r3
1001836a:	9309      	str	r3, [sp, #36]	@ 0x24
1001836c:	4604      	mov	r4, r0
1001836e:	9204      	str	r2, [sp, #16]
10018370:	e095      	b.n	1001849e <_vfiprintf_r+0x78e>
10018372:	7822      	ldrb	r2, [r4, #0]
10018374:	9b02      	ldr	r3, [sp, #8]
10018376:	2a68      	cmp	r2, #104	@ 0x68
10018378:	f000 839d 	beq.w	10018ab6 <_vfiprintf_r+0xda6>
1001837c:	f043 0340 	orr.w	r3, r3, #64	@ 0x40
10018380:	9302      	str	r3, [sp, #8]
10018382:	e52d      	b.n	10017de0 <_vfiprintf_r+0xd0>
10018384:	9b02      	ldr	r3, [sp, #8]
10018386:	9a0a      	ldr	r2, [sp, #40]	@ 0x28
10018388:	9406      	str	r4, [sp, #24]
1001838a:	f043 0302 	orr.w	r3, r3, #2
1001838e:	9302      	str	r3, [sp, #8]
10018390:	f852 3b04 	ldr.w	r3, [r2], #4
10018394:	920a      	str	r2, [sp, #40]	@ 0x28
10018396:	f647 0230 	movw	r2, #30768	@ 0x7830
1001839a:	f8ad 204c 	strh.w	r2, [sp, #76]	@ 0x4c
1001839e:	4abb      	ldr	r2, [pc, #748]	@ (1001868c <_vfiprintf_r+0x97c>)
100183a0:	920d      	str	r2, [sp, #52]	@ 0x34
100183a2:	2100      	movs	r1, #0
100183a4:	2200      	movs	r2, #0
100183a6:	f88d 204b 	strb.w	r2, [sp, #75]	@ 0x4b
100183aa:	9a05      	ldr	r2, [sp, #20]
100183ac:	3201      	adds	r2, #1
100183ae:	f000 8156 	beq.w	1001865e <_vfiprintf_r+0x94e>
100183b2:	9c02      	ldr	r4, [sp, #8]
100183b4:	ea53 0001 	orrs.w	r0, r3, r1
100183b8:	f024 0280 	bic.w	r2, r4, #128	@ 0x80
100183bc:	9202      	str	r2, [sp, #8]
100183be:	f040 814e 	bne.w	1001865e <_vfiprintf_r+0x94e>
100183c2:	2002      	movs	r0, #2
100183c4:	e75c      	b.n	10018280 <_vfiprintf_r+0x570>
100183c6:	9b02      	ldr	r3, [sp, #8]
100183c8:	9406      	str	r4, [sp, #24]
100183ca:	069b      	lsls	r3, r3, #26
100183cc:	f140 827f 	bpl.w	100188ce <_vfiprintf_r+0xbbe>
100183d0:	9b0a      	ldr	r3, [sp, #40]	@ 0x28
100183d2:	9a07      	ldr	r2, [sp, #28]
100183d4:	681b      	ldr	r3, [r3, #0]
100183d6:	601a      	str	r2, [r3, #0]
100183d8:	17d2      	asrs	r2, r2, #31
100183da:	605a      	str	r2, [r3, #4]
100183dc:	9b0a      	ldr	r3, [sp, #40]	@ 0x28
100183de:	3304      	adds	r3, #4
100183e0:	930a      	str	r3, [sp, #40]	@ 0x28
100183e2:	e4d8      	b.n	10017d96 <_vfiprintf_r+0x86>
100183e4:	9b02      	ldr	r3, [sp, #8]
100183e6:	7822      	ldrb	r2, [r4, #0]
100183e8:	f043 0301 	orr.w	r3, r3, #1
100183ec:	9302      	str	r3, [sp, #8]
100183ee:	e4f7      	b.n	10017de0 <_vfiprintf_r+0xd0>
100183f0:	f89d 304b 	ldrb.w	r3, [sp, #75]	@ 0x4b
100183f4:	7822      	ldrb	r2, [r4, #0]
100183f6:	2b00      	cmp	r3, #0
100183f8:	f47f acf2 	bne.w	10017de0 <_vfiprintf_r+0xd0>
100183fc:	2320      	movs	r3, #32
100183fe:	f88d 304b 	strb.w	r3, [sp, #75]	@ 0x4b
10018402:	e4ed      	b.n	10017de0 <_vfiprintf_r+0xd0>
10018404:	9b02      	ldr	r3, [sp, #8]
10018406:	7822      	ldrb	r2, [r4, #0]
10018408:	f043 0380 	orr.w	r3, r3, #128	@ 0x80
1001840c:	9302      	str	r3, [sp, #8]
1001840e:	e4e7      	b.n	10017de0 <_vfiprintf_r+0xd0>
10018410:	4621      	mov	r1, r4
10018412:	f811 2b01 	ldrb.w	r2, [r1], #1
10018416:	2a2a      	cmp	r2, #42	@ 0x2a
10018418:	f000 8433 	beq.w	10018c82 <_vfiprintf_r+0xf72>
1001841c:	f1a2 0330 	sub.w	r3, r2, #48	@ 0x30
10018420:	2b09      	cmp	r3, #9
10018422:	460c      	mov	r4, r1
10018424:	f200 83f6 	bhi.w	10018c14 <_vfiprintf_r+0xf04>
10018428:	2200      	movs	r2, #0
1001842a:	4611      	mov	r1, r2
1001842c:	f814 2b01 	ldrb.w	r2, [r4], #1
10018430:	eb01 0181 	add.w	r1, r1, r1, lsl #2
10018434:	eb03 0141 	add.w	r1, r3, r1, lsl #1
10018438:	f1a2 0330 	sub.w	r3, r2, #48	@ 0x30
1001843c:	2b09      	cmp	r3, #9
1001843e:	d9f5      	bls.n	1001842c <_vfiprintf_r+0x71c>
10018440:	9105      	str	r1, [sp, #20]
10018442:	e4ce      	b.n	10017de2 <_vfiprintf_r+0xd2>
10018444:	232b      	movs	r3, #43	@ 0x2b
10018446:	7822      	ldrb	r2, [r4, #0]
10018448:	f88d 304b 	strb.w	r3, [sp, #75]	@ 0x4b
1001844c:	e4c8      	b.n	10017de0 <_vfiprintf_r+0xd0>
1001844e:	7822      	ldrb	r2, [r4, #0]
10018450:	9b02      	ldr	r3, [sp, #8]
10018452:	2a6c      	cmp	r2, #108	@ 0x6c
10018454:	f000 8336 	beq.w	10018ac4 <_vfiprintf_r+0xdb4>
10018458:	f043 0310 	orr.w	r3, r3, #16
1001845c:	9302      	str	r3, [sp, #8]
1001845e:	e4bf      	b.n	10017de0 <_vfiprintf_r+0xd0>
10018460:	222d      	movs	r2, #45	@ 0x2d
10018462:	f88d 204b 	strb.w	r2, [sp, #75]	@ 0x4b
10018466:	9a05      	ldr	r2, [sp, #20]
10018468:	425b      	negs	r3, r3
1001846a:	eb61 0141 	sbc.w	r1, r1, r1, lsl #1
1001846e:	3201      	adds	r2, #1
10018470:	d003      	beq.n	1001847a <_vfiprintf_r+0x76a>
10018472:	9a02      	ldr	r2, [sp, #8]
10018474:	f022 0280 	bic.w	r2, r2, #128	@ 0x80
10018478:	9202      	str	r2, [sp, #8]
1001847a:	2b0a      	cmp	r3, #10
1001847c:	f171 0200 	sbcs.w	r2, r1, #0
10018480:	f080 82bd 	bcs.w	100189fe <_vfiprintf_r+0xcee>
10018484:	3330      	adds	r3, #48	@ 0x30
10018486:	b2db      	uxtb	r3, r3
10018488:	f88d 3117 	strb.w	r3, [sp, #279]	@ 0x117
1001848c:	9b05      	ldr	r3, [sp, #20]
1001848e:	2b01      	cmp	r3, #1
10018490:	bfb8      	it	lt
10018492:	2301      	movlt	r3, #1
10018494:	9304      	str	r3, [sp, #16]
10018496:	2301      	movs	r3, #1
10018498:	9309      	str	r3, [sp, #36]	@ 0x24
1001849a:	f20d 1417 	addw	r4, sp, #279	@ 0x117
1001849e:	2300      	movs	r3, #0
100184a0:	930b      	str	r3, [sp, #44]	@ 0x2c
100184a2:	f89d 304b 	ldrb.w	r3, [sp, #75]	@ 0x4b
100184a6:	2b00      	cmp	r3, #0
100184a8:	f43f adae 	beq.w	10018008 <_vfiprintf_r+0x2f8>
100184ac:	9b04      	ldr	r3, [sp, #16]
100184ae:	3301      	adds	r3, #1
100184b0:	9304      	str	r3, [sp, #16]
100184b2:	e5a9      	b.n	10018008 <_vfiprintf_r+0x2f8>
100184b4:	9b09      	ldr	r3, [sp, #36]	@ 0x24
100184b6:	941d      	str	r4, [sp, #116]	@ 0x74
100184b8:	2201      	movs	r2, #1
100184ba:	931e      	str	r3, [sp, #120]	@ 0x78
100184bc:	931c      	str	r3, [sp, #112]	@ 0x70
100184be:	921b      	str	r2, [sp, #108]	@ 0x6c
100184c0:	f10d 0974 	add.w	r9, sp, #116	@ 0x74
100184c4:	f109 0908 	add.w	r9, r9, #8
100184c8:	e60c      	b.n	100180e4 <_vfiprintf_r+0x3d4>
100184ca:	9b08      	ldr	r3, [sp, #32]
100184cc:	9804      	ldr	r0, [sp, #16]
100184ce:	1a1d      	subs	r5, r3, r0
100184d0:	2d00      	cmp	r5, #0
100184d2:	f77f ade7 	ble.w	100180a4 <_vfiprintf_r+0x394>
100184d6:	2d10      	cmp	r5, #16
100184d8:	f340 83cb 	ble.w	10018c72 <_vfiprintf_r+0xf62>
100184dc:	f8df 81b4 	ldr.w	r8, [pc, #436]	@ 10018694 <_vfiprintf_r+0x984>
100184e0:	4643      	mov	r3, r8
100184e2:	2610      	movs	r6, #16
100184e4:	46a0      	mov	r8, r4
100184e6:	4661      	mov	r1, ip
100184e8:	461c      	mov	r4, r3
100184ea:	e007      	b.n	100184fc <_vfiprintf_r+0x7ec>
100184ec:	f102 0c02 	add.w	ip, r2, #2
100184f0:	f109 0908 	add.w	r9, r9, #8
100184f4:	4602      	mov	r2, r0
100184f6:	3d10      	subs	r5, #16
100184f8:	2d10      	cmp	r5, #16
100184fa:	dd1a      	ble.n	10018532 <_vfiprintf_r+0x822>
100184fc:	1c50      	adds	r0, r2, #1
100184fe:	3110      	adds	r1, #16
10018500:	2807      	cmp	r0, #7
10018502:	e9c9 4600 	strd	r4, r6, [r9]
10018506:	e9cd 011b 	strd	r0, r1, [sp, #108]	@ 0x6c
1001850a:	ddef      	ble.n	100184ec <_vfiprintf_r+0x7dc>
1001850c:	aa1a      	add	r2, sp, #104	@ 0x68
1001850e:	2900      	cmp	r1, #0
10018510:	d07c      	beq.n	1001860c <_vfiprintf_r+0x8fc>
10018512:	9903      	ldr	r1, [sp, #12]
10018514:	4658      	mov	r0, fp
10018516:	f10d 0974 	add.w	r9, sp, #116	@ 0x74
1001851a:	f7ff fbb1 	bl	10017c80 <__sprint_r.part.0>
1001851e:	2800      	cmp	r0, #0
10018520:	f47f ad4e 	bne.w	10017fc0 <_vfiprintf_r+0x2b0>
10018524:	e9dd 211b 	ldrd	r2, r1, [sp, #108]	@ 0x6c
10018528:	3d10      	subs	r5, #16
1001852a:	2d10      	cmp	r5, #16
1001852c:	f102 0c01 	add.w	ip, r2, #1
10018530:	dce4      	bgt.n	100184fc <_vfiprintf_r+0x7ec>
10018532:	4623      	mov	r3, r4
10018534:	4660      	mov	r0, ip
10018536:	4644      	mov	r4, r8
10018538:	468c      	mov	ip, r1
1001853a:	4698      	mov	r8, r3
1001853c:	44ac      	add	ip, r5
1001853e:	2807      	cmp	r0, #7
10018540:	e9cd 0c1b 	strd	r0, ip, [sp, #108]	@ 0x6c
10018544:	f8c9 8000 	str.w	r8, [r9]
10018548:	f8c9 5004 	str.w	r5, [r9, #4]
1001854c:	f340 81a4 	ble.w	10018898 <_vfiprintf_r+0xb88>
10018550:	f1bc 0f00 	cmp.w	ip, #0
10018554:	f000 8327 	beq.w	10018ba6 <_vfiprintf_r+0xe96>
10018558:	9903      	ldr	r1, [sp, #12]
1001855a:	aa1a      	add	r2, sp, #104	@ 0x68
1001855c:	4658      	mov	r0, fp
1001855e:	f7ff fb8f 	bl	10017c80 <__sprint_r.part.0>
10018562:	2800      	cmp	r0, #0
10018564:	f47f ad2c 	bne.w	10017fc0 <_vfiprintf_r+0x2b0>
10018568:	9b05      	ldr	r3, [sp, #20]
1001856a:	9809      	ldr	r0, [sp, #36]	@ 0x24
1001856c:	e9dd 2c1b 	ldrd	r2, ip, [sp, #108]	@ 0x6c
10018570:	1a1d      	subs	r5, r3, r0
10018572:	2d00      	cmp	r5, #0
10018574:	f102 0101 	add.w	r1, r2, #1
10018578:	f10d 0974 	add.w	r9, sp, #116	@ 0x74
1001857c:	f77f ad98 	ble.w	100180b0 <_vfiprintf_r+0x3a0>
10018580:	2d10      	cmp	r5, #16
10018582:	f8df 8110 	ldr.w	r8, [pc, #272]	@ 10018694 <_vfiprintf_r+0x984>
10018586:	dd2d      	ble.n	100185e4 <_vfiprintf_r+0x8d4>
10018588:	462b      	mov	r3, r5
1001858a:	2610      	movs	r6, #16
1001858c:	4625      	mov	r5, r4
1001858e:	4660      	mov	r0, ip
10018590:	461c      	mov	r4, r3
10018592:	e007      	b.n	100185a4 <_vfiprintf_r+0x894>
10018594:	f102 0c02 	add.w	ip, r2, #2
10018598:	f109 0908 	add.w	r9, r9, #8
1001859c:	460a      	mov	r2, r1
1001859e:	3c10      	subs	r4, #16
100185a0:	2c10      	cmp	r4, #16
100185a2:	dd1a      	ble.n	100185da <_vfiprintf_r+0x8ca>
100185a4:	1c51      	adds	r1, r2, #1
100185a6:	4b3b      	ldr	r3, [pc, #236]	@ (10018694 <_vfiprintf_r+0x984>)
100185a8:	3010      	adds	r0, #16
100185aa:	2907      	cmp	r1, #7
100185ac:	e9c9 3600 	strd	r3, r6, [r9]
100185b0:	e9cd 101b 	strd	r1, r0, [sp, #108]	@ 0x6c
100185b4:	ddee      	ble.n	10018594 <_vfiprintf_r+0x884>
100185b6:	aa1a      	add	r2, sp, #104	@ 0x68
100185b8:	b310      	cbz	r0, 10018600 <_vfiprintf_r+0x8f0>
100185ba:	9903      	ldr	r1, [sp, #12]
100185bc:	4658      	mov	r0, fp
100185be:	f10d 0974 	add.w	r9, sp, #116	@ 0x74
100185c2:	f7ff fb5d 	bl	10017c80 <__sprint_r.part.0>
100185c6:	2800      	cmp	r0, #0
100185c8:	f47f acfa 	bne.w	10017fc0 <_vfiprintf_r+0x2b0>
100185cc:	e9dd 201b 	ldrd	r2, r0, [sp, #108]	@ 0x6c
100185d0:	3c10      	subs	r4, #16
100185d2:	2c10      	cmp	r4, #16
100185d4:	f102 0c01 	add.w	ip, r2, #1
100185d8:	dce4      	bgt.n	100185a4 <_vfiprintf_r+0x894>
100185da:	4623      	mov	r3, r4
100185dc:	4661      	mov	r1, ip
100185de:	462c      	mov	r4, r5
100185e0:	4684      	mov	ip, r0
100185e2:	461d      	mov	r5, r3
100185e4:	44ac      	add	ip, r5
100185e6:	2907      	cmp	r1, #7
100185e8:	e9cd 1c1b 	strd	r1, ip, [sp, #108]	@ 0x6c
100185ec:	f8c9 8000 	str.w	r8, [r9]
100185f0:	f8c9 5004 	str.w	r5, [r9, #4]
100185f4:	f300 80ed 	bgt.w	100187d2 <_vfiprintf_r+0xac2>
100185f8:	f109 0908 	add.w	r9, r9, #8
100185fc:	3101      	adds	r1, #1
100185fe:	e557      	b.n	100180b0 <_vfiprintf_r+0x3a0>
10018600:	f04f 0c01 	mov.w	ip, #1
10018604:	4602      	mov	r2, r0
10018606:	f10d 0974 	add.w	r9, sp, #116	@ 0x74
1001860a:	e7c8      	b.n	1001859e <_vfiprintf_r+0x88e>
1001860c:	f04f 0c01 	mov.w	ip, #1
10018610:	460a      	mov	r2, r1
10018612:	f10d 0974 	add.w	r9, sp, #116	@ 0x74
10018616:	e76e      	b.n	100184f6 <_vfiprintf_r+0x7e6>
10018618:	f1bc 0f00 	cmp.w	ip, #0
1001861c:	d00f      	beq.n	1001863e <_vfiprintf_r+0x92e>
1001861e:	9903      	ldr	r1, [sp, #12]
10018620:	9311      	str	r3, [sp, #68]	@ 0x44
10018622:	aa1a      	add	r2, sp, #104	@ 0x68
10018624:	4658      	mov	r0, fp
10018626:	f7ff fb2b 	bl	10017c80 <__sprint_r.part.0>
1001862a:	2800      	cmp	r0, #0
1001862c:	f47f acc8 	bne.w	10017fc0 <_vfiprintf_r+0x2b0>
10018630:	e9dd 2c1b 	ldrd	r2, ip, [sp, #108]	@ 0x6c
10018634:	9b11      	ldr	r3, [sp, #68]	@ 0x44
10018636:	1c51      	adds	r1, r2, #1
10018638:	f10d 0974 	add.w	r9, sp, #116	@ 0x74
1001863c:	e50f      	b.n	1001805e <_vfiprintf_r+0x34e>
1001863e:	2b00      	cmp	r3, #0
10018640:	f000 8156 	beq.w	100188f0 <_vfiprintf_r+0xbe0>
10018644:	2302      	movs	r3, #2
10018646:	931e      	str	r3, [sp, #120]	@ 0x78
10018648:	469c      	mov	ip, r3
1001864a:	ab13      	add	r3, sp, #76	@ 0x4c
1001864c:	931d      	str	r3, [sp, #116]	@ 0x74
1001864e:	2101      	movs	r1, #1
10018650:	f10d 0974 	add.w	r9, sp, #116	@ 0x74
10018654:	460a      	mov	r2, r1
10018656:	f109 0908 	add.w	r9, r9, #8
1001865a:	3101      	adds	r1, #1
1001865c:	e51e      	b.n	1001809c <_vfiprintf_r+0x38c>
1001865e:	980d      	ldr	r0, [sp, #52]	@ 0x34
10018660:	ac46      	add	r4, sp, #280	@ 0x118
10018662:	f003 020f 	and.w	r2, r3, #15
10018666:	091b      	lsrs	r3, r3, #4
10018668:	5c82      	ldrb	r2, [r0, r2]
1001866a:	f804 2d01 	strb.w	r2, [r4, #-1]!
1001866e:	ea43 7301 	orr.w	r3, r3, r1, lsl #28
10018672:	0909      	lsrs	r1, r1, #4
10018674:	ea53 0201 	orrs.w	r2, r3, r1
10018678:	d1f3      	bne.n	10018662 <_vfiprintf_r+0x952>
1001867a:	9a05      	ldr	r2, [sp, #20]
1001867c:	ab46      	add	r3, sp, #280	@ 0x118
1001867e:	1b1b      	subs	r3, r3, r4
10018680:	429a      	cmp	r2, r3
10018682:	bfb8      	it	lt
10018684:	461a      	movlt	r2, r3
10018686:	9309      	str	r3, [sp, #36]	@ 0x24
10018688:	9204      	str	r2, [sp, #16]
1001868a:	e708      	b.n	1001849e <_vfiprintf_r+0x78e>
1001868c:	1001b1a4 	.word	0x1001b1a4
10018690:	2000044c 	.word	0x2000044c
10018694:	1001b3e4 	.word	0x1001b3e4
10018698:	2d10      	cmp	r5, #16
1001869a:	f340 82bf 	ble.w	10018c1c <_vfiprintf_r+0xf0c>
1001869e:	4eae      	ldr	r6, [pc, #696]	@ (10018958 <_vfiprintf_r+0xc48>)
100186a0:	9311      	str	r3, [sp, #68]	@ 0x44
100186a2:	4649      	mov	r1, r9
100186a4:	f04f 0810 	mov.w	r8, #16
100186a8:	46a1      	mov	r9, r4
100186aa:	4634      	mov	r4, r6
100186ac:	4666      	mov	r6, ip
100186ae:	e007      	b.n	100186c0 <_vfiprintf_r+0x9b0>
100186b0:	f102 0e02 	add.w	lr, r2, #2
100186b4:	3108      	adds	r1, #8
100186b6:	4602      	mov	r2, r0
100186b8:	3d10      	subs	r5, #16
100186ba:	2d10      	cmp	r5, #16
100186bc:	dd18      	ble.n	100186f0 <_vfiprintf_r+0x9e0>
100186be:	1c50      	adds	r0, r2, #1
100186c0:	3610      	adds	r6, #16
100186c2:	2807      	cmp	r0, #7
100186c4:	e9c1 4800 	strd	r4, r8, [r1]
100186c8:	e9cd 061b 	strd	r0, r6, [sp, #108]	@ 0x6c
100186cc:	ddf0      	ble.n	100186b0 <_vfiprintf_r+0x9a0>
100186ce:	9903      	ldr	r1, [sp, #12]
100186d0:	aa1a      	add	r2, sp, #104	@ 0x68
100186d2:	4658      	mov	r0, fp
100186d4:	b316      	cbz	r6, 1001871c <_vfiprintf_r+0xa0c>
100186d6:	f7ff fad3 	bl	10017c80 <__sprint_r.part.0>
100186da:	2800      	cmp	r0, #0
100186dc:	f47f ac70 	bne.w	10017fc0 <_vfiprintf_r+0x2b0>
100186e0:	e9dd 261b 	ldrd	r2, r6, [sp, #108]	@ 0x6c
100186e4:	3d10      	subs	r5, #16
100186e6:	2d10      	cmp	r5, #16
100186e8:	f102 0e01 	add.w	lr, r2, #1
100186ec:	a91d      	add	r1, sp, #116	@ 0x74
100186ee:	dce6      	bgt.n	100186be <_vfiprintf_r+0x9ae>
100186f0:	9b11      	ldr	r3, [sp, #68]	@ 0x44
100186f2:	46b4      	mov	ip, r6
100186f4:	4626      	mov	r6, r4
100186f6:	464c      	mov	r4, r9
100186f8:	4689      	mov	r9, r1
100186fa:	44ac      	add	ip, r5
100186fc:	f1be 0f07 	cmp.w	lr, #7
10018700:	e9cd ec1b 	strd	lr, ip, [sp, #108]	@ 0x6c
10018704:	f8c9 6000 	str.w	r6, [r9]
10018708:	f8c9 5004 	str.w	r5, [r9, #4]
1001870c:	f300 809a 	bgt.w	10018844 <_vfiprintf_r+0xb34>
10018710:	f109 0908 	add.w	r9, r9, #8
10018714:	f10e 0101 	add.w	r1, lr, #1
10018718:	4672      	mov	r2, lr
1001871a:	e48b      	b.n	10018034 <_vfiprintf_r+0x324>
1001871c:	4632      	mov	r2, r6
1001871e:	f04f 0e01 	mov.w	lr, #1
10018722:	a91d      	add	r1, sp, #116	@ 0x74
10018724:	e7c8      	b.n	100186b8 <_vfiprintf_r+0x9a8>
10018726:	9a02      	ldr	r2, [sp, #8]
10018728:	931b      	str	r3, [sp, #108]	@ 0x6c
1001872a:	0754      	lsls	r4, r2, #29
1001872c:	d548      	bpl.n	100187c0 <_vfiprintf_r+0xab0>
1001872e:	9a08      	ldr	r2, [sp, #32]
10018730:	9904      	ldr	r1, [sp, #16]
10018732:	1a54      	subs	r4, r2, r1
10018734:	2c00      	cmp	r4, #0
10018736:	dd43      	ble.n	100187c0 <_vfiprintf_r+0xab0>
10018738:	f10d 0974 	add.w	r9, sp, #116	@ 0x74
1001873c:	2c10      	cmp	r4, #16
1001873e:	991b      	ldr	r1, [sp, #108]	@ 0x6c
10018740:	f340 827b 	ble.w	10018c3a <_vfiprintf_r+0xf2a>
10018744:	4e84      	ldr	r6, [pc, #528]	@ (10018958 <_vfiprintf_r+0xc48>)
10018746:	f8dd 800c 	ldr.w	r8, [sp, #12]
1001874a:	2510      	movs	r5, #16
1001874c:	e006      	b.n	1001875c <_vfiprintf_r+0xa4c>
1001874e:	1c88      	adds	r0, r1, #2
10018750:	f109 0908 	add.w	r9, r9, #8
10018754:	4611      	mov	r1, r2
10018756:	3c10      	subs	r4, #16
10018758:	2c10      	cmp	r4, #16
1001875a:	dd19      	ble.n	10018790 <_vfiprintf_r+0xa80>
1001875c:	1c4a      	adds	r2, r1, #1
1001875e:	3310      	adds	r3, #16
10018760:	2a07      	cmp	r2, #7
10018762:	e9c9 6500 	strd	r6, r5, [r9]
10018766:	e9cd 231b 	strd	r2, r3, [sp, #108]	@ 0x6c
1001876a:	ddf0      	ble.n	1001874e <_vfiprintf_r+0xa3e>
1001876c:	aa1a      	add	r2, sp, #104	@ 0x68
1001876e:	b313      	cbz	r3, 100187b6 <_vfiprintf_r+0xaa6>
10018770:	4641      	mov	r1, r8
10018772:	4658      	mov	r0, fp
10018774:	f7ff fa84 	bl	10017c80 <__sprint_r.part.0>
10018778:	2800      	cmp	r0, #0
1001877a:	f47f ac21 	bne.w	10017fc0 <_vfiprintf_r+0x2b0>
1001877e:	e9dd 131b 	ldrd	r1, r3, [sp, #108]	@ 0x6c
10018782:	3c10      	subs	r4, #16
10018784:	2c10      	cmp	r4, #16
10018786:	f101 0001 	add.w	r0, r1, #1
1001878a:	f10d 0974 	add.w	r9, sp, #116	@ 0x74
1001878e:	dce5      	bgt.n	1001875c <_vfiprintf_r+0xa4c>
10018790:	4423      	add	r3, r4
10018792:	2807      	cmp	r0, #7
10018794:	e9c9 6400 	strd	r6, r4, [r9]
10018798:	e9cd 031b 	strd	r0, r3, [sp, #108]	@ 0x6c
1001879c:	f77f acab 	ble.w	100180f6 <_vfiprintf_r+0x3e6>
100187a0:	b173      	cbz	r3, 100187c0 <_vfiprintf_r+0xab0>
100187a2:	9903      	ldr	r1, [sp, #12]
100187a4:	aa1a      	add	r2, sp, #104	@ 0x68
100187a6:	4658      	mov	r0, fp
100187a8:	f7ff fa6a 	bl	10017c80 <__sprint_r.part.0>
100187ac:	2800      	cmp	r0, #0
100187ae:	f47f ac07 	bne.w	10017fc0 <_vfiprintf_r+0x2b0>
100187b2:	9b1c      	ldr	r3, [sp, #112]	@ 0x70
100187b4:	e49f      	b.n	100180f6 <_vfiprintf_r+0x3e6>
100187b6:	2001      	movs	r0, #1
100187b8:	4619      	mov	r1, r3
100187ba:	f10d 0974 	add.w	r9, sp, #116	@ 0x74
100187be:	e7ca      	b.n	10018756 <_vfiprintf_r+0xa46>
100187c0:	e9dd 3207 	ldrd	r3, r2, [sp, #28]
100187c4:	9904      	ldr	r1, [sp, #16]
100187c6:	428a      	cmp	r2, r1
100187c8:	bfac      	ite	ge
100187ca:	189b      	addge	r3, r3, r2
100187cc:	185b      	addlt	r3, r3, r1
100187ce:	9307      	str	r3, [sp, #28]
100187d0:	e49c      	b.n	1001810c <_vfiprintf_r+0x3fc>
100187d2:	f1bc 0f00 	cmp.w	ip, #0
100187d6:	f43f ae6d 	beq.w	100184b4 <_vfiprintf_r+0x7a4>
100187da:	9903      	ldr	r1, [sp, #12]
100187dc:	aa1a      	add	r2, sp, #104	@ 0x68
100187de:	4658      	mov	r0, fp
100187e0:	f7ff fa4e 	bl	10017c80 <__sprint_r.part.0>
100187e4:	2800      	cmp	r0, #0
100187e6:	f47f abeb 	bne.w	10017fc0 <_vfiprintf_r+0x2b0>
100187ea:	991b      	ldr	r1, [sp, #108]	@ 0x6c
100187ec:	f8dd c070 	ldr.w	ip, [sp, #112]	@ 0x70
100187f0:	3101      	adds	r1, #1
100187f2:	f10d 0974 	add.w	r9, sp, #116	@ 0x74
100187f6:	e45b      	b.n	100180b0 <_vfiprintf_r+0x3a0>
100187f8:	921b      	str	r2, [sp, #108]	@ 0x6c
100187fa:	f7ff bbd6 	b.w	10017faa <_vfiprintf_r+0x29a>
100187fe:	9a0a      	ldr	r2, [sp, #40]	@ 0x28
10018800:	f852 3b04 	ldr.w	r3, [r2], #4
10018804:	920a      	str	r2, [sp, #40]	@ 0x28
10018806:	f014 0210 	ands.w	r2, r4, #16
1001880a:	f47f ad75 	bne.w	100182f8 <_vfiprintf_r+0x5e8>
1001880e:	f014 0040 	ands.w	r0, r4, #64	@ 0x40
10018812:	f000 816d 	beq.w	10018af0 <_vfiprintf_r+0xde0>
10018816:	b29b      	uxth	r3, r3
10018818:	4611      	mov	r1, r2
1001881a:	e56d      	b.n	100182f8 <_vfiprintf_r+0x5e8>
1001881c:	980a      	ldr	r0, [sp, #40]	@ 0x28
1001881e:	f850 3b04 	ldr.w	r3, [r0], #4
10018822:	900a      	str	r0, [sp, #40]	@ 0x28
10018824:	f012 0010 	ands.w	r0, r2, #16
10018828:	f47f ad19 	bne.w	1001825e <_vfiprintf_r+0x54e>
1001882c:	f012 0440 	ands.w	r4, r2, #64	@ 0x40
10018830:	f000 8166 	beq.w	10018b00 <_vfiprintf_r+0xdf0>
10018834:	b29b      	uxth	r3, r3
10018836:	4601      	mov	r1, r0
10018838:	e511      	b.n	1001825e <_vfiprintf_r+0x54e>
1001883a:	2101      	movs	r1, #1
1001883c:	4662      	mov	r2, ip
1001883e:	f10d 0974 	add.w	r9, sp, #116	@ 0x74
10018842:	e42b      	b.n	1001809c <_vfiprintf_r+0x38c>
10018844:	f1bc 0f00 	cmp.w	ip, #0
10018848:	f000 8095 	beq.w	10018976 <_vfiprintf_r+0xc66>
1001884c:	9903      	ldr	r1, [sp, #12]
1001884e:	9311      	str	r3, [sp, #68]	@ 0x44
10018850:	aa1a      	add	r2, sp, #104	@ 0x68
10018852:	4658      	mov	r0, fp
10018854:	f7ff fa14 	bl	10017c80 <__sprint_r.part.0>
10018858:	2800      	cmp	r0, #0
1001885a:	f47f abb1 	bne.w	10017fc0 <_vfiprintf_r+0x2b0>
1001885e:	e9dd 2c1b 	ldrd	r2, ip, [sp, #108]	@ 0x6c
10018862:	9b11      	ldr	r3, [sp, #68]	@ 0x44
10018864:	1c51      	adds	r1, r2, #1
10018866:	f10d 0974 	add.w	r9, sp, #116	@ 0x74
1001886a:	f7ff bbe3 	b.w	10018034 <_vfiprintf_r+0x324>
1001886e:	9b05      	ldr	r3, [sp, #20]
10018870:	9304      	str	r3, [sp, #16]
10018872:	9309      	str	r3, [sp, #36]	@ 0x24
10018874:	ac46      	add	r4, sp, #280	@ 0x118
10018876:	e612      	b.n	1001849e <_vfiprintf_r+0x78e>
10018878:	7822      	ldrb	r2, [r4, #0]
1001887a:	930a      	str	r3, [sp, #40]	@ 0x28
1001887c:	f7ff bab0 	b.w	10017de0 <_vfiprintf_r+0xd0>
10018880:	9b05      	ldr	r3, [sp, #20]
10018882:	9304      	str	r3, [sp, #16]
10018884:	ac46      	add	r4, sp, #280	@ 0x118
10018886:	e60a      	b.n	1001849e <_vfiprintf_r+0x78e>
10018888:	9d03      	ldr	r5, [sp, #12]
1001888a:	6da8      	ldr	r0, [r5, #88]	@ 0x58
1001888c:	f7fb fc9c 	bl	100141c8 <__retarget_lock_acquire_recursive>
10018890:	f9b5 200c 	ldrsh.w	r2, [r5, #12]
10018894:	f7ff ba5b 	b.w	10017d4e <_vfiprintf_r+0x3e>
10018898:	f109 0908 	add.w	r9, r9, #8
1001889c:	1c41      	adds	r1, r0, #1
1001889e:	4602      	mov	r2, r0
100188a0:	e400      	b.n	100180a4 <_vfiprintf_r+0x394>
100188a2:	9a02      	ldr	r2, [sp, #8]
100188a4:	0592      	lsls	r2, r2, #22
100188a6:	f100 8184 	bmi.w	10018bb2 <_vfiprintf_r+0xea2>
100188aa:	17d9      	asrs	r1, r3, #31
100188ac:	460a      	mov	r2, r1
100188ae:	e49d      	b.n	100181ec <_vfiprintf_r+0x4dc>
100188b0:	9b0e      	ldr	r3, [sp, #56]	@ 0x38
100188b2:	7822      	ldrb	r2, [r4, #0]
100188b4:	2b00      	cmp	r3, #0
100188b6:	f43f aa93 	beq.w	10017de0 <_vfiprintf_r+0xd0>
100188ba:	781b      	ldrb	r3, [r3, #0]
100188bc:	2b00      	cmp	r3, #0
100188be:	f43f aa8f 	beq.w	10017de0 <_vfiprintf_r+0xd0>
100188c2:	9b02      	ldr	r3, [sp, #8]
100188c4:	f443 6380 	orr.w	r3, r3, #1024	@ 0x400
100188c8:	9302      	str	r3, [sp, #8]
100188ca:	f7ff ba89 	b.w	10017de0 <_vfiprintf_r+0xd0>
100188ce:	9b02      	ldr	r3, [sp, #8]
100188d0:	06de      	lsls	r6, r3, #27
100188d2:	f100 80fe 	bmi.w	10018ad2 <_vfiprintf_r+0xdc2>
100188d6:	9b02      	ldr	r3, [sp, #8]
100188d8:	065d      	lsls	r5, r3, #25
100188da:	f100 8176 	bmi.w	10018bca <_vfiprintf_r+0xeba>
100188de:	9b02      	ldr	r3, [sp, #8]
100188e0:	059c      	lsls	r4, r3, #22
100188e2:	f140 80f6 	bpl.w	10018ad2 <_vfiprintf_r+0xdc2>
100188e6:	9b0a      	ldr	r3, [sp, #40]	@ 0x28
100188e8:	9a07      	ldr	r2, [sp, #28]
100188ea:	681b      	ldr	r3, [r3, #0]
100188ec:	701a      	strb	r2, [r3, #0]
100188ee:	e575      	b.n	100183dc <_vfiprintf_r+0x6cc>
100188f0:	4662      	mov	r2, ip
100188f2:	2101      	movs	r1, #1
100188f4:	f10d 0974 	add.w	r9, sp, #116	@ 0x74
100188f8:	f7ff bbd0 	b.w	1001809c <_vfiprintf_r+0x38c>
100188fc:	9406      	str	r4, [sp, #24]
100188fe:	9c02      	ldr	r4, [sp, #8]
10018900:	e4ed      	b.n	100182de <_vfiprintf_r+0x5ce>
10018902:	9a02      	ldr	r2, [sp, #8]
10018904:	9406      	str	r4, [sp, #24]
10018906:	e49d      	b.n	10018244 <_vfiprintf_r+0x534>
10018908:	4b14      	ldr	r3, [pc, #80]	@ (1001895c <_vfiprintf_r+0xc4c>)
1001890a:	9406      	str	r4, [sp, #24]
1001890c:	930d      	str	r3, [sp, #52]	@ 0x34
1001890e:	9b02      	ldr	r3, [sp, #8]
10018910:	f013 0120 	ands.w	r1, r3, #32
10018914:	d063      	beq.n	100189de <_vfiprintf_r+0xcce>
10018916:	9b0a      	ldr	r3, [sp, #40]	@ 0x28
10018918:	3307      	adds	r3, #7
1001891a:	f023 0307 	bic.w	r3, r3, #7
1001891e:	4618      	mov	r0, r3
10018920:	6859      	ldr	r1, [r3, #4]
10018922:	f850 3b08 	ldr.w	r3, [r0], #8
10018926:	900a      	str	r0, [sp, #40]	@ 0x28
10018928:	9c02      	ldr	r4, [sp, #8]
1001892a:	07e6      	lsls	r6, r4, #31
1001892c:	d50a      	bpl.n	10018944 <_vfiprintf_r+0xc34>
1001892e:	ea53 0001 	orrs.w	r0, r3, r1
10018932:	d007      	beq.n	10018944 <_vfiprintf_r+0xc34>
10018934:	f88d 204d 	strb.w	r2, [sp, #77]	@ 0x4d
10018938:	f044 0202 	orr.w	r2, r4, #2
1001893c:	9202      	str	r2, [sp, #8]
1001893e:	2230      	movs	r2, #48	@ 0x30
10018940:	f88d 204c 	strb.w	r2, [sp, #76]	@ 0x4c
10018944:	9a02      	ldr	r2, [sp, #8]
10018946:	f422 6280 	bic.w	r2, r2, #1024	@ 0x400
1001894a:	9202      	str	r2, [sp, #8]
1001894c:	e52a      	b.n	100183a4 <_vfiprintf_r+0x694>
1001894e:	4b04      	ldr	r3, [pc, #16]	@ (10018960 <_vfiprintf_r+0xc50>)
10018950:	9406      	str	r4, [sp, #24]
10018952:	930d      	str	r3, [sp, #52]	@ 0x34
10018954:	e7db      	b.n	1001890e <_vfiprintf_r+0xbfe>
10018956:	bf00      	nop
10018958:	1001b3f4 	.word	0x1001b3f4
1001895c:	1001b1b8 	.word	0x1001b1b8
10018960:	1001b1a4 	.word	0x1001b1a4
10018964:	9b0a      	ldr	r3, [sp, #40]	@ 0x28
10018966:	681b      	ldr	r3, [r3, #0]
10018968:	f88d 30b4 	strb.w	r3, [sp, #180]	@ 0xb4
1001896c:	2301      	movs	r3, #1
1001896e:	9304      	str	r3, [sp, #16]
10018970:	9309      	str	r3, [sp, #36]	@ 0x24
10018972:	ac2d      	add	r4, sp, #180	@ 0xb4
10018974:	e427      	b.n	100181c6 <_vfiprintf_r+0x4b6>
10018976:	f89d 204b 	ldrb.w	r2, [sp, #75]	@ 0x4b
1001897a:	2a00      	cmp	r2, #0
1001897c:	f000 811f 	beq.w	10018bbe <_vfiprintf_r+0xeae>
10018980:	2101      	movs	r1, #1
10018982:	f10d 024b 	add.w	r2, sp, #75	@ 0x4b
10018986:	911e      	str	r1, [sp, #120]	@ 0x78
10018988:	921d      	str	r2, [sp, #116]	@ 0x74
1001898a:	f10d 0974 	add.w	r9, sp, #116	@ 0x74
1001898e:	468c      	mov	ip, r1
10018990:	f7ff bb61 	b.w	10018056 <_vfiprintf_r+0x346>
10018994:	2208      	movs	r2, #8
10018996:	2100      	movs	r1, #0
10018998:	a818      	add	r0, sp, #96	@ 0x60
1001899a:	9415      	str	r4, [sp, #84]	@ 0x54
1001899c:	f7fb fb5c 	bl	10014058 <memset>
100189a0:	9b05      	ldr	r3, [sp, #20]
100189a2:	1c58      	adds	r0, r3, #1
100189a4:	f000 80ba 	beq.w	10018b1c <_vfiprintf_r+0xe0c>
100189a8:	2500      	movs	r5, #0
100189aa:	9404      	str	r4, [sp, #16]
100189ac:	4698      	mov	r8, r3
100189ae:	462c      	mov	r4, r5
100189b0:	e00c      	b.n	100189cc <_vfiprintf_r+0xcbc>
100189b2:	a92d      	add	r1, sp, #180	@ 0xb4
100189b4:	4658      	mov	r0, fp
100189b6:	f7fb fba1 	bl	100140fc <_wcrtomb_r>
100189ba:	1c41      	adds	r1, r0, #1
100189bc:	4420      	add	r0, r4
100189be:	f000 813f 	beq.w	10018c40 <_vfiprintf_r+0xf30>
100189c2:	4540      	cmp	r0, r8
100189c4:	dc08      	bgt.n	100189d8 <_vfiprintf_r+0xcc8>
100189c6:	f000 8158 	beq.w	10018c7a <_vfiprintf_r+0xf6a>
100189ca:	4604      	mov	r4, r0
100189cc:	9a15      	ldr	r2, [sp, #84]	@ 0x54
100189ce:	5952      	ldr	r2, [r2, r5]
100189d0:	ab18      	add	r3, sp, #96	@ 0x60
100189d2:	3504      	adds	r5, #4
100189d4:	2a00      	cmp	r2, #0
100189d6:	d1ec      	bne.n	100189b2 <_vfiprintf_r+0xca2>
100189d8:	9409      	str	r4, [sp, #36]	@ 0x24
100189da:	9c04      	ldr	r4, [sp, #16]
100189dc:	e0ac      	b.n	10018b38 <_vfiprintf_r+0xe28>
100189de:	980a      	ldr	r0, [sp, #40]	@ 0x28
100189e0:	f850 3b04 	ldr.w	r3, [r0], #4
100189e4:	900a      	str	r0, [sp, #40]	@ 0x28
100189e6:	9802      	ldr	r0, [sp, #8]
100189e8:	f010 0010 	ands.w	r0, r0, #16
100189ec:	d19c      	bne.n	10018928 <_vfiprintf_r+0xc18>
100189ee:	9902      	ldr	r1, [sp, #8]
100189f0:	f011 0440 	ands.w	r4, r1, #64	@ 0x40
100189f4:	f000 808b 	beq.w	10018b0e <_vfiprintf_r+0xdfe>
100189f8:	b29b      	uxth	r3, r3
100189fa:	4601      	mov	r1, r0
100189fc:	e794      	b.n	10018928 <_vfiprintf_r+0xc18>
100189fe:	9a02      	ldr	r2, [sp, #8]
10018a00:	f8cd 9010 	str.w	r9, [sp, #16]
10018a04:	ac46      	add	r4, sp, #280	@ 0x118
10018a06:	f402 6280 	and.w	r2, r2, #1024	@ 0x400
10018a0a:	46a1      	mov	r9, r4
10018a0c:	f8cd b024 	str.w	fp, [sp, #36]	@ 0x24
10018a10:	4ea5      	ldr	r6, [pc, #660]	@ (10018ca8 <_vfiprintf_r+0xf98>)
10018a12:	f8dd b038 	ldr.w	fp, [sp, #56]	@ 0x38
10018a16:	f04f 0c00 	mov.w	ip, #0
10018a1a:	4614      	mov	r4, r2
10018a1c:	e005      	b.n	10018a2a <_vfiprintf_r+0xd1a>
10018a1e:	2b0a      	cmp	r3, #10
10018a20:	f171 0100 	sbcs.w	r1, r1, #0
10018a24:	d336      	bcc.n	10018a94 <_vfiprintf_r+0xd84>
10018a26:	4643      	mov	r3, r8
10018a28:	4629      	mov	r1, r5
10018a2a:	185a      	adds	r2, r3, r1
10018a2c:	f142 0200 	adc.w	r2, r2, #0
10018a30:	fba6 0502 	umull	r0, r5, r6, r2
10018a34:	f025 0003 	bic.w	r0, r5, #3
10018a38:	eb00 0095 	add.w	r0, r0, r5, lsr #2
10018a3c:	1a12      	subs	r2, r2, r0
10018a3e:	1a98      	subs	r0, r3, r2
10018a40:	f04f 35cc 	mov.w	r5, #3435973836	@ 0xcccccccc
10018a44:	f161 0e00 	sbc.w	lr, r1, #0
10018a48:	fb05 f500 	mul.w	r5, r5, r0
10018a4c:	fb06 550e 	mla	r5, r6, lr, r5
10018a50:	fba0 8006 	umull	r8, r0, r0, r6
10018a54:	4405      	add	r5, r0
10018a56:	f008 0e01 	and.w	lr, r8, #1
10018a5a:	2005      	movs	r0, #5
10018a5c:	fbae 0e00 	umull	r0, lr, lr, r0
10018a60:	1880      	adds	r0, r0, r2
10018a62:	ea4f 0858 	mov.w	r8, r8, lsr #1
10018a66:	3030      	adds	r0, #48	@ 0x30
10018a68:	f809 0c01 	strb.w	r0, [r9, #-1]
10018a6c:	ea48 78c5 	orr.w	r8, r8, r5, lsl #31
10018a70:	f10c 0c01 	add.w	ip, ip, #1
10018a74:	f109 39ff 	add.w	r9, r9, #4294967295	@ 0xffffffff
10018a78:	086d      	lsrs	r5, r5, #1
10018a7a:	2c00      	cmp	r4, #0
10018a7c:	d0cf      	beq.n	10018a1e <_vfiprintf_r+0xd0e>
10018a7e:	f89b 2000 	ldrb.w	r2, [fp]
10018a82:	4562      	cmp	r2, ip
10018a84:	d1cb      	bne.n	10018a1e <_vfiprintf_r+0xd0e>
10018a86:	f1bc 0fff 	cmp.w	ip, #255	@ 0xff
10018a8a:	d0c8      	beq.n	10018a1e <_vfiprintf_r+0xd0e>
10018a8c:	2b0a      	cmp	r3, #10
10018a8e:	f171 0100 	sbcs.w	r1, r1, #0
10018a92:	d272      	bcs.n	10018b7a <_vfiprintf_r+0xe6a>
10018a94:	f8cd b038 	str.w	fp, [sp, #56]	@ 0x38
10018a98:	464c      	mov	r4, r9
10018a9a:	f8dd b024 	ldr.w	fp, [sp, #36]	@ 0x24
10018a9e:	f8dd 9010 	ldr.w	r9, [sp, #16]
10018aa2:	e5ea      	b.n	1001867a <_vfiprintf_r+0x96a>
10018aa4:	9202      	str	r2, [sp, #8]
10018aa6:	e441      	b.n	1001832c <_vfiprintf_r+0x61c>
10018aa8:	9402      	str	r4, [sp, #8]
10018aaa:	e4e6      	b.n	1001847a <_vfiprintf_r+0x76a>
10018aac:	4658      	mov	r0, fp
10018aae:	f7fc fc89 	bl	100153c4 <__sinit>
10018ab2:	f7ff b943 	b.w	10017d3c <_vfiprintf_r+0x2c>
10018ab6:	f443 7300 	orr.w	r3, r3, #512	@ 0x200
10018aba:	7862      	ldrb	r2, [r4, #1]
10018abc:	9302      	str	r3, [sp, #8]
10018abe:	3401      	adds	r4, #1
10018ac0:	f7ff b98e 	b.w	10017de0 <_vfiprintf_r+0xd0>
10018ac4:	f043 0320 	orr.w	r3, r3, #32
10018ac8:	7862      	ldrb	r2, [r4, #1]
10018aca:	9302      	str	r3, [sp, #8]
10018acc:	3401      	adds	r4, #1
10018ace:	f7ff b987 	b.w	10017de0 <_vfiprintf_r+0xd0>
10018ad2:	9b0a      	ldr	r3, [sp, #40]	@ 0x28
10018ad4:	9a07      	ldr	r2, [sp, #28]
10018ad6:	681b      	ldr	r3, [r3, #0]
10018ad8:	601a      	str	r2, [r3, #0]
10018ada:	e47f      	b.n	100183dc <_vfiprintf_r+0x6cc>
10018adc:	9b05      	ldr	r3, [sp, #20]
10018ade:	4c73      	ldr	r4, [pc, #460]	@ (10018cac <_vfiprintf_r+0xf9c>)
10018ae0:	2b06      	cmp	r3, #6
10018ae2:	bf28      	it	cs
10018ae4:	2306      	movcs	r3, #6
10018ae6:	e9cd 3609 	strd	r3, r6, [sp, #36]	@ 0x24
10018aea:	9304      	str	r3, [sp, #16]
10018aec:	f7ff ba89 	b.w	10018002 <_vfiprintf_r+0x2f2>
10018af0:	f414 7100 	ands.w	r1, r4, #512	@ 0x200
10018af4:	f43f ac00 	beq.w	100182f8 <_vfiprintf_r+0x5e8>
10018af8:	b2db      	uxtb	r3, r3
10018afa:	4601      	mov	r1, r0
10018afc:	f7ff bbfc 	b.w	100182f8 <_vfiprintf_r+0x5e8>
10018b00:	f412 7100 	ands.w	r1, r2, #512	@ 0x200
10018b04:	bf1c      	itt	ne
10018b06:	b2db      	uxtbne	r3, r3
10018b08:	4621      	movne	r1, r4
10018b0a:	f7ff bba8 	b.w	1001825e <_vfiprintf_r+0x54e>
10018b0e:	9902      	ldr	r1, [sp, #8]
10018b10:	f411 7100 	ands.w	r1, r1, #512	@ 0x200
10018b14:	bf1c      	itt	ne
10018b16:	b2db      	uxtbne	r3, r3
10018b18:	4621      	movne	r1, r4
10018b1a:	e705      	b.n	10018928 <_vfiprintf_r+0xc18>
10018b1c:	ab18      	add	r3, sp, #96	@ 0x60
10018b1e:	9300      	str	r3, [sp, #0]
10018b20:	2300      	movs	r3, #0
10018b22:	4619      	mov	r1, r3
10018b24:	aa15      	add	r2, sp, #84	@ 0x54
10018b26:	4658      	mov	r0, fp
10018b28:	f7fb fbe4 	bl	100142f4 <_wcsrtombs_r>
10018b2c:	4603      	mov	r3, r0
10018b2e:	3301      	adds	r3, #1
10018b30:	9009      	str	r0, [sp, #36]	@ 0x24
10018b32:	f000 8085 	beq.w	10018c40 <_vfiprintf_r+0xf30>
10018b36:	9415      	str	r4, [sp, #84]	@ 0x54
10018b38:	9b09      	ldr	r3, [sp, #36]	@ 0x24
10018b3a:	b373      	cbz	r3, 10018b9a <_vfiprintf_r+0xe8a>
10018b3c:	2b63      	cmp	r3, #99	@ 0x63
10018b3e:	dc49      	bgt.n	10018bd4 <_vfiprintf_r+0xec4>
10018b40:	2300      	movs	r3, #0
10018b42:	930b      	str	r3, [sp, #44]	@ 0x2c
10018b44:	ac2d      	add	r4, sp, #180	@ 0xb4
10018b46:	2208      	movs	r2, #8
10018b48:	2100      	movs	r1, #0
10018b4a:	a818      	add	r0, sp, #96	@ 0x60
10018b4c:	f7fb fa84 	bl	10014058 <memset>
10018b50:	9d09      	ldr	r5, [sp, #36]	@ 0x24
10018b52:	ab18      	add	r3, sp, #96	@ 0x60
10018b54:	9300      	str	r3, [sp, #0]
10018b56:	aa15      	add	r2, sp, #84	@ 0x54
10018b58:	462b      	mov	r3, r5
10018b5a:	4621      	mov	r1, r4
10018b5c:	4658      	mov	r0, fp
10018b5e:	f7fb fbc9 	bl	100142f4 <_wcsrtombs_r>
10018b62:	4285      	cmp	r5, r0
10018b64:	f040 8098 	bne.w	10018c98 <_vfiprintf_r+0xf88>
10018b68:	9a09      	ldr	r2, [sp, #36]	@ 0x24
10018b6a:	960a      	str	r6, [sp, #40]	@ 0x28
10018b6c:	2300      	movs	r3, #0
10018b6e:	54a3      	strb	r3, [r4, r2]
10018b70:	9305      	str	r3, [sp, #20]
10018b72:	ea22 73e2 	bic.w	r3, r2, r2, asr #31
10018b76:	9304      	str	r3, [sp, #16]
10018b78:	e493      	b.n	100184a2 <_vfiprintf_r+0x792>
10018b7a:	9b0f      	ldr	r3, [sp, #60]	@ 0x3c
10018b7c:	9910      	ldr	r1, [sp, #64]	@ 0x40
10018b7e:	eba9 0903 	sub.w	r9, r9, r3
10018b82:	461a      	mov	r2, r3
10018b84:	4648      	mov	r0, r9
10018b86:	f7fc ff39 	bl	100159fc <strncpy>
10018b8a:	f89b 3001 	ldrb.w	r3, [fp, #1]
10018b8e:	b10b      	cbz	r3, 10018b94 <_vfiprintf_r+0xe84>
10018b90:	f10b 0b01 	add.w	fp, fp, #1
10018b94:	f04f 0c00 	mov.w	ip, #0
10018b98:	e745      	b.n	10018a26 <_vfiprintf_r+0xd16>
10018b9a:	9b09      	ldr	r3, [sp, #36]	@ 0x24
10018b9c:	960a      	str	r6, [sp, #40]	@ 0x28
10018b9e:	e9cd 3304 	strd	r3, r3, [sp, #16]
10018ba2:	930b      	str	r3, [sp, #44]	@ 0x2c
10018ba4:	e47d      	b.n	100184a2 <_vfiprintf_r+0x792>
10018ba6:	2101      	movs	r1, #1
10018ba8:	4662      	mov	r2, ip
10018baa:	f10d 0974 	add.w	r9, sp, #116	@ 0x74
10018bae:	f7ff ba79 	b.w	100180a4 <_vfiprintf_r+0x394>
10018bb2:	f343 11c0 	sbfx	r1, r3, #7, #1
10018bb6:	460a      	mov	r2, r1
10018bb8:	b25b      	sxtb	r3, r3
10018bba:	f7ff bb17 	b.w	100181ec <_vfiprintf_r+0x4dc>
10018bbe:	4662      	mov	r2, ip
10018bc0:	2101      	movs	r1, #1
10018bc2:	f10d 0974 	add.w	r9, sp, #116	@ 0x74
10018bc6:	f7ff ba4a 	b.w	1001805e <_vfiprintf_r+0x34e>
10018bca:	9b0a      	ldr	r3, [sp, #40]	@ 0x28
10018bcc:	9a07      	ldr	r2, [sp, #28]
10018bce:	681b      	ldr	r3, [r3, #0]
10018bd0:	801a      	strh	r2, [r3, #0]
10018bd2:	e403      	b.n	100183dc <_vfiprintf_r+0x6cc>
10018bd4:	1c59      	adds	r1, r3, #1
10018bd6:	4658      	mov	r0, fp
10018bd8:	f7fa ff7a 	bl	10013ad0 <_malloc_r>
10018bdc:	4604      	mov	r4, r0
10018bde:	2800      	cmp	r0, #0
10018be0:	d02e      	beq.n	10018c40 <_vfiprintf_r+0xf30>
10018be2:	900b      	str	r0, [sp, #44]	@ 0x2c
10018be4:	e7af      	b.n	10018b46 <_vfiprintf_r+0xe36>
10018be6:	6d88      	ldr	r0, [r1, #88]	@ 0x58
10018be8:	f7fb faf0 	bl	100141cc <__retarget_lock_release_recursive>
10018bec:	f7ff b9a0 	b.w	10017f30 <_vfiprintf_r+0x220>
10018bf0:	9b05      	ldr	r3, [sp, #20]
10018bf2:	9304      	str	r3, [sp, #16]
10018bf4:	9309      	str	r3, [sp, #36]	@ 0x24
10018bf6:	9b0b      	ldr	r3, [sp, #44]	@ 0x2c
10018bf8:	960a      	str	r6, [sp, #40]	@ 0x28
10018bfa:	9305      	str	r3, [sp, #20]
10018bfc:	e451      	b.n	100184a2 <_vfiprintf_r+0x792>
10018bfe:	4620      	mov	r0, r4
10018c00:	9505      	str	r5, [sp, #20]
10018c02:	960a      	str	r6, [sp, #40]	@ 0x28
10018c04:	f7fc fcfc 	bl	10015600 <strlen>
10018c08:	ea20 73e0 	bic.w	r3, r0, r0, asr #31
10018c0c:	9009      	str	r0, [sp, #36]	@ 0x24
10018c0e:	9304      	str	r3, [sp, #16]
10018c10:	950b      	str	r5, [sp, #44]	@ 0x2c
10018c12:	e446      	b.n	100184a2 <_vfiprintf_r+0x792>
10018c14:	2300      	movs	r3, #0
10018c16:	9305      	str	r3, [sp, #20]
10018c18:	f7ff b8e3 	b.w	10017de2 <_vfiprintf_r+0xd2>
10018c1c:	4e24      	ldr	r6, [pc, #144]	@ (10018cb0 <_vfiprintf_r+0xfa0>)
10018c1e:	4686      	mov	lr, r0
10018c20:	e56b      	b.n	100186fa <_vfiprintf_r+0x9ea>
10018c22:	2330      	movs	r3, #48	@ 0x30
10018c24:	e430      	b.n	10018488 <_vfiprintf_r+0x778>
10018c26:	9903      	ldr	r1, [sp, #12]
10018c28:	aa1a      	add	r2, sp, #104	@ 0x68
10018c2a:	4658      	mov	r0, fp
10018c2c:	f7ff f828 	bl	10017c80 <__sprint_r.part.0>
10018c30:	2800      	cmp	r0, #0
10018c32:	f43f a9ab 	beq.w	10017f8c <_vfiprintf_r+0x27c>
10018c36:	f7ff b9c9 	b.w	10017fcc <_vfiprintf_r+0x2bc>
10018c3a:	4e1d      	ldr	r6, [pc, #116]	@ (10018cb0 <_vfiprintf_r+0xfa0>)
10018c3c:	1c48      	adds	r0, r1, #1
10018c3e:	e5a7      	b.n	10018790 <_vfiprintf_r+0xa80>
10018c40:	9a03      	ldr	r2, [sp, #12]
10018c42:	f9b2 300c 	ldrsh.w	r3, [r2, #12]
10018c46:	f043 0340 	orr.w	r3, r3, #64	@ 0x40
10018c4a:	8193      	strh	r3, [r2, #12]
10018c4c:	f7ff b9c1 	b.w	10017fd2 <_vfiprintf_r+0x2c2>
10018c50:	9b03      	ldr	r3, [sp, #12]
10018c52:	6e5b      	ldr	r3, [r3, #100]	@ 0x64
10018c54:	07d9      	lsls	r1, r3, #31
10018c56:	d407      	bmi.n	10018c68 <_vfiprintf_r+0xf58>
10018c58:	9b03      	ldr	r3, [sp, #12]
10018c5a:	899b      	ldrh	r3, [r3, #12]
10018c5c:	059a      	lsls	r2, r3, #22
10018c5e:	d403      	bmi.n	10018c68 <_vfiprintf_r+0xf58>
10018c60:	9b03      	ldr	r3, [sp, #12]
10018c62:	6d98      	ldr	r0, [r3, #88]	@ 0x58
10018c64:	f7fb fab2 	bl	100141cc <__retarget_lock_release_recursive>
10018c68:	f04f 33ff 	mov.w	r3, #4294967295	@ 0xffffffff
10018c6c:	9307      	str	r3, [sp, #28]
10018c6e:	f7ff b9b8 	b.w	10017fe2 <_vfiprintf_r+0x2d2>
10018c72:	f8df 8040 	ldr.w	r8, [pc, #64]	@ 10018cb4 <_vfiprintf_r+0xfa4>
10018c76:	4608      	mov	r0, r1
10018c78:	e460      	b.n	1001853c <_vfiprintf_r+0x82c>
10018c7a:	e9dd 4304 	ldrd	r4, r3, [sp, #16]
10018c7e:	9309      	str	r3, [sp, #36]	@ 0x24
10018c80:	e75a      	b.n	10018b38 <_vfiprintf_r+0xe28>
10018c82:	9b0a      	ldr	r3, [sp, #40]	@ 0x28
10018c84:	7862      	ldrb	r2, [r4, #1]
10018c86:	460c      	mov	r4, r1
10018c88:	f853 1b04 	ldr.w	r1, [r3], #4
10018c8c:	930a      	str	r3, [sp, #40]	@ 0x28
10018c8e:	ea41 71e1 	orr.w	r1, r1, r1, asr #31
10018c92:	9105      	str	r1, [sp, #20]
10018c94:	f7ff b8a4 	b.w	10017de0 <_vfiprintf_r+0xd0>
10018c98:	9a03      	ldr	r2, [sp, #12]
10018c9a:	8993      	ldrh	r3, [r2, #12]
10018c9c:	f043 0340 	orr.w	r3, r3, #64	@ 0x40
10018ca0:	8193      	strh	r3, [r2, #12]
10018ca2:	f7ff b98d 	b.w	10017fc0 <_vfiprintf_r+0x2b0>
10018ca6:	bf00      	nop
10018ca8:	cccccccd 	.word	0xcccccccd
10018cac:	1001b1cc 	.word	0x1001b1cc
10018cb0:	1001b3f4 	.word	0x1001b3f4
10018cb4:	1001b3e4 	.word	0x1001b3e4

10018cb8 <__sbprintf>:
10018cb8:	b5f0      	push	{r4, r5, r6, r7, lr}
10018cba:	461f      	mov	r7, r3
10018cbc:	898b      	ldrh	r3, [r1, #12]
10018cbe:	f2ad 4d6c 	subw	sp, sp, #1132	@ 0x46c
10018cc2:	f023 0302 	bic.w	r3, r3, #2
10018cc6:	f8ad 300c 	strh.w	r3, [sp, #12]
10018cca:	6e4b      	ldr	r3, [r1, #100]	@ 0x64
10018ccc:	9319      	str	r3, [sp, #100]	@ 0x64
10018cce:	89cb      	ldrh	r3, [r1, #14]
10018cd0:	f8ad 300e 	strh.w	r3, [sp, #14]
10018cd4:	69cb      	ldr	r3, [r1, #28]
10018cd6:	9307      	str	r3, [sp, #28]
10018cd8:	6a4b      	ldr	r3, [r1, #36]	@ 0x24
10018cda:	9309      	str	r3, [sp, #36]	@ 0x24
10018cdc:	ab1a      	add	r3, sp, #104	@ 0x68
10018cde:	9300      	str	r3, [sp, #0]
10018ce0:	9304      	str	r3, [sp, #16]
10018ce2:	f44f 6380 	mov.w	r3, #1024	@ 0x400
10018ce6:	4615      	mov	r5, r2
10018ce8:	4606      	mov	r6, r0
10018cea:	9302      	str	r3, [sp, #8]
10018cec:	9305      	str	r3, [sp, #20]
10018cee:	a816      	add	r0, sp, #88	@ 0x58
10018cf0:	2300      	movs	r3, #0
10018cf2:	460c      	mov	r4, r1
10018cf4:	9306      	str	r3, [sp, #24]
10018cf6:	f7fb fa63 	bl	100141c0 <__retarget_lock_init_recursive>
10018cfa:	462a      	mov	r2, r5
10018cfc:	463b      	mov	r3, r7
10018cfe:	4669      	mov	r1, sp
10018d00:	4630      	mov	r0, r6
10018d02:	f7ff f805 	bl	10017d10 <_vfiprintf_r>
10018d06:	1e05      	subs	r5, r0, #0
10018d08:	db07      	blt.n	10018d1a <__sbprintf+0x62>
10018d0a:	4669      	mov	r1, sp
10018d0c:	4630      	mov	r0, r6
10018d0e:	f000 ff65 	bl	10019bdc <_fflush_r>
10018d12:	2800      	cmp	r0, #0
10018d14:	bf18      	it	ne
10018d16:	f04f 35ff 	movne.w	r5, #4294967295	@ 0xffffffff
10018d1a:	f8bd 300c 	ldrh.w	r3, [sp, #12]
10018d1e:	065b      	lsls	r3, r3, #25
10018d20:	d503      	bpl.n	10018d2a <__sbprintf+0x72>
10018d22:	89a3      	ldrh	r3, [r4, #12]
10018d24:	f043 0340 	orr.w	r3, r3, #64	@ 0x40
10018d28:	81a3      	strh	r3, [r4, #12]
10018d2a:	9816      	ldr	r0, [sp, #88]	@ 0x58
10018d2c:	f7fb fa4a 	bl	100141c4 <__retarget_lock_close_recursive>
10018d30:	4628      	mov	r0, r5
10018d32:	f20d 4d6c 	addw	sp, sp, #1132	@ 0x46c
10018d36:	bdf0      	pop	{r4, r5, r6, r7, pc}

10018d38 <__register_exitproc>:
10018d38:	e92d 43f8 	stmdb	sp!, {r3, r4, r5, r6, r7, r8, r9, lr}
10018d3c:	4d1b      	ldr	r5, [pc, #108]	@ (10018dac <__register_exitproc+0x74>)
10018d3e:	4606      	mov	r6, r0
10018d40:	6828      	ldr	r0, [r5, #0]
10018d42:	4698      	mov	r8, r3
10018d44:	460f      	mov	r7, r1
10018d46:	4691      	mov	r9, r2
10018d48:	f7fb fa3e 	bl	100141c8 <__retarget_lock_acquire_recursive>
10018d4c:	4b18      	ldr	r3, [pc, #96]	@ (10018db0 <__register_exitproc+0x78>)
10018d4e:	681c      	ldr	r4, [r3, #0]
10018d50:	b31c      	cbz	r4, 10018d9a <__register_exitproc+0x62>
10018d52:	6828      	ldr	r0, [r5, #0]
10018d54:	6865      	ldr	r5, [r4, #4]
10018d56:	2d1f      	cmp	r5, #31
10018d58:	dc22      	bgt.n	10018da0 <__register_exitproc+0x68>
10018d5a:	b94e      	cbnz	r6, 10018d70 <__register_exitproc+0x38>
10018d5c:	1c6b      	adds	r3, r5, #1
10018d5e:	3502      	adds	r5, #2
10018d60:	6063      	str	r3, [r4, #4]
10018d62:	f844 7025 	str.w	r7, [r4, r5, lsl #2]
10018d66:	f7fb fa31 	bl	100141cc <__retarget_lock_release_recursive>
10018d6a:	2000      	movs	r0, #0
10018d6c:	e8bd 83f8 	ldmia.w	sp!, {r3, r4, r5, r6, r7, r8, r9, pc}
10018d70:	eb04 0185 	add.w	r1, r4, r5, lsl #2
10018d74:	2301      	movs	r3, #1
10018d76:	f8c1 9088 	str.w	r9, [r1, #136]	@ 0x88
10018d7a:	f8d4 2188 	ldr.w	r2, [r4, #392]	@ 0x188
10018d7e:	40ab      	lsls	r3, r5
10018d80:	431a      	orrs	r2, r3
10018d82:	2e02      	cmp	r6, #2
10018d84:	f8c4 2188 	str.w	r2, [r4, #392]	@ 0x188
10018d88:	f8c1 8108 	str.w	r8, [r1, #264]	@ 0x108
10018d8c:	d1e6      	bne.n	10018d5c <__register_exitproc+0x24>
10018d8e:	f8d4 218c 	ldr.w	r2, [r4, #396]	@ 0x18c
10018d92:	431a      	orrs	r2, r3
10018d94:	f8c4 218c 	str.w	r2, [r4, #396]	@ 0x18c
10018d98:	e7e0      	b.n	10018d5c <__register_exitproc+0x24>
10018d9a:	4c06      	ldr	r4, [pc, #24]	@ (10018db4 <__register_exitproc+0x7c>)
10018d9c:	601c      	str	r4, [r3, #0]
10018d9e:	e7d8      	b.n	10018d52 <__register_exitproc+0x1a>
10018da0:	f7fb fa14 	bl	100141cc <__retarget_lock_release_recursive>
10018da4:	f04f 30ff 	mov.w	r0, #4294967295	@ 0xffffffff
10018da8:	e7e0      	b.n	10018d6c <__register_exitproc+0x34>
10018daa:	bf00      	nop
10018dac:	20000448 	.word	0x20000448
10018db0:	20001460 	.word	0x20001460
10018db4:	200015ac 	.word	0x200015ac

10018db8 <__ascii_mbtowc>:
10018db8:	b082      	sub	sp, #8
10018dba:	b149      	cbz	r1, 10018dd0 <__ascii_mbtowc+0x18>
10018dbc:	b15a      	cbz	r2, 10018dd6 <__ascii_mbtowc+0x1e>
10018dbe:	b16b      	cbz	r3, 10018ddc <__ascii_mbtowc+0x24>
10018dc0:	7813      	ldrb	r3, [r2, #0]
10018dc2:	600b      	str	r3, [r1, #0]
10018dc4:	7812      	ldrb	r2, [r2, #0]
10018dc6:	1e10      	subs	r0, r2, #0
10018dc8:	bf18      	it	ne
10018dca:	2001      	movne	r0, #1
10018dcc:	b002      	add	sp, #8
10018dce:	4770      	bx	lr
10018dd0:	a901      	add	r1, sp, #4
10018dd2:	2a00      	cmp	r2, #0
10018dd4:	d1f3      	bne.n	10018dbe <__ascii_mbtowc+0x6>
10018dd6:	4610      	mov	r0, r2
10018dd8:	b002      	add	sp, #8
10018dda:	4770      	bx	lr
10018ddc:	f06f 0001 	mvn.w	r0, #1
10018de0:	e7f4      	b.n	10018dcc <__ascii_mbtowc+0x14>
10018de2:	bf00      	nop

10018de4 <memmove>:
10018de4:	4288      	cmp	r0, r1
10018de6:	d90e      	bls.n	10018e06 <memmove+0x22>
10018de8:	188b      	adds	r3, r1, r2
10018dea:	4283      	cmp	r3, r0
10018dec:	d90b      	bls.n	10018e06 <memmove+0x22>
10018dee:	eb00 0c02 	add.w	ip, r0, r2
10018df2:	2a00      	cmp	r2, #0
10018df4:	d06e      	beq.n	10018ed4 <memmove+0xf0>
10018df6:	4662      	mov	r2, ip
10018df8:	f813 cd01 	ldrb.w	ip, [r3, #-1]!
10018dfc:	f802 cd01 	strb.w	ip, [r2, #-1]!
10018e00:	4299      	cmp	r1, r3
10018e02:	d1f9      	bne.n	10018df8 <memmove+0x14>
10018e04:	4770      	bx	lr
10018e06:	2a0f      	cmp	r2, #15
10018e08:	d80f      	bhi.n	10018e2a <memmove+0x46>
10018e0a:	4603      	mov	r3, r0
10018e0c:	f102 3cff 	add.w	ip, r2, #4294967295	@ 0xffffffff
10018e10:	2a00      	cmp	r2, #0
10018e12:	d05f      	beq.n	10018ed4 <memmove+0xf0>
10018e14:	f10c 0c01 	add.w	ip, ip, #1
10018e18:	3b01      	subs	r3, #1
10018e1a:	448c      	add	ip, r1
10018e1c:	f811 2b01 	ldrb.w	r2, [r1], #1
10018e20:	f803 2f01 	strb.w	r2, [r3, #1]!
10018e24:	4561      	cmp	r1, ip
10018e26:	d1f9      	bne.n	10018e1c <memmove+0x38>
10018e28:	4770      	bx	lr
10018e2a:	ea40 0301 	orr.w	r3, r0, r1
10018e2e:	079b      	lsls	r3, r3, #30
10018e30:	d151      	bne.n	10018ed6 <memmove+0xf2>
10018e32:	f1a2 0310 	sub.w	r3, r2, #16
10018e36:	b570      	push	{r4, r5, r6, lr}
10018e38:	f101 0c20 	add.w	ip, r1, #32
10018e3c:	f023 050f 	bic.w	r5, r3, #15
10018e40:	f101 0e10 	add.w	lr, r1, #16
10018e44:	f100 0410 	add.w	r4, r0, #16
10018e48:	44ac      	add	ip, r5
10018e4a:	091b      	lsrs	r3, r3, #4
10018e4c:	f85e 5c10 	ldr.w	r5, [lr, #-16]
10018e50:	f844 5c10 	str.w	r5, [r4, #-16]
10018e54:	f85e 5c0c 	ldr.w	r5, [lr, #-12]
10018e58:	f844 5c0c 	str.w	r5, [r4, #-12]
10018e5c:	f85e 5c08 	ldr.w	r5, [lr, #-8]
10018e60:	f844 5c08 	str.w	r5, [r4, #-8]
10018e64:	f85e 5c04 	ldr.w	r5, [lr, #-4]
10018e68:	f844 5c04 	str.w	r5, [r4, #-4]
10018e6c:	f10e 0e10 	add.w	lr, lr, #16
10018e70:	45e6      	cmp	lr, ip
10018e72:	f104 0410 	add.w	r4, r4, #16
10018e76:	d1e9      	bne.n	10018e4c <memmove+0x68>
10018e78:	3301      	adds	r3, #1
10018e7a:	f012 0f0c 	tst.w	r2, #12
10018e7e:	eb01 1103 	add.w	r1, r1, r3, lsl #4
10018e82:	f002 040f 	and.w	r4, r2, #15
10018e86:	eb00 1303 	add.w	r3, r0, r3, lsl #4
10018e8a:	d028      	beq.n	10018ede <memmove+0xfa>
10018e8c:	3c04      	subs	r4, #4
10018e8e:	f024 0603 	bic.w	r6, r4, #3
10018e92:	ea4f 0c94 	mov.w	ip, r4, lsr #2
10018e96:	441e      	add	r6, r3
10018e98:	1f1c      	subs	r4, r3, #4
10018e9a:	468e      	mov	lr, r1
10018e9c:	f85e 5b04 	ldr.w	r5, [lr], #4
10018ea0:	f844 5f04 	str.w	r5, [r4, #4]!
10018ea4:	42b4      	cmp	r4, r6
10018ea6:	d1f9      	bne.n	10018e9c <memmove+0xb8>
10018ea8:	f10c 0401 	add.w	r4, ip, #1
10018eac:	f002 0203 	and.w	r2, r2, #3
10018eb0:	eb03 0384 	add.w	r3, r3, r4, lsl #2
10018eb4:	eb01 0184 	add.w	r1, r1, r4, lsl #2
10018eb8:	f102 3cff 	add.w	ip, r2, #4294967295	@ 0xffffffff
10018ebc:	b14a      	cbz	r2, 10018ed2 <memmove+0xee>
10018ebe:	f10c 0c01 	add.w	ip, ip, #1
10018ec2:	3b01      	subs	r3, #1
10018ec4:	448c      	add	ip, r1
10018ec6:	f811 2b01 	ldrb.w	r2, [r1], #1
10018eca:	f803 2f01 	strb.w	r2, [r3, #1]!
10018ece:	4561      	cmp	r1, ip
10018ed0:	d1f9      	bne.n	10018ec6 <memmove+0xe2>
10018ed2:	bd70      	pop	{r4, r5, r6, pc}
10018ed4:	4770      	bx	lr
10018ed6:	f102 3cff 	add.w	ip, r2, #4294967295	@ 0xffffffff
10018eda:	4603      	mov	r3, r0
10018edc:	e79a      	b.n	10018e14 <memmove+0x30>
10018ede:	4622      	mov	r2, r4
10018ee0:	e7ea      	b.n	10018eb8 <memmove+0xd4>
10018ee2:	bf00      	nop

10018ee4 <__assert_func>:
10018ee4:	b500      	push	{lr}
10018ee6:	4c0b      	ldr	r4, [pc, #44]	@ (10018f14 <__assert_func+0x30>)
10018ee8:	6825      	ldr	r5, [r4, #0]
10018eea:	4614      	mov	r4, r2
10018eec:	68ee      	ldr	r6, [r5, #12]
10018eee:	461a      	mov	r2, r3
10018ef0:	b085      	sub	sp, #20
10018ef2:	4603      	mov	r3, r0
10018ef4:	460d      	mov	r5, r1
10018ef6:	b14c      	cbz	r4, 10018f0c <__assert_func+0x28>
10018ef8:	4907      	ldr	r1, [pc, #28]	@ (10018f18 <__assert_func+0x34>)
10018efa:	9500      	str	r5, [sp, #0]
10018efc:	e9cd 1401 	strd	r1, r4, [sp, #4]
10018f00:	4630      	mov	r0, r6
10018f02:	4906      	ldr	r1, [pc, #24]	@ (10018f1c <__assert_func+0x38>)
10018f04:	f001 f88a 	bl	1001a01c <fiprintf>
10018f08:	f001 f960 	bl	1001a1cc <abort>
10018f0c:	4904      	ldr	r1, [pc, #16]	@ (10018f20 <__assert_func+0x3c>)
10018f0e:	460c      	mov	r4, r1
10018f10:	e7f3      	b.n	10018efa <__assert_func+0x16>
10018f12:	bf00      	nop
10018f14:	200005b8 	.word	0x200005b8
10018f18:	1001b404 	.word	0x1001b404
10018f1c:	1001b414 	.word	0x1001b414
10018f20:	1001af58 	.word	0x1001af58

10018f24 <_fclose_r>:
10018f24:	b570      	push	{r4, r5, r6, lr}
10018f26:	2900      	cmp	r1, #0
10018f28:	d03f      	beq.n	10018faa <_fclose_r+0x86>
10018f2a:	4605      	mov	r5, r0
10018f2c:	460c      	mov	r4, r1
10018f2e:	b110      	cbz	r0, 10018f36 <_fclose_r+0x12>
10018f30:	6b43      	ldr	r3, [r0, #52]	@ 0x34
10018f32:	2b00      	cmp	r3, #0
10018f34:	d03c      	beq.n	10018fb0 <_fclose_r+0x8c>
10018f36:	6e63      	ldr	r3, [r4, #100]	@ 0x64
10018f38:	f9b4 200c 	ldrsh.w	r2, [r4, #12]
10018f3c:	07de      	lsls	r6, r3, #31
10018f3e:	d432      	bmi.n	10018fa6 <_fclose_r+0x82>
10018f40:	0590      	lsls	r0, r2, #22
10018f42:	d538      	bpl.n	10018fb6 <_fclose_r+0x92>
10018f44:	4621      	mov	r1, r4
10018f46:	4628      	mov	r0, r5
10018f48:	f000 fdac 	bl	10019aa4 <__sflush_r>
10018f4c:	6ae3      	ldr	r3, [r4, #44]	@ 0x2c
10018f4e:	4606      	mov	r6, r0
10018f50:	b133      	cbz	r3, 10018f60 <_fclose_r+0x3c>
10018f52:	69e1      	ldr	r1, [r4, #28]
10018f54:	4628      	mov	r0, r5
10018f56:	4798      	blx	r3
10018f58:	2800      	cmp	r0, #0
10018f5a:	bfb8      	it	lt
10018f5c:	f04f 36ff 	movlt.w	r6, #4294967295	@ 0xffffffff
10018f60:	89a3      	ldrh	r3, [r4, #12]
10018f62:	061a      	lsls	r2, r3, #24
10018f64:	d439      	bmi.n	10018fda <_fclose_r+0xb6>
10018f66:	6b21      	ldr	r1, [r4, #48]	@ 0x30
10018f68:	b141      	cbz	r1, 10018f7c <_fclose_r+0x58>
10018f6a:	f104 0340 	add.w	r3, r4, #64	@ 0x40
10018f6e:	4299      	cmp	r1, r3
10018f70:	d002      	beq.n	10018f78 <_fclose_r+0x54>
10018f72:	4628      	mov	r0, r5
10018f74:	f7fc fc44 	bl	10015800 <_free_r>
10018f78:	2300      	movs	r3, #0
10018f7a:	6323      	str	r3, [r4, #48]	@ 0x30
10018f7c:	6c61      	ldr	r1, [r4, #68]	@ 0x44
10018f7e:	b121      	cbz	r1, 10018f8a <_fclose_r+0x66>
10018f80:	4628      	mov	r0, r5
10018f82:	f7fc fc3d 	bl	10015800 <_free_r>
10018f86:	2300      	movs	r3, #0
10018f88:	6463      	str	r3, [r4, #68]	@ 0x44
10018f8a:	f7fc fa39 	bl	10015400 <__sfp_lock_acquire>
10018f8e:	6e63      	ldr	r3, [r4, #100]	@ 0x64
10018f90:	2200      	movs	r2, #0
10018f92:	07db      	lsls	r3, r3, #31
10018f94:	81a2      	strh	r2, [r4, #12]
10018f96:	d51c      	bpl.n	10018fd2 <_fclose_r+0xae>
10018f98:	6da0      	ldr	r0, [r4, #88]	@ 0x58
10018f9a:	f7fb f913 	bl	100141c4 <__retarget_lock_close_recursive>
10018f9e:	f7fc fa35 	bl	1001540c <__sfp_lock_release>
10018fa2:	4630      	mov	r0, r6
10018fa4:	bd70      	pop	{r4, r5, r6, pc}
10018fa6:	2a00      	cmp	r2, #0
10018fa8:	d1cc      	bne.n	10018f44 <_fclose_r+0x20>
10018faa:	2600      	movs	r6, #0
10018fac:	4630      	mov	r0, r6
10018fae:	bd70      	pop	{r4, r5, r6, pc}
10018fb0:	f7fc fa08 	bl	100153c4 <__sinit>
10018fb4:	e7bf      	b.n	10018f36 <_fclose_r+0x12>
10018fb6:	6da0      	ldr	r0, [r4, #88]	@ 0x58
10018fb8:	f7fb f906 	bl	100141c8 <__retarget_lock_acquire_recursive>
10018fbc:	f9b4 300c 	ldrsh.w	r3, [r4, #12]
10018fc0:	2b00      	cmp	r3, #0
10018fc2:	d1bf      	bne.n	10018f44 <_fclose_r+0x20>
10018fc4:	6e63      	ldr	r3, [r4, #100]	@ 0x64
10018fc6:	07d9      	lsls	r1, r3, #31
10018fc8:	d4ef      	bmi.n	10018faa <_fclose_r+0x86>
10018fca:	6da0      	ldr	r0, [r4, #88]	@ 0x58
10018fcc:	f7fb f8fe 	bl	100141cc <__retarget_lock_release_recursive>
10018fd0:	e7eb      	b.n	10018faa <_fclose_r+0x86>
10018fd2:	6da0      	ldr	r0, [r4, #88]	@ 0x58
10018fd4:	f7fb f8fa 	bl	100141cc <__retarget_lock_release_recursive>
10018fd8:	e7de      	b.n	10018f98 <_fclose_r+0x74>
10018fda:	6921      	ldr	r1, [r4, #16]
10018fdc:	4628      	mov	r0, r5
10018fde:	f7fc fc0f 	bl	10015800 <_free_r>
10018fe2:	e7c0      	b.n	10018f66 <_fclose_r+0x42>

10018fe4 <__swsetup_r>:
10018fe4:	b538      	push	{r3, r4, r5, lr}
10018fe6:	4b2e      	ldr	r3, [pc, #184]	@ (100190a0 <__swsetup_r+0xbc>)
10018fe8:	681b      	ldr	r3, [r3, #0]
10018fea:	4605      	mov	r5, r0
10018fec:	460c      	mov	r4, r1
10018fee:	b113      	cbz	r3, 10018ff6 <__swsetup_r+0x12>
10018ff0:	6b5a      	ldr	r2, [r3, #52]	@ 0x34
10018ff2:	2a00      	cmp	r2, #0
10018ff4:	d04b      	beq.n	1001908e <__swsetup_r+0xaa>
10018ff6:	f9b4 300c 	ldrsh.w	r3, [r4, #12]
10018ffa:	0718      	lsls	r0, r3, #28
10018ffc:	d51c      	bpl.n	10019038 <__swsetup_r+0x54>
10018ffe:	6922      	ldr	r2, [r4, #16]
10019000:	b322      	cbz	r2, 1001904c <__swsetup_r+0x68>
10019002:	f013 0101 	ands.w	r1, r3, #1
10019006:	d007      	beq.n	10019018 <__swsetup_r+0x34>
10019008:	6961      	ldr	r1, [r4, #20]
1001900a:	2000      	movs	r0, #0
1001900c:	4249      	negs	r1, r1
1001900e:	60a0      	str	r0, [r4, #8]
10019010:	61a1      	str	r1, [r4, #24]
10019012:	b13a      	cbz	r2, 10019024 <__swsetup_r+0x40>
10019014:	2000      	movs	r0, #0
10019016:	bd38      	pop	{r3, r4, r5, pc}
10019018:	0798      	lsls	r0, r3, #30
1001901a:	bf58      	it	pl
1001901c:	6961      	ldrpl	r1, [r4, #20]
1001901e:	60a1      	str	r1, [r4, #8]
10019020:	2a00      	cmp	r2, #0
10019022:	d1f7      	bne.n	10019014 <__swsetup_r+0x30>
10019024:	0619      	lsls	r1, r3, #24
10019026:	bf58      	it	pl
10019028:	4610      	movpl	r0, r2
1001902a:	d5f4      	bpl.n	10019016 <__swsetup_r+0x32>
1001902c:	f043 0340 	orr.w	r3, r3, #64	@ 0x40
10019030:	81a3      	strh	r3, [r4, #12]
10019032:	f04f 30ff 	mov.w	r0, #4294967295	@ 0xffffffff
10019036:	bd38      	pop	{r3, r4, r5, pc}
10019038:	06d9      	lsls	r1, r3, #27
1001903a:	d52c      	bpl.n	10019096 <__swsetup_r+0xb2>
1001903c:	075a      	lsls	r2, r3, #29
1001903e:	d412      	bmi.n	10019066 <__swsetup_r+0x82>
10019040:	6922      	ldr	r2, [r4, #16]
10019042:	f043 0308 	orr.w	r3, r3, #8
10019046:	81a3      	strh	r3, [r4, #12]
10019048:	2a00      	cmp	r2, #0
1001904a:	d1da      	bne.n	10019002 <__swsetup_r+0x1e>
1001904c:	f403 7120 	and.w	r1, r3, #640	@ 0x280
10019050:	f5b1 7f00 	cmp.w	r1, #512	@ 0x200
10019054:	d0d5      	beq.n	10019002 <__swsetup_r+0x1e>
10019056:	4621      	mov	r1, r4
10019058:	4628      	mov	r0, r5
1001905a:	f000 f823 	bl	100190a4 <__smakebuf_r>
1001905e:	f9b4 300c 	ldrsh.w	r3, [r4, #12]
10019062:	6922      	ldr	r2, [r4, #16]
10019064:	e7cd      	b.n	10019002 <__swsetup_r+0x1e>
10019066:	6b21      	ldr	r1, [r4, #48]	@ 0x30
10019068:	b151      	cbz	r1, 10019080 <__swsetup_r+0x9c>
1001906a:	f104 0240 	add.w	r2, r4, #64	@ 0x40
1001906e:	4291      	cmp	r1, r2
10019070:	d004      	beq.n	1001907c <__swsetup_r+0x98>
10019072:	4628      	mov	r0, r5
10019074:	f7fc fbc4 	bl	10015800 <_free_r>
10019078:	f9b4 300c 	ldrsh.w	r3, [r4, #12]
1001907c:	2200      	movs	r2, #0
1001907e:	6322      	str	r2, [r4, #48]	@ 0x30
10019080:	6922      	ldr	r2, [r4, #16]
10019082:	2100      	movs	r1, #0
10019084:	e9c4 2100 	strd	r2, r1, [r4]
10019088:	f023 0324 	bic.w	r3, r3, #36	@ 0x24
1001908c:	e7d9      	b.n	10019042 <__swsetup_r+0x5e>
1001908e:	4618      	mov	r0, r3
10019090:	f7fc f998 	bl	100153c4 <__sinit>
10019094:	e7af      	b.n	10018ff6 <__swsetup_r+0x12>
10019096:	2209      	movs	r2, #9
10019098:	602a      	str	r2, [r5, #0]
1001909a:	f043 0340 	orr.w	r3, r3, #64	@ 0x40
1001909e:	e7c7      	b.n	10019030 <__swsetup_r+0x4c>
100190a0:	200005b8 	.word	0x200005b8

100190a4 <__smakebuf_r>:
100190a4:	e92d 41f0 	stmdb	sp!, {r4, r5, r6, r7, r8, lr}
100190a8:	f9b1 300c 	ldrsh.w	r3, [r1, #12]
100190ac:	460c      	mov	r4, r1
100190ae:	0799      	lsls	r1, r3, #30
100190b0:	b096      	sub	sp, #88	@ 0x58
100190b2:	d508      	bpl.n	100190c6 <__smakebuf_r+0x22>
100190b4:	f104 0343 	add.w	r3, r4, #67	@ 0x43
100190b8:	2201      	movs	r2, #1
100190ba:	e9c4 3204 	strd	r3, r2, [r4, #16]
100190be:	6023      	str	r3, [r4, #0]
100190c0:	b016      	add	sp, #88	@ 0x58
100190c2:	e8bd 81f0 	ldmia.w	sp!, {r4, r5, r6, r7, r8, pc}
100190c6:	f9b4 100e 	ldrsh.w	r1, [r4, #14]
100190ca:	2900      	cmp	r1, #0
100190cc:	4606      	mov	r6, r0
100190ce:	db26      	blt.n	1001911e <__smakebuf_r+0x7a>
100190d0:	466a      	mov	r2, sp
100190d2:	f000 ff4f 	bl	10019f74 <_fstat_r>
100190d6:	2800      	cmp	r0, #0
100190d8:	db1f      	blt.n	1001911a <__smakebuf_r+0x76>
100190da:	9d01      	ldr	r5, [sp, #4]
100190dc:	f405 4570 	and.w	r5, r5, #61440	@ 0xf000
100190e0:	f5a5 5500 	sub.w	r5, r5, #8192	@ 0x2000
100190e4:	fab5 f585 	clz	r5, r5
100190e8:	f44f 6880 	mov.w	r8, #1024	@ 0x400
100190ec:	096d      	lsrs	r5, r5, #5
100190ee:	f44f 6700 	mov.w	r7, #2048	@ 0x800
100190f2:	4641      	mov	r1, r8
100190f4:	4630      	mov	r0, r6
100190f6:	f7fa fceb 	bl	10013ad0 <_malloc_r>
100190fa:	b1e8      	cbz	r0, 10019138 <__smakebuf_r+0x94>
100190fc:	f9b4 300c 	ldrsh.w	r3, [r4, #12]
10019100:	f8c4 8014 	str.w	r8, [r4, #20]
10019104:	f043 0380 	orr.w	r3, r3, #128	@ 0x80
10019108:	6020      	str	r0, [r4, #0]
1001910a:	6120      	str	r0, [r4, #16]
1001910c:	81a3      	strh	r3, [r4, #12]
1001910e:	bb3d      	cbnz	r5, 10019160 <__smakebuf_r+0xbc>
10019110:	433b      	orrs	r3, r7
10019112:	81a3      	strh	r3, [r4, #12]
10019114:	b016      	add	sp, #88	@ 0x58
10019116:	e8bd 81f0 	ldmia.w	sp!, {r4, r5, r6, r7, r8, pc}
1001911a:	f9b4 300c 	ldrsh.w	r3, [r4, #12]
1001911e:	f013 0580 	ands.w	r5, r3, #128	@ 0x80
10019122:	d019      	beq.n	10019158 <__smakebuf_r+0xb4>
10019124:	f04f 0840 	mov.w	r8, #64	@ 0x40
10019128:	2500      	movs	r5, #0
1001912a:	4641      	mov	r1, r8
1001912c:	4630      	mov	r0, r6
1001912e:	462f      	mov	r7, r5
10019130:	f7fa fcce 	bl	10013ad0 <_malloc_r>
10019134:	2800      	cmp	r0, #0
10019136:	d1e1      	bne.n	100190fc <__smakebuf_r+0x58>
10019138:	f9b4 300c 	ldrsh.w	r3, [r4, #12]
1001913c:	059a      	lsls	r2, r3, #22
1001913e:	d4bf      	bmi.n	100190c0 <__smakebuf_r+0x1c>
10019140:	f023 0303 	bic.w	r3, r3, #3
10019144:	f104 0243 	add.w	r2, r4, #67	@ 0x43
10019148:	f043 0302 	orr.w	r3, r3, #2
1001914c:	2101      	movs	r1, #1
1001914e:	e9c4 2104 	strd	r2, r1, [r4, #16]
10019152:	81a3      	strh	r3, [r4, #12]
10019154:	6022      	str	r2, [r4, #0]
10019156:	e7b3      	b.n	100190c0 <__smakebuf_r+0x1c>
10019158:	f44f 6880 	mov.w	r8, #1024	@ 0x400
1001915c:	462f      	mov	r7, r5
1001915e:	e7c8      	b.n	100190f2 <__smakebuf_r+0x4e>
10019160:	f9b4 100e 	ldrsh.w	r1, [r4, #14]
10019164:	4630      	mov	r0, r6
10019166:	f000 ff1b 	bl	10019fa0 <_isatty_r>
1001916a:	b910      	cbnz	r0, 10019172 <__smakebuf_r+0xce>
1001916c:	f9b4 300c 	ldrsh.w	r3, [r4, #12]
10019170:	e7ce      	b.n	10019110 <__smakebuf_r+0x6c>
10019172:	89a3      	ldrh	r3, [r4, #12]
10019174:	f023 0303 	bic.w	r3, r3, #3
10019178:	f043 0301 	orr.w	r3, r3, #1
1001917c:	b21b      	sxth	r3, r3
1001917e:	e7c7      	b.n	10019110 <__smakebuf_r+0x6c>

10019180 <_Balloc>:
10019180:	6c43      	ldr	r3, [r0, #68]	@ 0x44
10019182:	b570      	push	{r4, r5, r6, lr}
10019184:	4605      	mov	r5, r0
10019186:	460c      	mov	r4, r1
10019188:	b14b      	cbz	r3, 1001919e <_Balloc+0x1e>
1001918a:	f853 0024 	ldr.w	r0, [r3, r4, lsl #2]
1001918e:	b180      	cbz	r0, 100191b2 <_Balloc+0x32>
10019190:	6802      	ldr	r2, [r0, #0]
10019192:	f843 2024 	str.w	r2, [r3, r4, lsl #2]
10019196:	2300      	movs	r3, #0
10019198:	60c3      	str	r3, [r0, #12]
1001919a:	6103      	str	r3, [r0, #16]
1001919c:	bd70      	pop	{r4, r5, r6, pc}
1001919e:	2221      	movs	r2, #33	@ 0x21
100191a0:	2104      	movs	r1, #4
100191a2:	f000 fba7 	bl	100198f4 <_calloc_r>
100191a6:	4603      	mov	r3, r0
100191a8:	6468      	str	r0, [r5, #68]	@ 0x44
100191aa:	2800      	cmp	r0, #0
100191ac:	d1ed      	bne.n	1001918a <_Balloc+0xa>
100191ae:	2000      	movs	r0, #0
100191b0:	bd70      	pop	{r4, r5, r6, pc}
100191b2:	2101      	movs	r1, #1
100191b4:	fa01 f604 	lsl.w	r6, r1, r4
100191b8:	1d72      	adds	r2, r6, #5
100191ba:	0092      	lsls	r2, r2, #2
100191bc:	4628      	mov	r0, r5
100191be:	f000 fb99 	bl	100198f4 <_calloc_r>
100191c2:	2800      	cmp	r0, #0
100191c4:	d0f3      	beq.n	100191ae <_Balloc+0x2e>
100191c6:	e9c0 4601 	strd	r4, r6, [r0, #4]
100191ca:	e7e4      	b.n	10019196 <_Balloc+0x16>

100191cc <_Bfree>:
100191cc:	b131      	cbz	r1, 100191dc <_Bfree+0x10>
100191ce:	6c43      	ldr	r3, [r0, #68]	@ 0x44
100191d0:	684a      	ldr	r2, [r1, #4]
100191d2:	f853 0022 	ldr.w	r0, [r3, r2, lsl #2]
100191d6:	6008      	str	r0, [r1, #0]
100191d8:	f843 1022 	str.w	r1, [r3, r2, lsl #2]
100191dc:	4770      	bx	lr
100191de:	bf00      	nop

100191e0 <__multadd>:
100191e0:	e92d 41f0 	stmdb	sp!, {r4, r5, r6, r7, r8, lr}
100191e4:	690d      	ldr	r5, [r1, #16]
100191e6:	4607      	mov	r7, r0
100191e8:	460e      	mov	r6, r1
100191ea:	461c      	mov	r4, r3
100191ec:	f101 0e14 	add.w	lr, r1, #20
100191f0:	2000      	movs	r0, #0
100191f2:	f8de 1000 	ldr.w	r1, [lr]
100191f6:	b28b      	uxth	r3, r1
100191f8:	fb02 4303 	mla	r3, r2, r3, r4
100191fc:	ea4f 4c13 	mov.w	ip, r3, lsr #16
10019200:	0c09      	lsrs	r1, r1, #16
10019202:	fb02 cc01 	mla	ip, r2, r1, ip
10019206:	3001      	adds	r0, #1
10019208:	b29b      	uxth	r3, r3
1001920a:	eb03 430c 	add.w	r3, r3, ip, lsl #16
1001920e:	4285      	cmp	r5, r0
10019210:	f84e 3b04 	str.w	r3, [lr], #4
10019214:	ea4f 441c 	mov.w	r4, ip, lsr #16
10019218:	dceb      	bgt.n	100191f2 <__multadd+0x12>
1001921a:	b13c      	cbz	r4, 1001922c <__multadd+0x4c>
1001921c:	68b3      	ldr	r3, [r6, #8]
1001921e:	42ab      	cmp	r3, r5
10019220:	dd07      	ble.n	10019232 <__multadd+0x52>
10019222:	eb06 0385 	add.w	r3, r6, r5, lsl #2
10019226:	3501      	adds	r5, #1
10019228:	615c      	str	r4, [r3, #20]
1001922a:	6135      	str	r5, [r6, #16]
1001922c:	4630      	mov	r0, r6
1001922e:	e8bd 81f0 	ldmia.w	sp!, {r4, r5, r6, r7, r8, pc}
10019232:	6871      	ldr	r1, [r6, #4]
10019234:	4638      	mov	r0, r7
10019236:	3101      	adds	r1, #1
10019238:	f7ff ffa2 	bl	10019180 <_Balloc>
1001923c:	4680      	mov	r8, r0
1001923e:	b1a8      	cbz	r0, 1001926c <__multadd+0x8c>
10019240:	6932      	ldr	r2, [r6, #16]
10019242:	3202      	adds	r2, #2
10019244:	f106 010c 	add.w	r1, r6, #12
10019248:	0092      	lsls	r2, r2, #2
1001924a:	300c      	adds	r0, #12
1001924c:	f7fc f938 	bl	100154c0 <memcpy>
10019250:	6c7b      	ldr	r3, [r7, #68]	@ 0x44
10019252:	6872      	ldr	r2, [r6, #4]
10019254:	f853 1022 	ldr.w	r1, [r3, r2, lsl #2]
10019258:	6031      	str	r1, [r6, #0]
1001925a:	f843 6022 	str.w	r6, [r3, r2, lsl #2]
1001925e:	4646      	mov	r6, r8
10019260:	eb06 0385 	add.w	r3, r6, r5, lsl #2
10019264:	3501      	adds	r5, #1
10019266:	615c      	str	r4, [r3, #20]
10019268:	6135      	str	r5, [r6, #16]
1001926a:	e7df      	b.n	1001922c <__multadd+0x4c>
1001926c:	4b02      	ldr	r3, [pc, #8]	@ (10019278 <__multadd+0x98>)
1001926e:	4803      	ldr	r0, [pc, #12]	@ (1001927c <__multadd+0x9c>)
10019270:	4642      	mov	r2, r8
10019272:	21ba      	movs	r1, #186	@ 0xba
10019274:	f7ff fe36 	bl	10018ee4 <__assert_func>
10019278:	1001b250 	.word	0x1001b250
1001927c:	1001b444 	.word	0x1001b444

10019280 <__hi0bits>:
10019280:	f5b0 3f80 	cmp.w	r0, #65536	@ 0x10000
10019284:	4603      	mov	r3, r0
10019286:	bf36      	itet	cc
10019288:	0403      	lslcc	r3, r0, #16
1001928a:	2000      	movcs	r0, #0
1001928c:	2010      	movcc	r0, #16
1001928e:	f1b3 7f80 	cmp.w	r3, #16777216	@ 0x1000000
10019292:	bf3c      	itt	cc
10019294:	021b      	lslcc	r3, r3, #8
10019296:	3008      	addcc	r0, #8
10019298:	f1b3 5f80 	cmp.w	r3, #268435456	@ 0x10000000
1001929c:	bf3c      	itt	cc
1001929e:	011b      	lslcc	r3, r3, #4
100192a0:	3004      	addcc	r0, #4
100192a2:	f1b3 4f80 	cmp.w	r3, #1073741824	@ 0x40000000
100192a6:	d303      	bcc.n	100192b0 <__hi0bits+0x30>
100192a8:	2b00      	cmp	r3, #0
100192aa:	db06      	blt.n	100192ba <__hi0bits+0x3a>
100192ac:	3001      	adds	r0, #1
100192ae:	4770      	bx	lr
100192b0:	009b      	lsls	r3, r3, #2
100192b2:	d403      	bmi.n	100192bc <__hi0bits+0x3c>
100192b4:	005b      	lsls	r3, r3, #1
100192b6:	d403      	bmi.n	100192c0 <__hi0bits+0x40>
100192b8:	2020      	movs	r0, #32
100192ba:	4770      	bx	lr
100192bc:	3002      	adds	r0, #2
100192be:	4770      	bx	lr
100192c0:	3003      	adds	r0, #3
100192c2:	4770      	bx	lr

100192c4 <__lo0bits>:
100192c4:	6803      	ldr	r3, [r0, #0]
100192c6:	f013 0207 	ands.w	r2, r3, #7
100192ca:	4601      	mov	r1, r0
100192cc:	d007      	beq.n	100192de <__lo0bits+0x1a>
100192ce:	07da      	lsls	r2, r3, #31
100192d0:	d41f      	bmi.n	10019312 <__lo0bits+0x4e>
100192d2:	0798      	lsls	r0, r3, #30
100192d4:	d521      	bpl.n	1001931a <__lo0bits+0x56>
100192d6:	085b      	lsrs	r3, r3, #1
100192d8:	600b      	str	r3, [r1, #0]
100192da:	2001      	movs	r0, #1
100192dc:	4770      	bx	lr
100192de:	b298      	uxth	r0, r3
100192e0:	b1a0      	cbz	r0, 1001930c <__lo0bits+0x48>
100192e2:	4610      	mov	r0, r2
100192e4:	b2da      	uxtb	r2, r3
100192e6:	b90a      	cbnz	r2, 100192ec <__lo0bits+0x28>
100192e8:	3008      	adds	r0, #8
100192ea:	0a1b      	lsrs	r3, r3, #8
100192ec:	071a      	lsls	r2, r3, #28
100192ee:	bf04      	itt	eq
100192f0:	091b      	lsreq	r3, r3, #4
100192f2:	3004      	addeq	r0, #4
100192f4:	079a      	lsls	r2, r3, #30
100192f6:	bf04      	itt	eq
100192f8:	089b      	lsreq	r3, r3, #2
100192fa:	3002      	addeq	r0, #2
100192fc:	07da      	lsls	r2, r3, #31
100192fe:	d403      	bmi.n	10019308 <__lo0bits+0x44>
10019300:	085b      	lsrs	r3, r3, #1
10019302:	f100 0001 	add.w	r0, r0, #1
10019306:	d006      	beq.n	10019316 <__lo0bits+0x52>
10019308:	600b      	str	r3, [r1, #0]
1001930a:	4770      	bx	lr
1001930c:	0c1b      	lsrs	r3, r3, #16
1001930e:	2010      	movs	r0, #16
10019310:	e7e8      	b.n	100192e4 <__lo0bits+0x20>
10019312:	2000      	movs	r0, #0
10019314:	4770      	bx	lr
10019316:	2020      	movs	r0, #32
10019318:	4770      	bx	lr
1001931a:	089b      	lsrs	r3, r3, #2
1001931c:	600b      	str	r3, [r1, #0]
1001931e:	2002      	movs	r0, #2
10019320:	4770      	bx	lr
10019322:	bf00      	nop

10019324 <__i2b>:
10019324:	b538      	push	{r3, r4, r5, lr}
10019326:	6c43      	ldr	r3, [r0, #68]	@ 0x44
10019328:	4604      	mov	r4, r0
1001932a:	460d      	mov	r5, r1
1001932c:	b14b      	cbz	r3, 10019342 <__i2b+0x1e>
1001932e:	6858      	ldr	r0, [r3, #4]
10019330:	b1b0      	cbz	r0, 10019360 <__i2b+0x3c>
10019332:	6802      	ldr	r2, [r0, #0]
10019334:	605a      	str	r2, [r3, #4]
10019336:	2200      	movs	r2, #0
10019338:	2301      	movs	r3, #1
1001933a:	6145      	str	r5, [r0, #20]
1001933c:	60c2      	str	r2, [r0, #12]
1001933e:	6103      	str	r3, [r0, #16]
10019340:	bd38      	pop	{r3, r4, r5, pc}
10019342:	2221      	movs	r2, #33	@ 0x21
10019344:	2104      	movs	r1, #4
10019346:	f000 fad5 	bl	100198f4 <_calloc_r>
1001934a:	4603      	mov	r3, r0
1001934c:	6460      	str	r0, [r4, #68]	@ 0x44
1001934e:	2800      	cmp	r0, #0
10019350:	d1ed      	bne.n	1001932e <__i2b+0xa>
10019352:	4b09      	ldr	r3, [pc, #36]	@ (10019378 <__i2b+0x54>)
10019354:	4809      	ldr	r0, [pc, #36]	@ (1001937c <__i2b+0x58>)
10019356:	2200      	movs	r2, #0
10019358:	f240 1145 	movw	r1, #325	@ 0x145
1001935c:	f7ff fdc2 	bl	10018ee4 <__assert_func>
10019360:	221c      	movs	r2, #28
10019362:	2101      	movs	r1, #1
10019364:	4620      	mov	r0, r4
10019366:	f000 fac5 	bl	100198f4 <_calloc_r>
1001936a:	2800      	cmp	r0, #0
1001936c:	d0f1      	beq.n	10019352 <__i2b+0x2e>
1001936e:	2201      	movs	r2, #1
10019370:	2302      	movs	r3, #2
10019372:	6042      	str	r2, [r0, #4]
10019374:	6083      	str	r3, [r0, #8]
10019376:	e7de      	b.n	10019336 <__i2b+0x12>
10019378:	1001b250 	.word	0x1001b250
1001937c:	1001b444 	.word	0x1001b444

10019380 <__multiply>:
10019380:	e92d 4ff0 	stmdb	sp!, {r4, r5, r6, r7, r8, r9, sl, fp, lr}
10019384:	f8d1 8010 	ldr.w	r8, [r1, #16]
10019388:	6915      	ldr	r5, [r2, #16]
1001938a:	45a8      	cmp	r8, r5
1001938c:	b085      	sub	sp, #20
1001938e:	460e      	mov	r6, r1
10019390:	4692      	mov	sl, r2
10019392:	db05      	blt.n	100193a0 <__multiply+0x20>
10019394:	462a      	mov	r2, r5
10019396:	4653      	mov	r3, sl
10019398:	4645      	mov	r5, r8
1001939a:	468a      	mov	sl, r1
1001939c:	4690      	mov	r8, r2
1001939e:	461e      	mov	r6, r3
100193a0:	f8da 3008 	ldr.w	r3, [sl, #8]
100193a4:	f8da 1004 	ldr.w	r1, [sl, #4]
100193a8:	eb05 0408 	add.w	r4, r5, r8
100193ac:	42a3      	cmp	r3, r4
100193ae:	bfb8      	it	lt
100193b0:	3101      	addlt	r1, #1
100193b2:	f7ff fee5 	bl	10019180 <_Balloc>
100193b6:	4684      	mov	ip, r0
100193b8:	2800      	cmp	r0, #0
100193ba:	f000 808b 	beq.w	100194d4 <__multiply+0x154>
100193be:	f100 0714 	add.w	r7, r0, #20
100193c2:	eb07 0e84 	add.w	lr, r7, r4, lsl #2
100193c6:	4577      	cmp	r7, lr
100193c8:	d205      	bcs.n	100193d6 <__multiply+0x56>
100193ca:	463b      	mov	r3, r7
100193cc:	2200      	movs	r2, #0
100193ce:	f843 2b04 	str.w	r2, [r3], #4
100193d2:	459e      	cmp	lr, r3
100193d4:	d8fb      	bhi.n	100193ce <__multiply+0x4e>
100193d6:	3614      	adds	r6, #20
100193d8:	eb06 0888 	add.w	r8, r6, r8, lsl #2
100193dc:	f10a 0914 	add.w	r9, sl, #20
100193e0:	4546      	cmp	r6, r8
100193e2:	eb09 0585 	add.w	r5, r9, r5, lsl #2
100193e6:	d266      	bcs.n	100194b6 <__multiply+0x136>
100193e8:	eba5 030a 	sub.w	r3, r5, sl
100193ec:	3b15      	subs	r3, #21
100193ee:	f023 0303 	bic.w	r3, r3, #3
100193f2:	f10a 0a15 	add.w	sl, sl, #21
100193f6:	3304      	adds	r3, #4
100193f8:	4555      	cmp	r5, sl
100193fa:	bf2c      	ite	cs
100193fc:	469b      	movcs	fp, r3
100193fe:	f04f 0b04 	movcc.w	fp, #4
10019402:	f8cd e008 	str.w	lr, [sp, #8]
10019406:	9403      	str	r4, [sp, #12]
10019408:	46ae      	mov	lr, r5
1001940a:	46e2      	mov	sl, ip
1001940c:	e005      	b.n	1001941a <__multiply+0x9a>
1001940e:	0c09      	lsrs	r1, r1, #16
10019410:	d12a      	bne.n	10019468 <__multiply+0xe8>
10019412:	45b0      	cmp	r8, r6
10019414:	f107 0704 	add.w	r7, r7, #4
10019418:	d94a      	bls.n	100194b0 <__multiply+0x130>
1001941a:	f856 1b04 	ldr.w	r1, [r6], #4
1001941e:	b28d      	uxth	r5, r1
10019420:	2d00      	cmp	r5, #0
10019422:	d0f4      	beq.n	1001940e <__multiply+0x8e>
10019424:	46cc      	mov	ip, r9
10019426:	463c      	mov	r4, r7
10019428:	2300      	movs	r3, #0
1001942a:	9601      	str	r6, [sp, #4]
1001942c:	f85c 0b04 	ldr.w	r0, [ip], #4
10019430:	6821      	ldr	r1, [r4, #0]
10019432:	b286      	uxth	r6, r0
10019434:	b28a      	uxth	r2, r1
10019436:	0c00      	lsrs	r0, r0, #16
10019438:	fb05 2206 	mla	r2, r5, r6, r2
1001943c:	0c09      	lsrs	r1, r1, #16
1001943e:	441a      	add	r2, r3
10019440:	fb05 1100 	mla	r1, r5, r0, r1
10019444:	eb01 4112 	add.w	r1, r1, r2, lsr #16
10019448:	b292      	uxth	r2, r2
1001944a:	ea42 4201 	orr.w	r2, r2, r1, lsl #16
1001944e:	45e6      	cmp	lr, ip
10019450:	f844 2b04 	str.w	r2, [r4], #4
10019454:	ea4f 4311 	mov.w	r3, r1, lsr #16
10019458:	d8e8      	bhi.n	1001942c <__multiply+0xac>
1001945a:	9e01      	ldr	r6, [sp, #4]
1001945c:	f847 300b 	str.w	r3, [r7, fp]
10019460:	f856 1c04 	ldr.w	r1, [r6, #-4]
10019464:	0c09      	lsrs	r1, r1, #16
10019466:	d0d4      	beq.n	10019412 <__multiply+0x92>
10019468:	683b      	ldr	r3, [r7, #0]
1001946a:	2200      	movs	r2, #0
1001946c:	4648      	mov	r0, r9
1001946e:	461d      	mov	r5, r3
10019470:	463c      	mov	r4, r7
10019472:	4694      	mov	ip, r2
10019474:	8802      	ldrh	r2, [r0, #0]
10019476:	fb01 c202 	mla	r2, r1, r2, ip
1001947a:	eb02 4215 	add.w	r2, r2, r5, lsr #16
1001947e:	b29b      	uxth	r3, r3
10019480:	ea43 4302 	orr.w	r3, r3, r2, lsl #16
10019484:	f844 3b04 	str.w	r3, [r4], #4
10019488:	f850 3b04 	ldr.w	r3, [r0], #4
1001948c:	6825      	ldr	r5, [r4, #0]
1001948e:	ea4f 4c13 	mov.w	ip, r3, lsr #16
10019492:	b2ab      	uxth	r3, r5
10019494:	fb01 330c 	mla	r3, r1, ip, r3
10019498:	eb03 4312 	add.w	r3, r3, r2, lsr #16
1001949c:	4586      	cmp	lr, r0
1001949e:	ea4f 4c13 	mov.w	ip, r3, lsr #16
100194a2:	d8e7      	bhi.n	10019474 <__multiply+0xf4>
100194a4:	45b0      	cmp	r8, r6
100194a6:	f847 300b 	str.w	r3, [r7, fp]
100194aa:	f107 0704 	add.w	r7, r7, #4
100194ae:	d8b4      	bhi.n	1001941a <__multiply+0x9a>
100194b0:	e9dd e402 	ldrd	lr, r4, [sp, #8]
100194b4:	46d4      	mov	ip, sl
100194b6:	2c00      	cmp	r4, #0
100194b8:	dc02      	bgt.n	100194c0 <__multiply+0x140>
100194ba:	e005      	b.n	100194c8 <__multiply+0x148>
100194bc:	3c01      	subs	r4, #1
100194be:	d003      	beq.n	100194c8 <__multiply+0x148>
100194c0:	f85e 3d04 	ldr.w	r3, [lr, #-4]!
100194c4:	2b00      	cmp	r3, #0
100194c6:	d0f9      	beq.n	100194bc <__multiply+0x13c>
100194c8:	4660      	mov	r0, ip
100194ca:	f8cc 4010 	str.w	r4, [ip, #16]
100194ce:	b005      	add	sp, #20
100194d0:	e8bd 8ff0 	ldmia.w	sp!, {r4, r5, r6, r7, r8, r9, sl, fp, pc}
100194d4:	4b03      	ldr	r3, [pc, #12]	@ (100194e4 <__multiply+0x164>)
100194d6:	4804      	ldr	r0, [pc, #16]	@ (100194e8 <__multiply+0x168>)
100194d8:	4662      	mov	r2, ip
100194da:	f44f 71b1 	mov.w	r1, #354	@ 0x162
100194de:	f7ff fd01 	bl	10018ee4 <__assert_func>
100194e2:	bf00      	nop
100194e4:	1001b250 	.word	0x1001b250
100194e8:	1001b444 	.word	0x1001b444

100194ec <__pow5mult>:
100194ec:	f012 0303 	ands.w	r3, r2, #3
100194f0:	e92d 41f0 	stmdb	sp!, {r4, r5, r6, r7, r8, lr}
100194f4:	4614      	mov	r4, r2
100194f6:	4607      	mov	r7, r0
100194f8:	d12c      	bne.n	10019554 <__pow5mult+0x68>
100194fa:	460d      	mov	r5, r1
100194fc:	10a4      	asrs	r4, r4, #2
100194fe:	d01c      	beq.n	1001953a <__pow5mult+0x4e>
10019500:	6c3e      	ldr	r6, [r7, #64]	@ 0x40
10019502:	b386      	cbz	r6, 10019566 <__pow5mult+0x7a>
10019504:	07e3      	lsls	r3, r4, #31
10019506:	f04f 0800 	mov.w	r8, #0
1001950a:	d406      	bmi.n	1001951a <__pow5mult+0x2e>
1001950c:	1064      	asrs	r4, r4, #1
1001950e:	d014      	beq.n	1001953a <__pow5mult+0x4e>
10019510:	6830      	ldr	r0, [r6, #0]
10019512:	b1a8      	cbz	r0, 10019540 <__pow5mult+0x54>
10019514:	4606      	mov	r6, r0
10019516:	07e3      	lsls	r3, r4, #31
10019518:	d5f8      	bpl.n	1001950c <__pow5mult+0x20>
1001951a:	4632      	mov	r2, r6
1001951c:	4629      	mov	r1, r5
1001951e:	4638      	mov	r0, r7
10019520:	f7ff ff2e 	bl	10019380 <__multiply>
10019524:	b135      	cbz	r5, 10019534 <__pow5mult+0x48>
10019526:	6c7b      	ldr	r3, [r7, #68]	@ 0x44
10019528:	6869      	ldr	r1, [r5, #4]
1001952a:	f853 2021 	ldr.w	r2, [r3, r1, lsl #2]
1001952e:	602a      	str	r2, [r5, #0]
10019530:	f843 5021 	str.w	r5, [r3, r1, lsl #2]
10019534:	1064      	asrs	r4, r4, #1
10019536:	4605      	mov	r5, r0
10019538:	d1ea      	bne.n	10019510 <__pow5mult+0x24>
1001953a:	4628      	mov	r0, r5
1001953c:	e8bd 81f0 	ldmia.w	sp!, {r4, r5, r6, r7, r8, pc}
10019540:	4632      	mov	r2, r6
10019542:	4631      	mov	r1, r6
10019544:	4638      	mov	r0, r7
10019546:	f7ff ff1b 	bl	10019380 <__multiply>
1001954a:	6030      	str	r0, [r6, #0]
1001954c:	f8c0 8000 	str.w	r8, [r0]
10019550:	4606      	mov	r6, r0
10019552:	e7e0      	b.n	10019516 <__pow5mult+0x2a>
10019554:	3b01      	subs	r3, #1
10019556:	4a0f      	ldr	r2, [pc, #60]	@ (10019594 <__pow5mult+0xa8>)
10019558:	f852 2023 	ldr.w	r2, [r2, r3, lsl #2]
1001955c:	2300      	movs	r3, #0
1001955e:	f7ff fe3f 	bl	100191e0 <__multadd>
10019562:	4605      	mov	r5, r0
10019564:	e7ca      	b.n	100194fc <__pow5mult+0x10>
10019566:	2101      	movs	r1, #1
10019568:	4638      	mov	r0, r7
1001956a:	f7ff fe09 	bl	10019180 <_Balloc>
1001956e:	4606      	mov	r6, r0
10019570:	b140      	cbz	r0, 10019584 <__pow5mult+0x98>
10019572:	2301      	movs	r3, #1
10019574:	f240 2271 	movw	r2, #625	@ 0x271
10019578:	e9c0 3204 	strd	r3, r2, [r0, #16]
1001957c:	2300      	movs	r3, #0
1001957e:	6438      	str	r0, [r7, #64]	@ 0x40
10019580:	6003      	str	r3, [r0, #0]
10019582:	e7bf      	b.n	10019504 <__pow5mult+0x18>
10019584:	4b04      	ldr	r3, [pc, #16]	@ (10019598 <__pow5mult+0xac>)
10019586:	4805      	ldr	r0, [pc, #20]	@ (1001959c <__pow5mult+0xb0>)
10019588:	4632      	mov	r2, r6
1001958a:	f240 1145 	movw	r1, #325	@ 0x145
1001958e:	f7ff fca9 	bl	10018ee4 <__assert_func>
10019592:	bf00      	nop
10019594:	1001b4a0 	.word	0x1001b4a0
10019598:	1001b250 	.word	0x1001b250
1001959c:	1001b444 	.word	0x1001b444

100195a0 <__lshift>:
100195a0:	e92d 47f0 	stmdb	sp!, {r4, r5, r6, r7, r8, r9, sl, lr}
100195a4:	460c      	mov	r4, r1
100195a6:	4690      	mov	r8, r2
100195a8:	6927      	ldr	r7, [r4, #16]
100195aa:	68a3      	ldr	r3, [r4, #8]
100195ac:	6849      	ldr	r1, [r1, #4]
100195ae:	eb07 1762 	add.w	r7, r7, r2, asr #5
100195b2:	1c7d      	adds	r5, r7, #1
100195b4:	429d      	cmp	r5, r3
100195b6:	4606      	mov	r6, r0
100195b8:	ea4f 1962 	mov.w	r9, r2, asr #5
100195bc:	dd04      	ble.n	100195c8 <__lshift+0x28>
100195be:	005b      	lsls	r3, r3, #1
100195c0:	429d      	cmp	r5, r3
100195c2:	f101 0101 	add.w	r1, r1, #1
100195c6:	dcfa      	bgt.n	100195be <__lshift+0x1e>
100195c8:	4630      	mov	r0, r6
100195ca:	f7ff fdd9 	bl	10019180 <_Balloc>
100195ce:	4684      	mov	ip, r0
100195d0:	2800      	cmp	r0, #0
100195d2:	d051      	beq.n	10019678 <__lshift+0xd8>
100195d4:	f1b9 0f00 	cmp.w	r9, #0
100195d8:	f100 0014 	add.w	r0, r0, #20
100195dc:	dd0e      	ble.n	100195fc <__lshift+0x5c>
100195de:	f109 0205 	add.w	r2, r9, #5
100195e2:	ea4f 0e82 	mov.w	lr, r2, lsl #2
100195e6:	4603      	mov	r3, r0
100195e8:	eb0c 0282 	add.w	r2, ip, r2, lsl #2
100195ec:	2100      	movs	r1, #0
100195ee:	f843 1b04 	str.w	r1, [r3], #4
100195f2:	4293      	cmp	r3, r2
100195f4:	d1fb      	bne.n	100195ee <__lshift+0x4e>
100195f6:	f1ae 0314 	sub.w	r3, lr, #20
100195fa:	4418      	add	r0, r3
100195fc:	6921      	ldr	r1, [r4, #16]
100195fe:	f104 0314 	add.w	r3, r4, #20
10019602:	f018 081f 	ands.w	r8, r8, #31
10019606:	eb03 0181 	add.w	r1, r3, r1, lsl #2
1001960a:	d02d      	beq.n	10019668 <__lshift+0xc8>
1001960c:	f1c8 0920 	rsb	r9, r8, #32
10019610:	4686      	mov	lr, r0
10019612:	f04f 0a00 	mov.w	sl, #0
10019616:	681a      	ldr	r2, [r3, #0]
10019618:	fa02 f208 	lsl.w	r2, r2, r8
1001961c:	ea42 020a 	orr.w	r2, r2, sl
10019620:	f84e 2b04 	str.w	r2, [lr], #4
10019624:	f853 2b04 	ldr.w	r2, [r3], #4
10019628:	4299      	cmp	r1, r3
1001962a:	fa22 fa09 	lsr.w	sl, r2, r9
1001962e:	d8f2      	bhi.n	10019616 <__lshift+0x76>
10019630:	1b0b      	subs	r3, r1, r4
10019632:	3b15      	subs	r3, #21
10019634:	f023 0303 	bic.w	r3, r3, #3
10019638:	3304      	adds	r3, #4
1001963a:	f104 0215 	add.w	r2, r4, #21
1001963e:	4291      	cmp	r1, r2
10019640:	bf38      	it	cc
10019642:	2304      	movcc	r3, #4
10019644:	f840 a003 	str.w	sl, [r0, r3]
10019648:	f1ba 0f00 	cmp.w	sl, #0
1001964c:	d100      	bne.n	10019650 <__lshift+0xb0>
1001964e:	463d      	mov	r5, r7
10019650:	6c73      	ldr	r3, [r6, #68]	@ 0x44
10019652:	6862      	ldr	r2, [r4, #4]
10019654:	f8cc 5010 	str.w	r5, [ip, #16]
10019658:	f853 1022 	ldr.w	r1, [r3, r2, lsl #2]
1001965c:	6021      	str	r1, [r4, #0]
1001965e:	4660      	mov	r0, ip
10019660:	f843 4022 	str.w	r4, [r3, r2, lsl #2]
10019664:	e8bd 87f0 	ldmia.w	sp!, {r4, r5, r6, r7, r8, r9, sl, pc}
10019668:	3804      	subs	r0, #4
1001966a:	f853 2b04 	ldr.w	r2, [r3], #4
1001966e:	f840 2f04 	str.w	r2, [r0, #4]!
10019672:	4299      	cmp	r1, r3
10019674:	d8f9      	bhi.n	1001966a <__lshift+0xca>
10019676:	e7ea      	b.n	1001964e <__lshift+0xae>
10019678:	4b03      	ldr	r3, [pc, #12]	@ (10019688 <__lshift+0xe8>)
1001967a:	4804      	ldr	r0, [pc, #16]	@ (1001968c <__lshift+0xec>)
1001967c:	4662      	mov	r2, ip
1001967e:	f44f 71ef 	mov.w	r1, #478	@ 0x1de
10019682:	f7ff fc2f 	bl	10018ee4 <__assert_func>
10019686:	bf00      	nop
10019688:	1001b250 	.word	0x1001b250
1001968c:	1001b444 	.word	0x1001b444

10019690 <__mcmp>:
10019690:	690b      	ldr	r3, [r1, #16]
10019692:	4684      	mov	ip, r0
10019694:	6900      	ldr	r0, [r0, #16]
10019696:	1ac0      	subs	r0, r0, r3
10019698:	d116      	bne.n	100196c8 <__mcmp+0x38>
1001969a:	f10c 0c14 	add.w	ip, ip, #20
1001969e:	3114      	adds	r1, #20
100196a0:	eb0c 0283 	add.w	r2, ip, r3, lsl #2
100196a4:	b410      	push	{r4}
100196a6:	eb01 0383 	add.w	r3, r1, r3, lsl #2
100196aa:	e001      	b.n	100196b0 <__mcmp+0x20>
100196ac:	4594      	cmp	ip, r2
100196ae:	d208      	bcs.n	100196c2 <__mcmp+0x32>
100196b0:	f852 4d04 	ldr.w	r4, [r2, #-4]!
100196b4:	f853 1d04 	ldr.w	r1, [r3, #-4]!
100196b8:	428c      	cmp	r4, r1
100196ba:	d0f7      	beq.n	100196ac <__mcmp+0x1c>
100196bc:	d205      	bcs.n	100196ca <__mcmp+0x3a>
100196be:	f04f 30ff 	mov.w	r0, #4294967295	@ 0xffffffff
100196c2:	f85d 4b04 	ldr.w	r4, [sp], #4
100196c6:	4770      	bx	lr
100196c8:	4770      	bx	lr
100196ca:	2001      	movs	r0, #1
100196cc:	f85d 4b04 	ldr.w	r4, [sp], #4
100196d0:	4770      	bx	lr
100196d2:	bf00      	nop

100196d4 <__mdiff>:
100196d4:	e92d 4ff0 	stmdb	sp!, {r4, r5, r6, r7, r8, r9, sl, fp, lr}
100196d8:	6913      	ldr	r3, [r2, #16]
100196da:	690f      	ldr	r7, [r1, #16]
100196dc:	1aff      	subs	r7, r7, r3
100196de:	2f00      	cmp	r7, #0
100196e0:	b083      	sub	sp, #12
100196e2:	460d      	mov	r5, r1
100196e4:	4690      	mov	r8, r2
100196e6:	d115      	bne.n	10019714 <__mdiff+0x40>
100196e8:	f101 0614 	add.w	r6, r1, #20
100196ec:	3214      	adds	r2, #20
100196ee:	eb02 0283 	add.w	r2, r2, r3, lsl #2
100196f2:	eb06 0383 	add.w	r3, r6, r3, lsl #2
100196f6:	e001      	b.n	100196fc <__mdiff+0x28>
100196f8:	429e      	cmp	r6, r3
100196fa:	d276      	bcs.n	100197ea <__mdiff+0x116>
100196fc:	f853 4d04 	ldr.w	r4, [r3, #-4]!
10019700:	f852 1d04 	ldr.w	r1, [r2, #-4]!
10019704:	428c      	cmp	r4, r1
10019706:	d0f7      	beq.n	100196f8 <__mdiff+0x24>
10019708:	d206      	bcs.n	10019718 <__mdiff+0x44>
1001970a:	462b      	mov	r3, r5
1001970c:	2701      	movs	r7, #1
1001970e:	4645      	mov	r5, r8
10019710:	4698      	mov	r8, r3
10019712:	e001      	b.n	10019718 <__mdiff+0x44>
10019714:	dbf9      	blt.n	1001970a <__mdiff+0x36>
10019716:	2700      	movs	r7, #0
10019718:	6869      	ldr	r1, [r5, #4]
1001971a:	f7ff fd31 	bl	10019180 <_Balloc>
1001971e:	4681      	mov	r9, r0
10019720:	2800      	cmp	r0, #0
10019722:	d076      	beq.n	10019812 <__mdiff+0x13e>
10019724:	692e      	ldr	r6, [r5, #16]
10019726:	60c7      	str	r7, [r0, #12]
10019728:	f8d8 0010 	ldr.w	r0, [r8, #16]
1001972c:	f105 0b14 	add.w	fp, r5, #20
10019730:	f108 0e14 	add.w	lr, r8, #20
10019734:	f109 0a14 	add.w	sl, r9, #20
10019738:	f105 0110 	add.w	r1, r5, #16
1001973c:	eb0e 0080 	add.w	r0, lr, r0, lsl #2
10019740:	eb0b 0286 	add.w	r2, fp, r6, lsl #2
10019744:	4657      	mov	r7, sl
10019746:	f04f 0c00 	mov.w	ip, #0
1001974a:	f8cd b004 	str.w	fp, [sp, #4]
1001974e:	f85e 4b04 	ldr.w	r4, [lr], #4
10019752:	f851 5f04 	ldr.w	r5, [r1, #4]!
10019756:	fa1f fb84 	uxth.w	fp, r4
1001975a:	b2ab      	uxth	r3, r5
1001975c:	eba3 030b 	sub.w	r3, r3, fp
10019760:	0c24      	lsrs	r4, r4, #16
10019762:	4463      	add	r3, ip
10019764:	ebc4 4415 	rsb	r4, r4, r5, lsr #16
10019768:	eb04 4423 	add.w	r4, r4, r3, asr #16
1001976c:	b29b      	uxth	r3, r3
1001976e:	ea43 4304 	orr.w	r3, r3, r4, lsl #16
10019772:	4570      	cmp	r0, lr
10019774:	f847 3b04 	str.w	r3, [r7], #4
10019778:	ea4f 4c24 	mov.w	ip, r4, asr #16
1001977c:	d8e7      	bhi.n	1001974e <__mdiff+0x7a>
1001977e:	eba0 0108 	sub.w	r1, r0, r8
10019782:	3915      	subs	r1, #21
10019784:	0889      	lsrs	r1, r1, #2
10019786:	1c4c      	adds	r4, r1, #1
10019788:	f8dd b004 	ldr.w	fp, [sp, #4]
1001978c:	f108 0815 	add.w	r8, r8, #21
10019790:	00a4      	lsls	r4, r4, #2
10019792:	4540      	cmp	r0, r8
10019794:	bf38      	it	cc
10019796:	2404      	movcc	r4, #4
10019798:	eb0b 0504 	add.w	r5, fp, r4
1001979c:	42aa      	cmp	r2, r5
1001979e:	4454      	add	r4, sl
100197a0:	d930      	bls.n	10019804 <__mdiff+0x130>
100197a2:	4627      	mov	r7, r4
100197a4:	4628      	mov	r0, r5
100197a6:	f850 3b04 	ldr.w	r3, [r0], #4
100197aa:	fa1c fe83 	uxtah	lr, ip, r3
100197ae:	0c19      	lsrs	r1, r3, #16
100197b0:	4463      	add	r3, ip
100197b2:	eb01 412e 	add.w	r1, r1, lr, asr #16
100197b6:	b29b      	uxth	r3, r3
100197b8:	ea43 4301 	orr.w	r3, r3, r1, lsl #16
100197bc:	4282      	cmp	r2, r0
100197be:	f847 3b04 	str.w	r3, [r7], #4
100197c2:	ea4f 4c21 	mov.w	ip, r1, asr #16
100197c6:	d8ee      	bhi.n	100197a6 <__mdiff+0xd2>
100197c8:	3a01      	subs	r2, #1
100197ca:	1b52      	subs	r2, r2, r5
100197cc:	f022 0203 	bic.w	r2, r2, #3
100197d0:	4414      	add	r4, r2
100197d2:	b923      	cbnz	r3, 100197de <__mdiff+0x10a>
100197d4:	f854 3d04 	ldr.w	r3, [r4, #-4]!
100197d8:	3e01      	subs	r6, #1
100197da:	2b00      	cmp	r3, #0
100197dc:	d0fa      	beq.n	100197d4 <__mdiff+0x100>
100197de:	4648      	mov	r0, r9
100197e0:	f8c9 6010 	str.w	r6, [r9, #16]
100197e4:	b003      	add	sp, #12
100197e6:	e8bd 8ff0 	ldmia.w	sp!, {r4, r5, r6, r7, r8, r9, sl, fp, pc}
100197ea:	2100      	movs	r1, #0
100197ec:	f7ff fcc8 	bl	10019180 <_Balloc>
100197f0:	4681      	mov	r9, r0
100197f2:	b1a8      	cbz	r0, 10019820 <__mdiff+0x14c>
100197f4:	2201      	movs	r2, #1
100197f6:	2300      	movs	r3, #0
100197f8:	e9c0 2304 	strd	r2, r3, [r0, #16]
100197fc:	4648      	mov	r0, r9
100197fe:	b003      	add	sp, #12
10019800:	e8bd 8ff0 	ldmia.w	sp!, {r4, r5, r6, r7, r8, r9, sl, fp, pc}
10019804:	0089      	lsls	r1, r1, #2
10019806:	4540      	cmp	r0, r8
10019808:	bf38      	it	cc
1001980a:	2100      	movcc	r1, #0
1001980c:	eb0a 0401 	add.w	r4, sl, r1
10019810:	e7df      	b.n	100197d2 <__mdiff+0xfe>
10019812:	4b07      	ldr	r3, [pc, #28]	@ (10019830 <__mdiff+0x15c>)
10019814:	4807      	ldr	r0, [pc, #28]	@ (10019834 <__mdiff+0x160>)
10019816:	464a      	mov	r2, r9
10019818:	f240 2145 	movw	r1, #581	@ 0x245
1001981c:	f7ff fb62 	bl	10018ee4 <__assert_func>
10019820:	4b03      	ldr	r3, [pc, #12]	@ (10019830 <__mdiff+0x15c>)
10019822:	4804      	ldr	r0, [pc, #16]	@ (10019834 <__mdiff+0x160>)
10019824:	464a      	mov	r2, r9
10019826:	f240 2137 	movw	r1, #567	@ 0x237
1001982a:	f7ff fb5b 	bl	10018ee4 <__assert_func>
1001982e:	bf00      	nop
10019830:	1001b250 	.word	0x1001b250
10019834:	1001b444 	.word	0x1001b444

10019838 <__d2b>:
10019838:	b5f0      	push	{r4, r5, r6, r7, lr}
1001983a:	2101      	movs	r1, #1
1001983c:	b083      	sub	sp, #12
1001983e:	4616      	mov	r6, r2
10019840:	461f      	mov	r7, r3
10019842:	f7ff fc9d 	bl	10019180 <_Balloc>
10019846:	4605      	mov	r5, r0
10019848:	2800      	cmp	r0, #0
1001984a:	d047      	beq.n	100198dc <__d2b+0xa4>
1001984c:	f3c7 540a 	ubfx	r4, r7, #20, #11
10019850:	f3c7 0313 	ubfx	r3, r7, #0, #20
10019854:	b10c      	cbz	r4, 1001985a <__d2b+0x22>
10019856:	f443 1380 	orr.w	r3, r3, #1048576	@ 0x100000
1001985a:	2e00      	cmp	r6, #0
1001985c:	9301      	str	r3, [sp, #4]
1001985e:	d114      	bne.n	1001988a <__d2b+0x52>
10019860:	a801      	add	r0, sp, #4
10019862:	f7ff fd2f 	bl	100192c4 <__lo0bits>
10019866:	9b01      	ldr	r3, [sp, #4]
10019868:	616b      	str	r3, [r5, #20]
1001986a:	2201      	movs	r2, #1
1001986c:	3020      	adds	r0, #32
1001986e:	612a      	str	r2, [r5, #16]
10019870:	b314      	cbz	r4, 100198b8 <__d2b+0x80>
10019872:	9b08      	ldr	r3, [sp, #32]
10019874:	f2a4 4433 	subw	r4, r4, #1075	@ 0x433
10019878:	4404      	add	r4, r0
1001987a:	601c      	str	r4, [r3, #0]
1001987c:	9b09      	ldr	r3, [sp, #36]	@ 0x24
1001987e:	f1c0 0035 	rsb	r0, r0, #53	@ 0x35
10019882:	6018      	str	r0, [r3, #0]
10019884:	4628      	mov	r0, r5
10019886:	b003      	add	sp, #12
10019888:	bdf0      	pop	{r4, r5, r6, r7, pc}
1001988a:	4668      	mov	r0, sp
1001988c:	9600      	str	r6, [sp, #0]
1001988e:	f7ff fd19 	bl	100192c4 <__lo0bits>
10019892:	9b01      	ldr	r3, [sp, #4]
10019894:	b300      	cbz	r0, 100198d8 <__d2b+0xa0>
10019896:	9900      	ldr	r1, [sp, #0]
10019898:	f1c0 0220 	rsb	r2, r0, #32
1001989c:	fa03 f202 	lsl.w	r2, r3, r2
100198a0:	40c3      	lsrs	r3, r0
100198a2:	9301      	str	r3, [sp, #4]
100198a4:	430a      	orrs	r2, r1
100198a6:	2b00      	cmp	r3, #0
100198a8:	e9c5 2305 	strd	r2, r3, [r5, #20]
100198ac:	bf0c      	ite	eq
100198ae:	2201      	moveq	r2, #1
100198b0:	2202      	movne	r2, #2
100198b2:	612a      	str	r2, [r5, #16]
100198b4:	2c00      	cmp	r4, #0
100198b6:	d1dc      	bne.n	10019872 <__d2b+0x3a>
100198b8:	eb05 0182 	add.w	r1, r5, r2, lsl #2
100198bc:	f2a0 4332 	subw	r3, r0, #1074	@ 0x432
100198c0:	6908      	ldr	r0, [r1, #16]
100198c2:	9908      	ldr	r1, [sp, #32]
100198c4:	600b      	str	r3, [r1, #0]
100198c6:	f7ff fcdb 	bl	10019280 <__hi0bits>
100198ca:	9b09      	ldr	r3, [sp, #36]	@ 0x24
100198cc:	ebc0 1042 	rsb	r0, r0, r2, lsl #5
100198d0:	6018      	str	r0, [r3, #0]
100198d2:	4628      	mov	r0, r5
100198d4:	b003      	add	sp, #12
100198d6:	bdf0      	pop	{r4, r5, r6, r7, pc}
100198d8:	9a00      	ldr	r2, [sp, #0]
100198da:	e7e4      	b.n	100198a6 <__d2b+0x6e>
100198dc:	4b03      	ldr	r3, [pc, #12]	@ (100198ec <__d2b+0xb4>)
100198de:	4804      	ldr	r0, [pc, #16]	@ (100198f0 <__d2b+0xb8>)
100198e0:	462a      	mov	r2, r5
100198e2:	f240 310f 	movw	r1, #783	@ 0x30f
100198e6:	f7ff fafd 	bl	10018ee4 <__assert_func>
100198ea:	bf00      	nop
100198ec:	1001b250 	.word	0x1001b250
100198f0:	1001b444 	.word	0x1001b444

100198f4 <_calloc_r>:
100198f4:	b538      	push	{r3, r4, r5, lr}
100198f6:	fba1 1402 	umull	r1, r4, r1, r2
100198fa:	bb54      	cbnz	r4, 10019952 <_calloc_r+0x5e>
100198fc:	f7fa f8e8 	bl	10013ad0 <_malloc_r>
10019900:	4605      	mov	r5, r0
10019902:	b350      	cbz	r0, 1001995a <_calloc_r+0x66>
10019904:	f850 2c04 	ldr.w	r2, [r0, #-4]
10019908:	f022 0203 	bic.w	r2, r2, #3
1001990c:	3a04      	subs	r2, #4
1001990e:	2a24      	cmp	r2, #36	@ 0x24
10019910:	d810      	bhi.n	10019934 <_calloc_r+0x40>
10019912:	2a13      	cmp	r2, #19
10019914:	d913      	bls.n	1001993e <_calloc_r+0x4a>
10019916:	2a1b      	cmp	r2, #27
10019918:	6004      	str	r4, [r0, #0]
1001991a:	6044      	str	r4, [r0, #4]
1001991c:	d916      	bls.n	1001994c <_calloc_r+0x58>
1001991e:	2a24      	cmp	r2, #36	@ 0x24
10019920:	6084      	str	r4, [r0, #8]
10019922:	60c4      	str	r4, [r0, #12]
10019924:	bf11      	iteee	ne
10019926:	f100 0210 	addne.w	r2, r0, #16
1001992a:	f100 0218 	addeq.w	r2, r0, #24
1001992e:	6104      	streq	r4, [r0, #16]
10019930:	6144      	streq	r4, [r0, #20]
10019932:	e005      	b.n	10019940 <_calloc_r+0x4c>
10019934:	4621      	mov	r1, r4
10019936:	f7fa fb8f 	bl	10014058 <memset>
1001993a:	4628      	mov	r0, r5
1001993c:	bd38      	pop	{r3, r4, r5, pc}
1001993e:	4602      	mov	r2, r0
10019940:	2300      	movs	r3, #0
10019942:	6013      	str	r3, [r2, #0]
10019944:	6053      	str	r3, [r2, #4]
10019946:	6093      	str	r3, [r2, #8]
10019948:	4628      	mov	r0, r5
1001994a:	bd38      	pop	{r3, r4, r5, pc}
1001994c:	f100 0208 	add.w	r2, r0, #8
10019950:	e7f6      	b.n	10019940 <_calloc_r+0x4c>
10019952:	f7f8 fae7 	bl	10011f24 <__errno>
10019956:	230c      	movs	r3, #12
10019958:	6003      	str	r3, [r0, #0]
1001995a:	2500      	movs	r5, #0
1001995c:	4628      	mov	r0, r5
1001995e:	bd38      	pop	{r3, r4, r5, pc}

10019960 <_wcsnrtombs_l>:
10019960:	e92d 4ff0 	stmdb	sp!, {r4, r5, r6, r7, r8, r9, sl, fp, lr}
10019964:	b08b      	sub	sp, #44	@ 0x2c
10019966:	e9dd 7a15 	ldrd	r7, sl, [sp, #84]	@ 0x54
1001996a:	4686      	mov	lr, r0
1001996c:	461e      	mov	r6, r3
1001996e:	2f00      	cmp	r7, #0
10019970:	d05a      	beq.n	10019a28 <_wcsnrtombs_l+0xc8>
10019972:	6815      	ldr	r5, [r2, #0]
10019974:	2900      	cmp	r1, #0
10019976:	d05c      	beq.n	10019a32 <_wcsnrtombs_l+0xd2>
10019978:	9b14      	ldr	r3, [sp, #80]	@ 0x50
1001997a:	2b00      	cmp	r3, #0
1001997c:	d069      	beq.n	10019a52 <_wcsnrtombs_l+0xf2>
1001997e:	1e74      	subs	r4, r6, #1
10019980:	b34e      	cbz	r6, 100199d6 <_wcsnrtombs_l+0x76>
10019982:	3d04      	subs	r5, #4
10019984:	e9cd 5e01 	strd	r5, lr, [sp, #4]
10019988:	f8dd b050 	ldr.w	fp, [sp, #80]	@ 0x50
1001998c:	9104      	str	r1, [sp, #16]
1001998e:	2600      	movs	r6, #0
10019990:	9103      	str	r1, [sp, #12]
10019992:	9205      	str	r2, [sp, #20]
10019994:	e00b      	b.n	100199ae <_wcsnrtombs_l+0x4e>
10019996:	9b03      	ldr	r3, [sp, #12]
10019998:	bb0b      	cbnz	r3, 100199de <_wcsnrtombs_l+0x7e>
1001999a:	9b01      	ldr	r3, [sp, #4]
1001999c:	6818      	ldr	r0, [r3, #0]
1001999e:	2800      	cmp	r0, #0
100199a0:	d036      	beq.n	10019a10 <_wcsnrtombs_l+0xb0>
100199a2:	45dc      	cmp	ip, fp
100199a4:	d257      	bcs.n	10019a56 <_wcsnrtombs_l+0xf6>
100199a6:	3c01      	subs	r4, #1
100199a8:	1c63      	adds	r3, r4, #1
100199aa:	4666      	mov	r6, ip
100199ac:	d013      	beq.n	100199d6 <_wcsnrtombs_l+0x76>
100199ae:	9b01      	ldr	r3, [sp, #4]
100199b0:	9802      	ldr	r0, [sp, #8]
100199b2:	f853 2f04 	ldr.w	r2, [r3, #4]!
100199b6:	9301      	str	r3, [sp, #4]
100199b8:	f8da 50e0 	ldr.w	r5, [sl, #224]	@ 0xe0
100199bc:	463b      	mov	r3, r7
100199be:	a907      	add	r1, sp, #28
100199c0:	e9d7 9800 	ldrd	r9, r8, [r7]
100199c4:	47a8      	blx	r5
100199c6:	1c42      	adds	r2, r0, #1
100199c8:	d037      	beq.n	10019a3a <_wcsnrtombs_l+0xda>
100199ca:	eb00 0c06 	add.w	ip, r0, r6
100199ce:	45dc      	cmp	ip, fp
100199d0:	d9e1      	bls.n	10019996 <_wcsnrtombs_l+0x36>
100199d2:	e9c7 9800 	strd	r9, r8, [r7]
100199d6:	4630      	mov	r0, r6
100199d8:	b00b      	add	sp, #44	@ 0x2c
100199da:	e8bd 8ff0 	ldmia.w	sp!, {r4, r5, r6, r7, r8, r9, sl, fp, pc}
100199de:	2800      	cmp	r0, #0
100199e0:	dd0e      	ble.n	10019a00 <_wcsnrtombs_l+0xa0>
100199e2:	9b04      	ldr	r3, [sp, #16]
100199e4:	9d01      	ldr	r5, [sp, #4]
100199e6:	4418      	add	r0, r3
100199e8:	1e5a      	subs	r2, r3, #1
100199ea:	a907      	add	r1, sp, #28
100199ec:	f100 3eff 	add.w	lr, r0, #4294967295	@ 0xffffffff
100199f0:	f811 3b01 	ldrb.w	r3, [r1], #1
100199f4:	f802 3f01 	strb.w	r3, [r2, #1]!
100199f8:	4596      	cmp	lr, r2
100199fa:	d1f9      	bne.n	100199f0 <_wcsnrtombs_l+0x90>
100199fc:	9501      	str	r5, [sp, #4]
100199fe:	9004      	str	r0, [sp, #16]
10019a00:	9b05      	ldr	r3, [sp, #20]
10019a02:	681a      	ldr	r2, [r3, #0]
10019a04:	3204      	adds	r2, #4
10019a06:	601a      	str	r2, [r3, #0]
10019a08:	9b01      	ldr	r3, [sp, #4]
10019a0a:	6818      	ldr	r0, [r3, #0]
10019a0c:	2800      	cmp	r0, #0
10019a0e:	d1c8      	bne.n	100199a2 <_wcsnrtombs_l+0x42>
10019a10:	9903      	ldr	r1, [sp, #12]
10019a12:	9a05      	ldr	r2, [sp, #20]
10019a14:	b101      	cbz	r1, 10019a18 <_wcsnrtombs_l+0xb8>
10019a16:	6010      	str	r0, [r2, #0]
10019a18:	f10c 36ff 	add.w	r6, ip, #4294967295	@ 0xffffffff
10019a1c:	2200      	movs	r2, #0
10019a1e:	4630      	mov	r0, r6
10019a20:	603a      	str	r2, [r7, #0]
10019a22:	b00b      	add	sp, #44	@ 0x2c
10019a24:	e8bd 8ff0 	ldmia.w	sp!, {r4, r5, r6, r7, r8, r9, sl, fp, pc}
10019a28:	6815      	ldr	r5, [r2, #0]
10019a2a:	f500 7786 	add.w	r7, r0, #268	@ 0x10c
10019a2e:	2900      	cmp	r1, #0
10019a30:	d1a2      	bne.n	10019978 <_wcsnrtombs_l+0x18>
10019a32:	f04f 33ff 	mov.w	r3, #4294967295	@ 0xffffffff
10019a36:	9314      	str	r3, [sp, #80]	@ 0x50
10019a38:	e7a1      	b.n	1001997e <_wcsnrtombs_l+0x1e>
10019a3a:	f8dd e008 	ldr.w	lr, [sp, #8]
10019a3e:	4606      	mov	r6, r0
10019a40:	218a      	movs	r1, #138	@ 0x8a
10019a42:	2200      	movs	r2, #0
10019a44:	4630      	mov	r0, r6
10019a46:	f8ce 1000 	str.w	r1, [lr]
10019a4a:	603a      	str	r2, [r7, #0]
10019a4c:	b00b      	add	sp, #44	@ 0x2c
10019a4e:	e8bd 8ff0 	ldmia.w	sp!, {r4, r5, r6, r7, r8, r9, sl, fp, pc}
10019a52:	9e14      	ldr	r6, [sp, #80]	@ 0x50
10019a54:	e7bf      	b.n	100199d6 <_wcsnrtombs_l+0x76>
10019a56:	4666      	mov	r6, ip
10019a58:	e7bd      	b.n	100199d6 <_wcsnrtombs_l+0x76>
10019a5a:	bf00      	nop

10019a5c <_wcsnrtombs_r>:
10019a5c:	b510      	push	{r4, lr}
10019a5e:	b084      	sub	sp, #16
10019a60:	4c05      	ldr	r4, [pc, #20]	@ (10019a78 <_wcsnrtombs_r+0x1c>)
10019a62:	9806      	ldr	r0, [sp, #24]
10019a64:	9000      	str	r0, [sp, #0]
10019a66:	9807      	ldr	r0, [sp, #28]
10019a68:	9001      	str	r0, [sp, #4]
10019a6a:	4804      	ldr	r0, [pc, #16]	@ (10019a7c <_wcsnrtombs_r+0x20>)
10019a6c:	6800      	ldr	r0, [r0, #0]
10019a6e:	9402      	str	r4, [sp, #8]
10019a70:	f7ff ff76 	bl	10019960 <_wcsnrtombs_l>
10019a74:	b004      	add	sp, #16
10019a76:	bd10      	pop	{r4, pc}
10019a78:	2000044c 	.word	0x2000044c
10019a7c:	200005b8 	.word	0x200005b8

10019a80 <_close_r>:
10019a80:	b538      	push	{r3, r4, r5, lr}
10019a82:	4d07      	ldr	r5, [pc, #28]	@ (10019aa0 <_close_r+0x20>)
10019a84:	2200      	movs	r2, #0
10019a86:	4604      	mov	r4, r0
10019a88:	4608      	mov	r0, r1
10019a8a:	602a      	str	r2, [r5, #0]
10019a8c:	f7f6 fe88 	bl	100107a0 <_close>
10019a90:	1c43      	adds	r3, r0, #1
10019a92:	d000      	beq.n	10019a96 <_close_r+0x16>
10019a94:	bd38      	pop	{r3, r4, r5, pc}
10019a96:	682b      	ldr	r3, [r5, #0]
10019a98:	2b00      	cmp	r3, #0
10019a9a:	d0fb      	beq.n	10019a94 <_close_r+0x14>
10019a9c:	6023      	str	r3, [r4, #0]
10019a9e:	bd38      	pop	{r3, r4, r5, pc}
10019aa0:	2000173c 	.word	0x2000173c

10019aa4 <__sflush_r>:
10019aa4:	f9b1 200c 	ldrsh.w	r2, [r1, #12]
10019aa8:	e92d 41f0 	stmdb	sp!, {r4, r5, r6, r7, r8, lr}
10019aac:	460c      	mov	r4, r1
10019aae:	0711      	lsls	r1, r2, #28
10019ab0:	4680      	mov	r8, r0
10019ab2:	d44b      	bmi.n	10019b4c <__sflush_r+0xa8>
10019ab4:	6861      	ldr	r1, [r4, #4]
10019ab6:	f442 6300 	orr.w	r3, r2, #2048	@ 0x800
10019aba:	2900      	cmp	r1, #0
10019abc:	81a3      	strh	r3, [r4, #12]
10019abe:	dd60      	ble.n	10019b82 <__sflush_r+0xde>
10019ac0:	6aa5      	ldr	r5, [r4, #40]	@ 0x28
10019ac2:	2d00      	cmp	r5, #0
10019ac4:	d03f      	beq.n	10019b46 <__sflush_r+0xa2>
10019ac6:	2100      	movs	r1, #0
10019ac8:	f412 5280 	ands.w	r2, r2, #4096	@ 0x1000
10019acc:	f8d8 6000 	ldr.w	r6, [r8]
10019ad0:	f8c8 1000 	str.w	r1, [r8]
10019ad4:	69e1      	ldr	r1, [r4, #28]
10019ad6:	d161      	bne.n	10019b9c <__sflush_r+0xf8>
10019ad8:	2301      	movs	r3, #1
10019ada:	4640      	mov	r0, r8
10019adc:	47a8      	blx	r5
10019ade:	1c43      	adds	r3, r0, #1
10019ae0:	4602      	mov	r2, r0
10019ae2:	d06b      	beq.n	10019bbc <__sflush_r+0x118>
10019ae4:	f9b4 300c 	ldrsh.w	r3, [r4, #12]
10019ae8:	6aa5      	ldr	r5, [r4, #40]	@ 0x28
10019aea:	69e1      	ldr	r1, [r4, #28]
10019aec:	075f      	lsls	r7, r3, #29
10019aee:	d505      	bpl.n	10019afc <__sflush_r+0x58>
10019af0:	6863      	ldr	r3, [r4, #4]
10019af2:	1ad2      	subs	r2, r2, r3
10019af4:	6b23      	ldr	r3, [r4, #48]	@ 0x30
10019af6:	b10b      	cbz	r3, 10019afc <__sflush_r+0x58>
10019af8:	6be3      	ldr	r3, [r4, #60]	@ 0x3c
10019afa:	1ad2      	subs	r2, r2, r3
10019afc:	2300      	movs	r3, #0
10019afe:	4640      	mov	r0, r8
10019b00:	47a8      	blx	r5
10019b02:	1c45      	adds	r5, r0, #1
10019b04:	d14c      	bne.n	10019ba0 <__sflush_r+0xfc>
10019b06:	f8d8 1000 	ldr.w	r1, [r8]
10019b0a:	291d      	cmp	r1, #29
10019b0c:	d83d      	bhi.n	10019b8a <__sflush_r+0xe6>
10019b0e:	4a32      	ldr	r2, [pc, #200]	@ (10019bd8 <__sflush_r+0x134>)
10019b10:	f9b4 300c 	ldrsh.w	r3, [r4, #12]
10019b14:	410a      	asrs	r2, r1
10019b16:	f012 0201 	ands.w	r2, r2, #1
10019b1a:	d138      	bne.n	10019b8e <__sflush_r+0xea>
10019b1c:	6062      	str	r2, [r4, #4]
10019b1e:	6922      	ldr	r2, [r4, #16]
10019b20:	6022      	str	r2, [r4, #0]
10019b22:	f423 6200 	bic.w	r2, r3, #2048	@ 0x800
10019b26:	81a2      	strh	r2, [r4, #12]
10019b28:	04da      	lsls	r2, r3, #19
10019b2a:	d452      	bmi.n	10019bd2 <__sflush_r+0x12e>
10019b2c:	6b21      	ldr	r1, [r4, #48]	@ 0x30
10019b2e:	f8c8 6000 	str.w	r6, [r8]
10019b32:	b141      	cbz	r1, 10019b46 <__sflush_r+0xa2>
10019b34:	f104 0340 	add.w	r3, r4, #64	@ 0x40
10019b38:	4299      	cmp	r1, r3
10019b3a:	d002      	beq.n	10019b42 <__sflush_r+0x9e>
10019b3c:	4640      	mov	r0, r8
10019b3e:	f7fb fe5f 	bl	10015800 <_free_r>
10019b42:	2300      	movs	r3, #0
10019b44:	6323      	str	r3, [r4, #48]	@ 0x30
10019b46:	2000      	movs	r0, #0
10019b48:	e8bd 81f0 	ldmia.w	sp!, {r4, r5, r6, r7, r8, pc}
10019b4c:	6926      	ldr	r6, [r4, #16]
10019b4e:	2e00      	cmp	r6, #0
10019b50:	d0f9      	beq.n	10019b46 <__sflush_r+0xa2>
10019b52:	6825      	ldr	r5, [r4, #0]
10019b54:	6026      	str	r6, [r4, #0]
10019b56:	0791      	lsls	r1, r2, #30
10019b58:	bf0c      	ite	eq
10019b5a:	6963      	ldreq	r3, [r4, #20]
10019b5c:	2300      	movne	r3, #0
10019b5e:	1bad      	subs	r5, r5, r6
10019b60:	60a3      	str	r3, [r4, #8]
10019b62:	e00b      	b.n	10019b7c <__sflush_r+0xd8>
10019b64:	462b      	mov	r3, r5
10019b66:	4632      	mov	r2, r6
10019b68:	69e1      	ldr	r1, [r4, #28]
10019b6a:	6a67      	ldr	r7, [r4, #36]	@ 0x24
10019b6c:	4640      	mov	r0, r8
10019b6e:	47b8      	blx	r7
10019b70:	f1b0 0c00 	subs.w	ip, r0, #0
10019b74:	eba5 050c 	sub.w	r5, r5, ip
10019b78:	4466      	add	r6, ip
10019b7a:	dd06      	ble.n	10019b8a <__sflush_r+0xe6>
10019b7c:	2d00      	cmp	r5, #0
10019b7e:	dcf1      	bgt.n	10019b64 <__sflush_r+0xc0>
10019b80:	e7e1      	b.n	10019b46 <__sflush_r+0xa2>
10019b82:	6be1      	ldr	r1, [r4, #60]	@ 0x3c
10019b84:	2900      	cmp	r1, #0
10019b86:	dc9b      	bgt.n	10019ac0 <__sflush_r+0x1c>
10019b88:	e7dd      	b.n	10019b46 <__sflush_r+0xa2>
10019b8a:	f9b4 300c 	ldrsh.w	r3, [r4, #12]
10019b8e:	f043 0340 	orr.w	r3, r3, #64	@ 0x40
10019b92:	81a3      	strh	r3, [r4, #12]
10019b94:	f04f 30ff 	mov.w	r0, #4294967295	@ 0xffffffff
10019b98:	e8bd 81f0 	ldmia.w	sp!, {r4, r5, r6, r7, r8, pc}
10019b9c:	6d22      	ldr	r2, [r4, #80]	@ 0x50
10019b9e:	e7a5      	b.n	10019aec <__sflush_r+0x48>
10019ba0:	f9b4 300c 	ldrsh.w	r3, [r4, #12]
10019ba4:	6922      	ldr	r2, [r4, #16]
10019ba6:	6022      	str	r2, [r4, #0]
10019ba8:	f423 6200 	bic.w	r2, r3, #2048	@ 0x800
10019bac:	81a2      	strh	r2, [r4, #12]
10019bae:	04db      	lsls	r3, r3, #19
10019bb0:	f04f 0200 	mov.w	r2, #0
10019bb4:	6062      	str	r2, [r4, #4]
10019bb6:	d5b9      	bpl.n	10019b2c <__sflush_r+0x88>
10019bb8:	6520      	str	r0, [r4, #80]	@ 0x50
10019bba:	e7b7      	b.n	10019b2c <__sflush_r+0x88>
10019bbc:	f8d8 3000 	ldr.w	r3, [r8]
10019bc0:	2b00      	cmp	r3, #0
10019bc2:	d08f      	beq.n	10019ae4 <__sflush_r+0x40>
10019bc4:	2b1d      	cmp	r3, #29
10019bc6:	d001      	beq.n	10019bcc <__sflush_r+0x128>
10019bc8:	2b16      	cmp	r3, #22
10019bca:	d1de      	bne.n	10019b8a <__sflush_r+0xe6>
10019bcc:	f8c8 6000 	str.w	r6, [r8]
10019bd0:	e7b9      	b.n	10019b46 <__sflush_r+0xa2>
10019bd2:	2900      	cmp	r1, #0
10019bd4:	d1aa      	bne.n	10019b2c <__sflush_r+0x88>
10019bd6:	e7ef      	b.n	10019bb8 <__sflush_r+0x114>
10019bd8:	dfbffffe 	.word	0xdfbffffe

10019bdc <_fflush_r>:
10019bdc:	b538      	push	{r3, r4, r5, lr}
10019bde:	460c      	mov	r4, r1
10019be0:	4605      	mov	r5, r0
10019be2:	b108      	cbz	r0, 10019be8 <_fflush_r+0xc>
10019be4:	6b43      	ldr	r3, [r0, #52]	@ 0x34
10019be6:	b303      	cbz	r3, 10019c2a <_fflush_r+0x4e>
10019be8:	f9b4 000c 	ldrsh.w	r0, [r4, #12]
10019bec:	b188      	cbz	r0, 10019c12 <_fflush_r+0x36>
10019bee:	6e63      	ldr	r3, [r4, #100]	@ 0x64
10019bf0:	07db      	lsls	r3, r3, #31
10019bf2:	d401      	bmi.n	10019bf8 <_fflush_r+0x1c>
10019bf4:	0581      	lsls	r1, r0, #22
10019bf6:	d50f      	bpl.n	10019c18 <_fflush_r+0x3c>
10019bf8:	4628      	mov	r0, r5
10019bfa:	4621      	mov	r1, r4
10019bfc:	f7ff ff52 	bl	10019aa4 <__sflush_r>
10019c00:	6e63      	ldr	r3, [r4, #100]	@ 0x64
10019c02:	07da      	lsls	r2, r3, #31
10019c04:	4605      	mov	r5, r0
10019c06:	d402      	bmi.n	10019c0e <_fflush_r+0x32>
10019c08:	89a3      	ldrh	r3, [r4, #12]
10019c0a:	059b      	lsls	r3, r3, #22
10019c0c:	d508      	bpl.n	10019c20 <_fflush_r+0x44>
10019c0e:	4628      	mov	r0, r5
10019c10:	bd38      	pop	{r3, r4, r5, pc}
10019c12:	4605      	mov	r5, r0
10019c14:	4628      	mov	r0, r5
10019c16:	bd38      	pop	{r3, r4, r5, pc}
10019c18:	6da0      	ldr	r0, [r4, #88]	@ 0x58
10019c1a:	f7fa fad5 	bl	100141c8 <__retarget_lock_acquire_recursive>
10019c1e:	e7eb      	b.n	10019bf8 <_fflush_r+0x1c>
10019c20:	6da0      	ldr	r0, [r4, #88]	@ 0x58
10019c22:	f7fa fad3 	bl	100141cc <__retarget_lock_release_recursive>
10019c26:	4628      	mov	r0, r5
10019c28:	bd38      	pop	{r3, r4, r5, pc}
10019c2a:	f7fb fbcb 	bl	100153c4 <__sinit>
10019c2e:	e7db      	b.n	10019be8 <_fflush_r+0xc>

10019c30 <_realloc_r>:
10019c30:	e92d 4ff8 	stmdb	sp!, {r3, r4, r5, r6, r7, r8, r9, sl, fp, lr}
10019c34:	4616      	mov	r6, r2
10019c36:	2900      	cmp	r1, #0
10019c38:	f000 8096 	beq.w	10019d68 <_realloc_r+0x138>
10019c3c:	460c      	mov	r4, r1
10019c3e:	4680      	mov	r8, r0
10019c40:	f106 050b 	add.w	r5, r6, #11
10019c44:	f7fa fb44 	bl	100142d0 <__malloc_lock>
10019c48:	f854 1c04 	ldr.w	r1, [r4, #-4]
10019c4c:	2d16      	cmp	r5, #22
10019c4e:	f1a4 0908 	sub.w	r9, r4, #8
10019c52:	f021 0703 	bic.w	r7, r1, #3
10019c56:	d858      	bhi.n	10019d0a <_realloc_r+0xda>
10019c58:	2510      	movs	r5, #16
10019c5a:	42ae      	cmp	r6, r5
10019c5c:	d858      	bhi.n	10019d10 <_realloc_r+0xe0>
10019c5e:	42af      	cmp	r7, r5
10019c60:	da60      	bge.n	10019d24 <_realloc_r+0xf4>
10019c62:	4bbe      	ldr	r3, [pc, #760]	@ (10019f5c <_realloc_r+0x32c>)
10019c64:	689a      	ldr	r2, [r3, #8]
10019c66:	eb09 0c07 	add.w	ip, r9, r7
10019c6a:	4562      	cmp	r2, ip
10019c6c:	f8dc 0004 	ldr.w	r0, [ip, #4]
10019c70:	f000 8090 	beq.w	10019d94 <_realloc_r+0x164>
10019c74:	f020 0301 	bic.w	r3, r0, #1
10019c78:	4463      	add	r3, ip
10019c7a:	685b      	ldr	r3, [r3, #4]
10019c7c:	07da      	lsls	r2, r3, #31
10019c7e:	d468      	bmi.n	10019d52 <_realloc_r+0x122>
10019c80:	f020 0003 	bic.w	r0, r0, #3
10019c84:	183b      	adds	r3, r7, r0
10019c86:	429d      	cmp	r5, r3
10019c88:	dd47      	ble.n	10019d1a <_realloc_r+0xea>
10019c8a:	07cb      	lsls	r3, r1, #31
10019c8c:	d412      	bmi.n	10019cb4 <_realloc_r+0x84>
10019c8e:	f854 3c08 	ldr.w	r3, [r4, #-8]
10019c92:	eba9 0b03 	sub.w	fp, r9, r3
10019c96:	f8db 3004 	ldr.w	r3, [fp, #4]
10019c9a:	f023 0203 	bic.w	r2, r3, #3
10019c9e:	4410      	add	r0, r2
10019ca0:	eb00 0a07 	add.w	sl, r0, r7
10019ca4:	4555      	cmp	r5, sl
10019ca6:	f340 80f6 	ble.w	10019e96 <_realloc_r+0x266>
10019caa:	eb07 0a02 	add.w	sl, r7, r2
10019cae:	4555      	cmp	r5, sl
10019cb0:	f340 80cc 	ble.w	10019e4c <_realloc_r+0x21c>
10019cb4:	4631      	mov	r1, r6
10019cb6:	4640      	mov	r0, r8
10019cb8:	f7f9 ff0a 	bl	10013ad0 <_malloc_r>
10019cbc:	4606      	mov	r6, r0
10019cbe:	2800      	cmp	r0, #0
10019cc0:	f000 8120 	beq.w	10019f04 <_realloc_r+0x2d4>
10019cc4:	f854 3c04 	ldr.w	r3, [r4, #-4]
10019cc8:	f023 0301 	bic.w	r3, r3, #1
10019ccc:	444b      	add	r3, r9
10019cce:	f1a0 0208 	sub.w	r2, r0, #8
10019cd2:	4293      	cmp	r3, r2
10019cd4:	f000 80b4 	beq.w	10019e40 <_realloc_r+0x210>
10019cd8:	1f3a      	subs	r2, r7, #4
10019cda:	2a24      	cmp	r2, #36	@ 0x24
10019cdc:	f200 80d7 	bhi.w	10019e8e <_realloc_r+0x25e>
10019ce0:	2a13      	cmp	r2, #19
10019ce2:	f200 80a2 	bhi.w	10019e2a <_realloc_r+0x1fa>
10019ce6:	4603      	mov	r3, r0
10019ce8:	4622      	mov	r2, r4
10019cea:	6811      	ldr	r1, [r2, #0]
10019cec:	6019      	str	r1, [r3, #0]
10019cee:	6851      	ldr	r1, [r2, #4]
10019cf0:	6059      	str	r1, [r3, #4]
10019cf2:	6892      	ldr	r2, [r2, #8]
10019cf4:	609a      	str	r2, [r3, #8]
10019cf6:	4621      	mov	r1, r4
10019cf8:	4640      	mov	r0, r8
10019cfa:	f7fb fd81 	bl	10015800 <_free_r>
10019cfe:	4640      	mov	r0, r8
10019d00:	f7fa faec 	bl	100142dc <__malloc_unlock>
10019d04:	4630      	mov	r0, r6
10019d06:	e8bd 8ff8 	ldmia.w	sp!, {r3, r4, r5, r6, r7, r8, r9, sl, fp, pc}
10019d0a:	f035 0507 	bics.w	r5, r5, #7
10019d0e:	d5a4      	bpl.n	10019c5a <_realloc_r+0x2a>
10019d10:	230c      	movs	r3, #12
10019d12:	f8c8 3000 	str.w	r3, [r8]
10019d16:	2600      	movs	r6, #0
10019d18:	e018      	b.n	10019d4c <_realloc_r+0x11c>
10019d1a:	461f      	mov	r7, r3
10019d1c:	e9dc 2302 	ldrd	r2, r3, [ip, #8]
10019d20:	60d3      	str	r3, [r2, #12]
10019d22:	609a      	str	r2, [r3, #8]
10019d24:	f8d9 3004 	ldr.w	r3, [r9, #4]
10019d28:	1b7a      	subs	r2, r7, r5
10019d2a:	2a0f      	cmp	r2, #15
10019d2c:	f003 0301 	and.w	r3, r3, #1
10019d30:	eb09 0007 	add.w	r0, r9, r7
10019d34:	d81d      	bhi.n	10019d72 <_realloc_r+0x142>
10019d36:	433b      	orrs	r3, r7
10019d38:	f8c9 3004 	str.w	r3, [r9, #4]
10019d3c:	6843      	ldr	r3, [r0, #4]
10019d3e:	f043 0301 	orr.w	r3, r3, #1
10019d42:	6043      	str	r3, [r0, #4]
10019d44:	4640      	mov	r0, r8
10019d46:	f7fa fac9 	bl	100142dc <__malloc_unlock>
10019d4a:	4626      	mov	r6, r4
10019d4c:	4630      	mov	r0, r6
10019d4e:	e8bd 8ff8 	ldmia.w	sp!, {r3, r4, r5, r6, r7, r8, r9, sl, fp, pc}
10019d52:	07c9      	lsls	r1, r1, #31
10019d54:	d4ae      	bmi.n	10019cb4 <_realloc_r+0x84>
10019d56:	f854 3c08 	ldr.w	r3, [r4, #-8]
10019d5a:	eba9 0b03 	sub.w	fp, r9, r3
10019d5e:	f8db 3004 	ldr.w	r3, [fp, #4]
10019d62:	f023 0203 	bic.w	r2, r3, #3
10019d66:	e7a0      	b.n	10019caa <_realloc_r+0x7a>
10019d68:	e8bd 4ff8 	ldmia.w	sp!, {r3, r4, r5, r6, r7, r8, r9, sl, fp, lr}
10019d6c:	4611      	mov	r1, r2
10019d6e:	f7f9 beaf 	b.w	10013ad0 <_malloc_r>
10019d72:	eb09 0105 	add.w	r1, r9, r5
10019d76:	432b      	orrs	r3, r5
10019d78:	f042 0201 	orr.w	r2, r2, #1
10019d7c:	f8c9 3004 	str.w	r3, [r9, #4]
10019d80:	604a      	str	r2, [r1, #4]
10019d82:	6843      	ldr	r3, [r0, #4]
10019d84:	f043 0301 	orr.w	r3, r3, #1
10019d88:	6043      	str	r3, [r0, #4]
10019d8a:	3108      	adds	r1, #8
10019d8c:	4640      	mov	r0, r8
10019d8e:	f7fb fd37 	bl	10015800 <_free_r>
10019d92:	e7d7      	b.n	10019d44 <_realloc_r+0x114>
10019d94:	f020 0003 	bic.w	r0, r0, #3
10019d98:	19c2      	adds	r2, r0, r7
10019d9a:	f105 0c10 	add.w	ip, r5, #16
10019d9e:	4562      	cmp	r2, ip
10019da0:	f280 8091 	bge.w	10019ec6 <_realloc_r+0x296>
10019da4:	07ca      	lsls	r2, r1, #31
10019da6:	d485      	bmi.n	10019cb4 <_realloc_r+0x84>
10019da8:	f854 2c08 	ldr.w	r2, [r4, #-8]
10019dac:	eba9 0b02 	sub.w	fp, r9, r2
10019db0:	f8db 2004 	ldr.w	r2, [fp, #4]
10019db4:	f022 0203 	bic.w	r2, r2, #3
10019db8:	4410      	add	r0, r2
10019dba:	eb00 0a07 	add.w	sl, r0, r7
10019dbe:	45d4      	cmp	ip, sl
10019dc0:	f73f af73 	bgt.w	10019caa <_realloc_r+0x7a>
10019dc4:	465e      	mov	r6, fp
10019dc6:	f8db 100c 	ldr.w	r1, [fp, #12]
10019dca:	f856 0f08 	ldr.w	r0, [r6, #8]!
10019dce:	1f3a      	subs	r2, r7, #4
10019dd0:	2a24      	cmp	r2, #36	@ 0x24
10019dd2:	60c1      	str	r1, [r0, #12]
10019dd4:	6088      	str	r0, [r1, #8]
10019dd6:	f200 80ae 	bhi.w	10019f36 <_realloc_r+0x306>
10019dda:	2a13      	cmp	r2, #19
10019ddc:	f240 80a9 	bls.w	10019f32 <_realloc_r+0x302>
10019de0:	6821      	ldr	r1, [r4, #0]
10019de2:	f8cb 1008 	str.w	r1, [fp, #8]
10019de6:	6861      	ldr	r1, [r4, #4]
10019de8:	f8cb 100c 	str.w	r1, [fp, #12]
10019dec:	2a1b      	cmp	r2, #27
10019dee:	f200 80a8 	bhi.w	10019f42 <_realloc_r+0x312>
10019df2:	3408      	adds	r4, #8
10019df4:	f10b 0210 	add.w	r2, fp, #16
10019df8:	6821      	ldr	r1, [r4, #0]
10019dfa:	6011      	str	r1, [r2, #0]
10019dfc:	6861      	ldr	r1, [r4, #4]
10019dfe:	6051      	str	r1, [r2, #4]
10019e00:	68a1      	ldr	r1, [r4, #8]
10019e02:	6091      	str	r1, [r2, #8]
10019e04:	eb0b 0105 	add.w	r1, fp, r5
10019e08:	ebaa 0205 	sub.w	r2, sl, r5
10019e0c:	f042 0201 	orr.w	r2, r2, #1
10019e10:	6099      	str	r1, [r3, #8]
10019e12:	604a      	str	r2, [r1, #4]
10019e14:	f8db 3004 	ldr.w	r3, [fp, #4]
10019e18:	f003 0301 	and.w	r3, r3, #1
10019e1c:	432b      	orrs	r3, r5
10019e1e:	4640      	mov	r0, r8
10019e20:	f8cb 3004 	str.w	r3, [fp, #4]
10019e24:	f7fa fa5a 	bl	100142dc <__malloc_unlock>
10019e28:	e790      	b.n	10019d4c <_realloc_r+0x11c>
10019e2a:	6823      	ldr	r3, [r4, #0]
10019e2c:	6003      	str	r3, [r0, #0]
10019e2e:	6863      	ldr	r3, [r4, #4]
10019e30:	6043      	str	r3, [r0, #4]
10019e32:	2a1b      	cmp	r2, #27
10019e34:	d83c      	bhi.n	10019eb0 <_realloc_r+0x280>
10019e36:	f104 0208 	add.w	r2, r4, #8
10019e3a:	f100 0308 	add.w	r3, r0, #8
10019e3e:	e754      	b.n	10019cea <_realloc_r+0xba>
10019e40:	f850 3c04 	ldr.w	r3, [r0, #-4]
10019e44:	f023 0303 	bic.w	r3, r3, #3
10019e48:	441f      	add	r7, r3
10019e4a:	e76b      	b.n	10019d24 <_realloc_r+0xf4>
10019e4c:	1f3a      	subs	r2, r7, #4
10019e4e:	465e      	mov	r6, fp
10019e50:	f8db 300c 	ldr.w	r3, [fp, #12]
10019e54:	f856 1f08 	ldr.w	r1, [r6, #8]!
10019e58:	2a24      	cmp	r2, #36	@ 0x24
10019e5a:	60cb      	str	r3, [r1, #12]
10019e5c:	6099      	str	r1, [r3, #8]
10019e5e:	d822      	bhi.n	10019ea6 <_realloc_r+0x276>
10019e60:	2a13      	cmp	r2, #19
10019e62:	d91e      	bls.n	10019ea2 <_realloc_r+0x272>
10019e64:	6823      	ldr	r3, [r4, #0]
10019e66:	f8cb 3008 	str.w	r3, [fp, #8]
10019e6a:	6863      	ldr	r3, [r4, #4]
10019e6c:	f8cb 300c 	str.w	r3, [fp, #12]
10019e70:	2a1b      	cmp	r2, #27
10019e72:	d83b      	bhi.n	10019eec <_realloc_r+0x2bc>
10019e74:	3408      	adds	r4, #8
10019e76:	f10b 0310 	add.w	r3, fp, #16
10019e7a:	6822      	ldr	r2, [r4, #0]
10019e7c:	601a      	str	r2, [r3, #0]
10019e7e:	6862      	ldr	r2, [r4, #4]
10019e80:	605a      	str	r2, [r3, #4]
10019e82:	68a2      	ldr	r2, [r4, #8]
10019e84:	609a      	str	r2, [r3, #8]
10019e86:	4634      	mov	r4, r6
10019e88:	4657      	mov	r7, sl
10019e8a:	46d9      	mov	r9, fp
10019e8c:	e74a      	b.n	10019d24 <_realloc_r+0xf4>
10019e8e:	4621      	mov	r1, r4
10019e90:	f7fe ffa8 	bl	10018de4 <memmove>
10019e94:	e72f      	b.n	10019cf6 <_realloc_r+0xc6>
10019e96:	e9dc 1302 	ldrd	r1, r3, [ip, #8]
10019e9a:	1f3a      	subs	r2, r7, #4
10019e9c:	60cb      	str	r3, [r1, #12]
10019e9e:	6099      	str	r1, [r3, #8]
10019ea0:	e7d5      	b.n	10019e4e <_realloc_r+0x21e>
10019ea2:	4633      	mov	r3, r6
10019ea4:	e7e9      	b.n	10019e7a <_realloc_r+0x24a>
10019ea6:	4621      	mov	r1, r4
10019ea8:	4630      	mov	r0, r6
10019eaa:	f7fe ff9b 	bl	10018de4 <memmove>
10019eae:	e7ea      	b.n	10019e86 <_realloc_r+0x256>
10019eb0:	68a3      	ldr	r3, [r4, #8]
10019eb2:	6083      	str	r3, [r0, #8]
10019eb4:	68e3      	ldr	r3, [r4, #12]
10019eb6:	60c3      	str	r3, [r0, #12]
10019eb8:	2a24      	cmp	r2, #36	@ 0x24
10019eba:	d027      	beq.n	10019f0c <_realloc_r+0x2dc>
10019ebc:	f104 0210 	add.w	r2, r4, #16
10019ec0:	f100 0310 	add.w	r3, r0, #16
10019ec4:	e711      	b.n	10019cea <_realloc_r+0xba>
10019ec6:	eb09 0105 	add.w	r1, r9, r5
10019eca:	6099      	str	r1, [r3, #8]
10019ecc:	1b53      	subs	r3, r2, r5
10019ece:	f043 0301 	orr.w	r3, r3, #1
10019ed2:	604b      	str	r3, [r1, #4]
10019ed4:	f854 3c04 	ldr.w	r3, [r4, #-4]
10019ed8:	f003 0301 	and.w	r3, r3, #1
10019edc:	432b      	orrs	r3, r5
10019ede:	4640      	mov	r0, r8
10019ee0:	f844 3c04 	str.w	r3, [r4, #-4]
10019ee4:	f7fa f9fa 	bl	100142dc <__malloc_unlock>
10019ee8:	4626      	mov	r6, r4
10019eea:	e72f      	b.n	10019d4c <_realloc_r+0x11c>
10019eec:	68a3      	ldr	r3, [r4, #8]
10019eee:	f8cb 3010 	str.w	r3, [fp, #16]
10019ef2:	68e3      	ldr	r3, [r4, #12]
10019ef4:	f8cb 3014 	str.w	r3, [fp, #20]
10019ef8:	2a24      	cmp	r2, #36	@ 0x24
10019efa:	d010      	beq.n	10019f1e <_realloc_r+0x2ee>
10019efc:	3410      	adds	r4, #16
10019efe:	f10b 0318 	add.w	r3, fp, #24
10019f02:	e7ba      	b.n	10019e7a <_realloc_r+0x24a>
10019f04:	4640      	mov	r0, r8
10019f06:	f7fa f9e9 	bl	100142dc <__malloc_unlock>
10019f0a:	e704      	b.n	10019d16 <_realloc_r+0xe6>
10019f0c:	6923      	ldr	r3, [r4, #16]
10019f0e:	6103      	str	r3, [r0, #16]
10019f10:	6961      	ldr	r1, [r4, #20]
10019f12:	6141      	str	r1, [r0, #20]
10019f14:	f104 0218 	add.w	r2, r4, #24
10019f18:	f100 0318 	add.w	r3, r0, #24
10019f1c:	e6e5      	b.n	10019cea <_realloc_r+0xba>
10019f1e:	6923      	ldr	r3, [r4, #16]
10019f20:	f8cb 3018 	str.w	r3, [fp, #24]
10019f24:	6963      	ldr	r3, [r4, #20]
10019f26:	f8cb 301c 	str.w	r3, [fp, #28]
10019f2a:	3418      	adds	r4, #24
10019f2c:	f10b 0320 	add.w	r3, fp, #32
10019f30:	e7a3      	b.n	10019e7a <_realloc_r+0x24a>
10019f32:	4632      	mov	r2, r6
10019f34:	e760      	b.n	10019df8 <_realloc_r+0x1c8>
10019f36:	4621      	mov	r1, r4
10019f38:	4630      	mov	r0, r6
10019f3a:	f7fe ff53 	bl	10018de4 <memmove>
10019f3e:	4b07      	ldr	r3, [pc, #28]	@ (10019f5c <_realloc_r+0x32c>)
10019f40:	e760      	b.n	10019e04 <_realloc_r+0x1d4>
10019f42:	68a1      	ldr	r1, [r4, #8]
10019f44:	f8cb 1010 	str.w	r1, [fp, #16]
10019f48:	68e1      	ldr	r1, [r4, #12]
10019f4a:	f8cb 1014 	str.w	r1, [fp, #20]
10019f4e:	2a24      	cmp	r2, #36	@ 0x24
10019f50:	d006      	beq.n	10019f60 <_realloc_r+0x330>
10019f52:	3410      	adds	r4, #16
10019f54:	f10b 0218 	add.w	r2, fp, #24
10019f58:	e74e      	b.n	10019df8 <_realloc_r+0x1c8>
10019f5a:	bf00      	nop
10019f5c:	20000040 	.word	0x20000040
10019f60:	6922      	ldr	r2, [r4, #16]
10019f62:	f8cb 2018 	str.w	r2, [fp, #24]
10019f66:	6962      	ldr	r2, [r4, #20]
10019f68:	f8cb 201c 	str.w	r2, [fp, #28]
10019f6c:	3418      	adds	r4, #24
10019f6e:	f10b 0220 	add.w	r2, fp, #32
10019f72:	e741      	b.n	10019df8 <_realloc_r+0x1c8>

10019f74 <_fstat_r>:
10019f74:	b570      	push	{r4, r5, r6, lr}
10019f76:	460c      	mov	r4, r1
10019f78:	4d08      	ldr	r5, [pc, #32]	@ (10019f9c <_fstat_r+0x28>)
10019f7a:	4603      	mov	r3, r0
10019f7c:	2600      	movs	r6, #0
10019f7e:	4620      	mov	r0, r4
10019f80:	4611      	mov	r1, r2
10019f82:	461c      	mov	r4, r3
10019f84:	602e      	str	r6, [r5, #0]
10019f86:	f7f6 fc17 	bl	100107b8 <_fstat>
10019f8a:	1c43      	adds	r3, r0, #1
10019f8c:	d000      	beq.n	10019f90 <_fstat_r+0x1c>
10019f8e:	bd70      	pop	{r4, r5, r6, pc}
10019f90:	682b      	ldr	r3, [r5, #0]
10019f92:	2b00      	cmp	r3, #0
10019f94:	d0fb      	beq.n	10019f8e <_fstat_r+0x1a>
10019f96:	6023      	str	r3, [r4, #0]
10019f98:	bd70      	pop	{r4, r5, r6, pc}
10019f9a:	bf00      	nop
10019f9c:	2000173c 	.word	0x2000173c

10019fa0 <_isatty_r>:
10019fa0:	b538      	push	{r3, r4, r5, lr}
10019fa2:	4d07      	ldr	r5, [pc, #28]	@ (10019fc0 <_isatty_r+0x20>)
10019fa4:	2200      	movs	r2, #0
10019fa6:	4604      	mov	r4, r0
10019fa8:	4608      	mov	r0, r1
10019faa:	602a      	str	r2, [r5, #0]
10019fac:	f7f6 fbfc 	bl	100107a8 <_isatty>
10019fb0:	1c43      	adds	r3, r0, #1
10019fb2:	d000      	beq.n	10019fb6 <_isatty_r+0x16>
10019fb4:	bd38      	pop	{r3, r4, r5, pc}
10019fb6:	682b      	ldr	r3, [r5, #0]
10019fb8:	2b00      	cmp	r3, #0
10019fba:	d0fb      	beq.n	10019fb4 <_isatty_r+0x14>
10019fbc:	6023      	str	r3, [r4, #0]
10019fbe:	bd38      	pop	{r3, r4, r5, pc}
10019fc0:	2000173c 	.word	0x2000173c

10019fc4 <_lseek_r>:
10019fc4:	b538      	push	{r3, r4, r5, lr}
10019fc6:	460c      	mov	r4, r1
10019fc8:	4d08      	ldr	r5, [pc, #32]	@ (10019fec <_lseek_r+0x28>)
10019fca:	4684      	mov	ip, r0
10019fcc:	4611      	mov	r1, r2
10019fce:	4620      	mov	r0, r4
10019fd0:	461a      	mov	r2, r3
10019fd2:	2300      	movs	r3, #0
10019fd4:	602b      	str	r3, [r5, #0]
10019fd6:	4664      	mov	r4, ip
10019fd8:	f7f6 fbea 	bl	100107b0 <_lseek>
10019fdc:	1c43      	adds	r3, r0, #1
10019fde:	d000      	beq.n	10019fe2 <_lseek_r+0x1e>
10019fe0:	bd38      	pop	{r3, r4, r5, pc}
10019fe2:	682b      	ldr	r3, [r5, #0]
10019fe4:	2b00      	cmp	r3, #0
10019fe6:	d0fb      	beq.n	10019fe0 <_lseek_r+0x1c>
10019fe8:	6023      	str	r3, [r4, #0]
10019fea:	bd38      	pop	{r3, r4, r5, pc}
10019fec:	2000173c 	.word	0x2000173c

10019ff0 <_read_r>:
10019ff0:	b538      	push	{r3, r4, r5, lr}
10019ff2:	460c      	mov	r4, r1
10019ff4:	4d08      	ldr	r5, [pc, #32]	@ (1001a018 <_read_r+0x28>)
10019ff6:	4684      	mov	ip, r0
10019ff8:	4611      	mov	r1, r2
10019ffa:	4620      	mov	r0, r4
10019ffc:	461a      	mov	r2, r3
10019ffe:	2300      	movs	r3, #0
1001a000:	602b      	str	r3, [r5, #0]
1001a002:	4664      	mov	r4, ip
1001a004:	f7f6 fbdc 	bl	100107c0 <_read>
1001a008:	1c43      	adds	r3, r0, #1
1001a00a:	d000      	beq.n	1001a00e <_read_r+0x1e>
1001a00c:	bd38      	pop	{r3, r4, r5, pc}
1001a00e:	682b      	ldr	r3, [r5, #0]
1001a010:	2b00      	cmp	r3, #0
1001a012:	d0fb      	beq.n	1001a00c <_read_r+0x1c>
1001a014:	6023      	str	r3, [r4, #0]
1001a016:	bd38      	pop	{r3, r4, r5, pc}
1001a018:	2000173c 	.word	0x2000173c

1001a01c <fiprintf>:
1001a01c:	b40e      	push	{r1, r2, r3}
1001a01e:	b510      	push	{r4, lr}
1001a020:	b083      	sub	sp, #12
1001a022:	ab05      	add	r3, sp, #20
1001a024:	4c06      	ldr	r4, [pc, #24]	@ (1001a040 <fiprintf+0x24>)
1001a026:	f853 2b04 	ldr.w	r2, [r3], #4
1001a02a:	9301      	str	r3, [sp, #4]
1001a02c:	4601      	mov	r1, r0
1001a02e:	6820      	ldr	r0, [r4, #0]
1001a030:	f7fd fe6e 	bl	10017d10 <_vfiprintf_r>
1001a034:	b003      	add	sp, #12
1001a036:	e8bd 4010 	ldmia.w	sp!, {r4, lr}
1001a03a:	b003      	add	sp, #12
1001a03c:	4770      	bx	lr
1001a03e:	bf00      	nop
1001a040:	200005b8 	.word	0x200005b8

1001a044 <__fputwc>:
1001a044:	b570      	push	{r4, r5, r6, lr}
1001a046:	b082      	sub	sp, #8
1001a048:	4606      	mov	r6, r0
1001a04a:	460d      	mov	r5, r1
1001a04c:	4614      	mov	r4, r2
1001a04e:	f7fa f8bf 	bl	100141d0 <__locale_mb_cur_max>
1001a052:	2801      	cmp	r0, #1
1001a054:	d102      	bne.n	1001a05c <__fputwc+0x18>
1001a056:	1e6b      	subs	r3, r5, #1
1001a058:	2bfe      	cmp	r3, #254	@ 0xfe
1001a05a:	d926      	bls.n	1001a0aa <__fputwc+0x66>
1001a05c:	f104 035c 	add.w	r3, r4, #92	@ 0x5c
1001a060:	462a      	mov	r2, r5
1001a062:	a901      	add	r1, sp, #4
1001a064:	4630      	mov	r0, r6
1001a066:	f7fa f849 	bl	100140fc <_wcrtomb_r>
1001a06a:	1c43      	adds	r3, r0, #1
1001a06c:	d020      	beq.n	1001a0b0 <__fputwc+0x6c>
1001a06e:	b178      	cbz	r0, 1001a090 <__fputwc+0x4c>
1001a070:	68a3      	ldr	r3, [r4, #8]
1001a072:	f89d 1004 	ldrb.w	r1, [sp, #4]
1001a076:	3b01      	subs	r3, #1
1001a078:	2b00      	cmp	r3, #0
1001a07a:	60a3      	str	r3, [r4, #8]
1001a07c:	da04      	bge.n	1001a088 <__fputwc+0x44>
1001a07e:	69a2      	ldr	r2, [r4, #24]
1001a080:	4293      	cmp	r3, r2
1001a082:	db08      	blt.n	1001a096 <__fputwc+0x52>
1001a084:	290a      	cmp	r1, #10
1001a086:	d006      	beq.n	1001a096 <__fputwc+0x52>
1001a088:	6823      	ldr	r3, [r4, #0]
1001a08a:	1c5a      	adds	r2, r3, #1
1001a08c:	6022      	str	r2, [r4, #0]
1001a08e:	7019      	strb	r1, [r3, #0]
1001a090:	4628      	mov	r0, r5
1001a092:	b002      	add	sp, #8
1001a094:	bd70      	pop	{r4, r5, r6, pc}
1001a096:	4622      	mov	r2, r4
1001a098:	4630      	mov	r0, r6
1001a09a:	f000 f841 	bl	1001a120 <__swbuf_r>
1001a09e:	3001      	adds	r0, #1
1001a0a0:	d1f6      	bne.n	1001a090 <__fputwc+0x4c>
1001a0a2:	f04f 30ff 	mov.w	r0, #4294967295	@ 0xffffffff
1001a0a6:	b002      	add	sp, #8
1001a0a8:	bd70      	pop	{r4, r5, r6, pc}
1001a0aa:	f88d 5004 	strb.w	r5, [sp, #4]
1001a0ae:	e7df      	b.n	1001a070 <__fputwc+0x2c>
1001a0b0:	89a3      	ldrh	r3, [r4, #12]
1001a0b2:	f043 0340 	orr.w	r3, r3, #64	@ 0x40
1001a0b6:	81a3      	strh	r3, [r4, #12]
1001a0b8:	f04f 30ff 	mov.w	r0, #4294967295	@ 0xffffffff
1001a0bc:	e7f3      	b.n	1001a0a6 <__fputwc+0x62>
1001a0be:	bf00      	nop

1001a0c0 <_fputwc_r>:
1001a0c0:	b530      	push	{r4, r5, lr}
1001a0c2:	4614      	mov	r4, r2
1001a0c4:	6e52      	ldr	r2, [r2, #100]	@ 0x64
1001a0c6:	f9b4 300c 	ldrsh.w	r3, [r4, #12]
1001a0ca:	4605      	mov	r5, r0
1001a0cc:	07d0      	lsls	r0, r2, #31
1001a0ce:	b083      	sub	sp, #12
1001a0d0:	d401      	bmi.n	1001a0d6 <_fputwc_r+0x16>
1001a0d2:	059a      	lsls	r2, r3, #22
1001a0d4:	d51c      	bpl.n	1001a110 <_fputwc_r+0x50>
1001a0d6:	0498      	lsls	r0, r3, #18
1001a0d8:	d406      	bmi.n	1001a0e8 <_fputwc_r+0x28>
1001a0da:	6e62      	ldr	r2, [r4, #100]	@ 0x64
1001a0dc:	f443 5300 	orr.w	r3, r3, #8192	@ 0x2000
1001a0e0:	f442 5200 	orr.w	r2, r2, #8192	@ 0x2000
1001a0e4:	81a3      	strh	r3, [r4, #12]
1001a0e6:	6662      	str	r2, [r4, #100]	@ 0x64
1001a0e8:	4622      	mov	r2, r4
1001a0ea:	4628      	mov	r0, r5
1001a0ec:	f7ff ffaa 	bl	1001a044 <__fputwc>
1001a0f0:	6e63      	ldr	r3, [r4, #100]	@ 0x64
1001a0f2:	07da      	lsls	r2, r3, #31
1001a0f4:	4605      	mov	r5, r0
1001a0f6:	d402      	bmi.n	1001a0fe <_fputwc_r+0x3e>
1001a0f8:	89a3      	ldrh	r3, [r4, #12]
1001a0fa:	059b      	lsls	r3, r3, #22
1001a0fc:	d502      	bpl.n	1001a104 <_fputwc_r+0x44>
1001a0fe:	4628      	mov	r0, r5
1001a100:	b003      	add	sp, #12
1001a102:	bd30      	pop	{r4, r5, pc}
1001a104:	6da0      	ldr	r0, [r4, #88]	@ 0x58
1001a106:	f7fa f861 	bl	100141cc <__retarget_lock_release_recursive>
1001a10a:	4628      	mov	r0, r5
1001a10c:	b003      	add	sp, #12
1001a10e:	bd30      	pop	{r4, r5, pc}
1001a110:	6da0      	ldr	r0, [r4, #88]	@ 0x58
1001a112:	9101      	str	r1, [sp, #4]
1001a114:	f7fa f858 	bl	100141c8 <__retarget_lock_acquire_recursive>
1001a118:	f9b4 300c 	ldrsh.w	r3, [r4, #12]
1001a11c:	9901      	ldr	r1, [sp, #4]
1001a11e:	e7da      	b.n	1001a0d6 <_fputwc_r+0x16>

1001a120 <__swbuf_r>:
1001a120:	b5f8      	push	{r3, r4, r5, r6, r7, lr}
1001a122:	460d      	mov	r5, r1
1001a124:	4614      	mov	r4, r2
1001a126:	4606      	mov	r6, r0
1001a128:	b110      	cbz	r0, 1001a130 <__swbuf_r+0x10>
1001a12a:	6b43      	ldr	r3, [r0, #52]	@ 0x34
1001a12c:	2b00      	cmp	r3, #0
1001a12e:	d04a      	beq.n	1001a1c6 <__swbuf_r+0xa6>
1001a130:	f9b4 200c 	ldrsh.w	r2, [r4, #12]
1001a134:	69a3      	ldr	r3, [r4, #24]
1001a136:	60a3      	str	r3, [r4, #8]
1001a138:	0710      	lsls	r0, r2, #28
1001a13a:	d51b      	bpl.n	1001a174 <__swbuf_r+0x54>
1001a13c:	6923      	ldr	r3, [r4, #16]
1001a13e:	b1cb      	cbz	r3, 1001a174 <__swbuf_r+0x54>
1001a140:	b2ed      	uxtb	r5, r5
1001a142:	0491      	lsls	r1, r2, #18
1001a144:	462f      	mov	r7, r5
1001a146:	d521      	bpl.n	1001a18c <__swbuf_r+0x6c>
1001a148:	6822      	ldr	r2, [r4, #0]
1001a14a:	6961      	ldr	r1, [r4, #20]
1001a14c:	1ad3      	subs	r3, r2, r3
1001a14e:	4299      	cmp	r1, r3
1001a150:	dd28      	ble.n	1001a1a4 <__swbuf_r+0x84>
1001a152:	3301      	adds	r3, #1
1001a154:	68a1      	ldr	r1, [r4, #8]
1001a156:	3901      	subs	r1, #1
1001a158:	60a1      	str	r1, [r4, #8]
1001a15a:	1c51      	adds	r1, r2, #1
1001a15c:	6021      	str	r1, [r4, #0]
1001a15e:	7015      	strb	r5, [r2, #0]
1001a160:	6962      	ldr	r2, [r4, #20]
1001a162:	429a      	cmp	r2, r3
1001a164:	d026      	beq.n	1001a1b4 <__swbuf_r+0x94>
1001a166:	89a3      	ldrh	r3, [r4, #12]
1001a168:	07db      	lsls	r3, r3, #31
1001a16a:	d501      	bpl.n	1001a170 <__swbuf_r+0x50>
1001a16c:	2d0a      	cmp	r5, #10
1001a16e:	d021      	beq.n	1001a1b4 <__swbuf_r+0x94>
1001a170:	4638      	mov	r0, r7
1001a172:	bdf8      	pop	{r3, r4, r5, r6, r7, pc}
1001a174:	4621      	mov	r1, r4
1001a176:	4630      	mov	r0, r6
1001a178:	f7fe ff34 	bl	10018fe4 <__swsetup_r>
1001a17c:	bb00      	cbnz	r0, 1001a1c0 <__swbuf_r+0xa0>
1001a17e:	f9b4 200c 	ldrsh.w	r2, [r4, #12]
1001a182:	6923      	ldr	r3, [r4, #16]
1001a184:	b2ed      	uxtb	r5, r5
1001a186:	0491      	lsls	r1, r2, #18
1001a188:	462f      	mov	r7, r5
1001a18a:	d4dd      	bmi.n	1001a148 <__swbuf_r+0x28>
1001a18c:	f442 5200 	orr.w	r2, r2, #8192	@ 0x2000
1001a190:	81a2      	strh	r2, [r4, #12]
1001a192:	6e62      	ldr	r2, [r4, #100]	@ 0x64
1001a194:	6961      	ldr	r1, [r4, #20]
1001a196:	f422 5200 	bic.w	r2, r2, #8192	@ 0x2000
1001a19a:	6662      	str	r2, [r4, #100]	@ 0x64
1001a19c:	6822      	ldr	r2, [r4, #0]
1001a19e:	1ad3      	subs	r3, r2, r3
1001a1a0:	4299      	cmp	r1, r3
1001a1a2:	dcd6      	bgt.n	1001a152 <__swbuf_r+0x32>
1001a1a4:	4621      	mov	r1, r4
1001a1a6:	4630      	mov	r0, r6
1001a1a8:	f7ff fd18 	bl	10019bdc <_fflush_r>
1001a1ac:	b940      	cbnz	r0, 1001a1c0 <__swbuf_r+0xa0>
1001a1ae:	6822      	ldr	r2, [r4, #0]
1001a1b0:	2301      	movs	r3, #1
1001a1b2:	e7cf      	b.n	1001a154 <__swbuf_r+0x34>
1001a1b4:	4621      	mov	r1, r4
1001a1b6:	4630      	mov	r0, r6
1001a1b8:	f7ff fd10 	bl	10019bdc <_fflush_r>
1001a1bc:	2800      	cmp	r0, #0
1001a1be:	d0d7      	beq.n	1001a170 <__swbuf_r+0x50>
1001a1c0:	f04f 37ff 	mov.w	r7, #4294967295	@ 0xffffffff
1001a1c4:	e7d4      	b.n	1001a170 <__swbuf_r+0x50>
1001a1c6:	f7fb f8fd 	bl	100153c4 <__sinit>
1001a1ca:	e7b1      	b.n	1001a130 <__swbuf_r+0x10>

1001a1cc <abort>:
1001a1cc:	b508      	push	{r3, lr}
1001a1ce:	2006      	movs	r0, #6
1001a1d0:	f000 f804 	bl	1001a1dc <raise>
1001a1d4:	2001      	movs	r0, #1
1001a1d6:	f000 f855 	bl	1001a284 <_exit>
1001a1da:	bf00      	nop

1001a1dc <raise>:
1001a1dc:	b538      	push	{r3, r4, r5, lr}
1001a1de:	4b14      	ldr	r3, [pc, #80]	@ (1001a230 <raise+0x54>)
1001a1e0:	281f      	cmp	r0, #31
1001a1e2:	681d      	ldr	r5, [r3, #0]
1001a1e4:	d81e      	bhi.n	1001a224 <raise+0x48>
1001a1e6:	f8d5 2118 	ldr.w	r2, [r5, #280]	@ 0x118
1001a1ea:	4604      	mov	r4, r0
1001a1ec:	b162      	cbz	r2, 1001a208 <raise+0x2c>
1001a1ee:	f852 3020 	ldr.w	r3, [r2, r0, lsl #2]
1001a1f2:	b14b      	cbz	r3, 1001a208 <raise+0x2c>
1001a1f4:	2b01      	cmp	r3, #1
1001a1f6:	d005      	beq.n	1001a204 <raise+0x28>
1001a1f8:	1c59      	adds	r1, r3, #1
1001a1fa:	d00f      	beq.n	1001a21c <raise+0x40>
1001a1fc:	2100      	movs	r1, #0
1001a1fe:	f842 1020 	str.w	r1, [r2, r0, lsl #2]
1001a202:	4798      	blx	r3
1001a204:	2000      	movs	r0, #0
1001a206:	bd38      	pop	{r3, r4, r5, pc}
1001a208:	4628      	mov	r0, r5
1001a20a:	f000 f829 	bl	1001a260 <_getpid_r>
1001a20e:	4622      	mov	r2, r4
1001a210:	4601      	mov	r1, r0
1001a212:	4628      	mov	r0, r5
1001a214:	e8bd 4038 	ldmia.w	sp!, {r3, r4, r5, lr}
1001a218:	f000 b80c 	b.w	1001a234 <_kill_r>
1001a21c:	2316      	movs	r3, #22
1001a21e:	602b      	str	r3, [r5, #0]
1001a220:	2001      	movs	r0, #1
1001a222:	bd38      	pop	{r3, r4, r5, pc}
1001a224:	2316      	movs	r3, #22
1001a226:	602b      	str	r3, [r5, #0]
1001a228:	f04f 30ff 	mov.w	r0, #4294967295	@ 0xffffffff
1001a22c:	bd38      	pop	{r3, r4, r5, pc}
1001a22e:	bf00      	nop
1001a230:	200005b8 	.word	0x200005b8

1001a234 <_kill_r>:
1001a234:	b570      	push	{r4, r5, r6, lr}
1001a236:	460c      	mov	r4, r1
1001a238:	4d08      	ldr	r5, [pc, #32]	@ (1001a25c <_kill_r+0x28>)
1001a23a:	4603      	mov	r3, r0
1001a23c:	2600      	movs	r6, #0
1001a23e:	4620      	mov	r0, r4
1001a240:	4611      	mov	r1, r2
1001a242:	461c      	mov	r4, r3
1001a244:	602e      	str	r6, [r5, #0]
1001a246:	f000 f815 	bl	1001a274 <_kill>
1001a24a:	1c43      	adds	r3, r0, #1
1001a24c:	d000      	beq.n	1001a250 <_kill_r+0x1c>
1001a24e:	bd70      	pop	{r4, r5, r6, pc}
1001a250:	682b      	ldr	r3, [r5, #0]
1001a252:	2b00      	cmp	r3, #0
1001a254:	d0fb      	beq.n	1001a24e <_kill_r+0x1a>
1001a256:	6023      	str	r3, [r4, #0]
1001a258:	bd70      	pop	{r4, r5, r6, pc}
1001a25a:	bf00      	nop
1001a25c:	2000173c 	.word	0x2000173c

1001a260 <_getpid_r>:
1001a260:	f000 b800 	b.w	1001a264 <_getpid>

1001a264 <_getpid>:
1001a264:	4b02      	ldr	r3, [pc, #8]	@ (1001a270 <_getpid+0xc>)
1001a266:	2258      	movs	r2, #88	@ 0x58
1001a268:	601a      	str	r2, [r3, #0]
1001a26a:	f04f 30ff 	mov.w	r0, #4294967295	@ 0xffffffff
1001a26e:	4770      	bx	lr
1001a270:	2000173c 	.word	0x2000173c

1001a274 <_kill>:
1001a274:	4b02      	ldr	r3, [pc, #8]	@ (1001a280 <_kill+0xc>)
1001a276:	2258      	movs	r2, #88	@ 0x58
1001a278:	601a      	str	r2, [r3, #0]
1001a27a:	f04f 30ff 	mov.w	r0, #4294967295	@ 0xffffffff
1001a27e:	4770      	bx	lr
1001a280:	2000173c 	.word	0x2000173c

1001a284 <_exit>:
1001a284:	e7fe      	b.n	1001a284 <_exit>
1001a286:	bf00      	nop

1001a288 <__aeabi_drsub>:
1001a288:	f081 4100 	eor.w	r1, r1, #2147483648	@ 0x80000000
1001a28c:	e002      	b.n	1001a294 <__adddf3>
1001a28e:	bf00      	nop

1001a290 <__aeabi_dsub>:
1001a290:	f083 4300 	eor.w	r3, r3, #2147483648	@ 0x80000000

1001a294 <__adddf3>:
1001a294:	b530      	push	{r4, r5, lr}
1001a296:	ea4f 0441 	mov.w	r4, r1, lsl #1
1001a29a:	ea4f 0543 	mov.w	r5, r3, lsl #1
1001a29e:	ea94 0f05 	teq	r4, r5
1001a2a2:	bf08      	it	eq
1001a2a4:	ea90 0f02 	teqeq	r0, r2
1001a2a8:	bf1f      	itttt	ne
1001a2aa:	ea54 0c00 	orrsne.w	ip, r4, r0
1001a2ae:	ea55 0c02 	orrsne.w	ip, r5, r2
1001a2b2:	ea7f 5c64 	mvnsne.w	ip, r4, asr #21
1001a2b6:	ea7f 5c65 	mvnsne.w	ip, r5, asr #21
1001a2ba:	f000 80e2 	beq.w	1001a482 <__adddf3+0x1ee>
1001a2be:	ea4f 5454 	mov.w	r4, r4, lsr #21
1001a2c2:	ebd4 5555 	rsbs	r5, r4, r5, lsr #21
1001a2c6:	bfb8      	it	lt
1001a2c8:	426d      	neglt	r5, r5
1001a2ca:	dd0c      	ble.n	1001a2e6 <__adddf3+0x52>
1001a2cc:	442c      	add	r4, r5
1001a2ce:	ea80 0202 	eor.w	r2, r0, r2
1001a2d2:	ea81 0303 	eor.w	r3, r1, r3
1001a2d6:	ea82 0000 	eor.w	r0, r2, r0
1001a2da:	ea83 0101 	eor.w	r1, r3, r1
1001a2de:	ea80 0202 	eor.w	r2, r0, r2
1001a2e2:	ea81 0303 	eor.w	r3, r1, r3
1001a2e6:	2d36      	cmp	r5, #54	@ 0x36
1001a2e8:	bf88      	it	hi
1001a2ea:	bd30      	pophi	{r4, r5, pc}
1001a2ec:	f011 4f00 	tst.w	r1, #2147483648	@ 0x80000000
1001a2f0:	ea4f 3101 	mov.w	r1, r1, lsl #12
1001a2f4:	f44f 1c80 	mov.w	ip, #1048576	@ 0x100000
1001a2f8:	ea4c 3111 	orr.w	r1, ip, r1, lsr #12
1001a2fc:	d002      	beq.n	1001a304 <__adddf3+0x70>
1001a2fe:	4240      	negs	r0, r0
1001a300:	eb61 0141 	sbc.w	r1, r1, r1, lsl #1
1001a304:	f013 4f00 	tst.w	r3, #2147483648	@ 0x80000000
1001a308:	ea4f 3303 	mov.w	r3, r3, lsl #12
1001a30c:	ea4c 3313 	orr.w	r3, ip, r3, lsr #12
1001a310:	d002      	beq.n	1001a318 <__adddf3+0x84>
1001a312:	4252      	negs	r2, r2
1001a314:	eb63 0343 	sbc.w	r3, r3, r3, lsl #1
1001a318:	ea94 0f05 	teq	r4, r5
1001a31c:	f000 80a7 	beq.w	1001a46e <__adddf3+0x1da>
1001a320:	f1a4 0401 	sub.w	r4, r4, #1
1001a324:	f1d5 0e20 	rsbs	lr, r5, #32
1001a328:	db0d      	blt.n	1001a346 <__adddf3+0xb2>
1001a32a:	fa02 fc0e 	lsl.w	ip, r2, lr
1001a32e:	fa22 f205 	lsr.w	r2, r2, r5
1001a332:	1880      	adds	r0, r0, r2
1001a334:	f141 0100 	adc.w	r1, r1, #0
1001a338:	fa03 f20e 	lsl.w	r2, r3, lr
1001a33c:	1880      	adds	r0, r0, r2
1001a33e:	fa43 f305 	asr.w	r3, r3, r5
1001a342:	4159      	adcs	r1, r3
1001a344:	e00e      	b.n	1001a364 <__adddf3+0xd0>
1001a346:	f1a5 0520 	sub.w	r5, r5, #32
1001a34a:	f10e 0e20 	add.w	lr, lr, #32
1001a34e:	2a01      	cmp	r2, #1
1001a350:	fa03 fc0e 	lsl.w	ip, r3, lr
1001a354:	bf28      	it	cs
1001a356:	f04c 0c02 	orrcs.w	ip, ip, #2
1001a35a:	fa43 f305 	asr.w	r3, r3, r5
1001a35e:	18c0      	adds	r0, r0, r3
1001a360:	eb51 71e3 	adcs.w	r1, r1, r3, asr #31
1001a364:	f001 4500 	and.w	r5, r1, #2147483648	@ 0x80000000
1001a368:	d507      	bpl.n	1001a37a <__adddf3+0xe6>
1001a36a:	f04f 0e00 	mov.w	lr, #0
1001a36e:	f1dc 0c00 	rsbs	ip, ip, #0
1001a372:	eb7e 0000 	sbcs.w	r0, lr, r0
1001a376:	eb6e 0101 	sbc.w	r1, lr, r1
1001a37a:	f5b1 1f80 	cmp.w	r1, #1048576	@ 0x100000
1001a37e:	d31b      	bcc.n	1001a3b8 <__adddf3+0x124>
1001a380:	f5b1 1f00 	cmp.w	r1, #2097152	@ 0x200000
1001a384:	d30c      	bcc.n	1001a3a0 <__adddf3+0x10c>
1001a386:	0849      	lsrs	r1, r1, #1
1001a388:	ea5f 0030 	movs.w	r0, r0, rrx
1001a38c:	ea4f 0c3c 	mov.w	ip, ip, rrx
1001a390:	f104 0401 	add.w	r4, r4, #1
1001a394:	ea4f 5244 	mov.w	r2, r4, lsl #21
1001a398:	f512 0f80 	cmn.w	r2, #4194304	@ 0x400000
1001a39c:	f080 809a 	bcs.w	1001a4d4 <__adddf3+0x240>
1001a3a0:	f1bc 4f00 	cmp.w	ip, #2147483648	@ 0x80000000
1001a3a4:	bf08      	it	eq
1001a3a6:	ea5f 0c50 	movseq.w	ip, r0, lsr #1
1001a3aa:	f150 0000 	adcs.w	r0, r0, #0
1001a3ae:	eb41 5104 	adc.w	r1, r1, r4, lsl #20
1001a3b2:	ea41 0105 	orr.w	r1, r1, r5
1001a3b6:	bd30      	pop	{r4, r5, pc}
1001a3b8:	ea5f 0c4c 	movs.w	ip, ip, lsl #1
1001a3bc:	4140      	adcs	r0, r0
1001a3be:	eb41 0101 	adc.w	r1, r1, r1
1001a3c2:	3c01      	subs	r4, #1
1001a3c4:	bf28      	it	cs
1001a3c6:	f5b1 1f80 	cmpcs.w	r1, #1048576	@ 0x100000
1001a3ca:	d2e9      	bcs.n	1001a3a0 <__adddf3+0x10c>
1001a3cc:	f091 0f00 	teq	r1, #0
1001a3d0:	bf04      	itt	eq
1001a3d2:	4601      	moveq	r1, r0
1001a3d4:	2000      	moveq	r0, #0
1001a3d6:	fab1 f381 	clz	r3, r1
1001a3da:	bf08      	it	eq
1001a3dc:	3320      	addeq	r3, #32
1001a3de:	f1a3 030b 	sub.w	r3, r3, #11
1001a3e2:	f1b3 0220 	subs.w	r2, r3, #32
1001a3e6:	da0c      	bge.n	1001a402 <__adddf3+0x16e>
1001a3e8:	320c      	adds	r2, #12
1001a3ea:	dd08      	ble.n	1001a3fe <__adddf3+0x16a>
1001a3ec:	f102 0c14 	add.w	ip, r2, #20
1001a3f0:	f1c2 020c 	rsb	r2, r2, #12
1001a3f4:	fa01 f00c 	lsl.w	r0, r1, ip
1001a3f8:	fa21 f102 	lsr.w	r1, r1, r2
1001a3fc:	e00c      	b.n	1001a418 <__adddf3+0x184>
1001a3fe:	f102 0214 	add.w	r2, r2, #20
1001a402:	bfd8      	it	le
1001a404:	f1c2 0c20 	rsble	ip, r2, #32
1001a408:	fa01 f102 	lsl.w	r1, r1, r2
1001a40c:	fa20 fc0c 	lsr.w	ip, r0, ip
1001a410:	bfdc      	itt	le
1001a412:	ea41 010c 	orrle.w	r1, r1, ip
1001a416:	4090      	lslle	r0, r2
1001a418:	1ae4      	subs	r4, r4, r3
1001a41a:	bfa2      	ittt	ge
1001a41c:	eb01 5104 	addge.w	r1, r1, r4, lsl #20
1001a420:	4329      	orrge	r1, r5
1001a422:	bd30      	popge	{r4, r5, pc}
1001a424:	ea6f 0404 	mvn.w	r4, r4
1001a428:	3c1f      	subs	r4, #31
1001a42a:	da1c      	bge.n	1001a466 <__adddf3+0x1d2>
1001a42c:	340c      	adds	r4, #12
1001a42e:	dc0e      	bgt.n	1001a44e <__adddf3+0x1ba>
1001a430:	f104 0414 	add.w	r4, r4, #20
1001a434:	f1c4 0220 	rsb	r2, r4, #32
1001a438:	fa20 f004 	lsr.w	r0, r0, r4
1001a43c:	fa01 f302 	lsl.w	r3, r1, r2
1001a440:	ea40 0003 	orr.w	r0, r0, r3
1001a444:	fa21 f304 	lsr.w	r3, r1, r4
1001a448:	ea45 0103 	orr.w	r1, r5, r3
1001a44c:	bd30      	pop	{r4, r5, pc}
1001a44e:	f1c4 040c 	rsb	r4, r4, #12
1001a452:	f1c4 0220 	rsb	r2, r4, #32
1001a456:	fa20 f002 	lsr.w	r0, r0, r2
1001a45a:	fa01 f304 	lsl.w	r3, r1, r4
1001a45e:	ea40 0003 	orr.w	r0, r0, r3
1001a462:	4629      	mov	r1, r5
1001a464:	bd30      	pop	{r4, r5, pc}
1001a466:	fa21 f004 	lsr.w	r0, r1, r4
1001a46a:	4629      	mov	r1, r5
1001a46c:	bd30      	pop	{r4, r5, pc}
1001a46e:	f094 0f00 	teq	r4, #0
1001a472:	f483 1380 	eor.w	r3, r3, #1048576	@ 0x100000
1001a476:	bf06      	itte	eq
1001a478:	f481 1180 	eoreq.w	r1, r1, #1048576	@ 0x100000
1001a47c:	3401      	addeq	r4, #1
1001a47e:	3d01      	subne	r5, #1
1001a480:	e74e      	b.n	1001a320 <__adddf3+0x8c>
1001a482:	ea7f 5c64 	mvns.w	ip, r4, asr #21
1001a486:	bf18      	it	ne
1001a488:	ea7f 5c65 	mvnsne.w	ip, r5, asr #21
1001a48c:	d029      	beq.n	1001a4e2 <__adddf3+0x24e>
1001a48e:	ea94 0f05 	teq	r4, r5
1001a492:	bf08      	it	eq
1001a494:	ea90 0f02 	teqeq	r0, r2
1001a498:	d005      	beq.n	1001a4a6 <__adddf3+0x212>
1001a49a:	ea54 0c00 	orrs.w	ip, r4, r0
1001a49e:	bf04      	itt	eq
1001a4a0:	4619      	moveq	r1, r3
1001a4a2:	4610      	moveq	r0, r2
1001a4a4:	bd30      	pop	{r4, r5, pc}
1001a4a6:	ea91 0f03 	teq	r1, r3
1001a4aa:	bf1e      	ittt	ne
1001a4ac:	2100      	movne	r1, #0
1001a4ae:	2000      	movne	r0, #0
1001a4b0:	bd30      	popne	{r4, r5, pc}
1001a4b2:	ea5f 5c54 	movs.w	ip, r4, lsr #21
1001a4b6:	d105      	bne.n	1001a4c4 <__adddf3+0x230>
1001a4b8:	0040      	lsls	r0, r0, #1
1001a4ba:	4149      	adcs	r1, r1
1001a4bc:	bf28      	it	cs
1001a4be:	f041 4100 	orrcs.w	r1, r1, #2147483648	@ 0x80000000
1001a4c2:	bd30      	pop	{r4, r5, pc}
1001a4c4:	f514 0480 	adds.w	r4, r4, #4194304	@ 0x400000
1001a4c8:	bf3c      	itt	cc
1001a4ca:	f501 1180 	addcc.w	r1, r1, #1048576	@ 0x100000
1001a4ce:	bd30      	popcc	{r4, r5, pc}
1001a4d0:	f001 4500 	and.w	r5, r1, #2147483648	@ 0x80000000
1001a4d4:	f045 41fe 	orr.w	r1, r5, #2130706432	@ 0x7f000000
1001a4d8:	f441 0170 	orr.w	r1, r1, #15728640	@ 0xf00000
1001a4dc:	f04f 0000 	mov.w	r0, #0
1001a4e0:	bd30      	pop	{r4, r5, pc}
1001a4e2:	ea7f 5c64 	mvns.w	ip, r4, asr #21
1001a4e6:	bf1a      	itte	ne
1001a4e8:	4619      	movne	r1, r3
1001a4ea:	4610      	movne	r0, r2
1001a4ec:	ea7f 5c65 	mvnseq.w	ip, r5, asr #21
1001a4f0:	bf1c      	itt	ne
1001a4f2:	460b      	movne	r3, r1
1001a4f4:	4602      	movne	r2, r0
1001a4f6:	ea50 3401 	orrs.w	r4, r0, r1, lsl #12
1001a4fa:	bf06      	itte	eq
1001a4fc:	ea52 3503 	orrseq.w	r5, r2, r3, lsl #12
1001a500:	ea91 0f03 	teqeq	r1, r3
1001a504:	f441 2100 	orrne.w	r1, r1, #524288	@ 0x80000
1001a508:	bd30      	pop	{r4, r5, pc}
1001a50a:	bf00      	nop

1001a50c <__aeabi_ui2d>:
1001a50c:	f090 0f00 	teq	r0, #0
1001a510:	bf04      	itt	eq
1001a512:	2100      	moveq	r1, #0
1001a514:	4770      	bxeq	lr
1001a516:	b530      	push	{r4, r5, lr}
1001a518:	f44f 6480 	mov.w	r4, #1024	@ 0x400
1001a51c:	f104 0432 	add.w	r4, r4, #50	@ 0x32
1001a520:	f04f 0500 	mov.w	r5, #0
1001a524:	f04f 0100 	mov.w	r1, #0
1001a528:	e750      	b.n	1001a3cc <__adddf3+0x138>
1001a52a:	bf00      	nop

1001a52c <__aeabi_i2d>:
1001a52c:	f090 0f00 	teq	r0, #0
1001a530:	bf04      	itt	eq
1001a532:	2100      	moveq	r1, #0
1001a534:	4770      	bxeq	lr
1001a536:	b530      	push	{r4, r5, lr}
1001a538:	f44f 6480 	mov.w	r4, #1024	@ 0x400
1001a53c:	f104 0432 	add.w	r4, r4, #50	@ 0x32
1001a540:	f010 4500 	ands.w	r5, r0, #2147483648	@ 0x80000000
1001a544:	bf48      	it	mi
1001a546:	4240      	negmi	r0, r0
1001a548:	f04f 0100 	mov.w	r1, #0
1001a54c:	e73e      	b.n	1001a3cc <__adddf3+0x138>
1001a54e:	bf00      	nop

1001a550 <__aeabi_f2d>:
1001a550:	0042      	lsls	r2, r0, #1
1001a552:	ea4f 01e2 	mov.w	r1, r2, asr #3
1001a556:	ea4f 0131 	mov.w	r1, r1, rrx
1001a55a:	ea4f 7002 	mov.w	r0, r2, lsl #28
1001a55e:	bf1f      	itttt	ne
1001a560:	f012 437f 	andsne.w	r3, r2, #4278190080	@ 0xff000000
1001a564:	f093 4f7f 	teqne	r3, #4278190080	@ 0xff000000
1001a568:	f081 5160 	eorne.w	r1, r1, #939524096	@ 0x38000000
1001a56c:	4770      	bxne	lr
1001a56e:	f032 427f 	bics.w	r2, r2, #4278190080	@ 0xff000000
1001a572:	bf08      	it	eq
1001a574:	4770      	bxeq	lr
1001a576:	f093 4f7f 	teq	r3, #4278190080	@ 0xff000000
1001a57a:	bf04      	itt	eq
1001a57c:	f441 2100 	orreq.w	r1, r1, #524288	@ 0x80000
1001a580:	4770      	bxeq	lr
1001a582:	b530      	push	{r4, r5, lr}
1001a584:	f44f 7460 	mov.w	r4, #896	@ 0x380
1001a588:	f001 4500 	and.w	r5, r1, #2147483648	@ 0x80000000
1001a58c:	f021 4100 	bic.w	r1, r1, #2147483648	@ 0x80000000
1001a590:	e71c      	b.n	1001a3cc <__adddf3+0x138>
1001a592:	bf00      	nop

1001a594 <__aeabi_ul2d>:
1001a594:	ea50 0201 	orrs.w	r2, r0, r1
1001a598:	bf08      	it	eq
1001a59a:	4770      	bxeq	lr
1001a59c:	b530      	push	{r4, r5, lr}
1001a59e:	f04f 0500 	mov.w	r5, #0
1001a5a2:	e00a      	b.n	1001a5ba <__aeabi_l2d+0x16>

1001a5a4 <__aeabi_l2d>:
1001a5a4:	ea50 0201 	orrs.w	r2, r0, r1
1001a5a8:	bf08      	it	eq
1001a5aa:	4770      	bxeq	lr
1001a5ac:	b530      	push	{r4, r5, lr}
1001a5ae:	f011 4500 	ands.w	r5, r1, #2147483648	@ 0x80000000
1001a5b2:	d502      	bpl.n	1001a5ba <__aeabi_l2d+0x16>
1001a5b4:	4240      	negs	r0, r0
1001a5b6:	eb61 0141 	sbc.w	r1, r1, r1, lsl #1
1001a5ba:	f44f 6480 	mov.w	r4, #1024	@ 0x400
1001a5be:	f104 0432 	add.w	r4, r4, #50	@ 0x32
1001a5c2:	ea5f 5c91 	movs.w	ip, r1, lsr #22
1001a5c6:	f43f aed8 	beq.w	1001a37a <__adddf3+0xe6>
1001a5ca:	f04f 0203 	mov.w	r2, #3
1001a5ce:	ea5f 0cdc 	movs.w	ip, ip, lsr #3
1001a5d2:	bf18      	it	ne
1001a5d4:	3203      	addne	r2, #3
1001a5d6:	ea5f 0cdc 	movs.w	ip, ip, lsr #3
1001a5da:	bf18      	it	ne
1001a5dc:	3203      	addne	r2, #3
1001a5de:	eb02 02dc 	add.w	r2, r2, ip, lsr #3
1001a5e2:	f1c2 0320 	rsb	r3, r2, #32
1001a5e6:	fa00 fc03 	lsl.w	ip, r0, r3
1001a5ea:	fa20 f002 	lsr.w	r0, r0, r2
1001a5ee:	fa01 fe03 	lsl.w	lr, r1, r3
1001a5f2:	ea40 000e 	orr.w	r0, r0, lr
1001a5f6:	fa21 f102 	lsr.w	r1, r1, r2
1001a5fa:	4414      	add	r4, r2
1001a5fc:	e6bd      	b.n	1001a37a <__adddf3+0xe6>
1001a5fe:	bf00      	nop

1001a600 <__aeabi_dmul>:
1001a600:	b570      	push	{r4, r5, r6, lr}
1001a602:	f04f 0cff 	mov.w	ip, #255	@ 0xff
1001a606:	f44c 6ce0 	orr.w	ip, ip, #1792	@ 0x700
1001a60a:	ea1c 5411 	ands.w	r4, ip, r1, lsr #20
1001a60e:	bf1d      	ittte	ne
1001a610:	ea1c 5513 	andsne.w	r5, ip, r3, lsr #20
1001a614:	ea94 0f0c 	teqne	r4, ip
1001a618:	ea95 0f0c 	teqne	r5, ip
1001a61c:	f000 f8de 	bleq	1001a7dc <__aeabi_dmul+0x1dc>
1001a620:	442c      	add	r4, r5
1001a622:	ea81 0603 	eor.w	r6, r1, r3
1001a626:	ea21 514c 	bic.w	r1, r1, ip, lsl #21
1001a62a:	ea23 534c 	bic.w	r3, r3, ip, lsl #21
1001a62e:	ea50 3501 	orrs.w	r5, r0, r1, lsl #12
1001a632:	bf18      	it	ne
1001a634:	ea52 3503 	orrsne.w	r5, r2, r3, lsl #12
1001a638:	f441 1180 	orr.w	r1, r1, #1048576	@ 0x100000
1001a63c:	f443 1380 	orr.w	r3, r3, #1048576	@ 0x100000
1001a640:	d038      	beq.n	1001a6b4 <__aeabi_dmul+0xb4>
1001a642:	fba0 ce02 	umull	ip, lr, r0, r2
1001a646:	f04f 0500 	mov.w	r5, #0
1001a64a:	fbe1 e502 	umlal	lr, r5, r1, r2
1001a64e:	f006 4200 	and.w	r2, r6, #2147483648	@ 0x80000000
1001a652:	fbe0 e503 	umlal	lr, r5, r0, r3
1001a656:	f04f 0600 	mov.w	r6, #0
1001a65a:	fbe1 5603 	umlal	r5, r6, r1, r3
1001a65e:	f09c 0f00 	teq	ip, #0
1001a662:	bf18      	it	ne
1001a664:	f04e 0e01 	orrne.w	lr, lr, #1
1001a668:	f1a4 04ff 	sub.w	r4, r4, #255	@ 0xff
1001a66c:	f5b6 7f00 	cmp.w	r6, #512	@ 0x200
1001a670:	f564 7440 	sbc.w	r4, r4, #768	@ 0x300
1001a674:	d204      	bcs.n	1001a680 <__aeabi_dmul+0x80>
1001a676:	ea5f 0e4e 	movs.w	lr, lr, lsl #1
1001a67a:	416d      	adcs	r5, r5
1001a67c:	eb46 0606 	adc.w	r6, r6, r6
1001a680:	ea42 21c6 	orr.w	r1, r2, r6, lsl #11
1001a684:	ea41 5155 	orr.w	r1, r1, r5, lsr #21
1001a688:	ea4f 20c5 	mov.w	r0, r5, lsl #11
1001a68c:	ea40 505e 	orr.w	r0, r0, lr, lsr #21
1001a690:	ea4f 2ece 	mov.w	lr, lr, lsl #11
1001a694:	f1b4 0cfd 	subs.w	ip, r4, #253	@ 0xfd
1001a698:	bf88      	it	hi
1001a69a:	f5bc 6fe0 	cmphi.w	ip, #1792	@ 0x700
1001a69e:	d81e      	bhi.n	1001a6de <__aeabi_dmul+0xde>
1001a6a0:	f1be 4f00 	cmp.w	lr, #2147483648	@ 0x80000000
1001a6a4:	bf08      	it	eq
1001a6a6:	ea5f 0e50 	movseq.w	lr, r0, lsr #1
1001a6aa:	f150 0000 	adcs.w	r0, r0, #0
1001a6ae:	eb41 5104 	adc.w	r1, r1, r4, lsl #20
1001a6b2:	bd70      	pop	{r4, r5, r6, pc}
1001a6b4:	f006 4600 	and.w	r6, r6, #2147483648	@ 0x80000000
1001a6b8:	ea46 0101 	orr.w	r1, r6, r1
1001a6bc:	ea40 0002 	orr.w	r0, r0, r2
1001a6c0:	ea81 0103 	eor.w	r1, r1, r3
1001a6c4:	ebb4 045c 	subs.w	r4, r4, ip, lsr #1
1001a6c8:	bfc2      	ittt	gt
1001a6ca:	ebd4 050c 	rsbsgt	r5, r4, ip
1001a6ce:	ea41 5104 	orrgt.w	r1, r1, r4, lsl #20
1001a6d2:	bd70      	popgt	{r4, r5, r6, pc}
1001a6d4:	f441 1180 	orr.w	r1, r1, #1048576	@ 0x100000
1001a6d8:	f04f 0e00 	mov.w	lr, #0
1001a6dc:	3c01      	subs	r4, #1
1001a6de:	f300 80ab 	bgt.w	1001a838 <__aeabi_dmul+0x238>
1001a6e2:	f114 0f36 	cmn.w	r4, #54	@ 0x36
1001a6e6:	bfde      	ittt	le
1001a6e8:	2000      	movle	r0, #0
1001a6ea:	f001 4100 	andle.w	r1, r1, #2147483648	@ 0x80000000
1001a6ee:	bd70      	pople	{r4, r5, r6, pc}
1001a6f0:	f1c4 0400 	rsb	r4, r4, #0
1001a6f4:	3c20      	subs	r4, #32
1001a6f6:	da35      	bge.n	1001a764 <__aeabi_dmul+0x164>
1001a6f8:	340c      	adds	r4, #12
1001a6fa:	dc1b      	bgt.n	1001a734 <__aeabi_dmul+0x134>
1001a6fc:	f104 0414 	add.w	r4, r4, #20
1001a700:	f1c4 0520 	rsb	r5, r4, #32
1001a704:	fa00 f305 	lsl.w	r3, r0, r5
1001a708:	fa20 f004 	lsr.w	r0, r0, r4
1001a70c:	fa01 f205 	lsl.w	r2, r1, r5
1001a710:	ea40 0002 	orr.w	r0, r0, r2
1001a714:	f001 4200 	and.w	r2, r1, #2147483648	@ 0x80000000
1001a718:	f021 4100 	bic.w	r1, r1, #2147483648	@ 0x80000000
1001a71c:	eb10 70d3 	adds.w	r0, r0, r3, lsr #31
1001a720:	fa21 f604 	lsr.w	r6, r1, r4
1001a724:	eb42 0106 	adc.w	r1, r2, r6
1001a728:	ea5e 0e43 	orrs.w	lr, lr, r3, lsl #1
1001a72c:	bf08      	it	eq
1001a72e:	ea20 70d3 	biceq.w	r0, r0, r3, lsr #31
1001a732:	bd70      	pop	{r4, r5, r6, pc}
1001a734:	f1c4 040c 	rsb	r4, r4, #12
1001a738:	f1c4 0520 	rsb	r5, r4, #32
1001a73c:	fa00 f304 	lsl.w	r3, r0, r4
1001a740:	fa20 f005 	lsr.w	r0, r0, r5
1001a744:	fa01 f204 	lsl.w	r2, r1, r4
1001a748:	ea40 0002 	orr.w	r0, r0, r2
1001a74c:	f001 4100 	and.w	r1, r1, #2147483648	@ 0x80000000
1001a750:	eb10 70d3 	adds.w	r0, r0, r3, lsr #31
1001a754:	f141 0100 	adc.w	r1, r1, #0
1001a758:	ea5e 0e43 	orrs.w	lr, lr, r3, lsl #1
1001a75c:	bf08      	it	eq
1001a75e:	ea20 70d3 	biceq.w	r0, r0, r3, lsr #31
1001a762:	bd70      	pop	{r4, r5, r6, pc}
1001a764:	f1c4 0520 	rsb	r5, r4, #32
1001a768:	fa00 f205 	lsl.w	r2, r0, r5
1001a76c:	ea4e 0e02 	orr.w	lr, lr, r2
1001a770:	fa20 f304 	lsr.w	r3, r0, r4
1001a774:	fa01 f205 	lsl.w	r2, r1, r5
1001a778:	ea43 0302 	orr.w	r3, r3, r2
1001a77c:	fa21 f004 	lsr.w	r0, r1, r4
1001a780:	f001 4100 	and.w	r1, r1, #2147483648	@ 0x80000000
1001a784:	fa21 f204 	lsr.w	r2, r1, r4
1001a788:	ea20 0002 	bic.w	r0, r0, r2
1001a78c:	eb00 70d3 	add.w	r0, r0, r3, lsr #31
1001a790:	ea5e 0e43 	orrs.w	lr, lr, r3, lsl #1
1001a794:	bf08      	it	eq
1001a796:	ea20 70d3 	biceq.w	r0, r0, r3, lsr #31
1001a79a:	bd70      	pop	{r4, r5, r6, pc}
1001a79c:	f094 0f00 	teq	r4, #0
1001a7a0:	d10f      	bne.n	1001a7c2 <__aeabi_dmul+0x1c2>
1001a7a2:	f001 4600 	and.w	r6, r1, #2147483648	@ 0x80000000
1001a7a6:	0040      	lsls	r0, r0, #1
1001a7a8:	eb41 0101 	adc.w	r1, r1, r1
1001a7ac:	f411 1f80 	tst.w	r1, #1048576	@ 0x100000
1001a7b0:	bf08      	it	eq
1001a7b2:	3c01      	subeq	r4, #1
1001a7b4:	d0f7      	beq.n	1001a7a6 <__aeabi_dmul+0x1a6>
1001a7b6:	ea41 0106 	orr.w	r1, r1, r6
1001a7ba:	f095 0f00 	teq	r5, #0
1001a7be:	bf18      	it	ne
1001a7c0:	4770      	bxne	lr
1001a7c2:	f003 4600 	and.w	r6, r3, #2147483648	@ 0x80000000
1001a7c6:	0052      	lsls	r2, r2, #1
1001a7c8:	eb43 0303 	adc.w	r3, r3, r3
1001a7cc:	f413 1f80 	tst.w	r3, #1048576	@ 0x100000
1001a7d0:	bf08      	it	eq
1001a7d2:	3d01      	subeq	r5, #1
1001a7d4:	d0f7      	beq.n	1001a7c6 <__aeabi_dmul+0x1c6>
1001a7d6:	ea43 0306 	orr.w	r3, r3, r6
1001a7da:	4770      	bx	lr
1001a7dc:	ea94 0f0c 	teq	r4, ip
1001a7e0:	ea0c 5513 	and.w	r5, ip, r3, lsr #20
1001a7e4:	bf18      	it	ne
1001a7e6:	ea95 0f0c 	teqne	r5, ip
1001a7ea:	d00c      	beq.n	1001a806 <__aeabi_dmul+0x206>
1001a7ec:	ea50 0641 	orrs.w	r6, r0, r1, lsl #1
1001a7f0:	bf18      	it	ne
1001a7f2:	ea52 0643 	orrsne.w	r6, r2, r3, lsl #1
1001a7f6:	d1d1      	bne.n	1001a79c <__aeabi_dmul+0x19c>
1001a7f8:	ea81 0103 	eor.w	r1, r1, r3
1001a7fc:	f001 4100 	and.w	r1, r1, #2147483648	@ 0x80000000
1001a800:	f04f 0000 	mov.w	r0, #0
1001a804:	bd70      	pop	{r4, r5, r6, pc}
1001a806:	ea50 0641 	orrs.w	r6, r0, r1, lsl #1
1001a80a:	bf06      	itte	eq
1001a80c:	4610      	moveq	r0, r2
1001a80e:	4619      	moveq	r1, r3
1001a810:	ea52 0643 	orrsne.w	r6, r2, r3, lsl #1
1001a814:	d019      	beq.n	1001a84a <__aeabi_dmul+0x24a>
1001a816:	ea94 0f0c 	teq	r4, ip
1001a81a:	d102      	bne.n	1001a822 <__aeabi_dmul+0x222>
1001a81c:	ea50 3601 	orrs.w	r6, r0, r1, lsl #12
1001a820:	d113      	bne.n	1001a84a <__aeabi_dmul+0x24a>
1001a822:	ea95 0f0c 	teq	r5, ip
1001a826:	d105      	bne.n	1001a834 <__aeabi_dmul+0x234>
1001a828:	ea52 3603 	orrs.w	r6, r2, r3, lsl #12
1001a82c:	bf1c      	itt	ne
1001a82e:	4610      	movne	r0, r2
1001a830:	4619      	movne	r1, r3
1001a832:	d10a      	bne.n	1001a84a <__aeabi_dmul+0x24a>
1001a834:	ea81 0103 	eor.w	r1, r1, r3
1001a838:	f001 4100 	and.w	r1, r1, #2147483648	@ 0x80000000
1001a83c:	f041 41fe 	orr.w	r1, r1, #2130706432	@ 0x7f000000
1001a840:	f441 0170 	orr.w	r1, r1, #15728640	@ 0xf00000
1001a844:	f04f 0000 	mov.w	r0, #0
1001a848:	bd70      	pop	{r4, r5, r6, pc}
1001a84a:	f041 41fe 	orr.w	r1, r1, #2130706432	@ 0x7f000000
1001a84e:	f441 0178 	orr.w	r1, r1, #16252928	@ 0xf80000
1001a852:	bd70      	pop	{r4, r5, r6, pc}

1001a854 <__aeabi_ddiv>:
1001a854:	b570      	push	{r4, r5, r6, lr}
1001a856:	f04f 0cff 	mov.w	ip, #255	@ 0xff
1001a85a:	f44c 6ce0 	orr.w	ip, ip, #1792	@ 0x700
1001a85e:	ea1c 5411 	ands.w	r4, ip, r1, lsr #20
1001a862:	bf1d      	ittte	ne
1001a864:	ea1c 5513 	andsne.w	r5, ip, r3, lsr #20
1001a868:	ea94 0f0c 	teqne	r4, ip
1001a86c:	ea95 0f0c 	teqne	r5, ip
1001a870:	f000 f8a7 	bleq	1001a9c2 <__aeabi_ddiv+0x16e>
1001a874:	eba4 0405 	sub.w	r4, r4, r5
1001a878:	ea81 0e03 	eor.w	lr, r1, r3
1001a87c:	ea52 3503 	orrs.w	r5, r2, r3, lsl #12
1001a880:	ea4f 3101 	mov.w	r1, r1, lsl #12
1001a884:	f000 8088 	beq.w	1001a998 <__aeabi_ddiv+0x144>
1001a888:	ea4f 3303 	mov.w	r3, r3, lsl #12
1001a88c:	f04f 5580 	mov.w	r5, #268435456	@ 0x10000000
1001a890:	ea45 1313 	orr.w	r3, r5, r3, lsr #4
1001a894:	ea43 6312 	orr.w	r3, r3, r2, lsr #24
1001a898:	ea4f 2202 	mov.w	r2, r2, lsl #8
1001a89c:	ea45 1511 	orr.w	r5, r5, r1, lsr #4
1001a8a0:	ea45 6510 	orr.w	r5, r5, r0, lsr #24
1001a8a4:	ea4f 2600 	mov.w	r6, r0, lsl #8
1001a8a8:	f00e 4100 	and.w	r1, lr, #2147483648	@ 0x80000000
1001a8ac:	429d      	cmp	r5, r3
1001a8ae:	bf08      	it	eq
1001a8b0:	4296      	cmpeq	r6, r2
1001a8b2:	f144 04fd 	adc.w	r4, r4, #253	@ 0xfd
1001a8b6:	f504 7440 	add.w	r4, r4, #768	@ 0x300
1001a8ba:	d202      	bcs.n	1001a8c2 <__aeabi_ddiv+0x6e>
1001a8bc:	085b      	lsrs	r3, r3, #1
1001a8be:	ea4f 0232 	mov.w	r2, r2, rrx
1001a8c2:	1ab6      	subs	r6, r6, r2
1001a8c4:	eb65 0503 	sbc.w	r5, r5, r3
1001a8c8:	085b      	lsrs	r3, r3, #1
1001a8ca:	ea4f 0232 	mov.w	r2, r2, rrx
1001a8ce:	f44f 1080 	mov.w	r0, #1048576	@ 0x100000
1001a8d2:	f44f 2c00 	mov.w	ip, #524288	@ 0x80000
1001a8d6:	ebb6 0e02 	subs.w	lr, r6, r2
1001a8da:	eb75 0e03 	sbcs.w	lr, r5, r3
1001a8de:	bf22      	ittt	cs
1001a8e0:	1ab6      	subcs	r6, r6, r2
1001a8e2:	4675      	movcs	r5, lr
1001a8e4:	ea40 000c 	orrcs.w	r0, r0, ip
1001a8e8:	085b      	lsrs	r3, r3, #1
1001a8ea:	ea4f 0232 	mov.w	r2, r2, rrx
1001a8ee:	ebb6 0e02 	subs.w	lr, r6, r2
1001a8f2:	eb75 0e03 	sbcs.w	lr, r5, r3
1001a8f6:	bf22      	ittt	cs
1001a8f8:	1ab6      	subcs	r6, r6, r2
1001a8fa:	4675      	movcs	r5, lr
1001a8fc:	ea40 005c 	orrcs.w	r0, r0, ip, lsr #1
1001a900:	085b      	lsrs	r3, r3, #1
1001a902:	ea4f 0232 	mov.w	r2, r2, rrx
1001a906:	ebb6 0e02 	subs.w	lr, r6, r2
1001a90a:	eb75 0e03 	sbcs.w	lr, r5, r3
1001a90e:	bf22      	ittt	cs
1001a910:	1ab6      	subcs	r6, r6, r2
1001a912:	4675      	movcs	r5, lr
1001a914:	ea40 009c 	orrcs.w	r0, r0, ip, lsr #2
1001a918:	085b      	lsrs	r3, r3, #1
1001a91a:	ea4f 0232 	mov.w	r2, r2, rrx
1001a91e:	ebb6 0e02 	subs.w	lr, r6, r2
1001a922:	eb75 0e03 	sbcs.w	lr, r5, r3
1001a926:	bf22      	ittt	cs
1001a928:	1ab6      	subcs	r6, r6, r2
1001a92a:	4675      	movcs	r5, lr
1001a92c:	ea40 00dc 	orrcs.w	r0, r0, ip, lsr #3
1001a930:	ea55 0e06 	orrs.w	lr, r5, r6
1001a934:	d018      	beq.n	1001a968 <__aeabi_ddiv+0x114>
1001a936:	ea4f 1505 	mov.w	r5, r5, lsl #4
1001a93a:	ea45 7516 	orr.w	r5, r5, r6, lsr #28
1001a93e:	ea4f 1606 	mov.w	r6, r6, lsl #4
1001a942:	ea4f 03c3 	mov.w	r3, r3, lsl #3
1001a946:	ea43 7352 	orr.w	r3, r3, r2, lsr #29
1001a94a:	ea4f 02c2 	mov.w	r2, r2, lsl #3
1001a94e:	ea5f 1c1c 	movs.w	ip, ip, lsr #4
1001a952:	d1c0      	bne.n	1001a8d6 <__aeabi_ddiv+0x82>
1001a954:	f411 1f80 	tst.w	r1, #1048576	@ 0x100000
1001a958:	d10b      	bne.n	1001a972 <__aeabi_ddiv+0x11e>
1001a95a:	ea41 0100 	orr.w	r1, r1, r0
1001a95e:	f04f 0000 	mov.w	r0, #0
1001a962:	f04f 4c00 	mov.w	ip, #2147483648	@ 0x80000000
1001a966:	e7b6      	b.n	1001a8d6 <__aeabi_ddiv+0x82>
1001a968:	f411 1f80 	tst.w	r1, #1048576	@ 0x100000
1001a96c:	bf04      	itt	eq
1001a96e:	4301      	orreq	r1, r0
1001a970:	2000      	moveq	r0, #0
1001a972:	f1b4 0cfd 	subs.w	ip, r4, #253	@ 0xfd
1001a976:	bf88      	it	hi
1001a978:	f5bc 6fe0 	cmphi.w	ip, #1792	@ 0x700
1001a97c:	f63f aeaf 	bhi.w	1001a6de <__aeabi_dmul+0xde>
1001a980:	ebb5 0c03 	subs.w	ip, r5, r3
1001a984:	bf04      	itt	eq
1001a986:	ebb6 0c02 	subseq.w	ip, r6, r2
1001a98a:	ea5f 0c50 	movseq.w	ip, r0, lsr #1
1001a98e:	f150 0000 	adcs.w	r0, r0, #0
1001a992:	eb41 5104 	adc.w	r1, r1, r4, lsl #20
1001a996:	bd70      	pop	{r4, r5, r6, pc}
1001a998:	f00e 4e00 	and.w	lr, lr, #2147483648	@ 0x80000000
1001a99c:	ea4e 3111 	orr.w	r1, lr, r1, lsr #12
1001a9a0:	eb14 045c 	adds.w	r4, r4, ip, lsr #1
1001a9a4:	bfc2      	ittt	gt
1001a9a6:	ebd4 050c 	rsbsgt	r5, r4, ip
1001a9aa:	ea41 5104 	orrgt.w	r1, r1, r4, lsl #20
1001a9ae:	bd70      	popgt	{r4, r5, r6, pc}
1001a9b0:	f441 1180 	orr.w	r1, r1, #1048576	@ 0x100000
1001a9b4:	f04f 0e00 	mov.w	lr, #0
1001a9b8:	3c01      	subs	r4, #1
1001a9ba:	e690      	b.n	1001a6de <__aeabi_dmul+0xde>
1001a9bc:	ea45 0e06 	orr.w	lr, r5, r6
1001a9c0:	e68d      	b.n	1001a6de <__aeabi_dmul+0xde>
1001a9c2:	ea0c 5513 	and.w	r5, ip, r3, lsr #20
1001a9c6:	ea94 0f0c 	teq	r4, ip
1001a9ca:	bf08      	it	eq
1001a9cc:	ea95 0f0c 	teqeq	r5, ip
1001a9d0:	f43f af3b 	beq.w	1001a84a <__aeabi_dmul+0x24a>
1001a9d4:	ea94 0f0c 	teq	r4, ip
1001a9d8:	d10a      	bne.n	1001a9f0 <__aeabi_ddiv+0x19c>
1001a9da:	ea50 3401 	orrs.w	r4, r0, r1, lsl #12
1001a9de:	f47f af34 	bne.w	1001a84a <__aeabi_dmul+0x24a>
1001a9e2:	ea95 0f0c 	teq	r5, ip
1001a9e6:	f47f af25 	bne.w	1001a834 <__aeabi_dmul+0x234>
1001a9ea:	4610      	mov	r0, r2
1001a9ec:	4619      	mov	r1, r3
1001a9ee:	e72c      	b.n	1001a84a <__aeabi_dmul+0x24a>
1001a9f0:	ea95 0f0c 	teq	r5, ip
1001a9f4:	d106      	bne.n	1001aa04 <__aeabi_ddiv+0x1b0>
1001a9f6:	ea52 3503 	orrs.w	r5, r2, r3, lsl #12
1001a9fa:	f43f aefd 	beq.w	1001a7f8 <__aeabi_dmul+0x1f8>
1001a9fe:	4610      	mov	r0, r2
1001aa00:	4619      	mov	r1, r3
1001aa02:	e722      	b.n	1001a84a <__aeabi_dmul+0x24a>
1001aa04:	ea50 0641 	orrs.w	r6, r0, r1, lsl #1
1001aa08:	bf18      	it	ne
1001aa0a:	ea52 0643 	orrsne.w	r6, r2, r3, lsl #1
1001aa0e:	f47f aec5 	bne.w	1001a79c <__aeabi_dmul+0x19c>
1001aa12:	ea50 0441 	orrs.w	r4, r0, r1, lsl #1
1001aa16:	f47f af0d 	bne.w	1001a834 <__aeabi_dmul+0x234>
1001aa1a:	ea52 0543 	orrs.w	r5, r2, r3, lsl #1
1001aa1e:	f47f aeeb 	bne.w	1001a7f8 <__aeabi_dmul+0x1f8>
1001aa22:	e712      	b.n	1001a84a <__aeabi_dmul+0x24a>

1001aa24 <__gedf2>:
1001aa24:	f04f 3cff 	mov.w	ip, #4294967295	@ 0xffffffff
1001aa28:	e006      	b.n	1001aa38 <__cmpdf2+0x4>
1001aa2a:	bf00      	nop

1001aa2c <__ledf2>:
1001aa2c:	f04f 0c01 	mov.w	ip, #1
1001aa30:	e002      	b.n	1001aa38 <__cmpdf2+0x4>
1001aa32:	bf00      	nop

1001aa34 <__cmpdf2>:
1001aa34:	f04f 0c01 	mov.w	ip, #1
1001aa38:	f84d cd04 	str.w	ip, [sp, #-4]!
1001aa3c:	ea4f 0c41 	mov.w	ip, r1, lsl #1
1001aa40:	ea7f 5c6c 	mvns.w	ip, ip, asr #21
1001aa44:	ea4f 0c43 	mov.w	ip, r3, lsl #1
1001aa48:	bf18      	it	ne
1001aa4a:	ea7f 5c6c 	mvnsne.w	ip, ip, asr #21
1001aa4e:	d01b      	beq.n	1001aa88 <__cmpdf2+0x54>
1001aa50:	b001      	add	sp, #4
1001aa52:	ea50 0c41 	orrs.w	ip, r0, r1, lsl #1
1001aa56:	bf0c      	ite	eq
1001aa58:	ea52 0c43 	orrseq.w	ip, r2, r3, lsl #1
1001aa5c:	ea91 0f03 	teqne	r1, r3
1001aa60:	bf02      	ittt	eq
1001aa62:	ea90 0f02 	teqeq	r0, r2
1001aa66:	2000      	moveq	r0, #0
1001aa68:	4770      	bxeq	lr
1001aa6a:	f110 0f00 	cmn.w	r0, #0
1001aa6e:	ea91 0f03 	teq	r1, r3
1001aa72:	bf58      	it	pl
1001aa74:	4299      	cmppl	r1, r3
1001aa76:	bf08      	it	eq
1001aa78:	4290      	cmpeq	r0, r2
1001aa7a:	bf2c      	ite	cs
1001aa7c:	17d8      	asrcs	r0, r3, #31
1001aa7e:	ea6f 70e3 	mvncc.w	r0, r3, asr #31
1001aa82:	f040 0001 	orr.w	r0, r0, #1
1001aa86:	4770      	bx	lr
1001aa88:	ea4f 0c41 	mov.w	ip, r1, lsl #1
1001aa8c:	ea7f 5c6c 	mvns.w	ip, ip, asr #21
1001aa90:	d102      	bne.n	1001aa98 <__cmpdf2+0x64>
1001aa92:	ea50 3c01 	orrs.w	ip, r0, r1, lsl #12
1001aa96:	d107      	bne.n	1001aaa8 <__cmpdf2+0x74>
1001aa98:	ea4f 0c43 	mov.w	ip, r3, lsl #1
1001aa9c:	ea7f 5c6c 	mvns.w	ip, ip, asr #21
1001aaa0:	d1d6      	bne.n	1001aa50 <__cmpdf2+0x1c>
1001aaa2:	ea52 3c03 	orrs.w	ip, r2, r3, lsl #12
1001aaa6:	d0d3      	beq.n	1001aa50 <__cmpdf2+0x1c>
1001aaa8:	f85d 0b04 	ldr.w	r0, [sp], #4
1001aaac:	4770      	bx	lr
1001aaae:	bf00      	nop

1001aab0 <__aeabi_cdrcmple>:
1001aab0:	4684      	mov	ip, r0
1001aab2:	4610      	mov	r0, r2
1001aab4:	4662      	mov	r2, ip
1001aab6:	468c      	mov	ip, r1
1001aab8:	4619      	mov	r1, r3
1001aaba:	4663      	mov	r3, ip
1001aabc:	e000      	b.n	1001aac0 <__aeabi_cdcmpeq>
1001aabe:	bf00      	nop

1001aac0 <__aeabi_cdcmpeq>:
1001aac0:	b501      	push	{r0, lr}
1001aac2:	f7ff ffb7 	bl	1001aa34 <__cmpdf2>
1001aac6:	2800      	cmp	r0, #0
1001aac8:	bf48      	it	mi
1001aaca:	f110 0f00 	cmnmi.w	r0, #0
1001aace:	bd01      	pop	{r0, pc}

1001aad0 <__aeabi_dcmpeq>:
1001aad0:	f84d ed08 	str.w	lr, [sp, #-8]!
1001aad4:	f7ff fff4 	bl	1001aac0 <__aeabi_cdcmpeq>
1001aad8:	bf0c      	ite	eq
1001aada:	2001      	moveq	r0, #1
1001aadc:	2000      	movne	r0, #0
1001aade:	f85d fb08 	ldr.w	pc, [sp], #8
1001aae2:	bf00      	nop

1001aae4 <__aeabi_dcmplt>:
1001aae4:	f84d ed08 	str.w	lr, [sp, #-8]!
1001aae8:	f7ff ffea 	bl	1001aac0 <__aeabi_cdcmpeq>
1001aaec:	bf34      	ite	cc
1001aaee:	2001      	movcc	r0, #1
1001aaf0:	2000      	movcs	r0, #0
1001aaf2:	f85d fb08 	ldr.w	pc, [sp], #8
1001aaf6:	bf00      	nop

1001aaf8 <__aeabi_dcmple>:
1001aaf8:	f84d ed08 	str.w	lr, [sp, #-8]!
1001aafc:	f7ff ffe0 	bl	1001aac0 <__aeabi_cdcmpeq>
1001ab00:	bf94      	ite	ls
1001ab02:	2001      	movls	r0, #1
1001ab04:	2000      	movhi	r0, #0
1001ab06:	f85d fb08 	ldr.w	pc, [sp], #8
1001ab0a:	bf00      	nop

1001ab0c <__aeabi_dcmpge>:
1001ab0c:	f84d ed08 	str.w	lr, [sp, #-8]!
1001ab10:	f7ff ffce 	bl	1001aab0 <__aeabi_cdrcmple>
1001ab14:	bf94      	ite	ls
1001ab16:	2001      	movls	r0, #1
1001ab18:	2000      	movhi	r0, #0
1001ab1a:	f85d fb08 	ldr.w	pc, [sp], #8
1001ab1e:	bf00      	nop

1001ab20 <__aeabi_dcmpgt>:
1001ab20:	f84d ed08 	str.w	lr, [sp, #-8]!
1001ab24:	f7ff ffc4 	bl	1001aab0 <__aeabi_cdrcmple>
1001ab28:	bf34      	ite	cc
1001ab2a:	2001      	movcc	r0, #1
1001ab2c:	2000      	movcs	r0, #0
1001ab2e:	f85d fb08 	ldr.w	pc, [sp], #8
1001ab32:	bf00      	nop

1001ab34 <__aeabi_dcmpun>:
1001ab34:	ea4f 0c41 	mov.w	ip, r1, lsl #1
1001ab38:	ea7f 5c6c 	mvns.w	ip, ip, asr #21
1001ab3c:	d102      	bne.n	1001ab44 <__aeabi_dcmpun+0x10>
1001ab3e:	ea50 3c01 	orrs.w	ip, r0, r1, lsl #12
1001ab42:	d10a      	bne.n	1001ab5a <__aeabi_dcmpun+0x26>
1001ab44:	ea4f 0c43 	mov.w	ip, r3, lsl #1
1001ab48:	ea7f 5c6c 	mvns.w	ip, ip, asr #21
1001ab4c:	d102      	bne.n	1001ab54 <__aeabi_dcmpun+0x20>
1001ab4e:	ea52 3c03 	orrs.w	ip, r2, r3, lsl #12
1001ab52:	d102      	bne.n	1001ab5a <__aeabi_dcmpun+0x26>
1001ab54:	f04f 0000 	mov.w	r0, #0
1001ab58:	4770      	bx	lr
1001ab5a:	f04f 0001 	mov.w	r0, #1
1001ab5e:	4770      	bx	lr

1001ab60 <__aeabi_d2iz>:
1001ab60:	ea4f 0241 	mov.w	r2, r1, lsl #1
1001ab64:	f512 1200 	adds.w	r2, r2, #2097152	@ 0x200000
1001ab68:	d215      	bcs.n	1001ab96 <__aeabi_d2iz+0x36>
1001ab6a:	d511      	bpl.n	1001ab90 <__aeabi_d2iz+0x30>
1001ab6c:	f46f 7378 	mvn.w	r3, #992	@ 0x3e0
1001ab70:	ebb3 5262 	subs.w	r2, r3, r2, asr #21
1001ab74:	d912      	bls.n	1001ab9c <__aeabi_d2iz+0x3c>
1001ab76:	ea4f 23c1 	mov.w	r3, r1, lsl #11
1001ab7a:	f043 4300 	orr.w	r3, r3, #2147483648	@ 0x80000000
1001ab7e:	ea43 5350 	orr.w	r3, r3, r0, lsr #21
1001ab82:	f011 4f00 	tst.w	r1, #2147483648	@ 0x80000000
1001ab86:	fa23 f002 	lsr.w	r0, r3, r2
1001ab8a:	bf18      	it	ne
1001ab8c:	4240      	negne	r0, r0
1001ab8e:	4770      	bx	lr
1001ab90:	f04f 0000 	mov.w	r0, #0
1001ab94:	4770      	bx	lr
1001ab96:	ea50 3001 	orrs.w	r0, r0, r1, lsl #12
1001ab9a:	d105      	bne.n	1001aba8 <__aeabi_d2iz+0x48>
1001ab9c:	f011 4000 	ands.w	r0, r1, #2147483648	@ 0x80000000
1001aba0:	bf08      	it	eq
1001aba2:	f06f 4000 	mvneq.w	r0, #2147483648	@ 0x80000000
1001aba6:	4770      	bx	lr
1001aba8:	f04f 0000 	mov.w	r0, #0
1001abac:	4770      	bx	lr
1001abae:	bf00      	nop

1001abb0 <__aeabi_uldivmod>:
1001abb0:	b953      	cbnz	r3, 1001abc8 <__aeabi_uldivmod+0x18>
1001abb2:	b94a      	cbnz	r2, 1001abc8 <__aeabi_uldivmod+0x18>
1001abb4:	2900      	cmp	r1, #0
1001abb6:	bf08      	it	eq
1001abb8:	2800      	cmpeq	r0, #0
1001abba:	bf1c      	itt	ne
1001abbc:	f04f 31ff 	movne.w	r1, #4294967295	@ 0xffffffff
1001abc0:	f04f 30ff 	movne.w	r0, #4294967295	@ 0xffffffff
1001abc4:	f000 b96a 	b.w	1001ae9c <__aeabi_idiv0>
1001abc8:	f1ad 0c08 	sub.w	ip, sp, #8
1001abcc:	e96d ce04 	strd	ip, lr, [sp, #-16]!
1001abd0:	f000 f806 	bl	1001abe0 <__udivmoddi4>
1001abd4:	f8dd e004 	ldr.w	lr, [sp, #4]
1001abd8:	e9dd 2302 	ldrd	r2, r3, [sp, #8]
1001abdc:	b004      	add	sp, #16
1001abde:	4770      	bx	lr

1001abe0 <__udivmoddi4>:
1001abe0:	e92d 47f0 	stmdb	sp!, {r4, r5, r6, r7, r8, r9, sl, lr}
1001abe4:	9d08      	ldr	r5, [sp, #32]
1001abe6:	460c      	mov	r4, r1
1001abe8:	2b00      	cmp	r3, #0
1001abea:	d14e      	bne.n	1001ac8a <__udivmoddi4+0xaa>
1001abec:	4694      	mov	ip, r2
1001abee:	458c      	cmp	ip, r1
1001abf0:	4686      	mov	lr, r0
1001abf2:	fab2 f282 	clz	r2, r2
1001abf6:	d962      	bls.n	1001acbe <__udivmoddi4+0xde>
1001abf8:	b14a      	cbz	r2, 1001ac0e <__udivmoddi4+0x2e>
1001abfa:	f1c2 0320 	rsb	r3, r2, #32
1001abfe:	4091      	lsls	r1, r2
1001ac00:	fa20 f303 	lsr.w	r3, r0, r3
1001ac04:	fa0c fc02 	lsl.w	ip, ip, r2
1001ac08:	4319      	orrs	r1, r3
1001ac0a:	fa00 fe02 	lsl.w	lr, r0, r2
1001ac0e:	ea4f 471c 	mov.w	r7, ip, lsr #16
1001ac12:	fa1f f68c 	uxth.w	r6, ip
1001ac16:	fbb1 f4f7 	udiv	r4, r1, r7
1001ac1a:	ea4f 431e 	mov.w	r3, lr, lsr #16
1001ac1e:	fb07 1114 	mls	r1, r7, r4, r1
1001ac22:	ea43 4301 	orr.w	r3, r3, r1, lsl #16
1001ac26:	fb04 f106 	mul.w	r1, r4, r6
1001ac2a:	4299      	cmp	r1, r3
1001ac2c:	d90a      	bls.n	1001ac44 <__udivmoddi4+0x64>
1001ac2e:	eb1c 0303 	adds.w	r3, ip, r3
1001ac32:	f104 30ff 	add.w	r0, r4, #4294967295	@ 0xffffffff
1001ac36:	f080 8112 	bcs.w	1001ae5e <__udivmoddi4+0x27e>
1001ac3a:	4299      	cmp	r1, r3
1001ac3c:	f240 810f 	bls.w	1001ae5e <__udivmoddi4+0x27e>
1001ac40:	3c02      	subs	r4, #2
1001ac42:	4463      	add	r3, ip
1001ac44:	1a59      	subs	r1, r3, r1
1001ac46:	fa1f f38e 	uxth.w	r3, lr
1001ac4a:	fbb1 f0f7 	udiv	r0, r1, r7
1001ac4e:	fb07 1110 	mls	r1, r7, r0, r1
1001ac52:	ea43 4301 	orr.w	r3, r3, r1, lsl #16
1001ac56:	fb00 f606 	mul.w	r6, r0, r6
1001ac5a:	429e      	cmp	r6, r3
1001ac5c:	d90a      	bls.n	1001ac74 <__udivmoddi4+0x94>
1001ac5e:	eb1c 0303 	adds.w	r3, ip, r3
1001ac62:	f100 31ff 	add.w	r1, r0, #4294967295	@ 0xffffffff
1001ac66:	f080 80fc 	bcs.w	1001ae62 <__udivmoddi4+0x282>
1001ac6a:	429e      	cmp	r6, r3
1001ac6c:	f240 80f9 	bls.w	1001ae62 <__udivmoddi4+0x282>
1001ac70:	4463      	add	r3, ip
1001ac72:	3802      	subs	r0, #2
1001ac74:	1b9b      	subs	r3, r3, r6
1001ac76:	ea40 4004 	orr.w	r0, r0, r4, lsl #16
1001ac7a:	2100      	movs	r1, #0
1001ac7c:	b11d      	cbz	r5, 1001ac86 <__udivmoddi4+0xa6>
1001ac7e:	40d3      	lsrs	r3, r2
1001ac80:	2200      	movs	r2, #0
1001ac82:	e9c5 3200 	strd	r3, r2, [r5]
1001ac86:	e8bd 87f0 	ldmia.w	sp!, {r4, r5, r6, r7, r8, r9, sl, pc}
1001ac8a:	428b      	cmp	r3, r1
1001ac8c:	d905      	bls.n	1001ac9a <__udivmoddi4+0xba>
1001ac8e:	b10d      	cbz	r5, 1001ac94 <__udivmoddi4+0xb4>
1001ac90:	e9c5 0100 	strd	r0, r1, [r5]
1001ac94:	2100      	movs	r1, #0
1001ac96:	4608      	mov	r0, r1
1001ac98:	e7f5      	b.n	1001ac86 <__udivmoddi4+0xa6>
1001ac9a:	fab3 f183 	clz	r1, r3
1001ac9e:	2900      	cmp	r1, #0
1001aca0:	d146      	bne.n	1001ad30 <__udivmoddi4+0x150>
1001aca2:	42a3      	cmp	r3, r4
1001aca4:	d302      	bcc.n	1001acac <__udivmoddi4+0xcc>
1001aca6:	4290      	cmp	r0, r2
1001aca8:	f0c0 80f0 	bcc.w	1001ae8c <__udivmoddi4+0x2ac>
1001acac:	1a86      	subs	r6, r0, r2
1001acae:	eb64 0303 	sbc.w	r3, r4, r3
1001acb2:	2001      	movs	r0, #1
1001acb4:	2d00      	cmp	r5, #0
1001acb6:	d0e6      	beq.n	1001ac86 <__udivmoddi4+0xa6>
1001acb8:	e9c5 6300 	strd	r6, r3, [r5]
1001acbc:	e7e3      	b.n	1001ac86 <__udivmoddi4+0xa6>
1001acbe:	2a00      	cmp	r2, #0
1001acc0:	f040 8090 	bne.w	1001ade4 <__udivmoddi4+0x204>
1001acc4:	eba1 040c 	sub.w	r4, r1, ip
1001acc8:	ea4f 481c 	mov.w	r8, ip, lsr #16
1001accc:	fa1f f78c 	uxth.w	r7, ip
1001acd0:	2101      	movs	r1, #1
1001acd2:	fbb4 f6f8 	udiv	r6, r4, r8
1001acd6:	ea4f 431e 	mov.w	r3, lr, lsr #16
1001acda:	fb08 4416 	mls	r4, r8, r6, r4
1001acde:	ea43 4304 	orr.w	r3, r3, r4, lsl #16
1001ace2:	fb07 f006 	mul.w	r0, r7, r6
1001ace6:	4298      	cmp	r0, r3
1001ace8:	d908      	bls.n	1001acfc <__udivmoddi4+0x11c>
1001acea:	eb1c 0303 	adds.w	r3, ip, r3
1001acee:	f106 34ff 	add.w	r4, r6, #4294967295	@ 0xffffffff
1001acf2:	d202      	bcs.n	1001acfa <__udivmoddi4+0x11a>
1001acf4:	4298      	cmp	r0, r3
1001acf6:	f200 80cd 	bhi.w	1001ae94 <__udivmoddi4+0x2b4>
1001acfa:	4626      	mov	r6, r4
1001acfc:	1a1c      	subs	r4, r3, r0
1001acfe:	fa1f f38e 	uxth.w	r3, lr
1001ad02:	fbb4 f0f8 	udiv	r0, r4, r8
1001ad06:	fb08 4410 	mls	r4, r8, r0, r4
1001ad0a:	ea43 4304 	orr.w	r3, r3, r4, lsl #16
1001ad0e:	fb00 f707 	mul.w	r7, r0, r7
1001ad12:	429f      	cmp	r7, r3
1001ad14:	d908      	bls.n	1001ad28 <__udivmoddi4+0x148>
1001ad16:	eb1c 0303 	adds.w	r3, ip, r3
1001ad1a:	f100 34ff 	add.w	r4, r0, #4294967295	@ 0xffffffff
1001ad1e:	d202      	bcs.n	1001ad26 <__udivmoddi4+0x146>
1001ad20:	429f      	cmp	r7, r3
1001ad22:	f200 80b0 	bhi.w	1001ae86 <__udivmoddi4+0x2a6>
1001ad26:	4620      	mov	r0, r4
1001ad28:	1bdb      	subs	r3, r3, r7
1001ad2a:	ea40 4006 	orr.w	r0, r0, r6, lsl #16
1001ad2e:	e7a5      	b.n	1001ac7c <__udivmoddi4+0x9c>
1001ad30:	f1c1 0620 	rsb	r6, r1, #32
1001ad34:	408b      	lsls	r3, r1
1001ad36:	fa22 f706 	lsr.w	r7, r2, r6
1001ad3a:	431f      	orrs	r7, r3
1001ad3c:	fa20 fc06 	lsr.w	ip, r0, r6
1001ad40:	fa04 f301 	lsl.w	r3, r4, r1
1001ad44:	ea43 030c 	orr.w	r3, r3, ip
1001ad48:	40f4      	lsrs	r4, r6
1001ad4a:	fa00 f801 	lsl.w	r8, r0, r1
1001ad4e:	0c38      	lsrs	r0, r7, #16
1001ad50:	ea4f 4913 	mov.w	r9, r3, lsr #16
1001ad54:	fbb4 fef0 	udiv	lr, r4, r0
1001ad58:	fa1f fc87 	uxth.w	ip, r7
1001ad5c:	fb00 441e 	mls	r4, r0, lr, r4
1001ad60:	ea49 4404 	orr.w	r4, r9, r4, lsl #16
1001ad64:	fb0e f90c 	mul.w	r9, lr, ip
1001ad68:	45a1      	cmp	r9, r4
1001ad6a:	fa02 f201 	lsl.w	r2, r2, r1
1001ad6e:	d90a      	bls.n	1001ad86 <__udivmoddi4+0x1a6>
1001ad70:	193c      	adds	r4, r7, r4
1001ad72:	f10e 3aff 	add.w	sl, lr, #4294967295	@ 0xffffffff
1001ad76:	f080 8084 	bcs.w	1001ae82 <__udivmoddi4+0x2a2>
1001ad7a:	45a1      	cmp	r9, r4
1001ad7c:	f240 8081 	bls.w	1001ae82 <__udivmoddi4+0x2a2>
1001ad80:	f1ae 0e02 	sub.w	lr, lr, #2
1001ad84:	443c      	add	r4, r7
1001ad86:	eba4 0409 	sub.w	r4, r4, r9
1001ad8a:	fa1f f983 	uxth.w	r9, r3
1001ad8e:	fbb4 f3f0 	udiv	r3, r4, r0
1001ad92:	fb00 4413 	mls	r4, r0, r3, r4
1001ad96:	ea49 4404 	orr.w	r4, r9, r4, lsl #16
1001ad9a:	fb03 fc0c 	mul.w	ip, r3, ip
1001ad9e:	45a4      	cmp	ip, r4
1001ada0:	d907      	bls.n	1001adb2 <__udivmoddi4+0x1d2>
1001ada2:	193c      	adds	r4, r7, r4
1001ada4:	f103 30ff 	add.w	r0, r3, #4294967295	@ 0xffffffff
1001ada8:	d267      	bcs.n	1001ae7a <__udivmoddi4+0x29a>
1001adaa:	45a4      	cmp	ip, r4
1001adac:	d965      	bls.n	1001ae7a <__udivmoddi4+0x29a>
1001adae:	3b02      	subs	r3, #2
1001adb0:	443c      	add	r4, r7
1001adb2:	ea43 400e 	orr.w	r0, r3, lr, lsl #16
1001adb6:	fba0 9302 	umull	r9, r3, r0, r2
1001adba:	eba4 040c 	sub.w	r4, r4, ip
1001adbe:	429c      	cmp	r4, r3
1001adc0:	46ce      	mov	lr, r9
1001adc2:	469c      	mov	ip, r3
1001adc4:	d351      	bcc.n	1001ae6a <__udivmoddi4+0x28a>
1001adc6:	d04e      	beq.n	1001ae66 <__udivmoddi4+0x286>
1001adc8:	b155      	cbz	r5, 1001ade0 <__udivmoddi4+0x200>
1001adca:	ebb8 030e 	subs.w	r3, r8, lr
1001adce:	eb64 040c 	sbc.w	r4, r4, ip
1001add2:	fa04 f606 	lsl.w	r6, r4, r6
1001add6:	40cb      	lsrs	r3, r1
1001add8:	431e      	orrs	r6, r3
1001adda:	40cc      	lsrs	r4, r1
1001addc:	e9c5 6400 	strd	r6, r4, [r5]
1001ade0:	2100      	movs	r1, #0
1001ade2:	e750      	b.n	1001ac86 <__udivmoddi4+0xa6>
1001ade4:	f1c2 0320 	rsb	r3, r2, #32
1001ade8:	fa20 f103 	lsr.w	r1, r0, r3
1001adec:	fa0c fc02 	lsl.w	ip, ip, r2
1001adf0:	fa24 f303 	lsr.w	r3, r4, r3
1001adf4:	4094      	lsls	r4, r2
1001adf6:	430c      	orrs	r4, r1
1001adf8:	ea4f 481c 	mov.w	r8, ip, lsr #16
1001adfc:	fa00 fe02 	lsl.w	lr, r0, r2
1001ae00:	fa1f f78c 	uxth.w	r7, ip
1001ae04:	fbb3 f0f8 	udiv	r0, r3, r8
1001ae08:	fb08 3110 	mls	r1, r8, r0, r3
1001ae0c:	0c23      	lsrs	r3, r4, #16
1001ae0e:	ea43 4301 	orr.w	r3, r3, r1, lsl #16
1001ae12:	fb00 f107 	mul.w	r1, r0, r7
1001ae16:	4299      	cmp	r1, r3
1001ae18:	d908      	bls.n	1001ae2c <__udivmoddi4+0x24c>
1001ae1a:	eb1c 0303 	adds.w	r3, ip, r3
1001ae1e:	f100 36ff 	add.w	r6, r0, #4294967295	@ 0xffffffff
1001ae22:	d22c      	bcs.n	1001ae7e <__udivmoddi4+0x29e>
1001ae24:	4299      	cmp	r1, r3
1001ae26:	d92a      	bls.n	1001ae7e <__udivmoddi4+0x29e>
1001ae28:	3802      	subs	r0, #2
1001ae2a:	4463      	add	r3, ip
1001ae2c:	1a5b      	subs	r3, r3, r1
1001ae2e:	b2a4      	uxth	r4, r4
1001ae30:	fbb3 f1f8 	udiv	r1, r3, r8
1001ae34:	fb08 3311 	mls	r3, r8, r1, r3
1001ae38:	ea44 4403 	orr.w	r4, r4, r3, lsl #16
1001ae3c:	fb01 f307 	mul.w	r3, r1, r7
1001ae40:	42a3      	cmp	r3, r4
1001ae42:	d908      	bls.n	1001ae56 <__udivmoddi4+0x276>
1001ae44:	eb1c 0404 	adds.w	r4, ip, r4
1001ae48:	f101 36ff 	add.w	r6, r1, #4294967295	@ 0xffffffff
1001ae4c:	d213      	bcs.n	1001ae76 <__udivmoddi4+0x296>
1001ae4e:	42a3      	cmp	r3, r4
1001ae50:	d911      	bls.n	1001ae76 <__udivmoddi4+0x296>
1001ae52:	3902      	subs	r1, #2
1001ae54:	4464      	add	r4, ip
1001ae56:	1ae4      	subs	r4, r4, r3
1001ae58:	ea41 4100 	orr.w	r1, r1, r0, lsl #16
1001ae5c:	e739      	b.n	1001acd2 <__udivmoddi4+0xf2>
1001ae5e:	4604      	mov	r4, r0
1001ae60:	e6f0      	b.n	1001ac44 <__udivmoddi4+0x64>
1001ae62:	4608      	mov	r0, r1
1001ae64:	e706      	b.n	1001ac74 <__udivmoddi4+0x94>
1001ae66:	45c8      	cmp	r8, r9
1001ae68:	d2ae      	bcs.n	1001adc8 <__udivmoddi4+0x1e8>
1001ae6a:	ebb9 0e02 	subs.w	lr, r9, r2
1001ae6e:	eb63 0c07 	sbc.w	ip, r3, r7
1001ae72:	3801      	subs	r0, #1
1001ae74:	e7a8      	b.n	1001adc8 <__udivmoddi4+0x1e8>
1001ae76:	4631      	mov	r1, r6
1001ae78:	e7ed      	b.n	1001ae56 <__udivmoddi4+0x276>
1001ae7a:	4603      	mov	r3, r0
1001ae7c:	e799      	b.n	1001adb2 <__udivmoddi4+0x1d2>
1001ae7e:	4630      	mov	r0, r6
1001ae80:	e7d4      	b.n	1001ae2c <__udivmoddi4+0x24c>
1001ae82:	46d6      	mov	lr, sl
1001ae84:	e77f      	b.n	1001ad86 <__udivmoddi4+0x1a6>
1001ae86:	4463      	add	r3, ip
1001ae88:	3802      	subs	r0, #2
1001ae8a:	e74d      	b.n	1001ad28 <__udivmoddi4+0x148>
1001ae8c:	4606      	mov	r6, r0
1001ae8e:	4623      	mov	r3, r4
1001ae90:	4608      	mov	r0, r1
1001ae92:	e70f      	b.n	1001acb4 <__udivmoddi4+0xd4>
1001ae94:	3e02      	subs	r6, #2
1001ae96:	4463      	add	r3, ip
1001ae98:	e730      	b.n	1001acfc <__udivmoddi4+0x11c>
1001ae9a:	bf00      	nop

1001ae9c <__aeabi_idiv0>:
1001ae9c:	4770      	bx	lr
1001ae9e:	bf00      	nop
1001aea0:	746f6f42 	.word	0x746f6f42
1001aea4:	73656d20 	.word	0x73656d20
1001aea8:	65676173 	.word	0x65676173
1001aeac:	00000000 	.word	0x00000000
1001aeb0:	302f3830 	.word	0x302f3830
1001aeb4:	32312f38 	.word	0x32312f38
1001aeb8:	00000000 	.word	0x00000000
1001aebc:	6f786f78 	.word	0x6f786f78
1001aec0:	00006f78 	.word	0x00006f78
1001aec4:	3e434f4c 	.word	0x3e434f4c
1001aec8:	440a7325 	.word	0x440a7325
1001aecc:	3e455441 	.word	0x3e455441
1001aed0:	430a7325 	.word	0x430a7325
1001aed4:	3e545355 	.word	0x3e545355
1001aed8:	000a7325 	.word	0x000a7325
1001aedc:	74697266 	.word	0x74697266
1001aee0:	0000007a 	.word	0x0000007a
1001aee4:	6f727245 	.word	0x6f727245
1001aee8:	55203a72 	.word	0x55203a72
1001aeec:	6365726e 	.word	0x6365726e
1001aef0:	696e676f 	.word	0x696e676f
1001aef4:	2064657a 	.word	0x2064657a
1001aef8:	6d6d6f63 	.word	0x6d6d6f63
1001aefc:	20646e61 	.word	0x20646e61
1001af00:	65636572 	.word	0x65636572
1001af04:	64657669 	.word	0x64657669
1001af08:	0a642520 	.word	0x0a642520
1001af0c:	00000000 	.word	0x00000000
1001af10:	706d6f43 	.word	0x706d6f43
1001af14:	6e656e6f 	.word	0x6e656e6f
1001af18:	74532074 	.word	0x74532074
1001af1c:	65747261 	.word	0x65747261
1001af20:	00000064 	.word	0x00000064
1001af24:	6c696146 	.word	0x6c696146
1001af28:	74206465 	.word	0x74206465
1001af2c:	6e69206f 	.word	0x6e69206f
1001af30:	61697469 	.word	0x61697469
1001af34:	657a696c 	.word	0x657a696c
1001af38:	43324920 	.word	0x43324920
1001af3c:	0000002e 	.word	0x0000002e
1001af40:	5f43584d 	.word	0x5f43584d
1001af44:	45535341 	.word	0x45535341
1001af48:	25205452 	.word	0x25205452
1001af4c:	25232073 	.word	0x25232073
1001af50:	28203a64 	.word	0x28203a64
1001af54:	0a297325 	.word	0x0a297325
1001af58:	00000000 	.word	0x00000000
1001af5c:	6d6f682f 	.word	0x6d6f682f
1001af60:	72622f65 	.word	0x72622f65
1001af64:	6f747369 	.word	0x6f747369
1001af68:	72656870 	.word	0x72656870
1001af6c:	646f6f77 	.word	0x646f6f77
1001af70:	65442f73 	.word	0x65442f73
1001af74:	6f746b73 	.word	0x6f746b73
1001af78:	54432f70 	.word	0x54432f70
1001af7c:	4d2f7346 	.word	0x4d2f7346
1001af80:	45525449 	.word	0x45525449
1001af84:	7968732f 	.word	0x7968732f
1001af88:	7365645f 	.word	0x7365645f
1001af8c:	2f6e6769 	.word	0x2f6e6769
1001af90:	34323032 	.word	0x34323032
1001af94:	7463652d 	.word	0x7463652d
1001af98:	6e692d66 	.word	0x6e692d66
1001af9c:	75636573 	.word	0x75636573
1001afa0:	652d6572 	.word	0x652d6572
1001afa4:	706d6178 	.word	0x706d6178
1001afa8:	6d2f656c 	.word	0x6d2f656c
1001afac:	2f6b6473 	.word	0x2f6b6473
1001afb0:	7262694c 	.word	0x7262694c
1001afb4:	65697261 	.word	0x65697261
1001afb8:	6f422f73 	.word	0x6f422f73
1001afbc:	73647261 	.word	0x73647261
1001afc0:	58414d2f 	.word	0x58414d2f
1001afc4:	30303837 	.word	0x30303837
1001afc8:	54462f30 	.word	0x54462f30
1001afcc:	525f5248 	.word	0x525f5248
1001afd0:	2f417665 	.word	0x2f417665
1001afd4:	72756f53 	.word	0x72756f53
1001afd8:	622f6563 	.word	0x622f6563
1001afdc:	6472616f 	.word	0x6472616f
1001afe0:	0000632e 	.word	0x0000632e
1001afe4:	4c494146 	.word	0x4c494146
1001afe8:	00000000 	.word	0x00000000

1001afec <num_leds>:
1001afec:	00000003                                ....

1001aff0 <led_pin>:
1001aff0:	40080400 00000001 00010001 40080400     ...@...........@
1001b000:	00000002 00010001 40080400 00000004     ...........@....
1001b010:	00010001                                ....

1001b014 <num_pbs>:
1001b014:	00000002                                ....

1001b018 <pb_pin>:
1001b018:	40008000 00000004 00010100 40009000     ...@...........@
1001b028:	00000080 00010100 6d6f682f 72622f65     ......../home/br
1001b038:	6f747369 72656870 646f6f77 65442f73     istopherwoods/De
1001b048:	6f746b73 54432f70 4d2f7346 45525449     sktop/CTFs/MITRE
1001b058:	7968732f 7365645f 2f6e6769 34323032     /shy_design/2024
1001b068:	7463652d 6e692d66 75636573 652d6572     -ectf-insecure-e
1001b078:	706d6178 6d2f656c 2f6b6473 7262694c     xample/msdk/Libr
1001b088:	65697261 694d2f73 72446373 72657669     aries/MiscDriver
1001b098:	454c2f73 656c2f44 00632e64 20786469     s/LED/led.c.idx 
1001b0a8:	756e203c 656c5f6d 00007364              < num_leds..

1001b0b4 <gpio_cfg_extclk>:
1001b0b4:	40008000 00000008 00000002              ...@........

1001b0c0 <gpio_cfg_i2c0>:
1001b0c0:	40008000 00000c00 00000002              ...@........

1001b0cc <gpio_cfg_i2c1>:
1001b0cc:	40008000 00030000 00000002              ...@........

1001b0d8 <gpio_cfg_i2c2>:
1001b0d8:	40008000 c0000000 00000002              ...@........

1001b0e4 <gpio_cfg_uart0>:
1001b0e4:	40008000 00000003 00000002              ...@........

1001b0f0 <gpio_cfg_uart1>:
1001b0f0:	40008000 00003000 00000002              ...@.0......

1001b0fc <gpio_cfg_uart2>:
1001b0fc:	40009000 00000003 00000002              ...@........

1001b108 <gpio_cfg_uart3>:
1001b108:	40080400 000000c0 00000003 552f3a43     ...@........C:/U
1001b118:	73726573 61434a2f 72657472 65722f33     sers/JCarter3/re
1001b128:	2f736f70 6b726f66 64736d2f 694c2f6b     pos/fork/msdk/Li
1001b138:	72617262 2f736569 49534d43 2e2e2f53     braries/CMSIS/..
1001b148:	7265502f 44687069 65766972 532f7372     /PeriphDrivers/S
1001b158:	6372756f 50472f65 672f4f49 5f6f6970     ource/GPIO/gpio_
1001b168:	6d6d6f63 632e6e6f 00000000 74726f70     common.c....port
1001b178:	4d203c20 435f4358 475f4746 5f4f4950      < MXC_CFG_GPIO_
1001b188:	54534e49 45434e41 00000053 00464e49     INSTANCES...INF.
1001b198:	00666e69 004e414e 006e616e 33323130     inf.NAN.nan.0123
1001b1a8:	37363534 62613938 66656463 00000000     456789abcdef....
1001b1b8:	33323130 37363534 42413938 46454443     0123456789ABCDEF
1001b1c8:	00000000 6c756e28 0000296c 00000030     ....(null)..0...

1001b1d8 <zeroes.0>:
1001b1d8:	30303030 30303030 30303030 30303030     0000000000000000

1001b1e8 <blanks.1>:
1001b1e8:	20202020 20202020 20202020 20202020                     
1001b1f8:	435f434c 414c4c4f 00004554 435f434c     LC_COLLATE..LC_C
1001b208:	45505954 00000000 4d5f434c 54454e4f     TYPE....LC_MONET
1001b218:	00595241 4e5f434c 52454d55 00004349     ARY.LC_NUMERIC..
1001b228:	545f434c 00454d49 4d5f434c 41535345     LC_TIME.LC_MESSA
1001b238:	00534547 0000000a 69666e49 7974696e     GES.....Infinity
1001b248:	00000000 004e614e 6c6c6142 7320636f     ....NaN.Balloc s
1001b258:	65636375 64656465 00000000 7461642f     ucceeded..../dat
1001b268:	656a2f61 6e696b6e 6f772f73 70736b72     a/jenkins/worksp
1001b278:	2f656361 2d554e47 6c6f6f74 69616863     ace/GNU-toolchai
1001b288:	72612f6e 32312d6d 6372732f 77656e2f     n/arm-12/src/new
1001b298:	2d62696c 77677963 6e2f6e69 696c7765     lib-cygwin/newli
1001b2a8:	696c2f62 732f6362 696c6474 74642f62     b/libc/stdlib/dt
1001b2b8:	632e616f 00000000                       oa.c....

1001b2c0 <_ctype_>:
1001b2c0:	20202000 20202020 28282020 20282828     .         ((((( 
1001b2d0:	20202020 20202020 20202020 20202020                     
1001b2e0:	10108820 10101010 10101010 10101010      ...............
1001b2f0:	04040410 04040404 10040404 10101010     ................
1001b300:	41411010 41414141 01010101 01010101     ..AAAAAA........
1001b310:	01010101 01010101 01010101 10101010     ................
1001b320:	42421010 42424242 02020202 02020202     ..BBBBBB........
1001b330:	02020202 02020202 02020202 10101010     ................
1001b340:	00000020 00000000 00000000 00000000      ...............
	...

1001b3c4 <zeroes.0>:
1001b3c4:	30303030 30303030 30303030 30303030     0000000000000000

1001b3d4 <blanks.1>:
1001b3d4:	20202020 20202020 20202020 20202020                     

1001b3e4 <zeroes.0>:
1001b3e4:	30303030 30303030 30303030 30303030     0000000000000000

1001b3f4 <blanks.1>:
1001b3f4:	20202020 20202020 20202020 20202020                     
1001b404:	7566202c 6974636e 203a6e6f 00000000     , function: ....
1001b414:	65737361 6f697472 2522206e 66202273     assertion "%s" f
1001b424:	656c6961 66203a64 20656c69 22732522     ailed: file "%s"
1001b434:	696c202c 2520656e 25732564 00000a73     , line %d%s%s...
1001b444:	7461642f 656a2f61 6e696b6e 6f772f73     /data/jenkins/wo
1001b454:	70736b72 2f656361 2d554e47 6c6f6f74     rkspace/GNU-tool
1001b464:	69616863 72612f6e 32312d6d 6372732f     chain/arm-12/src
1001b474:	77656e2f 2d62696c 77677963 6e2f6e69     /newlib-cygwin/n
1001b484:	696c7765 696c2f62 732f6362 696c6474     ewlib/libc/stdli
1001b494:	706d2f62 2e636572 00000063              b/mprec.c...

1001b4a0 <p05.0>:
1001b4a0:	00000005 00000019 0000007d 00000000     ........}.......

1001b4b0 <__mprec_bigtens>:
1001b4b0:	37e08000 4341c379 b5056e17 4693b8b5     ...7y.AC.n.....F
1001b4c0:	e93ff9f5 4d384f03 f9301d32 5a827748     ..?..O8M2.0.Hw.Z
1001b4d0:	7f73bf3c 75154fdd                       <.s..O.u

1001b4d8 <__mprec_tens>:
1001b4d8:	00000000 3ff00000 00000000 40240000     .......?......$@
1001b4e8:	00000000 40590000 00000000 408f4000     ......Y@.....@.@
1001b4f8:	00000000 40c38800 00000000 40f86a00     .......@.....j.@
1001b508:	00000000 412e8480 00000000 416312d0     .......A......cA
1001b518:	00000000 4197d784 00000000 41cdcd65     .......A....e..A
1001b528:	20000000 4202a05f e8000000 42374876     ... _..B....vH7B
1001b538:	a2000000 426d1a94 e5400000 42a2309c     ......mB..@..0.B
1001b548:	1e900000 42d6bcc4 26340000 430c6bf5     .......B..4&.k.C
1001b558:	37e08000 4341c379 85d8a000 43763457     ...7y.AC....W4vC
1001b568:	674ec800 43abc16d 60913d00 43e158e4     ..Ngm..C.=.`.X.C
1001b578:	78b58c40 4415af1d d6e2ef50 444b1ae4     @..x...DP.....KD
1001b588:	064dd592 4480f0cf c7e14af6 44b52d02     ..M....D.J...-.D
1001b598:	79d99db4 44ea7843                       ...yCx.D

1001b5a0 <_init>:
1001b5a0:	b5f8      	push	{r3, r4, r5, r6, r7, lr}
1001b5a2:	bf00      	nop
1001b5a4:	bcf8      	pop	{r3, r4, r5, r6, r7}
1001b5a6:	bc08      	pop	{r3}
1001b5a8:	469e      	mov	lr, r3
1001b5aa:	4770      	bx	lr

1001b5ac <_fini>:
1001b5ac:	b5f8      	push	{r3, r4, r5, r6, r7, lr}
1001b5ae:	bf00      	nop
1001b5b0:	bcf8      	pop	{r3, r4, r5, r6, r7}
1001b5b2:	bc08      	pop	{r3}
1001b5b4:	469e      	mov	lr, r3
1001b5b6:	4770      	bx	lr

1001b5b8 <__EH_FRAME_BEGIN__>:
1001b5b8:	0010 0000 0000 0000 7a01 0052 7c02 010e     .........zR..|..
1001b5c8:	0c1b 000d 0038 0000 0018 0000 9e4c ffff     ....8.......L...
1001b5d8:	009e 0000 5100 100e 0484 0385 0286 0187     .....Q..........
1001b5e8:	c75b c5c6 0ec4 4c00 420a 0a0b 0b42 100e     [......L.B..B...
1001b5f8:	0484 0385 0286 0187 c751 c5c6 0ec4 0000     ........Q.......
1001b608:	0010 0000 0000 0000 7a01 0052 7c02 010e     .........zR..|..
1001b618:	0c1b 000d 0014 0000 0018 0000 9e9c ffff     ................
1001b628:	0134 0000 0200 0a71 0b43 0000 0010 0000     4.....q.C.......
1001b638:	0000 0000 7a01 0052 7c02 010e 0c1b 000d     .....zR..|......
1001b648:	001c 0000 0018 0000 9fb0 ffff 00d8 0000     ................
1001b658:	4100 080e 0185 0284 4902 4a0a c4c5 0b41     .A.......I.J..A.

1001b668 <__FRAME_END__>:
1001b668:	0000 0000                                   ....
